ARM GAS  C:\Users\kateb\AppData\Local\Temp\cciDLH78.s 			page 1


   1              		.syntax unified
   2              		.cpu cortex-m4
   3              		.eabi_attribute 27, 1
   4              		.fpu fpv4-sp-d16
   5              		.eabi_attribute 20, 1
   6              		.eabi_attribute 21, 1
   7              		.eabi_attribute 23, 3
   8              		.eabi_attribute 24, 1
   9              		.eabi_attribute 25, 1
  10              		.eabi_attribute 26, 1
  11              		.eabi_attribute 30, 1
  12              		.eabi_attribute 34, 1
  13              		.eabi_attribute 18, 4
  14              		.thumb
  15              		.syntax unified
  16              		.file	"cy_ble.c"
  17              		.text
  18              	.Ltext0:
  19              		.cfi_sections	.debug_frame
  20              		.section	.text.Cy_BLE_DeepSleepCallback,"ax",%progbits
  21              		.align	2
  22              		.global	Cy_BLE_DeepSleepCallback
  23              		.thumb
  24              		.thumb_func
  25              		.type	Cy_BLE_DeepSleepCallback, %function
  26              	Cy_BLE_DeepSleepCallback:
  27              	.LFB255:
  28              		.file 1 "Generated_Source\\PSoC6\\pdl\\middleware\\ble\\cy_ble.c"
   1:Generated_Source\PSoC6\pdl\middleware\ble/cy_ble.c **** /***************************************************************************//**
   2:Generated_Source\PSoC6\pdl\middleware\ble/cy_ble.c **** * \file cy_ble.c
   3:Generated_Source\PSoC6\pdl\middleware\ble/cy_ble.c **** * \version 2.20
   4:Generated_Source\PSoC6\pdl\middleware\ble/cy_ble.c **** *
   5:Generated_Source\PSoC6\pdl\middleware\ble/cy_ble.c **** * \brief
   6:Generated_Source\PSoC6\pdl\middleware\ble/cy_ble.c **** *  This file contains the source code for the API of the BLE Middleware.
   7:Generated_Source\PSoC6\pdl\middleware\ble/cy_ble.c **** *
   8:Generated_Source\PSoC6\pdl\middleware\ble/cy_ble.c **** ********************************************************************************
   9:Generated_Source\PSoC6\pdl\middleware\ble/cy_ble.c **** * \copyright
  10:Generated_Source\PSoC6\pdl\middleware\ble/cy_ble.c **** * Copyright 2017-2018, Cypress Semiconductor Corporation.  All rights reserved.
  11:Generated_Source\PSoC6\pdl\middleware\ble/cy_ble.c **** * You may use this file only in accordance with the license, terms, conditions,
  12:Generated_Source\PSoC6\pdl\middleware\ble/cy_ble.c **** * disclaimers, and limitations in the end user license agreement accompanying
  13:Generated_Source\PSoC6\pdl\middleware\ble/cy_ble.c **** * the software package with which this file was provided.
  14:Generated_Source\PSoC6\pdl\middleware\ble/cy_ble.c **** *******************************************************************************/
  15:Generated_Source\PSoC6\pdl\middleware\ble/cy_ble.c **** 
  16:Generated_Source\PSoC6\pdl\middleware\ble/cy_ble.c **** #include "cy_ble_event_handler.h"
  17:Generated_Source\PSoC6\pdl\middleware\ble/cy_ble.c **** #include "cy_ble_hal_pvt.h"
  18:Generated_Source\PSoC6\pdl\middleware\ble/cy_ble.c **** #include "cy_ipc_config.h"
  19:Generated_Source\PSoC6\pdl\middleware\ble/cy_ble.c **** #include "ipc/cy_ipc_sema.h"
  20:Generated_Source\PSoC6\pdl\middleware\ble/cy_ble.c **** #include <stdlib.h>
  21:Generated_Source\PSoC6\pdl\middleware\ble/cy_ble.c **** 
  22:Generated_Source\PSoC6\pdl\middleware\ble/cy_ble.c **** /* C binding of definitions if building with C++ compiler */
  23:Generated_Source\PSoC6\pdl\middleware\ble/cy_ble.c **** #ifdef __cplusplus
  24:Generated_Source\PSoC6\pdl\middleware\ble/cy_ble.c **** extern "C" {
  25:Generated_Source\PSoC6\pdl\middleware\ble/cy_ble.c **** #endif /* __cplusplus */
  26:Generated_Source\PSoC6\pdl\middleware\ble/cy_ble.c **** 
  27:Generated_Source\PSoC6\pdl\middleware\ble/cy_ble.c **** #if (CY_BLE_HOST_CONTR_CORE)
  28:Generated_Source\PSoC6\pdl\middleware\ble/cy_ble.c **** 
  29:Generated_Source\PSoC6\pdl\middleware\ble/cy_ble.c **** /***************************************
ARM GAS  C:\Users\kateb\AppData\Local\Temp\cciDLH78.s 			page 2


  30:Generated_Source\PSoC6\pdl\middleware\ble/cy_ble.c **** * Global Variables
  31:Generated_Source\PSoC6\pdl\middleware\ble/cy_ble.c **** ***************************************/
  32:Generated_Source\PSoC6\pdl\middleware\ble/cy_ble.c **** 
  33:Generated_Source\PSoC6\pdl\middleware\ble/cy_ble.c **** /* Allocate RAM memory for the stack. This buffer can be reused by the application when
  34:Generated_Source\PSoC6\pdl\middleware\ble/cy_ble.c ****  * the BLE Middleware is stopped. For the export mode, the buffer is allocated in a heap.
  35:Generated_Source\PSoC6\pdl\middleware\ble/cy_ble.c ****  */
  36:Generated_Source\PSoC6\pdl\middleware\ble/cy_ble.c **** #if (CY_BLE_SHARING_MODE_EXPORT)
  37:Generated_Source\PSoC6\pdl\middleware\ble/cy_ble.c **** uint8_t *cy_ble_stackMemoryRam = NULL;
  38:Generated_Source\PSoC6\pdl\middleware\ble/cy_ble.c **** #else
  39:Generated_Source\PSoC6\pdl\middleware\ble/cy_ble.c **** CY_ALIGN(sizeof(uint32_t)) CY_NOINIT uint8_t cy_ble_stackMemoryRam[CY_BLE_STACK_RAM_SIZE];
  40:Generated_Source\PSoC6\pdl\middleware\ble/cy_ble.c **** #endif  /* CY_BLE_SHARING_MODE_EXPORT */
  41:Generated_Source\PSoC6\pdl\middleware\ble/cy_ble.c **** 
  42:Generated_Source\PSoC6\pdl\middleware\ble/cy_ble.c **** #if (CY_BLE_MODE_PROFILE)
  43:Generated_Source\PSoC6\pdl\middleware\ble/cy_ble.c **** /** An application layer event callback function to receive service events from the BLE Middleware.
  44:Generated_Source\PSoC6\pdl\middleware\ble/cy_ble.c **** cy_ble_callback_t Cy_BLE_ApplCallback = NULL;
  45:Generated_Source\PSoC6\pdl\middleware\ble/cy_ble.c ****     
  46:Generated_Source\PSoC6\pdl\middleware\ble/cy_ble.c **** /* BLE application IPC notification handler */
  47:Generated_Source\PSoC6\pdl\middleware\ble/cy_ble.c **** cy_ble_app_notify_callback_t Cy_BLE_HostRegisteredCallback = NULL;     
  48:Generated_Source\PSoC6\pdl\middleware\ble/cy_ble.c **** #endif  /* (CY_BLE_MODE_PROFILE) */
  49:Generated_Source\PSoC6\pdl\middleware\ble/cy_ble.c **** 
  50:Generated_Source\PSoC6\pdl\middleware\ble/cy_ble.c **** #if(CY_BLE_SHARING_MODE != CY_BLE_SHARING_IMPORT)
  51:Generated_Source\PSoC6\pdl\middleware\ble/cy_ble.c **** /** Pointer to the global BLE Config structures */
  52:Generated_Source\PSoC6\pdl\middleware\ble/cy_ble.c **** cy_stc_ble_config_t *cy_ble_configPtr = NULL;
  53:Generated_Source\PSoC6\pdl\middleware\ble/cy_ble.c **** #endif /* CY_BLE_SHARING_MODE != CY_BLE_SHARING_IMPORT */
  54:Generated_Source\PSoC6\pdl\middleware\ble/cy_ble.c **** 
  55:Generated_Source\PSoC6\pdl\middleware\ble/cy_ble.c **** #if (CY_BLE_USE_DEEP_SLEEP != 0u)
  56:Generated_Source\PSoC6\pdl\middleware\ble/cy_ble.c ****   /* Structure with the syspm callback parameters for BLE deep-sleep */
  57:Generated_Source\PSoC6\pdl\middleware\ble/cy_ble.c ****   static cy_stc_syspm_callback_params_t bleDeepSleepCallbackParams = { .base = NULL};
  58:Generated_Source\PSoC6\pdl\middleware\ble/cy_ble.c ****   static cy_stc_syspm_callback_t bleDeepSleepCallback =
  59:Generated_Source\PSoC6\pdl\middleware\ble/cy_ble.c ****   {
  60:Generated_Source\PSoC6\pdl\middleware\ble/cy_ble.c ****     .callback = &Cy_BLE_DeepSleepCallback,
  61:Generated_Source\PSoC6\pdl\middleware\ble/cy_ble.c ****     .type = CY_SYSPM_DEEPSLEEP,
  62:Generated_Source\PSoC6\pdl\middleware\ble/cy_ble.c ****     .skipMode = CY_SYSPM_SKIP_BEFORE_TRANSITION | CY_SYSPM_SKIP_CHECK_FAIL,
  63:Generated_Source\PSoC6\pdl\middleware\ble/cy_ble.c ****     .callbackParams = &bleDeepSleepCallbackParams
  64:Generated_Source\PSoC6\pdl\middleware\ble/cy_ble.c ****   };
  65:Generated_Source\PSoC6\pdl\middleware\ble/cy_ble.c **** 
  66:Generated_Source\PSoC6\pdl\middleware\ble/cy_ble.c ****   /* Structure with the syspm callback parameters for BLE sleep */
  67:Generated_Source\PSoC6\pdl\middleware\ble/cy_ble.c **** #if(CY_BLE_STACK_MODE_HOST_IPC)
  68:Generated_Source\PSoC6\pdl\middleware\ble/cy_ble.c ****   static cy_stc_syspm_callback_params_t bleSleepCallbackParams = { .base = NULL};
  69:Generated_Source\PSoC6\pdl\middleware\ble/cy_ble.c ****   static cy_stc_syspm_callback_t bleSleepCallback =
  70:Generated_Source\PSoC6\pdl\middleware\ble/cy_ble.c ****   {
  71:Generated_Source\PSoC6\pdl\middleware\ble/cy_ble.c ****     .callback = &Cy_BLE_SleepCallback,
  72:Generated_Source\PSoC6\pdl\middleware\ble/cy_ble.c ****     .type = CY_SYSPM_SLEEP,
  73:Generated_Source\PSoC6\pdl\middleware\ble/cy_ble.c ****     .skipMode = CY_SYSPM_SKIP_BEFORE_TRANSITION | CY_SYSPM_SKIP_CHECK_FAIL,
  74:Generated_Source\PSoC6\pdl\middleware\ble/cy_ble.c ****     .callbackParams = &bleSleepCallbackParams
  75:Generated_Source\PSoC6\pdl\middleware\ble/cy_ble.c ****   };
  76:Generated_Source\PSoC6\pdl\middleware\ble/cy_ble.c **** #endif /* CY_BLE_STACK_MODE_HOST_IPC */
  77:Generated_Source\PSoC6\pdl\middleware\ble/cy_ble.c **** #endif  /* (CY_BLE_USE_DEEP_SLEEP != 0u) */
  78:Generated_Source\PSoC6\pdl\middleware\ble/cy_ble.c **** 
  79:Generated_Source\PSoC6\pdl\middleware\ble/cy_ble.c **** #if (CY_BLE_INTR_NOTIFY_FEATURE_ENABLED) && (CY_BLE_MODE_PROFILE)
  80:Generated_Source\PSoC6\pdl\middleware\ble/cy_ble.c **** /** BLE interrupt notification structure */
  81:Generated_Source\PSoC6\pdl\middleware\ble/cy_ble.c **** cy_stc_ble_intr_notify_t intrNotify = 
  82:Generated_Source\PSoC6\pdl\middleware\ble/cy_ble.c ****         {
  83:Generated_Source\PSoC6\pdl\middleware\ble/cy_ble.c ****             .clientID = CY_BLE_CYPIPE_MSG_INTR_NOTIFY_ID,
  84:Generated_Source\PSoC6\pdl\middleware\ble/cy_ble.c ****             .pktType  = 0xFFu
  85:Generated_Source\PSoC6\pdl\middleware\ble/cy_ble.c ****         };
  86:Generated_Source\PSoC6\pdl\middleware\ble/cy_ble.c **** #endif /*(CY_BLE_INTR_NOTIFY_FEATURE_ENABLED) && (CY_BLE_MODE_PROFILE) */
ARM GAS  C:\Users\kateb\AppData\Local\Temp\cciDLH78.s 			page 3


  87:Generated_Source\PSoC6\pdl\middleware\ble/cy_ble.c **** 
  88:Generated_Source\PSoC6\pdl\middleware\ble/cy_ble.c **** 
  89:Generated_Source\PSoC6\pdl\middleware\ble/cy_ble.c **** /******************************************************************************
  90:Generated_Source\PSoC6\pdl\middleware\ble/cy_ble.c **** * Function Name: Cy_BLE_UnregisterHostPMCallbacks
  91:Generated_Source\PSoC6\pdl\middleware\ble/cy_ble.c **** ***************************************************************************//**
  92:Generated_Source\PSoC6\pdl\middleware\ble/cy_ble.c **** *
  93:Generated_Source\PSoC6\pdl\middleware\ble/cy_ble.c **** *  Unregister BLE callback for Deepsleep/Sleep
  94:Generated_Source\PSoC6\pdl\middleware\ble/cy_ble.c **** *
  95:Generated_Source\PSoC6\pdl\middleware\ble/cy_ble.c **** ******************************************************************************/
  96:Generated_Source\PSoC6\pdl\middleware\ble/cy_ble.c **** void Cy_BLE_UnregisterHostPMCallbacks(void)
  97:Generated_Source\PSoC6\pdl\middleware\ble/cy_ble.c **** {
  98:Generated_Source\PSoC6\pdl\middleware\ble/cy_ble.c ****     #if (CY_BLE_USE_DEEP_SLEEP != 0u)
  99:Generated_Source\PSoC6\pdl\middleware\ble/cy_ble.c ****         /* Unregister BLE callback for Deepsleep support */
 100:Generated_Source\PSoC6\pdl\middleware\ble/cy_ble.c ****         (void)Cy_SysPm_UnregisterCallback(&bleDeepSleepCallback);
 101:Generated_Source\PSoC6\pdl\middleware\ble/cy_ble.c ****         
 102:Generated_Source\PSoC6\pdl\middleware\ble/cy_ble.c ****         /* Unregister sleep mode callback only in dual core mode for the host core */
 103:Generated_Source\PSoC6\pdl\middleware\ble/cy_ble.c ****         #if(CY_BLE_STACK_MODE_HOST_IPC)
 104:Generated_Source\PSoC6\pdl\middleware\ble/cy_ble.c ****             /* Unregister BLE callback for Sleep support */
 105:Generated_Source\PSoC6\pdl\middleware\ble/cy_ble.c ****             (void)Cy_SysPm_UnregisterCallback(&bleSleepCallback);
 106:Generated_Source\PSoC6\pdl\middleware\ble/cy_ble.c ****         #endif /* ( CY_BLE_STACK_MODE_HOST_IPC) */
 107:Generated_Source\PSoC6\pdl\middleware\ble/cy_ble.c ****     #endif /* (CY_BLE_USE_DEEP_SLEEP != 0u) */
 108:Generated_Source\PSoC6\pdl\middleware\ble/cy_ble.c **** }
 109:Generated_Source\PSoC6\pdl\middleware\ble/cy_ble.c **** 
 110:Generated_Source\PSoC6\pdl\middleware\ble/cy_ble.c **** /**
 111:Generated_Source\PSoC6\pdl\middleware\ble/cy_ble.c ****  * \addtogroup group_ble_common_api_functions
 112:Generated_Source\PSoC6\pdl\middleware\ble/cy_ble.c ****  * @{
 113:Generated_Source\PSoC6\pdl\middleware\ble/cy_ble.c ****  */
 114:Generated_Source\PSoC6\pdl\middleware\ble/cy_ble.c **** 
 115:Generated_Source\PSoC6\pdl\middleware\ble/cy_ble.c **** /******************************************************************************
 116:Generated_Source\PSoC6\pdl\middleware\ble/cy_ble.c **** * Function Name: Cy_BLE_Init
 117:Generated_Source\PSoC6\pdl\middleware\ble/cy_ble.c **** ***************************************************************************//**
 118:Generated_Source\PSoC6\pdl\middleware\ble/cy_ble.c **** *
 119:Generated_Source\PSoC6\pdl\middleware\ble/cy_ble.c **** *  Initializes the BLE Middleware.
 120:Generated_Source\PSoC6\pdl\middleware\ble/cy_ble.c **** *  
 121:Generated_Source\PSoC6\pdl\middleware\ble/cy_ble.c **** *
 122:Generated_Source\PSoC6\pdl\middleware\ble/cy_ble.c **** *  \param config: The configuration structure for the BLE Middleware.
 123:Generated_Source\PSoC6\pdl\middleware\ble/cy_ble.c **** *
 124:Generated_Source\PSoC6\pdl\middleware\ble/cy_ble.c **** * \return
 125:Generated_Source\PSoC6\pdl\middleware\ble/cy_ble.c **** * \ref cy_en_ble_api_result_t : Return value indicates if the function succeeded or
 126:Generated_Source\PSoC6\pdl\middleware\ble/cy_ble.c **** *  failed. The following are possible error codes.
 127:Generated_Source\PSoC6\pdl\middleware\ble/cy_ble.c **** *
 128:Generated_Source\PSoC6\pdl\middleware\ble/cy_ble.c **** *   Error codes                     | Description
 129:Generated_Source\PSoC6\pdl\middleware\ble/cy_ble.c **** *   ------------                    | -----------
 130:Generated_Source\PSoC6\pdl\middleware\ble/cy_ble.c **** *   CY_BLE_SUCCESS                  | The function completed successfully.
 131:Generated_Source\PSoC6\pdl\middleware\ble/cy_ble.c **** *   CY_BLE_ERROR_INVALID_PARAMETER  | On specifying NULL as the input parameter.
 132:Generated_Source\PSoC6\pdl\middleware\ble/cy_ble.c **** *
 133:Generated_Source\PSoC6\pdl\middleware\ble/cy_ble.c **** ******************************************************************************/
 134:Generated_Source\PSoC6\pdl\middleware\ble/cy_ble.c **** cy_en_ble_api_result_t Cy_BLE_Init(cy_stc_ble_config_t *config)
 135:Generated_Source\PSoC6\pdl\middleware\ble/cy_ble.c **** {
 136:Generated_Source\PSoC6\pdl\middleware\ble/cy_ble.c ****     cy_en_ble_api_result_t apiResult = CY_BLE_SUCCESS;
 137:Generated_Source\PSoC6\pdl\middleware\ble/cy_ble.c **** 
 138:Generated_Source\PSoC6\pdl\middleware\ble/cy_ble.c ****     if(config == NULL)
 139:Generated_Source\PSoC6\pdl\middleware\ble/cy_ble.c ****     {
 140:Generated_Source\PSoC6\pdl\middleware\ble/cy_ble.c ****         apiResult = CY_BLE_ERROR_INVALID_PARAMETER;
 141:Generated_Source\PSoC6\pdl\middleware\ble/cy_ble.c ****     }
 142:Generated_Source\PSoC6\pdl\middleware\ble/cy_ble.c ****     else
 143:Generated_Source\PSoC6\pdl\middleware\ble/cy_ble.c ****     {
ARM GAS  C:\Users\kateb\AppData\Local\Temp\cciDLH78.s 			page 4


 144:Generated_Source\PSoC6\pdl\middleware\ble/cy_ble.c ****         /* Register a pointer to the config structure */
 145:Generated_Source\PSoC6\pdl\middleware\ble/cy_ble.c ****         cy_ble_configPtr = config;
 146:Generated_Source\PSoC6\pdl\middleware\ble/cy_ble.c **** 
 147:Generated_Source\PSoC6\pdl\middleware\ble/cy_ble.c ****     #if (CY_BLE_MODE_PROFILE)
 148:Generated_Source\PSoC6\pdl\middleware\ble/cy_ble.c ****         /* Register a callback function via the config structure */
 149:Generated_Source\PSoC6\pdl\middleware\ble/cy_ble.c ****         if(cy_ble_configPtr->callbackFunc != NULL)
 150:Generated_Source\PSoC6\pdl\middleware\ble/cy_ble.c ****         {
 151:Generated_Source\PSoC6\pdl\middleware\ble/cy_ble.c ****             Cy_BLE_ApplCallback = cy_ble_configPtr->callbackFunc;
 152:Generated_Source\PSoC6\pdl\middleware\ble/cy_ble.c ****         }
 153:Generated_Source\PSoC6\pdl\middleware\ble/cy_ble.c ****         cy_ble_eventHandlerFlag = 0u;
 154:Generated_Source\PSoC6\pdl\middleware\ble/cy_ble.c ****         (void)memset((uint8_t*)&cy_ble_busyStatus, 0, sizeof(cy_ble_busyStatus));
 155:Generated_Source\PSoC6\pdl\middleware\ble/cy_ble.c **** 
 156:Generated_Source\PSoC6\pdl\middleware\ble/cy_ble.c ****         cy_ble_cmdStatus = 0u;
 157:Generated_Source\PSoC6\pdl\middleware\ble/cy_ble.c ****         
 158:Generated_Source\PSoC6\pdl\middleware\ble/cy_ble.c ****         #if (CY_BLE_GATT_ROLE_CLIENT)
 159:Generated_Source\PSoC6\pdl\middleware\ble/cy_ble.c ****         {
 160:Generated_Source\PSoC6\pdl\middleware\ble/cy_ble.c ****             uint32_t idx;
 161:Generated_Source\PSoC6\pdl\middleware\ble/cy_ble.c ****             (void)memset(&cy_ble_serverInfo, 0, sizeof(cy_ble_serverInfo));
 162:Generated_Source\PSoC6\pdl\middleware\ble/cy_ble.c ****             (void)memset(cy_ble_connHandle, -1, sizeof(cy_ble_connHandle));
 163:Generated_Source\PSoC6\pdl\middleware\ble/cy_ble.c ****             (void)memset(&cy_ble_discovery, 0, sizeof(cy_ble_discovery));
 164:Generated_Source\PSoC6\pdl\middleware\ble/cy_ble.c **** 
 165:Generated_Source\PSoC6\pdl\middleware\ble/cy_ble.c ****             /* Update cy_ble_discovery[].connIndex with init values (CY_BLE_INVALID_CONN_HANDLE_VAL
 166:Generated_Source\PSoC6\pdl\middleware\ble/cy_ble.c ****             for(idx = 0u; idx < CY_BLE_GATTC_COUNT; idx++)
 167:Generated_Source\PSoC6\pdl\middleware\ble/cy_ble.c ****             {
 168:Generated_Source\PSoC6\pdl\middleware\ble/cy_ble.c ****                 cy_ble_discovery[idx].connIndex = CY_BLE_INVALID_CONN_HANDLE_VALUE;
 169:Generated_Source\PSoC6\pdl\middleware\ble/cy_ble.c ****             }
 170:Generated_Source\PSoC6\pdl\middleware\ble/cy_ble.c ****         }
 171:Generated_Source\PSoC6\pdl\middleware\ble/cy_ble.c ****         #endif /* CY_BLE_GATT_ROLE_CLIENT */
 172:Generated_Source\PSoC6\pdl\middleware\ble/cy_ble.c **** 
 173:Generated_Source\PSoC6\pdl\middleware\ble/cy_ble.c ****         #if (CY_BLE_GAP_ROLE_PERIPHERAL || CY_BLE_GAP_ROLE_BROADCASTER)
 174:Generated_Source\PSoC6\pdl\middleware\ble/cy_ble.c ****         cy_ble_advertisingIntervalType = CY_BLE_ADVERTISING_FAST;
 175:Generated_Source\PSoC6\pdl\middleware\ble/cy_ble.c ****         #endif /* (CY_BLE_GAP_ROLE_PERIPHERAL || CY_BLE_GAP_ROLE_BROADCASTER)  */
 176:Generated_Source\PSoC6\pdl\middleware\ble/cy_ble.c **** 
 177:Generated_Source\PSoC6\pdl\middleware\ble/cy_ble.c ****         #if (CY_BLE_GAP_ROLE_CENTRAL || CY_BLE_GAP_ROLE_OBSERVER)
 178:Generated_Source\PSoC6\pdl\middleware\ble/cy_ble.c ****         cy_ble_scanningIntervalType = CY_BLE_SCANNING_FAST;
 179:Generated_Source\PSoC6\pdl\middleware\ble/cy_ble.c ****         #endif /* (CY_BLE_GAP_ROLE_CENTRAL || CY_BLE_GAP_ROLE_OBSERVER) */
 180:Generated_Source\PSoC6\pdl\middleware\ble/cy_ble.c **** 
 181:Generated_Source\PSoC6\pdl\middleware\ble/cy_ble.c ****         Cy_BLE_ServiceInit();
 182:Generated_Source\PSoC6\pdl\middleware\ble/cy_ble.c **** 
 183:Generated_Source\PSoC6\pdl\middleware\ble/cy_ble.c ****         #if ((CY_BLE_GAP_ROLE_PERIPHERAL || CY_BLE_GAP_ROLE_CENTRAL) && (CY_BLE_BONDING_REQUIREMENT
 184:Generated_Source\PSoC6\pdl\middleware\ble/cy_ble.c ****         cy_ble_pendingFlashWrite = 0u;
 185:Generated_Source\PSoC6\pdl\middleware\ble/cy_ble.c ****         (void)memset(cy_ble_peerBonding, (int8_t)CY_BLE_GAP_BONDING_NONE, sizeof(cy_ble_peerBonding
 186:Generated_Source\PSoC6\pdl\middleware\ble/cy_ble.c ****         #endif /* (CY_BLE_BONDING_REQUIREMENT == CY_BLE_BONDING_YES) */
 187:Generated_Source\PSoC6\pdl\middleware\ble/cy_ble.c ****     #endif     /* (CY_BLE_MODE_PROFILE) */
 188:Generated_Source\PSoC6\pdl\middleware\ble/cy_ble.c ****     }
 189:Generated_Source\PSoC6\pdl\middleware\ble/cy_ble.c ****     
 190:Generated_Source\PSoC6\pdl\middleware\ble/cy_ble.c **** #ifndef CY_DIE_PSOC6ABLE2 
 191:Generated_Source\PSoC6\pdl\middleware\ble/cy_ble.c ****     #if(CY_BLE_STACK_MODE_IPC)
 192:Generated_Source\PSoC6\pdl\middleware\ble/cy_ble.c ****         Cy_IPC_SystemPipeInit();
 193:Generated_Source\PSoC6\pdl\middleware\ble/cy_ble.c ****     #endif /* (CY_BLE_STACK_MODE_IPC) */
 194:Generated_Source\PSoC6\pdl\middleware\ble/cy_ble.c **** #endif /*(CY_DIE_PSOC6ABLE2) */
 195:Generated_Source\PSoC6\pdl\middleware\ble/cy_ble.c ****         
 196:Generated_Source\PSoC6\pdl\middleware\ble/cy_ble.c ****     return(apiResult);
 197:Generated_Source\PSoC6\pdl\middleware\ble/cy_ble.c **** }
 198:Generated_Source\PSoC6\pdl\middleware\ble/cy_ble.c **** /** @} */
 199:Generated_Source\PSoC6\pdl\middleware\ble/cy_ble.c **** 
 200:Generated_Source\PSoC6\pdl\middleware\ble/cy_ble.c **** /******************************************************************************
ARM GAS  C:\Users\kateb\AppData\Local\Temp\cciDLH78.s 			page 5


 201:Generated_Source\PSoC6\pdl\middleware\ble/cy_ble.c **** * Function Name: Cy_BLE_Enable
 202:Generated_Source\PSoC6\pdl\middleware\ble/cy_ble.c **** ***************************************************************************//**
 203:Generated_Source\PSoC6\pdl\middleware\ble/cy_ble.c **** *
 204:Generated_Source\PSoC6\pdl\middleware\ble/cy_ble.c **** *  Initializes and starts the BLE Stack.
 205:Generated_Source\PSoC6\pdl\middleware\ble/cy_ble.c **** *
 206:Generated_Source\PSoC6\pdl\middleware\ble/cy_ble.c **** *  Calling this function results in generation of a #CY_BLE_EVT_STACK_ON event
 207:Generated_Source\PSoC6\pdl\middleware\ble/cy_ble.c **** *  on successful initialization of the BLE Stack.
 208:Generated_Source\PSoC6\pdl\middleware\ble/cy_ble.c **** *
 209:Generated_Source\PSoC6\pdl\middleware\ble/cy_ble.c **** *  BLE Stack enables the BLE ECO clock automatically with the default
 210:Generated_Source\PSoC6\pdl\middleware\ble/cy_ble.c **** *  parameters:
 211:Generated_Source\PSoC6\pdl\middleware\ble/cy_ble.c **** *     Parameter            | Value
 212:Generated_Source\PSoC6\pdl\middleware\ble/cy_ble.c **** *     -------------------- | -----------
 213:Generated_Source\PSoC6\pdl\middleware\ble/cy_ble.c **** *     ECO Frequency        | CY_BLE_DEFAULT_ECO_FREQ
 214:Generated_Source\PSoC6\pdl\middleware\ble/cy_ble.c **** *     Divider              | CY_BLE_DEFAULT_ECO_DIV
 215:Generated_Source\PSoC6\pdl\middleware\ble/cy_ble.c **** *     Startup time         | CY_BLE_DEFAULT_OSC_STARTUP_DELAY_LF
 216:Generated_Source\PSoC6\pdl\middleware\ble/cy_ble.c **** *     Load cap             | CY_BLE_DEFAULT_CAP_TRIM_VALUE
 217:Generated_Source\PSoC6\pdl\middleware\ble/cy_ble.c **** *
 218:Generated_Source\PSoC6\pdl\middleware\ble/cy_ble.c **** *  If there is a need to start the BLE with non-default ECO parameters, 
 219:Generated_Source\PSoC6\pdl\middleware\ble/cy_ble.c **** *  call the Cy_BLE_EcoStart() function with the custom configuration each 
 220:Generated_Source\PSoC6\pdl\middleware\ble/cy_ble.c **** *  time before calling the Cy_BLE_Enable() function.
 221:Generated_Source\PSoC6\pdl\middleware\ble/cy_ble.c **** *
 222:Generated_Source\PSoC6\pdl\middleware\ble/cy_ble.c **** *  This function initializes the BLE Stack which consists of the BLE Stack 
 223:Generated_Source\PSoC6\pdl\middleware\ble/cy_ble.c **** *  Manager, BLE Controller, and BLE Host modules. It takes care of initializing
 224:Generated_Source\PSoC6\pdl\middleware\ble/cy_ble.c **** *  the Profile layer, schedulers, Timer and other platform-related resources
 225:Generated_Source\PSoC6\pdl\middleware\ble/cy_ble.c **** *  required for the BLE Middleware. It also registers the callback function for
 226:Generated_Source\PSoC6\pdl\middleware\ble/cy_ble.c **** *  BLE events that will be registered in the BLE stack.
 227:Generated_Source\PSoC6\pdl\middleware\ble/cy_ble.c **** *
 228:Generated_Source\PSoC6\pdl\middleware\ble/cy_ble.c **** *  Note that this function does not reset the BLE Stack.
 229:Generated_Source\PSoC6\pdl\middleware\ble/cy_ble.c **** * 
 230:Generated_Source\PSoC6\pdl\middleware\ble/cy_ble.c **** *  For the HCI-Mode of operation, this function will not initialize the BLE Host 
 231:Generated_Source\PSoC6\pdl\middleware\ble/cy_ble.c **** *  module.
 232:Generated_Source\PSoC6\pdl\middleware\ble/cy_ble.c **** *
 233:Generated_Source\PSoC6\pdl\middleware\ble/cy_ble.c **** *  Calling this function results in generation of a #CY_BLE_EVT_STACK_ON event
 234:Generated_Source\PSoC6\pdl\middleware\ble/cy_ble.c **** *  on successful initialization of the BLE Stack.
 235:Generated_Source\PSoC6\pdl\middleware\ble/cy_ble.c **** *
 236:Generated_Source\PSoC6\pdl\middleware\ble/cy_ble.c **** *  In the Dual Core mode, this function should be called on both cores in the 
 237:Generated_Source\PSoC6\pdl\middleware\ble/cy_ble.c **** *  following sequence:
 238:Generated_Source\PSoC6\pdl\middleware\ble/cy_ble.c **** *   - call this function on CM0+ core to initialize the Controller.
 239:Generated_Source\PSoC6\pdl\middleware\ble/cy_ble.c **** *   - start CM4 core by calling Cy_SysEnableCM4() function.
 240:Generated_Source\PSoC6\pdl\middleware\ble/cy_ble.c **** *   - call this function on CM4 core to initialize the Host and Profiles.
 241:Generated_Source\PSoC6\pdl\middleware\ble/cy_ble.c **** *
 242:Generated_Source\PSoC6\pdl\middleware\ble/cy_ble.c **** * \return
 243:Generated_Source\PSoC6\pdl\middleware\ble/cy_ble.c **** * \ref cy_en_ble_api_result_t : Return value indicates if the function succeeded
 244:Generated_Source\PSoC6\pdl\middleware\ble/cy_ble.c **** *      or failed. The following are possible error codes.
 245:Generated_Source\PSoC6\pdl\middleware\ble/cy_ble.c **** *
 246:Generated_Source\PSoC6\pdl\middleware\ble/cy_ble.c **** *  <table>
 247:Generated_Source\PSoC6\pdl\middleware\ble/cy_ble.c **** *    <tr>
 248:Generated_Source\PSoC6\pdl\middleware\ble/cy_ble.c **** *      <th>Error codes</th>
 249:Generated_Source\PSoC6\pdl\middleware\ble/cy_ble.c **** *      <th>Description</th>
 250:Generated_Source\PSoC6\pdl\middleware\ble/cy_ble.c **** *    </tr>
 251:Generated_Source\PSoC6\pdl\middleware\ble/cy_ble.c **** *    <tr>
 252:Generated_Source\PSoC6\pdl\middleware\ble/cy_ble.c **** *      <td>CY_BLE_SUCCESS</td>
 253:Generated_Source\PSoC6\pdl\middleware\ble/cy_ble.c **** *      <td>On successful operation.</td>
 254:Generated_Source\PSoC6\pdl\middleware\ble/cy_ble.c **** *    </tr>
 255:Generated_Source\PSoC6\pdl\middleware\ble/cy_ble.c **** *    <tr>
 256:Generated_Source\PSoC6\pdl\middleware\ble/cy_ble.c **** *      <td>CY_BLE_ERROR_REPEATED_ATTEMPTS</td>
 257:Generated_Source\PSoC6\pdl\middleware\ble/cy_ble.c **** *      <td>On invoking this function more than once without calling 
ARM GAS  C:\Users\kateb\AppData\Local\Temp\cciDLH78.s 			page 6


 258:Generated_Source\PSoC6\pdl\middleware\ble/cy_ble.c **** *          Cy_BLE_Disable() function between calls to this function.</td>
 259:Generated_Source\PSoC6\pdl\middleware\ble/cy_ble.c **** *    </tr>
 260:Generated_Source\PSoC6\pdl\middleware\ble/cy_ble.c **** *    <tr>
 261:Generated_Source\PSoC6\pdl\middleware\ble/cy_ble.c **** *      <td>CY_BLE_ERROR_MEMORY_ALLOCATION_FAILED</td>
 262:Generated_Source\PSoC6\pdl\middleware\ble/cy_ble.c **** *      <td>There is insufficient memory available.</td>
 263:Generated_Source\PSoC6\pdl\middleware\ble/cy_ble.c **** *    </tr>
 264:Generated_Source\PSoC6\pdl\middleware\ble/cy_ble.c **** *  </table>
 265:Generated_Source\PSoC6\pdl\middleware\ble/cy_ble.c **** *
 266:Generated_Source\PSoC6\pdl\middleware\ble/cy_ble.c **** ******************************************************************************/
 267:Generated_Source\PSoC6\pdl\middleware\ble/cy_ble.c **** cy_en_ble_api_result_t Cy_BLE_Enable(void)
 268:Generated_Source\PSoC6\pdl\middleware\ble/cy_ble.c **** {
 269:Generated_Source\PSoC6\pdl\middleware\ble/cy_ble.c ****     cy_en_ble_api_result_t apiResult = CY_BLE_SUCCESS;
 270:Generated_Source\PSoC6\pdl\middleware\ble/cy_ble.c **** 
 271:Generated_Source\PSoC6\pdl\middleware\ble/cy_ble.c **** #if (CY_BLE_MODE_PROFILE)
 272:Generated_Source\PSoC6\pdl\middleware\ble/cy_ble.c ****     cy_stc_ble_stk_app_data_buff_t cy_ble_stackDataBuff[CY_BLE_STACK_APP_MIN_POOL] =
 273:Generated_Source\PSoC6\pdl\middleware\ble/cy_ble.c ****     {
 274:Generated_Source\PSoC6\pdl\middleware\ble/cy_ble.c ****         { CY_BLE_GATT_MTU_PLUS_L2CAP_MEM_EXT,   CY_BLE_GATT_MTU_BUFF_COUNT              },
 275:Generated_Source\PSoC6\pdl\middleware\ble/cy_ble.c ****         { CY_BLE_L2CAP_PSM_PLUS_L2CAP_MEM_EXT,  CY_BLE_L2CAP_PSM_COUNT                  },
 276:Generated_Source\PSoC6\pdl\middleware\ble/cy_ble.c ****         { CY_BLE_L2CAP_CBFC_PLUS_L2CAP_MEM_EXT, 2u * CY_BLE_L2CAP_LOGICAL_CHANNEL_COUNT },
 277:Generated_Source\PSoC6\pdl\middleware\ble/cy_ble.c ****         { CY_BLE_L2CAP_MTU_PLUS_L2CAP_MEM_EXT,  2u * CY_BLE_L2CAP_LOGICAL_CHANNEL_COUNT }
 278:Generated_Source\PSoC6\pdl\middleware\ble/cy_ble.c ****     };
 279:Generated_Source\PSoC6\pdl\middleware\ble/cy_ble.c **** #endif  /* (CY_BLE_MODE_PROFILE) */
 280:Generated_Source\PSoC6\pdl\middleware\ble/cy_ble.c ****     
 281:Generated_Source\PSoC6\pdl\middleware\ble/cy_ble.c ****     cy_stc_ble_stack_init_info_t stackInitParam =
 282:Generated_Source\PSoC6\pdl\middleware\ble/cy_ble.c ****     {
 283:Generated_Source\PSoC6\pdl\middleware\ble/cy_ble.c ****     #if (CY_BLE_MODE_PROFILE)
 284:Generated_Source\PSoC6\pdl\middleware\ble/cy_ble.c ****         .CyBleAppCbFunc                      = (cy_ble_app_ev_cb_t)&Cy_BLE_EventHandler,
 285:Generated_Source\PSoC6\pdl\middleware\ble/cy_ble.c ****     #endif /* CY_BLE_MODE_PROFILE */
 286:Generated_Source\PSoC6\pdl\middleware\ble/cy_ble.c ****         .memParam                            =
 287:Generated_Source\PSoC6\pdl\middleware\ble/cy_ble.c ****         {
 288:Generated_Source\PSoC6\pdl\middleware\ble/cy_ble.c ****     #if (CY_BLE_MODE_PROFILE)
 289:Generated_Source\PSoC6\pdl\middleware\ble/cy_ble.c ****             .totalHeapSz                     = (uint16_t)(CY_BLE_STACK_RAM_SIZE - CY_BLE_GATT_PREPA
 290:Generated_Source\PSoC6\pdl\middleware\ble/cy_ble.c ****             .dataBuff                        = cy_ble_stackDataBuff,
 291:Generated_Source\PSoC6\pdl\middleware\ble/cy_ble.c ****             .totalDataBufferPools            = CY_BLE_STACK_APP_MIN_POOL,
 292:Generated_Source\PSoC6\pdl\middleware\ble/cy_ble.c **** 
 293:Generated_Source\PSoC6\pdl\middleware\ble/cy_ble.c ****         #if (CY_BLE_BONDING_REQUIREMENT == CY_BLE_BONDING_YES)
 294:Generated_Source\PSoC6\pdl\middleware\ble/cy_ble.c ****             .bleStackFlashPointer            = (const uint8_t*)cy_ble_configPtr->flashStorage->stac
 295:Generated_Source\PSoC6\pdl\middleware\ble/cy_ble.c ****             .bleStackFlashSize               = CY_BLE_STACK_FLASH_SIZE,
 296:Generated_Source\PSoC6\pdl\middleware\ble/cy_ble.c ****         #endif  /* CY_BLE_BONDING_REQUIREMENT == CY_BLE_BONDING_YES */
 297:Generated_Source\PSoC6\pdl\middleware\ble/cy_ble.c ****     #else
 298:Generated_Source\PSoC6\pdl\middleware\ble/cy_ble.c ****             .totalHeapSz                     = CY_BLE_STACK_RAM_SIZE,
 299:Generated_Source\PSoC6\pdl\middleware\ble/cy_ble.c ****     #endif /* CY_BLE_MODE_PROFILE */
 300:Generated_Source\PSoC6\pdl\middleware\ble/cy_ble.c ****         },
 301:Generated_Source\PSoC6\pdl\middleware\ble/cy_ble.c ****         .stackConfig                         =
 302:Generated_Source\PSoC6\pdl\middleware\ble/cy_ble.c ****         {
 303:Generated_Source\PSoC6\pdl\middleware\ble/cy_ble.c ****             /* Configure DLE */
 304:Generated_Source\PSoC6\pdl\middleware\ble/cy_ble.c ****             .dleConfig.dleMaxTxCapability    = CY_BLE_LL_MAX_TX_PAYLOAD_SIZE,
 305:Generated_Source\PSoC6\pdl\middleware\ble/cy_ble.c ****             .dleConfig.dleMaxRxCapability    = CY_BLE_LL_MAX_RX_PAYLOAD_SIZE,
 306:Generated_Source\PSoC6\pdl\middleware\ble/cy_ble.c ****             .dleConfig.dleNumTxBuffer        = CY_BLE_LL_DEFAULT_NUM_ACL_TX_PACKETS,
 307:Generated_Source\PSoC6\pdl\middleware\ble/cy_ble.c ****             .dleConfig.dleNumRxBuffer        = CY_BLE_LL_DEFAULT_NUM_ACL_RX_PACKETS,
 308:Generated_Source\PSoC6\pdl\middleware\ble/cy_ble.c **** 
 309:Generated_Source\PSoC6\pdl\middleware\ble/cy_ble.c ****         #if (CY_BLE_MODE_PROFILE)
 310:Generated_Source\PSoC6\pdl\middleware\ble/cy_ble.c ****             /* Configure queue */
 311:Generated_Source\PSoC6\pdl\middleware\ble/cy_ble.c ****             .l2capConfig.l2capBufferPerConn  = CY_BLE_L2CAP_Q_DEPTH_PER_CONN,
 312:Generated_Source\PSoC6\pdl\middleware\ble/cy_ble.c ****         #endif /* (CY_BLE_MODE_PROFILE) */
 313:Generated_Source\PSoC6\pdl\middleware\ble/cy_ble.c **** 
 314:Generated_Source\PSoC6\pdl\middleware\ble/cy_ble.c ****             /* Configure LL Privacy */
ARM GAS  C:\Users\kateb\AppData\Local\Temp\cciDLH78.s 			page 7


 315:Generated_Source\PSoC6\pdl\middleware\ble/cy_ble.c ****             .privacyConfig.resolvingListSize = CY_BLE_MAX_RESOLVABLE_DEVICES,
 316:Generated_Source\PSoC6\pdl\middleware\ble/cy_ble.c **** 
 317:Generated_Source\PSoC6\pdl\middleware\ble/cy_ble.c ****             /* Configure bonded device list */
 318:Generated_Source\PSoC6\pdl\middleware\ble/cy_ble.c ****             .bondListConfig.bondListSize     = CY_BLE_MAX_BONDED_DEVICES,
 319:Generated_Source\PSoC6\pdl\middleware\ble/cy_ble.c **** 
 320:Generated_Source\PSoC6\pdl\middleware\ble/cy_ble.c ****             /* Configure white list */
 321:Generated_Source\PSoC6\pdl\middleware\ble/cy_ble.c ****             .whiteListConfig.whiteListSize   = CY_BLE_MAX_WHITE_LIST_SIZE,
 322:Generated_Source\PSoC6\pdl\middleware\ble/cy_ble.c **** 
 323:Generated_Source\PSoC6\pdl\middleware\ble/cy_ble.c ****             .featureMask                     = (CY_BLE_DLE_FEATURE | CY_BLE_LL_PRIVACY_FEATURE | 
 324:Generated_Source\PSoC6\pdl\middleware\ble/cy_ble.c ****                                                 CY_BLE_SECURE_CONN_FEATURE | CY_BLE_PHY_UPDATE_FEAT
 325:Generated_Source\PSoC6\pdl\middleware\ble/cy_ble.c ****                                                 CY_BLE_STORE_BONDLIST_FEATURE | CY_BLE_STORE_RESOLV
 326:Generated_Source\PSoC6\pdl\middleware\ble/cy_ble.c ****                                                 CY_BLE_STORE_WHITELIST_FEATURE | CY_BLE_TX_POWER_CA
 327:Generated_Source\PSoC6\pdl\middleware\ble/cy_ble.c ****             .maxBleConnections               = CY_BLE_CONN_COUNT
 328:Generated_Source\PSoC6\pdl\middleware\ble/cy_ble.c ****         }
 329:Generated_Source\PSoC6\pdl\middleware\ble/cy_ble.c ****     };
 330:Generated_Source\PSoC6\pdl\middleware\ble/cy_ble.c **** 
 331:Generated_Source\PSoC6\pdl\middleware\ble/cy_ble.c **** #if (CY_BLE_USE_DEEP_SLEEP != 0u)
 332:Generated_Source\PSoC6\pdl\middleware\ble/cy_ble.c ****     /* Register BLE callback for Deepsleep support */
 333:Generated_Source\PSoC6\pdl\middleware\ble/cy_ble.c ****     (void)Cy_SysPm_RegisterCallback(&bleDeepSleepCallback);
 334:Generated_Source\PSoC6\pdl\middleware\ble/cy_ble.c ****     
 335:Generated_Source\PSoC6\pdl\middleware\ble/cy_ble.c ****     /* Register Sleep mode callback only in dual core mode for the host core */
 336:Generated_Source\PSoC6\pdl\middleware\ble/cy_ble.c ****     #if(CY_BLE_STACK_MODE_HOST_IPC)
 337:Generated_Source\PSoC6\pdl\middleware\ble/cy_ble.c ****     {
 338:Generated_Source\PSoC6\pdl\middleware\ble/cy_ble.c ****         /* Register BLE callback for Sleep support */
 339:Generated_Source\PSoC6\pdl\middleware\ble/cy_ble.c ****         (void)Cy_SysPm_RegisterCallback(&bleSleepCallback);
 340:Generated_Source\PSoC6\pdl\middleware\ble/cy_ble.c ****     }
 341:Generated_Source\PSoC6\pdl\middleware\ble/cy_ble.c ****     #endif /* (CY_BLE_STACK_MODE_HOST_IPC) */
 342:Generated_Source\PSoC6\pdl\middleware\ble/cy_ble.c **** #endif  /* (CY_BLE_USE_DEEP_SLEEP != 0u) */
 343:Generated_Source\PSoC6\pdl\middleware\ble/cy_ble.c ****     
 344:Generated_Source\PSoC6\pdl\middleware\ble/cy_ble.c **** #if(CY_BLE_SHARING_MODE_EXPORT)
 345:Generated_Source\PSoC6\pdl\middleware\ble/cy_ble.c ****     if(cy_ble_stackMemoryRam == NULL)
 346:Generated_Source\PSoC6\pdl\middleware\ble/cy_ble.c ****     {
 347:Generated_Source\PSoC6\pdl\middleware\ble/cy_ble.c ****         cy_ble_stackMemoryRam = (uint8 *)malloc(CY_BLE_STACK_RAM_SIZE);
 348:Generated_Source\PSoC6\pdl\middleware\ble/cy_ble.c ****         if(cy_ble_stackMemoryRam == NULL)
 349:Generated_Source\PSoC6\pdl\middleware\ble/cy_ble.c ****         {
 350:Generated_Source\PSoC6\pdl\middleware\ble/cy_ble.c ****             apiResult = CY_BLE_ERROR_MEMORY_ALLOCATION_FAILED;
 351:Generated_Source\PSoC6\pdl\middleware\ble/cy_ble.c ****         }
 352:Generated_Source\PSoC6\pdl\middleware\ble/cy_ble.c ****     }
 353:Generated_Source\PSoC6\pdl\middleware\ble/cy_ble.c **** #endif /* CY_BLE_SHARING_MODE_EXPORT */
 354:Generated_Source\PSoC6\pdl\middleware\ble/cy_ble.c ****     
 355:Generated_Source\PSoC6\pdl\middleware\ble/cy_ble.c ****     if(apiResult == CY_BLE_SUCCESS)
 356:Generated_Source\PSoC6\pdl\middleware\ble/cy_ble.c ****     {
 357:Generated_Source\PSoC6\pdl\middleware\ble/cy_ble.c ****     #if (CY_BLE_DLE_FEATURE_ENABLED)
 358:Generated_Source\PSoC6\pdl\middleware\ble/cy_ble.c ****         Cy_BLE_EnableDleFeature();              /* Enable DLE code in the stack */
 359:Generated_Source\PSoC6\pdl\middleware\ble/cy_ble.c ****     #endif /* CY_BLE_DLE_FEATURE_ENABLED */
 360:Generated_Source\PSoC6\pdl\middleware\ble/cy_ble.c **** 
 361:Generated_Source\PSoC6\pdl\middleware\ble/cy_ble.c ****     #if (CY_BLE_LL_PRIVACY_FEATURE_ENABLED)
 362:Generated_Source\PSoC6\pdl\middleware\ble/cy_ble.c ****         Cy_BLE_EnablePrivacyFeature();          /* Enable LL Privacy code in the stack */
 363:Generated_Source\PSoC6\pdl\middleware\ble/cy_ble.c ****     #endif /* CY_BLE_LL_PRIVACY_FEATURE_ENABLED */
 364:Generated_Source\PSoC6\pdl\middleware\ble/cy_ble.c **** 
 365:Generated_Source\PSoC6\pdl\middleware\ble/cy_ble.c ****     #if (CY_BLE_PHY_UPDATE_FEATURE_ENABLED)
 366:Generated_Source\PSoC6\pdl\middleware\ble/cy_ble.c ****         Cy_BLE_EnablePhyUpdateFeature();        /* Enable PHY Update code in the stack */
 367:Generated_Source\PSoC6\pdl\middleware\ble/cy_ble.c ****     #endif /* CY_BLE_PHY_UPDATE_FEATURE_ENABLED */
 368:Generated_Source\PSoC6\pdl\middleware\ble/cy_ble.c **** 
 369:Generated_Source\PSoC6\pdl\middleware\ble/cy_ble.c ****         apiResult = Cy_BLE_StackSetFeatureConfig(&stackInitParam.stackConfig);
 370:Generated_Source\PSoC6\pdl\middleware\ble/cy_ble.c ****     }
 371:Generated_Source\PSoC6\pdl\middleware\ble/cy_ble.c ****     
ARM GAS  C:\Users\kateb\AppData\Local\Temp\cciDLH78.s 			page 8


 372:Generated_Source\PSoC6\pdl\middleware\ble/cy_ble.c ****     if(apiResult == CY_BLE_SUCCESS)
 373:Generated_Source\PSoC6\pdl\middleware\ble/cy_ble.c ****     {
 374:Generated_Source\PSoC6\pdl\middleware\ble/cy_ble.c ****         stackInitParam.memParam.memoryHeapPtr = cy_ble_stackMemoryRam;
 375:Generated_Source\PSoC6\pdl\middleware\ble/cy_ble.c **** 
 376:Generated_Source\PSoC6\pdl\middleware\ble/cy_ble.c ****         /* Initialize the BLE Stack */
 377:Generated_Source\PSoC6\pdl\middleware\ble/cy_ble.c ****         apiResult = Cy_BLE_StackInit(&stackInitParam);
 378:Generated_Source\PSoC6\pdl\middleware\ble/cy_ble.c **** 
 379:Generated_Source\PSoC6\pdl\middleware\ble/cy_ble.c ****     #if (CY_BLE_MODE_PROFILE)
 380:Generated_Source\PSoC6\pdl\middleware\ble/cy_ble.c ****         if(apiResult == CY_BLE_SUCCESS)
 381:Generated_Source\PSoC6\pdl\middleware\ble/cy_ble.c ****         {
 382:Generated_Source\PSoC6\pdl\middleware\ble/cy_ble.c ****             Cy_BLE_SetState(CY_BLE_STATE_INITIALIZING);
 383:Generated_Source\PSoC6\pdl\middleware\ble/cy_ble.c **** 
 384:Generated_Source\PSoC6\pdl\middleware\ble/cy_ble.c ****         #if (CY_BLE_GAP_ROLE_CENTRAL || CY_BLE_GAP_ROLE_PERIPHERAL)
 385:Generated_Source\PSoC6\pdl\middleware\ble/cy_ble.c ****             (void)memset(&cy_ble_connState, 0, sizeof(cy_ble_connState));
 386:Generated_Source\PSoC6\pdl\middleware\ble/cy_ble.c ****         #endif /* (CY_BLE_GAP_ROLE_CENTRAL || CY_BLE_GAP_ROLE_PERIPHERAL) */
 387:Generated_Source\PSoC6\pdl\middleware\ble/cy_ble.c **** 
 388:Generated_Source\PSoC6\pdl\middleware\ble/cy_ble.c ****         #if (CY_BLE_GAP_ROLE_PERIPHERAL || CY_BLE_GAP_ROLE_BROADCASTER)
 389:Generated_Source\PSoC6\pdl\middleware\ble/cy_ble.c ****             Cy_BLE_SetAdvertisementState(CY_BLE_ADV_STATE_STOPPED);
 390:Generated_Source\PSoC6\pdl\middleware\ble/cy_ble.c ****         #endif  /* (CY_BLE_GAP_ROLE_PERIPHERAL || CY_BLE_GAP_ROLE_BROADCASTER) */
 391:Generated_Source\PSoC6\pdl\middleware\ble/cy_ble.c **** 
 392:Generated_Source\PSoC6\pdl\middleware\ble/cy_ble.c ****         #if (CY_BLE_GAP_ROLE_CENTRAL || CY_BLE_GAP_ROLE_OBSERVER)
 393:Generated_Source\PSoC6\pdl\middleware\ble/cy_ble.c ****             Cy_BLE_SetScanState(CY_BLE_SCAN_STATE_STOPPED);
 394:Generated_Source\PSoC6\pdl\middleware\ble/cy_ble.c ****         #endif /* (CY_BLE_GAP_ROLE_CENTRAL || CY_BLE_GAP_ROLE_OBSERVER) */
 395:Generated_Source\PSoC6\pdl\middleware\ble/cy_ble.c **** 
 396:Generated_Source\PSoC6\pdl\middleware\ble/cy_ble.c ****         #if (CY_BLE_GATT_ROLE_SERVER)
 397:Generated_Source\PSoC6\pdl\middleware\ble/cy_ble.c ****             {
 398:Generated_Source\PSoC6\pdl\middleware\ble/cy_ble.c ****                 cy_stc_ble_gatts_db_info_t dbInfoParam =
 399:Generated_Source\PSoC6\pdl\middleware\ble/cy_ble.c ****                 {
 400:Generated_Source\PSoC6\pdl\middleware\ble/cy_ble.c ****                     .gattDbPtr          = (const cy_stc_ble_gatts_db_t*)cy_ble_configPtr->gattDB,
 401:Generated_Source\PSoC6\pdl\middleware\ble/cy_ble.c ****                     .gattDbTotalEntries = cy_ble_configPtr->params->gattDbIndexCount,
 402:Generated_Source\PSoC6\pdl\middleware\ble/cy_ble.c ****                     .gattDbMaxValue     = CY_BLE_GATT_DB_MAX_VALUE_LEN
 403:Generated_Source\PSoC6\pdl\middleware\ble/cy_ble.c ****                 };
 404:Generated_Source\PSoC6\pdl\middleware\ble/cy_ble.c **** 
 405:Generated_Source\PSoC6\pdl\middleware\ble/cy_ble.c ****                 apiResult = Cy_BLE_GATTS_DbRegister(&dbInfoParam);
 406:Generated_Source\PSoC6\pdl\middleware\ble/cy_ble.c ****             }
 407:Generated_Source\PSoC6\pdl\middleware\ble/cy_ble.c ****         #endif /* CY_BLE_GATT_ROLE_SERVER */
 408:Generated_Source\PSoC6\pdl\middleware\ble/cy_ble.c ****         }
 409:Generated_Source\PSoC6\pdl\middleware\ble/cy_ble.c ****         cy_ble_cmdStatus = 0u;
 410:Generated_Source\PSoC6\pdl\middleware\ble/cy_ble.c ****     #endif /* (CY_BLE_MODE_PROFILE) */
 411:Generated_Source\PSoC6\pdl\middleware\ble/cy_ble.c ****     }
 412:Generated_Source\PSoC6\pdl\middleware\ble/cy_ble.c **** 
 413:Generated_Source\PSoC6\pdl\middleware\ble/cy_ble.c ****     return(apiResult);
 414:Generated_Source\PSoC6\pdl\middleware\ble/cy_ble.c **** }
 415:Generated_Source\PSoC6\pdl\middleware\ble/cy_ble.c **** 
 416:Generated_Source\PSoC6\pdl\middleware\ble/cy_ble.c **** 
 417:Generated_Source\PSoC6\pdl\middleware\ble/cy_ble.c **** /******************************************************************************
 418:Generated_Source\PSoC6\pdl\middleware\ble/cy_ble.c **** * Function Name: Cy_BLE_Disable
 419:Generated_Source\PSoC6\pdl\middleware\ble/cy_ble.c **** ***************************************************************************//**
 420:Generated_Source\PSoC6\pdl\middleware\ble/cy_ble.c **** *
 421:Generated_Source\PSoC6\pdl\middleware\ble/cy_ble.c **** *  This function stops any ongoing operation in the BLE Stack and forces the
 422:Generated_Source\PSoC6\pdl\middleware\ble/cy_ble.c **** *  BLE Stack to shut down.
 423:Generated_Source\PSoC6\pdl\middleware\ble/cy_ble.c **** *
 424:Generated_Source\PSoC6\pdl\middleware\ble/cy_ble.c **** *  Calling this function results in generation of a 
 425:Generated_Source\PSoC6\pdl\middleware\ble/cy_ble.c **** *  #CY_BLE_EVT_STACK_SHUTDOWN_COMPLETE event on a successful stack shutdown.
 426:Generated_Source\PSoC6\pdl\middleware\ble/cy_ble.c **** *
 427:Generated_Source\PSoC6\pdl\middleware\ble/cy_ble.c **** *  For HCI mode:
 428:Generated_Source\PSoC6\pdl\middleware\ble/cy_ble.c **** *  This is a blocking function and no event is generated.
ARM GAS  C:\Users\kateb\AppData\Local\Temp\cciDLH78.s 			page 9


 429:Generated_Source\PSoC6\pdl\middleware\ble/cy_ble.c **** *  Only #CY_BLE_SUCCESS will be returned and other error codes are not applicable.
 430:Generated_Source\PSoC6\pdl\middleware\ble/cy_ble.c **** *  UART interface will be stopped and UART data will not be processed by stack
 431:Generated_Source\PSoC6\pdl\middleware\ble/cy_ble.c **** *  until Cy_BLE_Enable() is invoked.
 432:Generated_Source\PSoC6\pdl\middleware\ble/cy_ble.c **** *
 433:Generated_Source\PSoC6\pdl\middleware\ble/cy_ble.c **** * \return
 434:Generated_Source\PSoC6\pdl\middleware\ble/cy_ble.c **** * \ref cy_en_ble_api_result_t : Return value indicates if the function succeeded or
 435:Generated_Source\PSoC6\pdl\middleware\ble/cy_ble.c **** *  failed. The following are possible error codes.
 436:Generated_Source\PSoC6\pdl\middleware\ble/cy_ble.c **** *
 437:Generated_Source\PSoC6\pdl\middleware\ble/cy_ble.c **** *  <table>
 438:Generated_Source\PSoC6\pdl\middleware\ble/cy_ble.c **** *    <tr>
 439:Generated_Source\PSoC6\pdl\middleware\ble/cy_ble.c **** *      <th>Error codes</th>
 440:Generated_Source\PSoC6\pdl\middleware\ble/cy_ble.c **** *      <th>Description</th>
 441:Generated_Source\PSoC6\pdl\middleware\ble/cy_ble.c **** *    </tr>
 442:Generated_Source\PSoC6\pdl\middleware\ble/cy_ble.c **** *    <tr>
 443:Generated_Source\PSoC6\pdl\middleware\ble/cy_ble.c **** *      <td>CY_BLE_SUCCESS</td>
 444:Generated_Source\PSoC6\pdl\middleware\ble/cy_ble.c **** *      <td>On successful operation.</td>
 445:Generated_Source\PSoC6\pdl\middleware\ble/cy_ble.c **** *    </tr>
 446:Generated_Source\PSoC6\pdl\middleware\ble/cy_ble.c **** *    <tr>
 447:Generated_Source\PSoC6\pdl\middleware\ble/cy_ble.c **** *      <td>CY_BLE_ERROR_INVALID_OPERATION</td>
 448:Generated_Source\PSoC6\pdl\middleware\ble/cy_ble.c **** *      <td>On calling Cy_BLE_Disable before calling Cy_BLE_Enable() 
 449:Generated_Source\PSoC6\pdl\middleware\ble/cy_ble.c **** *          or on Controller core.</td>
 450:Generated_Source\PSoC6\pdl\middleware\ble/cy_ble.c **** *    </tr>
 451:Generated_Source\PSoC6\pdl\middleware\ble/cy_ble.c **** *  </table>
 452:Generated_Source\PSoC6\pdl\middleware\ble/cy_ble.c **** *
 453:Generated_Source\PSoC6\pdl\middleware\ble/cy_ble.c **** ******************************************************************************/
 454:Generated_Source\PSoC6\pdl\middleware\ble/cy_ble.c **** cy_en_ble_api_result_t Cy_BLE_Disable(void)
 455:Generated_Source\PSoC6\pdl\middleware\ble/cy_ble.c **** {
 456:Generated_Source\PSoC6\pdl\middleware\ble/cy_ble.c ****     cy_en_ble_api_result_t apiResult;
 457:Generated_Source\PSoC6\pdl\middleware\ble/cy_ble.c **** 
 458:Generated_Source\PSoC6\pdl\middleware\ble/cy_ble.c **** #if (CY_BLE_STACK_IPC_CONTR_CORE)
 459:Generated_Source\PSoC6\pdl\middleware\ble/cy_ble.c ****     /* To stop Controller call Cy_BLE_Disable() function on Host core */
 460:Generated_Source\PSoC6\pdl\middleware\ble/cy_ble.c ****     apiResult = CY_BLE_SUCCESS;             
 461:Generated_Source\PSoC6\pdl\middleware\ble/cy_ble.c **** #else
 462:Generated_Source\PSoC6\pdl\middleware\ble/cy_ble.c ****     /* Stops all ongoing activities */
 463:Generated_Source\PSoC6\pdl\middleware\ble/cy_ble.c ****     apiResult = Cy_BLE_StackShutdown();
 464:Generated_Source\PSoC6\pdl\middleware\ble/cy_ble.c ****     
 465:Generated_Source\PSoC6\pdl\middleware\ble/cy_ble.c ****     #if (CY_BLE_SHARING_MODE_EXPORT)
 466:Generated_Source\PSoC6\pdl\middleware\ble/cy_ble.c ****     if(cy_ble_stackMemoryRam != NULL)
 467:Generated_Source\PSoC6\pdl\middleware\ble/cy_ble.c ****     {
 468:Generated_Source\PSoC6\pdl\middleware\ble/cy_ble.c ****         free(cy_ble_stackMemoryRam);
 469:Generated_Source\PSoC6\pdl\middleware\ble/cy_ble.c ****     }
 470:Generated_Source\PSoC6\pdl\middleware\ble/cy_ble.c ****     #endif /* CY_BLE_SHARING_MODE_EXPORT */
 471:Generated_Source\PSoC6\pdl\middleware\ble/cy_ble.c **** #endif     /* CY_BLE_STACK_IPC_CONTR_CORE */
 472:Generated_Source\PSoC6\pdl\middleware\ble/cy_ble.c **** 
 473:Generated_Source\PSoC6\pdl\middleware\ble/cy_ble.c ****     return(apiResult);
 474:Generated_Source\PSoC6\pdl\middleware\ble/cy_ble.c **** }
 475:Generated_Source\PSoC6\pdl\middleware\ble/cy_ble.c **** 
 476:Generated_Source\PSoC6\pdl\middleware\ble/cy_ble.c **** 
 477:Generated_Source\PSoC6\pdl\middleware\ble/cy_ble.c **** /*******************************************************************************
 478:Generated_Source\PSoC6\pdl\middleware\ble/cy_ble.c **** * Function Name: Cy_BLE_ConfigureExtPA
 479:Generated_Source\PSoC6\pdl\middleware\ble/cy_ble.c **** ****************************************************************************//**
 480:Generated_Source\PSoC6\pdl\middleware\ble/cy_ble.c **** *
 481:Generated_Source\PSoC6\pdl\middleware\ble/cy_ble.c **** *  This function controls the external Power Amplifier and Low Noise Amplifier
 482:Generated_Source\PSoC6\pdl\middleware\ble/cy_ble.c **** *  outputs.
 483:Generated_Source\PSoC6\pdl\middleware\ble/cy_ble.c **** *
 484:Generated_Source\PSoC6\pdl\middleware\ble/cy_ble.c **** * \param controlValue Enables and controls polarity of the outputs.
 485:Generated_Source\PSoC6\pdl\middleware\ble/cy_ble.c **** *   To control external PA and LNA, the following mask defines are used:
ARM GAS  C:\Users\kateb\AppData\Local\Temp\cciDLH78.s 			page 10


 486:Generated_Source\PSoC6\pdl\middleware\ble/cy_ble.c **** *
 487:Generated_Source\PSoC6\pdl\middleware\ble/cy_ble.c **** *   - BLE_BLESS_EXT_PA_LNA_CTRL_ENABLE_EXT_PA_LNA_Msk - When set to 1, enables
 488:Generated_Source\PSoC6\pdl\middleware\ble/cy_ble.c **** *       the external PA & LNA and BLESS power profile for energy profiler
 489:Generated_Source\PSoC6\pdl\middleware\ble/cy_ble.c **** *   - BLE_BLESS_EXT_PA_LNA_CTRL_CHIP_EN_POL_Msk - Controls the polarity of the 
 490:Generated_Source\PSoC6\pdl\middleware\ble/cy_ble.c **** *       chip-enable control signal:
 491:Generated_Source\PSoC6\pdl\middleware\ble/cy_ble.c **** *       * 0 - High enable, Low disable
 492:Generated_Source\PSoC6\pdl\middleware\ble/cy_ble.c **** *       * 1 - Low enable, High disable, Incorrect power profile
 493:Generated_Source\PSoC6\pdl\middleware\ble/cy_ble.c **** *   - BLE_BLESS_EXT_PA_LNA_CTRL_PA_CTRL_POL_Msk - Controls the polarity of the PA
 494:Generated_Source\PSoC6\pdl\middleware\ble/cy_ble.c **** *       control signal:
 495:Generated_Source\PSoC6\pdl\middleware\ble/cy_ble.c **** *       * 0 - High enable, Low disable
 496:Generated_Source\PSoC6\pdl\middleware\ble/cy_ble.c **** *       * 1 - Low enable, High disable, Incorrect power profile
 497:Generated_Source\PSoC6\pdl\middleware\ble/cy_ble.c **** *   - BLE_BLESS_EXT_PA_LNA_CTRL_LNA_CTRL_POL_Msk - Controls the polarity of the LNA
 498:Generated_Source\PSoC6\pdl\middleware\ble/cy_ble.c **** *       control signal:
 499:Generated_Source\PSoC6\pdl\middleware\ble/cy_ble.c **** *       * 0 - High enable, Low disable
 500:Generated_Source\PSoC6\pdl\middleware\ble/cy_ble.c **** *       * 1 - Low enable, High disable, Incorrect power profile
 501:Generated_Source\PSoC6\pdl\middleware\ble/cy_ble.c **** *   - BLE_BLESS_EXT_PA_LNA_CTRL_OUT_EN_DRIVE_VAL_Msk  - Configures the drive value
 502:Generated_Source\PSoC6\pdl\middleware\ble/cy_ble.c **** *       on the output enables of PA, LNA and CHI_EN signals
 503:Generated_Source\PSoC6\pdl\middleware\ble/cy_ble.c **** *       * 0 - drive 0 on the output enable signals
 504:Generated_Source\PSoC6\pdl\middleware\ble/cy_ble.c **** *       * 1 - drive 1 on the output enable signals
 505:Generated_Source\PSoC6\pdl\middleware\ble/cy_ble.c **** *
 506:Generated_Source\PSoC6\pdl\middleware\ble/cy_ble.c **** * \return
 507:Generated_Source\PSoC6\pdl\middleware\ble/cy_ble.c **** *  None
 508:Generated_Source\PSoC6\pdl\middleware\ble/cy_ble.c **** *
 509:Generated_Source\PSoC6\pdl\middleware\ble/cy_ble.c **** *******************************************************************************/
 510:Generated_Source\PSoC6\pdl\middleware\ble/cy_ble.c **** void Cy_BLE_ConfigureExtPA(uint32_t controlValue)
 511:Generated_Source\PSoC6\pdl\middleware\ble/cy_ble.c **** {
 512:Generated_Source\PSoC6\pdl\middleware\ble/cy_ble.c ****     BLE->BLESS.EXT_PA_LNA_CTRL = controlValue;
 513:Generated_Source\PSoC6\pdl\middleware\ble/cy_ble.c **** }
 514:Generated_Source\PSoC6\pdl\middleware\ble/cy_ble.c **** 
 515:Generated_Source\PSoC6\pdl\middleware\ble/cy_ble.c **** #if (CY_BLE_INTR_NOTIFY_FEATURE_ENABLED) && (CY_BLE_HOST_CORE)
 516:Generated_Source\PSoC6\pdl\middleware\ble/cy_ble.c **** /*******************************************************************************
 517:Generated_Source\PSoC6\pdl\middleware\ble/cy_ble.c **** * Function Name: Cy_BLE_RegisterInterruptCallback
 518:Generated_Source\PSoC6\pdl\middleware\ble/cy_ble.c **** ****************************************************************************//**
 519:Generated_Source\PSoC6\pdl\middleware\ble/cy_ble.c **** *
 520:Generated_Source\PSoC6\pdl\middleware\ble/cy_ble.c **** *  This function registers a callback to expose BLE interrupt notifications to an 
 521:Generated_Source\PSoC6\pdl\middleware\ble/cy_ble.c **** *  application that indicates a different link layer and radio state transition
 522:Generated_Source\PSoC6\pdl\middleware\ble/cy_ble.c **** *  to the user from the BLESS interrupt context. This callback is triggered at 
 523:Generated_Source\PSoC6\pdl\middleware\ble/cy_ble.c **** *  the beginning of a received BLESS interrupt (based on the registered 
 524:Generated_Source\PSoC6\pdl\middleware\ble/cy_ble.c **** *  interrupt mask).
 525:Generated_Source\PSoC6\pdl\middleware\ble/cy_ble.c **** *
 526:Generated_Source\PSoC6\pdl\middleware\ble/cy_ble.c **** *  An application can use an interrupt callback to know when: 
 527:Generated_Source\PSoC6\pdl\middleware\ble/cy_ble.c **** *  * the RF activity is about to begin/end; 
 528:Generated_Source\PSoC6\pdl\middleware\ble/cy_ble.c **** *  * the BLE device changes its state from advertising to connected; 
 529:Generated_Source\PSoC6\pdl\middleware\ble/cy_ble.c **** *  * BLESS transits between active and low-power modes.
 530:Generated_Source\PSoC6\pdl\middleware\ble/cy_ble.c **** *    
 531:Generated_Source\PSoC6\pdl\middleware\ble/cy_ble.c **** *  These BLESS real-time states can be used to synchronize
 532:Generated_Source\PSoC6\pdl\middleware\ble/cy_ble.c **** *  an application with the BLESS or prevent radio interference with other 
 533:Generated_Source\PSoC6\pdl\middleware\ble/cy_ble.c **** *  peripherals, etc.
 534:Generated_Source\PSoC6\pdl\middleware\ble/cy_ble.c **** *    
 535:Generated_Source\PSoC6\pdl\middleware\ble/cy_ble.c **** *  BLE interrupt notifications feature enables via define in cy_ble_config.h:
 536:Generated_Source\PSoC6\pdl\middleware\ble/cy_ble.c **** *  \code   
 537:Generated_Source\PSoC6\pdl\middleware\ble/cy_ble.c **** *  #define CY_BLE_INTR_NOTIFY_FEATURE_ENABLE       (1u)
 538:Generated_Source\PSoC6\pdl\middleware\ble/cy_ble.c **** *  \endcode    
 539:Generated_Source\PSoC6\pdl\middleware\ble/cy_ble.c **** *
 540:Generated_Source\PSoC6\pdl\middleware\ble/cy_ble.c **** *  BLE Dual mode requires an additional define IPC channel and IPC Interrupt 
 541:Generated_Source\PSoC6\pdl\middleware\ble/cy_ble.c **** *  structure to send notifications from the controller core to host core. 
 542:Generated_Source\PSoC6\pdl\middleware\ble/cy_ble.c **** *  Use the following defines:
ARM GAS  C:\Users\kateb\AppData\Local\Temp\cciDLH78.s 			page 11


 543:Generated_Source\PSoC6\pdl\middleware\ble/cy_ble.c **** *  \code    
 544:Generated_Source\PSoC6\pdl\middleware\ble/cy_ble.c **** *  #define CY_BLE_INTR_NOTIFY_IPC_CHAN             (9..15)
 545:Generated_Source\PSoC6\pdl\middleware\ble/cy_ble.c **** *  #define CY_BLE_INTR_NOTIFY_IPC_INTR             (9..15)
 546:Generated_Source\PSoC6\pdl\middleware\ble/cy_ble.c **** *  #define CY_BLE_INTR_NOTIFY_IPC_INTR_PRIOR       (0..7)  
 547:Generated_Source\PSoC6\pdl\middleware\ble/cy_ble.c **** *  \endcode
 548:Generated_Source\PSoC6\pdl\middleware\ble/cy_ble.c **** *    
 549:Generated_Source\PSoC6\pdl\middleware\ble/cy_ble.c **** *  \param intrMask
 550:Generated_Source\PSoC6\pdl\middleware\ble/cy_ble.c **** *  All interrupts masks are specified in the #cy_en_ble_interrupt_callback_feature_t
 551:Generated_Source\PSoC6\pdl\middleware\ble/cy_ble.c **** *  enumeration.
 552:Generated_Source\PSoC6\pdl\middleware\ble/cy_ble.c **** *    
 553:Generated_Source\PSoC6\pdl\middleware\ble/cy_ble.c **** *  \param CallBack
 554:Generated_Source\PSoC6\pdl\middleware\ble/cy_ble.c **** *  The pointer to an application notify callback.
 555:Generated_Source\PSoC6\pdl\middleware\ble/cy_ble.c **** *
 556:Generated_Source\PSoC6\pdl\middleware\ble/cy_ble.c **** * \return
 557:Generated_Source\PSoC6\pdl\middleware\ble/cy_ble.c **** * \ref cy_en_ble_api_result_t : The return value indicates if the function succeeded or
 558:Generated_Source\PSoC6\pdl\middleware\ble/cy_ble.c **** *  failed. The possible error codes:
 559:Generated_Source\PSoC6\pdl\middleware\ble/cy_ble.c **** *
 560:Generated_Source\PSoC6\pdl\middleware\ble/cy_ble.c **** *    Errors codes                   | Description
 561:Generated_Source\PSoC6\pdl\middleware\ble/cy_ble.c **** *    ------------                   | -----------
 562:Generated_Source\PSoC6\pdl\middleware\ble/cy_ble.c **** *    CY_BLE_SUCCESS                 | The callback is registered successfully.
 563:Generated_Source\PSoC6\pdl\middleware\ble/cy_ble.c **** *    CY_BLE_ERROR_INVALID_PARAMETER | Validation of the input parameters failed.
 564:Generated_Source\PSoC6\pdl\middleware\ble/cy_ble.c **** *    CY_BLE_ERROR_INVALID_OPERATION | The IPC channel is busy (Dual core mode only).
 565:Generated_Source\PSoC6\pdl\middleware\ble/cy_ble.c **** *
 566:Generated_Source\PSoC6\pdl\middleware\ble/cy_ble.c **** *******************************************************************************/   
 567:Generated_Source\PSoC6\pdl\middleware\ble/cy_ble.c **** cy_en_ble_api_result_t Cy_BLE_RegisterInterruptCallback(uint32_t intrMask, cy_ble_intr_callback_t C
 568:Generated_Source\PSoC6\pdl\middleware\ble/cy_ble.c **** { 
 569:Generated_Source\PSoC6\pdl\middleware\ble/cy_ble.c ****     cy_en_ble_api_result_t apiResult = CY_BLE_SUCCESS;
 570:Generated_Source\PSoC6\pdl\middleware\ble/cy_ble.c ****     
 571:Generated_Source\PSoC6\pdl\middleware\ble/cy_ble.c ****     if(CallBack != NULL)
 572:Generated_Source\PSoC6\pdl\middleware\ble/cy_ble.c ****     {
 573:Generated_Source\PSoC6\pdl\middleware\ble/cy_ble.c ****         /* Store the application callback and interrupt mask */
 574:Generated_Source\PSoC6\pdl\middleware\ble/cy_ble.c ****         Cy_BLE_InterruptCallback = CallBack;
 575:Generated_Source\PSoC6\pdl\middleware\ble/cy_ble.c ****         intrNotify.mask = intrMask;
 576:Generated_Source\PSoC6\pdl\middleware\ble/cy_ble.c ****         
 577:Generated_Source\PSoC6\pdl\middleware\ble/cy_ble.c ****         /* Set up the IPC for Dual Stack mode */
 578:Generated_Source\PSoC6\pdl\middleware\ble/cy_ble.c ****         #if(CY_BLE_STACK_MODE_HOST_IPC)
 579:Generated_Source\PSoC6\pdl\middleware\ble/cy_ble.c ****         {  
 580:Generated_Source\PSoC6\pdl\middleware\ble/cy_ble.c ****             if(!intrNotify.configFlag)
 581:Generated_Source\PSoC6\pdl\middleware\ble/cy_ble.c ****             {
 582:Generated_Source\PSoC6\pdl\middleware\ble/cy_ble.c ****                 uint32_t rTimeout = 2000u; /* us */
 583:Generated_Source\PSoC6\pdl\middleware\ble/cy_ble.c ****                 cy_en_ipc_pipe_status_t ipcStatus;
 584:Generated_Source\PSoC6\pdl\middleware\ble/cy_ble.c ****                 cy_stc_sysint_t intrConfig =
 585:Generated_Source\PSoC6\pdl\middleware\ble/cy_ble.c ****                 {
 586:Generated_Source\PSoC6\pdl\middleware\ble/cy_ble.c ****                     .intrPriority = (uint32_t)CY_BLE_INTR_NOTIFY_IPC_INTR_PRIOR,
 587:Generated_Source\PSoC6\pdl\middleware\ble/cy_ble.c ****                     .intrSrc      = (IRQn_Type)CY_IPC_INTR_NUM_TO_VECT((int32_t)CY_BLE_INTR_NOTIFY_
 588:Generated_Source\PSoC6\pdl\middleware\ble/cy_ble.c ****                 };
 589:Generated_Source\PSoC6\pdl\middleware\ble/cy_ble.c ****             
 590:Generated_Source\PSoC6\pdl\middleware\ble/cy_ble.c ****                 /* Initialize the interrupt controller for CM4 and IPC Interrupt */
 591:Generated_Source\PSoC6\pdl\middleware\ble/cy_ble.c ****                 (void)Cy_SysInt_Init(&intrConfig, &Cy_BLE_HAL_IntrNotifyIpcHandler);
 592:Generated_Source\PSoC6\pdl\middleware\ble/cy_ble.c ****                 NVIC_EnableIRQ(intrConfig.intrSrc);
 593:Generated_Source\PSoC6\pdl\middleware\ble/cy_ble.c ****         
 594:Generated_Source\PSoC6\pdl\middleware\ble/cy_ble.c ****                 /* Do not bring up an IPC release interrupt here, only set up a notify interrupt */
 595:Generated_Source\PSoC6\pdl\middleware\ble/cy_ble.c ****                 Cy_IPC_Drv_SetInterruptMask(Cy_IPC_Drv_GetIntrBaseAddr(CY_BLE_INTR_NOTIFY_IPC_INTR)
 596:Generated_Source\PSoC6\pdl\middleware\ble/cy_ble.c ****                                             CY_IPC_NO_NOTIFICATION, (1uL << CY_BLE_INTR_NOTIFY_IPC_
 597:Generated_Source\PSoC6\pdl\middleware\ble/cy_ble.c ****                 
 598:Generated_Source\PSoC6\pdl\middleware\ble/cy_ble.c ****                 /* 
 599:Generated_Source\PSoC6\pdl\middleware\ble/cy_ble.c ****                  * Send the address of the intrNotify structure to the controller core via CyPipe
ARM GAS  C:\Users\kateb\AppData\Local\Temp\cciDLH78.s 			page 12


 600:Generated_Source\PSoC6\pdl\middleware\ble/cy_ble.c ****                  * The IPC Pipe can be busy, then try sending a message during 2 ms. 
 601:Generated_Source\PSoC6\pdl\middleware\ble/cy_ble.c ****                  */
 602:Generated_Source\PSoC6\pdl\middleware\ble/cy_ble.c ****                 do
 603:Generated_Source\PSoC6\pdl\middleware\ble/cy_ble.c ****                 {
 604:Generated_Source\PSoC6\pdl\middleware\ble/cy_ble.c ****                     ipcStatus = Cy_IPC_Pipe_SendMessage(CY_BLE_IPC_CONTROLLER_ADDR, CY_BLE_IPC_HOST
 605:Generated_Source\PSoC6\pdl\middleware\ble/cy_ble.c ****                                                         (void *)&intrNotify, NULL);
 606:Generated_Source\PSoC6\pdl\middleware\ble/cy_ble.c ****                     Cy_SysLib_DelayUs(1u);
 607:Generated_Source\PSoC6\pdl\middleware\ble/cy_ble.c ****                     rTimeout--;
 608:Generated_Source\PSoC6\pdl\middleware\ble/cy_ble.c ****                 }while((ipcStatus != CY_IPC_PIPE_SUCCESS) && (rTimeout != 0u));
 609:Generated_Source\PSoC6\pdl\middleware\ble/cy_ble.c ****               
 610:Generated_Source\PSoC6\pdl\middleware\ble/cy_ble.c ****                 if(ipcStatus != CY_IPC_PIPE_SUCCESS)
 611:Generated_Source\PSoC6\pdl\middleware\ble/cy_ble.c ****                 {
 612:Generated_Source\PSoC6\pdl\middleware\ble/cy_ble.c ****                     apiResult = CY_BLE_ERROR_INVALID_OPERATION;
 613:Generated_Source\PSoC6\pdl\middleware\ble/cy_ble.c ****                 }
 614:Generated_Source\PSoC6\pdl\middleware\ble/cy_ble.c ****             }
 615:Generated_Source\PSoC6\pdl\middleware\ble/cy_ble.c ****         }
 616:Generated_Source\PSoC6\pdl\middleware\ble/cy_ble.c ****         #else 
 617:Generated_Source\PSoC6\pdl\middleware\ble/cy_ble.c ****             intrNotifyPtr = &intrNotify; 
 618:Generated_Source\PSoC6\pdl\middleware\ble/cy_ble.c ****         #endif /* CY_BLE_STACK_MODE_HOST_IPC */
 619:Generated_Source\PSoC6\pdl\middleware\ble/cy_ble.c ****        
 620:Generated_Source\PSoC6\pdl\middleware\ble/cy_ble.c ****     }
 621:Generated_Source\PSoC6\pdl\middleware\ble/cy_ble.c ****     else
 622:Generated_Source\PSoC6\pdl\middleware\ble/cy_ble.c ****     {
 623:Generated_Source\PSoC6\pdl\middleware\ble/cy_ble.c ****         apiResult = CY_BLE_ERROR_INVALID_PARAMETER;
 624:Generated_Source\PSoC6\pdl\middleware\ble/cy_ble.c ****     }
 625:Generated_Source\PSoC6\pdl\middleware\ble/cy_ble.c ****     return apiResult; 
 626:Generated_Source\PSoC6\pdl\middleware\ble/cy_ble.c **** }
 627:Generated_Source\PSoC6\pdl\middleware\ble/cy_ble.c **** 
 628:Generated_Source\PSoC6\pdl\middleware\ble/cy_ble.c **** 
 629:Generated_Source\PSoC6\pdl\middleware\ble/cy_ble.c **** /*******************************************************************************
 630:Generated_Source\PSoC6\pdl\middleware\ble/cy_ble.c **** * Function Name: Cy_BLE_UnRegisterInterruptCallback
 631:Generated_Source\PSoC6\pdl\middleware\ble/cy_ble.c **** ****************************************************************************//**
 632:Generated_Source\PSoC6\pdl\middleware\ble/cy_ble.c **** *
 633:Generated_Source\PSoC6\pdl\middleware\ble/cy_ble.c **** *  This function un-registers callback which exposed BLE interrupt 
 634:Generated_Source\PSoC6\pdl\middleware\ble/cy_ble.c **** *  notifications to the application. 
 635:Generated_Source\PSoC6\pdl\middleware\ble/cy_ble.c **** *
 636:Generated_Source\PSoC6\pdl\middleware\ble/cy_ble.c **** * \return
 637:Generated_Source\PSoC6\pdl\middleware\ble/cy_ble.c **** * \ref cy_en_ble_api_result_t : Return value indicates if the function succeeded or
 638:Generated_Source\PSoC6\pdl\middleware\ble/cy_ble.c **** *  failed. The following are possible error codes.
 639:Generated_Source\PSoC6\pdl\middleware\ble/cy_ble.c **** *    
 640:Generated_Source\PSoC6\pdl\middleware\ble/cy_ble.c **** *    Errors codes                   | Description
 641:Generated_Source\PSoC6\pdl\middleware\ble/cy_ble.c **** *    ------------                   | -----------
 642:Generated_Source\PSoC6\pdl\middleware\ble/cy_ble.c **** *    CY_BLE_SUCCESS                 | The callback is registered successfully.
 643:Generated_Source\PSoC6\pdl\middleware\ble/cy_ble.c **** *    CY_BLE_ERROR_INVALID_OPERATION | The IPC channel is busy (Dual core mode only).
 644:Generated_Source\PSoC6\pdl\middleware\ble/cy_ble.c **** *
 645:Generated_Source\PSoC6\pdl\middleware\ble/cy_ble.c **** *******************************************************************************/
 646:Generated_Source\PSoC6\pdl\middleware\ble/cy_ble.c **** cy_en_ble_api_result_t Cy_BLE_UnRegisterInterruptCallback(void)
 647:Generated_Source\PSoC6\pdl\middleware\ble/cy_ble.c **** {
 648:Generated_Source\PSoC6\pdl\middleware\ble/cy_ble.c ****     cy_en_ble_api_result_t apiResult = CY_BLE_SUCCESS;
 649:Generated_Source\PSoC6\pdl\middleware\ble/cy_ble.c ****     if(Cy_BLE_InterruptCallback != NULL)
 650:Generated_Source\PSoC6\pdl\middleware\ble/cy_ble.c ****     {
 651:Generated_Source\PSoC6\pdl\middleware\ble/cy_ble.c ****         /* Clean interrupt mask */
 652:Generated_Source\PSoC6\pdl\middleware\ble/cy_ble.c ****         apiResult = Cy_BLE_RegisterInterruptCallback((uint32_t)CY_BLE_INTR_CALLBACK_NONE, 
 653:Generated_Source\PSoC6\pdl\middleware\ble/cy_ble.c ****                                                      Cy_BLE_InterruptCallback);
 654:Generated_Source\PSoC6\pdl\middleware\ble/cy_ble.c ****         if(apiResult == CY_BLE_SUCCESS)
 655:Generated_Source\PSoC6\pdl\middleware\ble/cy_ble.c ****         {
 656:Generated_Source\PSoC6\pdl\middleware\ble/cy_ble.c ****             /* Clean callback pointer */
ARM GAS  C:\Users\kateb\AppData\Local\Temp\cciDLH78.s 			page 13


 657:Generated_Source\PSoC6\pdl\middleware\ble/cy_ble.c ****             Cy_BLE_InterruptCallback = NULL;
 658:Generated_Source\PSoC6\pdl\middleware\ble/cy_ble.c ****         }
 659:Generated_Source\PSoC6\pdl\middleware\ble/cy_ble.c ****     }
 660:Generated_Source\PSoC6\pdl\middleware\ble/cy_ble.c ****     return(apiResult);    
 661:Generated_Source\PSoC6\pdl\middleware\ble/cy_ble.c **** }
 662:Generated_Source\PSoC6\pdl\middleware\ble/cy_ble.c **** 
 663:Generated_Source\PSoC6\pdl\middleware\ble/cy_ble.c **** #endif /* (CY_BLE_INTR_NOTIFY_FEATURE_ENABLED) && (CY_BLE_HOST_CORE) */
 664:Generated_Source\PSoC6\pdl\middleware\ble/cy_ble.c **** 
 665:Generated_Source\PSoC6\pdl\middleware\ble/cy_ble.c **** 
 666:Generated_Source\PSoC6\pdl\middleware\ble/cy_ble.c **** #if (CY_BLE_MODE_PROFILE)
 667:Generated_Source\PSoC6\pdl\middleware\ble/cy_ble.c **** 
 668:Generated_Source\PSoC6\pdl\middleware\ble/cy_ble.c **** /*******************************************************************************
 669:Generated_Source\PSoC6\pdl\middleware\ble/cy_ble.c **** * Function Name: Cy_BLE_RegisterAppHostCallback
 670:Generated_Source\PSoC6\pdl\middleware\ble/cy_ble.c **** ****************************************************************************//**
 671:Generated_Source\PSoC6\pdl\middleware\ble/cy_ble.c **** *
 672:Generated_Source\PSoC6\pdl\middleware\ble/cy_ble.c **** * This function registers an application Host callback (BLE RTOS hook). 
 673:Generated_Source\PSoC6\pdl\middleware\ble/cy_ble.c **** * The user can trigger an RTOS BLE task if the application Host callback was
 674:Generated_Source\PSoC6\pdl\middleware\ble/cy_ble.c **** * called.
 675:Generated_Source\PSoC6\pdl\middleware\ble/cy_ble.c **** * 
 676:Generated_Source\PSoC6\pdl\middleware\ble/cy_ble.c **** * Theory of operation:
 677:Generated_Source\PSoC6\pdl\middleware\ble/cy_ble.c **** * The BLE Middleware triggers this callback when the BLE Stack controller needs
 678:Generated_Source\PSoC6\pdl\middleware\ble/cy_ble.c **** * to process pending Stack events (by calling Cy_BLE_ProcessEvents()). This
 679:Generated_Source\PSoC6\pdl\middleware\ble/cy_ble.c **** * callback executes from within an ISR and must be very short.  
 680:Generated_Source\PSoC6\pdl\middleware\ble/cy_ble.c **** *    
 681:Generated_Source\PSoC6\pdl\middleware\ble/cy_ble.c **** * \note The application Host callback is called from the context of a high-
 682:Generated_Source\PSoC6\pdl\middleware\ble/cy_ble.c **** * priority ISR. Some RTOS (e.g. FreeRTOS) have restrictions on calling the RTOS
 683:Generated_Source\PSoC6\pdl\middleware\ble/cy_ble.c **** * functions from a high-priority ISR. The user application is responsible for
 684:Generated_Source\PSoC6\pdl\middleware\ble/cy_ble.c **** * integration of the BLE RTOS hook and RTOS functions and must insure that RTOS 
 685:Generated_Source\PSoC6\pdl\middleware\ble/cy_ble.c **** * allows to call RTOS API from BLE interrupt context.  
 686:Generated_Source\PSoC6\pdl\middleware\ble/cy_ble.c **** * If direct call is forbidden one of the possible solutions is to trig a 
 687:Generated_Source\PSoC6\pdl\middleware\ble/cy_ble.c **** * low-priority interrupt from the application Host callback and then call the
 688:Generated_Source\PSoC6\pdl\middleware\ble/cy_ble.c **** * RTOS functions from a low-priority interrupt. For details refer to specific
 689:Generated_Source\PSoC6\pdl\middleware\ble/cy_ble.c **** * RTOS documentation.
 690:Generated_Source\PSoC6\pdl\middleware\ble/cy_ble.c **** *   
 691:Generated_Source\PSoC6\pdl\middleware\ble/cy_ble.c **** * \param CallBack
 692:Generated_Source\PSoC6\pdl\middleware\ble/cy_ble.c **** * The pointer to the application Host callback.
 693:Generated_Source\PSoC6\pdl\middleware\ble/cy_ble.c **** *
 694:Generated_Source\PSoC6\pdl\middleware\ble/cy_ble.c **** * \return
 695:Generated_Source\PSoC6\pdl\middleware\ble/cy_ble.c **** *  Error Codes                        | Description
 696:Generated_Source\PSoC6\pdl\middleware\ble/cy_ble.c **** *  ------------                       | -----------
 697:Generated_Source\PSoC6\pdl\middleware\ble/cy_ble.c **** *   CY_BLE_SUCCESS                    | The callback was registered successfully.
 698:Generated_Source\PSoC6\pdl\middleware\ble/cy_ble.c **** *   CY_BLE_ERROR_INVALID_PARAMETER    | On specifying NULL as the input parameter.
 699:Generated_Source\PSoC6\pdl\middleware\ble/cy_ble.c **** *
 700:Generated_Source\PSoC6\pdl\middleware\ble/cy_ble.c **** *******************************************************************************/
 701:Generated_Source\PSoC6\pdl\middleware\ble/cy_ble.c **** cy_en_ble_api_result_t Cy_BLE_RegisterAppHostCallback(cy_ble_app_notify_callback_t CallBack)
 702:Generated_Source\PSoC6\pdl\middleware\ble/cy_ble.c **** {
 703:Generated_Source\PSoC6\pdl\middleware\ble/cy_ble.c ****     cy_en_ble_api_result_t apiResult = CY_BLE_SUCCESS;
 704:Generated_Source\PSoC6\pdl\middleware\ble/cy_ble.c ****     
 705:Generated_Source\PSoC6\pdl\middleware\ble/cy_ble.c ****     if(CallBack != NULL)
 706:Generated_Source\PSoC6\pdl\middleware\ble/cy_ble.c ****     {
 707:Generated_Source\PSoC6\pdl\middleware\ble/cy_ble.c ****         Cy_BLE_HostRegisteredCallback = CallBack;
 708:Generated_Source\PSoC6\pdl\middleware\ble/cy_ble.c ****     }
 709:Generated_Source\PSoC6\pdl\middleware\ble/cy_ble.c ****     else
 710:Generated_Source\PSoC6\pdl\middleware\ble/cy_ble.c ****     {
 711:Generated_Source\PSoC6\pdl\middleware\ble/cy_ble.c ****         apiResult = CY_BLE_ERROR_INVALID_PARAMETER;
 712:Generated_Source\PSoC6\pdl\middleware\ble/cy_ble.c ****     }   
 713:Generated_Source\PSoC6\pdl\middleware\ble/cy_ble.c ****     return apiResult;
ARM GAS  C:\Users\kateb\AppData\Local\Temp\cciDLH78.s 			page 14


 714:Generated_Source\PSoC6\pdl\middleware\ble/cy_ble.c **** }
 715:Generated_Source\PSoC6\pdl\middleware\ble/cy_ble.c **** 
 716:Generated_Source\PSoC6\pdl\middleware\ble/cy_ble.c **** /*******************************************************************************
 717:Generated_Source\PSoC6\pdl\middleware\ble/cy_ble.c **** * Function Name: Cy_BLE_UnRegisterAppHostCallback
 718:Generated_Source\PSoC6\pdl\middleware\ble/cy_ble.c **** ****************************************************************************//**
 719:Generated_Source\PSoC6\pdl\middleware\ble/cy_ble.c **** *
 720:Generated_Source\PSoC6\pdl\middleware\ble/cy_ble.c **** * This function un-registers an application Host callback (BLE RTOS hook). 
 721:Generated_Source\PSoC6\pdl\middleware\ble/cy_ble.c **** *
 722:Generated_Source\PSoC6\pdl\middleware\ble/cy_ble.c **** *******************************************************************************/
 723:Generated_Source\PSoC6\pdl\middleware\ble/cy_ble.c **** void Cy_BLE_UnRegisterAppHostCallback(void)
 724:Generated_Source\PSoC6\pdl\middleware\ble/cy_ble.c **** {
 725:Generated_Source\PSoC6\pdl\middleware\ble/cy_ble.c ****     Cy_BLE_HostRegisteredCallback = NULL;
 726:Generated_Source\PSoC6\pdl\middleware\ble/cy_ble.c **** }
 727:Generated_Source\PSoC6\pdl\middleware\ble/cy_ble.c **** #endif /* (CY_BLE_MODE_PROFILE) */
 728:Generated_Source\PSoC6\pdl\middleware\ble/cy_ble.c **** 
 729:Generated_Source\PSoC6\pdl\middleware\ble/cy_ble.c **** 
 730:Generated_Source\PSoC6\pdl\middleware\ble/cy_ble.c **** #if (CY_BLE_USE_DEEP_SLEEP != 0u)
 731:Generated_Source\PSoC6\pdl\middleware\ble/cy_ble.c **** /*******************************************************************************
 732:Generated_Source\PSoC6\pdl\middleware\ble/cy_ble.c **** * Function Name: Cy_BLE_DeepSleepCallback
 733:Generated_Source\PSoC6\pdl\middleware\ble/cy_ble.c **** ****************************************************************************//**
 734:Generated_Source\PSoC6\pdl\middleware\ble/cy_ble.c **** *
 735:Generated_Source\PSoC6\pdl\middleware\ble/cy_ble.c **** * This function requests the BLE Stack to put Bluetooth Low Energy Sub-System
 736:Generated_Source\PSoC6\pdl\middleware\ble/cy_ble.c **** * (BLESS) to DeepSleep mode.
 737:Generated_Source\PSoC6\pdl\middleware\ble/cy_ble.c **** *
 738:Generated_Source\PSoC6\pdl\middleware\ble/cy_ble.c **** * It is registered to the system power mode by Cy_SysPm_RegisterCallback()
 739:Generated_Source\PSoC6\pdl\middleware\ble/cy_ble.c **** * function with CY_SYSPM_DEEPSLEEP type. After registration it is called by
 740:Generated_Source\PSoC6\pdl\middleware\ble/cy_ble.c **** * Cy_SysPm_DeepSleep() function prior entering the core into the Deep Sleep
 741:Generated_Source\PSoC6\pdl\middleware\ble/cy_ble.c **** * power mode.
 742:Generated_Source\PSoC6\pdl\middleware\ble/cy_ble.c **** *
 743:Generated_Source\PSoC6\pdl\middleware\ble/cy_ble.c **** * When it is called with the enMode parameter set to CY_SYSPM_CHECK_READY,
 744:Generated_Source\PSoC6\pdl\middleware\ble/cy_ble.c **** * function enters BLESS to CY_BLE_BLESS_DEEPSLEEP mode. It also checks the
 745:Generated_Source\PSoC6\pdl\middleware\ble/cy_ble.c **** * BLE Subsystem's current operational mode. When the
 746:Generated_Source\PSoC6\pdl\middleware\ble/cy_ble.c **** * Cy_BLE_StackGetBleSsState() function returns CY_BLE_BLESS_STATE_ECO_ON or
 747:Generated_Source\PSoC6\pdl\middleware\ble/cy_ble.c **** * CY_BLE_BLESS_STATE_DEEPSLEEP state, this function returns CY_SYSPM_PASS and
 748:Generated_Source\PSoC6\pdl\middleware\ble/cy_ble.c **** * allows to put the core into the Deep Sleep power mode.
 749:Generated_Source\PSoC6\pdl\middleware\ble/cy_ble.c **** * At all other times, the function tries to enter core into sleep mode.
 750:Generated_Source\PSoC6\pdl\middleware\ble/cy_ble.c **** *
 751:Generated_Source\PSoC6\pdl\middleware\ble/cy_ble.c **** * This function is available only when BLE low power mode is enabled in the
 752:Generated_Source\PSoC6\pdl\middleware\ble/cy_ble.c **** * Advanced tab of customizer.
 753:Generated_Source\PSoC6\pdl\middleware\ble/cy_ble.c **** *
 754:Generated_Source\PSoC6\pdl\middleware\ble/cy_ble.c **** * \param
 755:Generated_Source\PSoC6\pdl\middleware\ble/cy_ble.c **** * callbackParams  pointer to the structure with the syspm callback parameters
 756:Generated_Source\PSoC6\pdl\middleware\ble/cy_ble.c **** *                 callbackParams->mode - the callback mode, see description 
 757:Generated_Source\PSoC6\pdl\middleware\ble/cy_ble.c **** *                 of the cy_en_syspm_callback_mode_t type.
 758:Generated_Source\PSoC6\pdl\middleware\ble/cy_ble.c **** *
 759:Generated_Source\PSoC6\pdl\middleware\ble/cy_ble.c **** * \return
 760:Generated_Source\PSoC6\pdl\middleware\ble/cy_ble.c **** * * CY_SYSPM_SUCCESS  - Entered and exited from DeepSleep
 761:Generated_Source\PSoC6\pdl\middleware\ble/cy_ble.c **** * * CY_SYSPM_FAIL     - DeepSleep not entered.
 762:Generated_Source\PSoC6\pdl\middleware\ble/cy_ble.c **** *
 763:Generated_Source\PSoC6\pdl\middleware\ble/cy_ble.c **** *******************************************************************************/
 764:Generated_Source\PSoC6\pdl\middleware\ble/cy_ble.c **** cy_en_syspm_status_t Cy_BLE_DeepSleepCallback(cy_stc_syspm_callback_params_t *callbackParams)
 765:Generated_Source\PSoC6\pdl\middleware\ble/cy_ble.c **** {
  29              		.loc 1 765 0
  30              		.cfi_startproc
  31              		@ args = 0, pretend = 0, frame = 0
  32              		@ frame_needed = 0, uses_anonymous_args = 0
  33              	.LVL0:
ARM GAS  C:\Users\kateb\AppData\Local\Temp\cciDLH78.s 			page 15


  34 0000 10B5     		push	{r4, lr}
  35              		.cfi_def_cfa_offset 8
  36              		.cfi_offset 4, -8
  37              		.cfi_offset 14, -4
 766:Generated_Source\PSoC6\pdl\middleware\ble/cy_ble.c ****     cy_en_syspm_status_t retVal;
 767:Generated_Source\PSoC6\pdl\middleware\ble/cy_ble.c ****     static uint32_t interruptState = 0u;
 768:Generated_Source\PSoC6\pdl\middleware\ble/cy_ble.c ****     cy_en_ble_bless_state_t blessState;
 769:Generated_Source\PSoC6\pdl\middleware\ble/cy_ble.c ****     
 770:Generated_Source\PSoC6\pdl\middleware\ble/cy_ble.c ****     /* Local variable to store the status of BLESS Hardware block */
 771:Generated_Source\PSoC6\pdl\middleware\ble/cy_ble.c ****     cy_en_ble_lp_mode_t sleepMode;
 772:Generated_Source\PSoC6\pdl\middleware\ble/cy_ble.c **** 
 773:Generated_Source\PSoC6\pdl\middleware\ble/cy_ble.c ****     switch(callbackParams->mode)
  38              		.loc 1 773 0
  39 0002 0378     		ldrb	r3, [r0]	@ zero_extendqisi2
  40 0004 012B     		cmp	r3, #1
  41 0006 02D0     		beq	.L3
  42 0008 082B     		cmp	r3, #8
  43 000a 29D0     		beq	.L4
  44 000c 2EE0     		b	.L12
  45              	.L3:
 774:Generated_Source\PSoC6\pdl\middleware\ble/cy_ble.c ****     {
 775:Generated_Source\PSoC6\pdl\middleware\ble/cy_ble.c ****         case (CY_SYSPM_CHECK_READY):
 776:Generated_Source\PSoC6\pdl\middleware\ble/cy_ble.c ****         #if (CY_BLE_MODE_PROFILE)
 777:Generated_Source\PSoC6\pdl\middleware\ble/cy_ble.c ****             if(Cy_BLE_GetState() == CY_BLE_STATE_INITIALIZING)
  46              		.loc 1 777 0
  47 000e 1B4B     		ldr	r3, .L14
  48 0010 1B78     		ldrb	r3, [r3]	@ zero_extendqisi2
  49 0012 012B     		cmp	r3, #1
  50 0014 2CD0     		beq	.L7
 778:Generated_Source\PSoC6\pdl\middleware\ble/cy_ble.c ****             {
 779:Generated_Source\PSoC6\pdl\middleware\ble/cy_ble.c ****                 retVal = CY_SYSPM_FAIL;
 780:Generated_Source\PSoC6\pdl\middleware\ble/cy_ble.c ****             }
 781:Generated_Source\PSoC6\pdl\middleware\ble/cy_ble.c ****             else
 782:Generated_Source\PSoC6\pdl\middleware\ble/cy_ble.c ****         #endif  /*(CY_BLE_MODE_PROFILE) */
 783:Generated_Source\PSoC6\pdl\middleware\ble/cy_ble.c ****             
 784:Generated_Source\PSoC6\pdl\middleware\ble/cy_ble.c ****             if(Cy_IPC_Sema_Status(CY_BLE_SEMA) == CY_IPC_SEMA_STATUS_LOCKED)
  51              		.loc 1 784 0
  52 0016 0320     		movs	r0, #3
  53              	.LVL1:
  54 0018 FFF7FEFF 		bl	Cy_IPC_Sema_Status
  55              	.LVL2:
  56 001c 184B     		ldr	r3, .L14+4
  57 001e 9842     		cmp	r0, r3
  58 0020 28D0     		beq	.L8
 785:Generated_Source\PSoC6\pdl\middleware\ble/cy_ble.c ****             {
 786:Generated_Source\PSoC6\pdl\middleware\ble/cy_ble.c ****                 /* System do not enter deepsleep if BLE Host start write operation */
 787:Generated_Source\PSoC6\pdl\middleware\ble/cy_ble.c ****                 retVal = CY_SYSPM_FAIL;
 788:Generated_Source\PSoC6\pdl\middleware\ble/cy_ble.c ****             }
 789:Generated_Source\PSoC6\pdl\middleware\ble/cy_ble.c ****             else
 790:Generated_Source\PSoC6\pdl\middleware\ble/cy_ble.c **** 
 791:Generated_Source\PSoC6\pdl\middleware\ble/cy_ble.c ****         #if(CY_BLE_STACK_CONTR_CORE)       
 792:Generated_Source\PSoC6\pdl\middleware\ble/cy_ble.c ****             if (Cy_BLE_HAL_IsEcoCpuClockSrc() == 1u)
 793:Generated_Source\PSoC6\pdl\middleware\ble/cy_ble.c ****             {            
 794:Generated_Source\PSoC6\pdl\middleware\ble/cy_ble.c ****                 /* System never enters deepsleep if BLE ECO is CPU source */
 795:Generated_Source\PSoC6\pdl\middleware\ble/cy_ble.c ****                 retVal = CY_SYSPM_FAIL;
 796:Generated_Source\PSoC6\pdl\middleware\ble/cy_ble.c ****             }
 797:Generated_Source\PSoC6\pdl\middleware\ble/cy_ble.c ****             else
ARM GAS  C:\Users\kateb\AppData\Local\Temp\cciDLH78.s 			page 16


 798:Generated_Source\PSoC6\pdl\middleware\ble/cy_ble.c ****         #endif /* (CY_BLE_STACK_CONTR_CORE) */
 799:Generated_Source\PSoC6\pdl\middleware\ble/cy_ble.c ****             {        
 800:Generated_Source\PSoC6\pdl\middleware\ble/cy_ble.c ****         #if(!CY_BLE_STACK_MODE_HOST_IPC)
 801:Generated_Source\PSoC6\pdl\middleware\ble/cy_ble.c ****                 cy_en_ble_api_result_t retIsControllerActive;
 802:Generated_Source\PSoC6\pdl\middleware\ble/cy_ble.c ****         #endif /* !CY_BLE_STACK_MODE_HOST_IPC */   
 803:Generated_Source\PSoC6\pdl\middleware\ble/cy_ble.c ****         
 804:Generated_Source\PSoC6\pdl\middleware\ble/cy_ble.c ****         #if(CY_BLE_STACK_MODE_HOST_IPC)
 805:Generated_Source\PSoC6\pdl\middleware\ble/cy_ble.c ****                 /* Disable global interrupt to prevent changes from any other interrupt ISR */
 806:Generated_Source\PSoC6\pdl\middleware\ble/cy_ble.c ****                 interruptState = Cy_SysLib_EnterCriticalSection();
  59              		.loc 1 806 0
  60 0022 FFF7FEFF 		bl	Cy_SysLib_EnterCriticalSection
  61              	.LVL3:
  62 0026 174B     		ldr	r3, .L14+8
  63 0028 1860     		str	r0, [r3]
 807:Generated_Source\PSoC6\pdl\middleware\ble/cy_ble.c ****         #endif /* CY_BLE_STACK_MODE_HOST_IPC */
 808:Generated_Source\PSoC6\pdl\middleware\ble/cy_ble.c ****                
 809:Generated_Source\PSoC6\pdl\middleware\ble/cy_ble.c ****                 /* Put BLESS into Deep Sleep and check the return status */
 810:Generated_Source\PSoC6\pdl\middleware\ble/cy_ble.c ****                 sleepMode = Cy_BLE_StackEnterLPM(CY_BLE_BLESS_DEEPSLEEP);
  64              		.loc 1 810 0
  65 002a 0220     		movs	r0, #2
  66 002c FFF7FEFF 		bl	Cy_BLE_StackEnterLPM
  67              	.LVL4:
  68 0030 0446     		mov	r4, r0
  69              	.LVL5:
 811:Generated_Source\PSoC6\pdl\middleware\ble/cy_ble.c **** 
 812:Generated_Source\PSoC6\pdl\middleware\ble/cy_ble.c ****         #if(!CY_BLE_STACK_MODE_HOST_IPC)
 813:Generated_Source\PSoC6\pdl\middleware\ble/cy_ble.c ****                 /* Disable global interrupt to prevent changes from any other interrupt ISR */
 814:Generated_Source\PSoC6\pdl\middleware\ble/cy_ble.c ****                 interruptState = Cy_SysLib_EnterCriticalSection();
 815:Generated_Source\PSoC6\pdl\middleware\ble/cy_ble.c ****         #endif /* !CY_BLE_STACK_MODE_HOST_IPC */
 816:Generated_Source\PSoC6\pdl\middleware\ble/cy_ble.c **** 
 817:Generated_Source\PSoC6\pdl\middleware\ble/cy_ble.c ****                 /* Check the Status of BLESS */
 818:Generated_Source\PSoC6\pdl\middleware\ble/cy_ble.c ****                 blessState = Cy_BLE_StackGetBleSsState();
  70              		.loc 1 818 0
  71 0032 FFF7FEFF 		bl	Cy_BLE_StackGetBleSsState
  72              	.LVL6:
 819:Generated_Source\PSoC6\pdl\middleware\ble/cy_ble.c **** 
 820:Generated_Source\PSoC6\pdl\middleware\ble/cy_ble.c ****                 #if(!CY_BLE_STACK_MODE_HOST_IPC)
 821:Generated_Source\PSoC6\pdl\middleware\ble/cy_ble.c ****                 if(blessState == CY_BLE_BLESS_STATE_STOPPED)
 822:Generated_Source\PSoC6\pdl\middleware\ble/cy_ble.c ****                 {
 823:Generated_Source\PSoC6\pdl\middleware\ble/cy_ble.c ****                     retVal = CY_SYSPM_SUCCESS;
 824:Generated_Source\PSoC6\pdl\middleware\ble/cy_ble.c ****                 }
 825:Generated_Source\PSoC6\pdl\middleware\ble/cy_ble.c ****                 else
 826:Generated_Source\PSoC6\pdl\middleware\ble/cy_ble.c ****                 #endif /* (!CY_BLE_STACK_MODE_HOST_IPC)*/
 827:Generated_Source\PSoC6\pdl\middleware\ble/cy_ble.c ****                 if(sleepMode == CY_BLE_BLESS_DEEPSLEEP)
  73              		.loc 1 827 0
  74 0036 022C     		cmp	r4, #2
  75 0038 05D1     		bne	.L9
 828:Generated_Source\PSoC6\pdl\middleware\ble/cy_ble.c ****                 {
 829:Generated_Source\PSoC6\pdl\middleware\ble/cy_ble.c **** 
 830:Generated_Source\PSoC6\pdl\middleware\ble/cy_ble.c ****                     #if(!CY_BLE_STACK_MODE_HOST_IPC)
 831:Generated_Source\PSoC6\pdl\middleware\ble/cy_ble.c ****                     retIsControllerActive = Cy_BLE_IsControllerActive(CY_BLE_CONTROLLER_SLEEP_MODE_
 832:Generated_Source\PSoC6\pdl\middleware\ble/cy_ble.c ****                     #endif /* !CY_BLE_STACK_MODE_HOST_IPC */
 833:Generated_Source\PSoC6\pdl\middleware\ble/cy_ble.c **** 
 834:Generated_Source\PSoC6\pdl\middleware\ble/cy_ble.c ****                     if(((blessState == CY_BLE_BLESS_STATE_ECO_ON) || (blessState == CY_BLE_BLESS_ST
  76              		.loc 1 834 0
  77 003a 0328     		cmp	r0, #3
  78 003c 05D0     		beq	.L10
ARM GAS  C:\Users\kateb\AppData\Local\Temp\cciDLH78.s 			page 17


  79              		.loc 1 834 0 is_stmt 0 discriminator 1
  80 003e 0528     		cmp	r0, #5
  81 0040 05D1     		bne	.L11
 835:Generated_Source\PSoC6\pdl\middleware\ble/cy_ble.c ****                     #if(!CY_BLE_STACK_MODE_HOST_IPC)
 836:Generated_Source\PSoC6\pdl\middleware\ble/cy_ble.c ****                         && (retIsControllerActive == CY_BLE_SUCCESS)
 837:Generated_Source\PSoC6\pdl\middleware\ble/cy_ble.c ****                     #endif /* !CY_BLE_STACK_MODE_HOST_IPC */                    
 838:Generated_Source\PSoC6\pdl\middleware\ble/cy_ble.c ****                         )
 839:Generated_Source\PSoC6\pdl\middleware\ble/cy_ble.c ****                     {
 840:Generated_Source\PSoC6\pdl\middleware\ble/cy_ble.c ****                         /* Enter device deep sleep */
 841:Generated_Source\PSoC6\pdl\middleware\ble/cy_ble.c ****                         retVal = CY_SYSPM_SUCCESS;
  82              		.loc 1 841 0 is_stmt 1
  83 0042 0024     		movs	r4, #0
  84              	.LVL7:
  85 0044 04E0     		b	.L5
  86              	.LVL8:
  87              	.L9:
 842:Generated_Source\PSoC6\pdl\middleware\ble/cy_ble.c ****                     }
 843:Generated_Source\PSoC6\pdl\middleware\ble/cy_ble.c ****                     else
 844:Generated_Source\PSoC6\pdl\middleware\ble/cy_ble.c ****                     {
 845:Generated_Source\PSoC6\pdl\middleware\ble/cy_ble.c ****                         /* The BLESS hardware block cannot go to Deep Sleep, try sleep mode */
 846:Generated_Source\PSoC6\pdl\middleware\ble/cy_ble.c ****                         retVal = CY_SYSPM_FAIL;
 847:Generated_Source\PSoC6\pdl\middleware\ble/cy_ble.c ****                     }
 848:Generated_Source\PSoC6\pdl\middleware\ble/cy_ble.c ****                 }
 849:Generated_Source\PSoC6\pdl\middleware\ble/cy_ble.c ****                 else
 850:Generated_Source\PSoC6\pdl\middleware\ble/cy_ble.c ****                 {
 851:Generated_Source\PSoC6\pdl\middleware\ble/cy_ble.c ****                 #if(!CY_BLE_STACK_MODE_HOST_IPC)
 852:Generated_Source\PSoC6\pdl\middleware\ble/cy_ble.c ****                     retIsControllerActive = Cy_BLE_IsControllerActive(CY_BLE_CONTROLLER_SLEEP_MODE_
 853:Generated_Source\PSoC6\pdl\middleware\ble/cy_ble.c **** 
 854:Generated_Source\PSoC6\pdl\middleware\ble/cy_ble.c ****                     if((blessState != CY_BLE_BLESS_STATE_EVENT_CLOSE) && 
 855:Generated_Source\PSoC6\pdl\middleware\ble/cy_ble.c ****                        (retIsControllerActive == CY_BLE_SUCCESS))
 856:Generated_Source\PSoC6\pdl\middleware\ble/cy_ble.c ****                     {
 857:Generated_Source\PSoC6\pdl\middleware\ble/cy_ble.c ****                         /* If the BLESS hardware block cannot go to Deep Sleep and BLE Event has no
 858:Generated_Source\PSoC6\pdl\middleware\ble/cy_ble.c ****                          * closed yet, then place CPU to Sleep */
 859:Generated_Source\PSoC6\pdl\middleware\ble/cy_ble.c ****                         (void)Cy_SysPm_Sleep(CY_SYSPM_WAIT_FOR_INTERRUPT);
 860:Generated_Source\PSoC6\pdl\middleware\ble/cy_ble.c ****                     }
 861:Generated_Source\PSoC6\pdl\middleware\ble/cy_ble.c ****                 #endif /* !CY_BLE_STACK_MODE_HOST_IPC */
 862:Generated_Source\PSoC6\pdl\middleware\ble/cy_ble.c ****                     retVal = CY_SYSPM_FAIL;
  88              		.loc 1 862 0
  89 0046 104C     		ldr	r4, .L14+12
  90              	.LVL9:
  91 0048 02E0     		b	.L5
  92              	.LVL10:
  93              	.L10:
 841:Generated_Source\PSoC6\pdl\middleware\ble/cy_ble.c ****                     }
  94              		.loc 1 841 0
  95 004a 0024     		movs	r4, #0
  96              	.LVL11:
  97 004c 00E0     		b	.L5
  98              	.LVL12:
  99              	.L11:
 846:Generated_Source\PSoC6\pdl\middleware\ble/cy_ble.c ****                     }
 100              		.loc 1 846 0
 101 004e 0E4C     		ldr	r4, .L14+12
 102              	.LVL13:
 103              	.L5:
 863:Generated_Source\PSoC6\pdl\middleware\ble/cy_ble.c ****                 }
 864:Generated_Source\PSoC6\pdl\middleware\ble/cy_ble.c ****                 if(retVal == CY_SYSPM_FAIL)
ARM GAS  C:\Users\kateb\AppData\Local\Temp\cciDLH78.s 			page 18


 104              		.loc 1 864 0
 105 0050 0D4B     		ldr	r3, .L14+12
 106 0052 9C42     		cmp	r4, r3
 107 0054 0FD1     		bne	.L2
 865:Generated_Source\PSoC6\pdl\middleware\ble/cy_ble.c ****                 {
 866:Generated_Source\PSoC6\pdl\middleware\ble/cy_ble.c ****                     /* Enable interrupts after failing check */
 867:Generated_Source\PSoC6\pdl\middleware\ble/cy_ble.c ****                     Cy_SysLib_ExitCriticalSection(interruptState);
 108              		.loc 1 867 0
 109 0056 0B4B     		ldr	r3, .L14+8
 110 0058 1868     		ldr	r0, [r3]
 111              	.LVL14:
 112 005a FFF7FEFF 		bl	Cy_SysLib_ExitCriticalSection
 113              	.LVL15:
 114 005e 0AE0     		b	.L2
 115              	.LVL16:
 116              	.L4:
 868:Generated_Source\PSoC6\pdl\middleware\ble/cy_ble.c ****                 }
 869:Generated_Source\PSoC6\pdl\middleware\ble/cy_ble.c ****             }
 870:Generated_Source\PSoC6\pdl\middleware\ble/cy_ble.c ****             break;
 871:Generated_Source\PSoC6\pdl\middleware\ble/cy_ble.c **** 
 872:Generated_Source\PSoC6\pdl\middleware\ble/cy_ble.c ****         /* Enable interrupts after wakeup */
 873:Generated_Source\PSoC6\pdl\middleware\ble/cy_ble.c ****         case (CY_SYSPM_AFTER_TRANSITION):
 874:Generated_Source\PSoC6\pdl\middleware\ble/cy_ble.c ****             Cy_SysLib_ExitCriticalSection(interruptState);
 117              		.loc 1 874 0
 118 0060 084B     		ldr	r3, .L14+8
 119 0062 1868     		ldr	r0, [r3]
 120              	.LVL17:
 121 0064 FFF7FEFF 		bl	Cy_SysLib_ExitCriticalSection
 122              	.LVL18:
 875:Generated_Source\PSoC6\pdl\middleware\ble/cy_ble.c ****             retVal = CY_SYSPM_SUCCESS;
 123              		.loc 1 875 0
 124 0068 0024     		movs	r4, #0
 876:Generated_Source\PSoC6\pdl\middleware\ble/cy_ble.c ****             break;
 125              		.loc 1 876 0
 126 006a 04E0     		b	.L2
 127              	.LVL19:
 128              	.L12:
 877:Generated_Source\PSoC6\pdl\middleware\ble/cy_ble.c **** 
 878:Generated_Source\PSoC6\pdl\middleware\ble/cy_ble.c ****         default:
 879:Generated_Source\PSoC6\pdl\middleware\ble/cy_ble.c ****             retVal = CY_SYSPM_FAIL;
 129              		.loc 1 879 0
 130 006c 064C     		ldr	r4, .L14+12
 131 006e 02E0     		b	.L2
 132              	.L7:
 779:Generated_Source\PSoC6\pdl\middleware\ble/cy_ble.c ****             }
 133              		.loc 1 779 0
 134 0070 054C     		ldr	r4, .L14+12
 135 0072 00E0     		b	.L2
 136              	.LVL20:
 137              	.L8:
 787:Generated_Source\PSoC6\pdl\middleware\ble/cy_ble.c ****             }
 138              		.loc 1 787 0
 139 0074 044C     		ldr	r4, .L14+12
 140              	.L2:
 141              	.LVL21:
 880:Generated_Source\PSoC6\pdl\middleware\ble/cy_ble.c ****             break;
 881:Generated_Source\PSoC6\pdl\middleware\ble/cy_ble.c ****     }
ARM GAS  C:\Users\kateb\AppData\Local\Temp\cciDLH78.s 			page 19


 882:Generated_Source\PSoC6\pdl\middleware\ble/cy_ble.c **** 
 883:Generated_Source\PSoC6\pdl\middleware\ble/cy_ble.c ****     return(retVal);
 884:Generated_Source\PSoC6\pdl\middleware\ble/cy_ble.c **** }
 142              		.loc 1 884 0
 143 0076 2046     		mov	r0, r4
 144 0078 10BD     		pop	{r4, pc}
 145              	.LVL22:
 146              	.L15:
 147 007a 00BF     		.align	2
 148              	.L14:
 149 007c 00000000 		.word	cy_ble_state
 150 0080 01018800 		.word	8913153
 151 0084 00000000 		.word	.LANCHOR0
 152 0088 FF004200 		.word	4325631
 153              		.cfi_endproc
 154              	.LFE255:
 155              		.size	Cy_BLE_DeepSleepCallback, .-Cy_BLE_DeepSleepCallback
 156              		.section	.text.Cy_BLE_SleepCallback,"ax",%progbits
 157              		.align	2
 158              		.global	Cy_BLE_SleepCallback
 159              		.thumb
 160              		.thumb_func
 161              		.type	Cy_BLE_SleepCallback, %function
 162              	Cy_BLE_SleepCallback:
 163              	.LFB256:
 885:Generated_Source\PSoC6\pdl\middleware\ble/cy_ble.c **** 
 886:Generated_Source\PSoC6\pdl\middleware\ble/cy_ble.c **** #if(CY_BLE_STACK_MODE_HOST_IPC)
 887:Generated_Source\PSoC6\pdl\middleware\ble/cy_ble.c **** /*******************************************************************************
 888:Generated_Source\PSoC6\pdl\middleware\ble/cy_ble.c **** * Function Name: Cy_BLE_SleepCallback
 889:Generated_Source\PSoC6\pdl\middleware\ble/cy_ble.c **** ****************************************************************************//**
 890:Generated_Source\PSoC6\pdl\middleware\ble/cy_ble.c **** *
 891:Generated_Source\PSoC6\pdl\middleware\ble/cy_ble.c **** * This function requests the BLE Stack to put the Host to Sleep mode.
 892:Generated_Source\PSoC6\pdl\middleware\ble/cy_ble.c **** *
 893:Generated_Source\PSoC6\pdl\middleware\ble/cy_ble.c **** * It is registered to the system power mode by Cy_SysPm_RegisterCallback()
 894:Generated_Source\PSoC6\pdl\middleware\ble/cy_ble.c **** * function with CY_SYSPM_SLEEP type. After registration it is called by
 895:Generated_Source\PSoC6\pdl\middleware\ble/cy_ble.c **** * Cy_SysPm_Sleep() function prior entering the core into the Sleep
 896:Generated_Source\PSoC6\pdl\middleware\ble/cy_ble.c **** * power mode.
 897:Generated_Source\PSoC6\pdl\middleware\ble/cy_ble.c **** *
 898:Generated_Source\PSoC6\pdl\middleware\ble/cy_ble.c **** * This function is available only when BLE low power mode is enabled in the
 899:Generated_Source\PSoC6\pdl\middleware\ble/cy_ble.c **** * Advanced tab of customizer.
 900:Generated_Source\PSoC6\pdl\middleware\ble/cy_ble.c **** *
 901:Generated_Source\PSoC6\pdl\middleware\ble/cy_ble.c **** * \param
 902:Generated_Source\PSoC6\pdl\middleware\ble/cy_ble.c **** * callbackParams  pointer to the structure with the syspm callback parameters
 903:Generated_Source\PSoC6\pdl\middleware\ble/cy_ble.c **** *                 callbackParams->mode - the callback mode, see description 
 904:Generated_Source\PSoC6\pdl\middleware\ble/cy_ble.c **** *                 of the cy_en_syspm_callback_mode_t type.
 905:Generated_Source\PSoC6\pdl\middleware\ble/cy_ble.c **** *
 906:Generated_Source\PSoC6\pdl\middleware\ble/cy_ble.c **** * \return
 907:Generated_Source\PSoC6\pdl\middleware\ble/cy_ble.c **** * * CY_SYSPM_SUCCESS  - Entered and exited from Sleep
 908:Generated_Source\PSoC6\pdl\middleware\ble/cy_ble.c **** * * CY_SYSPM_FAIL     - Sleep not entered.
 909:Generated_Source\PSoC6\pdl\middleware\ble/cy_ble.c **** *
 910:Generated_Source\PSoC6\pdl\middleware\ble/cy_ble.c **** *******************************************************************************/
 911:Generated_Source\PSoC6\pdl\middleware\ble/cy_ble.c **** cy_en_syspm_status_t Cy_BLE_SleepCallback(cy_stc_syspm_callback_params_t *callbackParams)
 912:Generated_Source\PSoC6\pdl\middleware\ble/cy_ble.c **** {
 164              		.loc 1 912 0
 165              		.cfi_startproc
 166              		@ args = 0, pretend = 0, frame = 0
 167              		@ frame_needed = 0, uses_anonymous_args = 0
ARM GAS  C:\Users\kateb\AppData\Local\Temp\cciDLH78.s 			page 20


 168              	.LVL23:
 169 0000 08B5     		push	{r3, lr}
 170              		.cfi_def_cfa_offset 8
 171              		.cfi_offset 3, -8
 172              		.cfi_offset 14, -4
 913:Generated_Source\PSoC6\pdl\middleware\ble/cy_ble.c ****     cy_en_syspm_status_t retVal;
 914:Generated_Source\PSoC6\pdl\middleware\ble/cy_ble.c ****     static uint32_t interruptState = 0u;
 915:Generated_Source\PSoC6\pdl\middleware\ble/cy_ble.c ****     /* Local variable to store the status of BLESS Hardware block */
 916:Generated_Source\PSoC6\pdl\middleware\ble/cy_ble.c ****     cy_en_ble_lp_mode_t sleepMode;
 917:Generated_Source\PSoC6\pdl\middleware\ble/cy_ble.c ****     
 918:Generated_Source\PSoC6\pdl\middleware\ble/cy_ble.c ****     switch(callbackParams->mode)
 173              		.loc 1 918 0
 174 0002 0378     		ldrb	r3, [r0]	@ zero_extendqisi2
 175 0004 022B     		cmp	r3, #2
 176 0006 1CD0     		beq	.L18
 177 0008 082B     		cmp	r3, #8
 178 000a 14D0     		beq	.L19
 179 000c 012B     		cmp	r3, #1
 180 000e 1ED1     		bne	.L24
 919:Generated_Source\PSoC6\pdl\middleware\ble/cy_ble.c ****     {
 920:Generated_Source\PSoC6\pdl\middleware\ble/cy_ble.c ****         case (CY_SYSPM_CHECK_READY):
 921:Generated_Source\PSoC6\pdl\middleware\ble/cy_ble.c ****             if(Cy_BLE_GetState() == CY_BLE_STATE_INITIALIZING)
 181              		.loc 1 921 0
 182 0010 124B     		ldr	r3, .L26
 183 0012 1B78     		ldrb	r3, [r3]	@ zero_extendqisi2
 184 0014 012B     		cmp	r3, #1
 185 0016 1CD0     		beq	.L22
 922:Generated_Source\PSoC6\pdl\middleware\ble/cy_ble.c ****             {
 923:Generated_Source\PSoC6\pdl\middleware\ble/cy_ble.c ****                 retVal = CY_SYSPM_FAIL;
 924:Generated_Source\PSoC6\pdl\middleware\ble/cy_ble.c ****             }
 925:Generated_Source\PSoC6\pdl\middleware\ble/cy_ble.c ****             else
 926:Generated_Source\PSoC6\pdl\middleware\ble/cy_ble.c ****             {
 927:Generated_Source\PSoC6\pdl\middleware\ble/cy_ble.c ****                 /* Disable global interrupt to prevent changes from any other interrupt ISR */
 928:Generated_Source\PSoC6\pdl\middleware\ble/cy_ble.c ****                 interruptState = Cy_SysLib_EnterCriticalSection();
 186              		.loc 1 928 0
 187 0018 FFF7FEFF 		bl	Cy_SysLib_EnterCriticalSection
 188              	.LVL24:
 189 001c 104B     		ldr	r3, .L26+4
 190 001e 5860     		str	r0, [r3, #4]
 929:Generated_Source\PSoC6\pdl\middleware\ble/cy_ble.c ****                 
 930:Generated_Source\PSoC6\pdl\middleware\ble/cy_ble.c ****                 /* Put BLESS into Deep Sleep and check the return status */
 931:Generated_Source\PSoC6\pdl\middleware\ble/cy_ble.c ****                 sleepMode = Cy_BLE_StackEnterLPM(CY_BLE_BLESS_DEEPSLEEP);
 191              		.loc 1 931 0
 192 0020 0220     		movs	r0, #2
 193 0022 FFF7FEFF 		bl	Cy_BLE_StackEnterLPM
 194              	.LVL25:
 932:Generated_Source\PSoC6\pdl\middleware\ble/cy_ble.c ****                 
 933:Generated_Source\PSoC6\pdl\middleware\ble/cy_ble.c ****                 /* Check if host is ready for sleep mode */
 934:Generated_Source\PSoC6\pdl\middleware\ble/cy_ble.c ****                 if(sleepMode != CY_BLE_BLESS_DEEPSLEEP) 
 195              		.loc 1 934 0
 196 0026 0228     		cmp	r0, #2
 197 0028 15D0     		beq	.L23
 198              	.LVL26:
 935:Generated_Source\PSoC6\pdl\middleware\ble/cy_ble.c ****                 {
 936:Generated_Source\PSoC6\pdl\middleware\ble/cy_ble.c ****                     retVal = CY_SYSPM_FAIL;
 937:Generated_Source\PSoC6\pdl\middleware\ble/cy_ble.c ****                     /* Enable interrupts after failing check */
 938:Generated_Source\PSoC6\pdl\middleware\ble/cy_ble.c ****                     Cy_SysLib_ExitCriticalSection(interruptState);
ARM GAS  C:\Users\kateb\AppData\Local\Temp\cciDLH78.s 			page 21


 199              		.loc 1 938 0
 200 002a 0D4B     		ldr	r3, .L26+4
 201 002c 5868     		ldr	r0, [r3, #4]
 202              	.LVL27:
 203 002e FFF7FEFF 		bl	Cy_SysLib_ExitCriticalSection
 204              	.LVL28:
 936:Generated_Source\PSoC6\pdl\middleware\ble/cy_ble.c ****                     /* Enable interrupts after failing check */
 205              		.loc 1 936 0
 206 0032 0C48     		ldr	r0, .L26+8
 207 0034 08BD     		pop	{r3, pc}
 208              	.LVL29:
 209              	.L19:
 939:Generated_Source\PSoC6\pdl\middleware\ble/cy_ble.c ****                 }
 940:Generated_Source\PSoC6\pdl\middleware\ble/cy_ble.c ****                 else
 941:Generated_Source\PSoC6\pdl\middleware\ble/cy_ble.c ****                 {
 942:Generated_Source\PSoC6\pdl\middleware\ble/cy_ble.c ****                     retVal = CY_SYSPM_SUCCESS;
 943:Generated_Source\PSoC6\pdl\middleware\ble/cy_ble.c ****                 }
 944:Generated_Source\PSoC6\pdl\middleware\ble/cy_ble.c ****             }
 945:Generated_Source\PSoC6\pdl\middleware\ble/cy_ble.c ****             break;
 946:Generated_Source\PSoC6\pdl\middleware\ble/cy_ble.c **** 
 947:Generated_Source\PSoC6\pdl\middleware\ble/cy_ble.c ****         /* Enable interrupts after wakeup */
 948:Generated_Source\PSoC6\pdl\middleware\ble/cy_ble.c ****         case (CY_SYSPM_AFTER_TRANSITION):
 949:Generated_Source\PSoC6\pdl\middleware\ble/cy_ble.c ****             Cy_SysLib_ExitCriticalSection(interruptState);
 210              		.loc 1 949 0
 211 0036 0A4B     		ldr	r3, .L26+4
 212 0038 5868     		ldr	r0, [r3, #4]
 213              	.LVL30:
 214 003a FFF7FEFF 		bl	Cy_SysLib_ExitCriticalSection
 215              	.LVL31:
 950:Generated_Source\PSoC6\pdl\middleware\ble/cy_ble.c ****             retVal = CY_SYSPM_SUCCESS;
 216              		.loc 1 950 0
 217 003e 0020     		movs	r0, #0
 951:Generated_Source\PSoC6\pdl\middleware\ble/cy_ble.c ****             break;
 218              		.loc 1 951 0
 219 0040 08BD     		pop	{r3, pc}
 220              	.LVL32:
 221              	.L18:
 952:Generated_Source\PSoC6\pdl\middleware\ble/cy_ble.c **** 
 953:Generated_Source\PSoC6\pdl\middleware\ble/cy_ble.c ****         case (CY_SYSPM_CHECK_FAIL):
 954:Generated_Source\PSoC6\pdl\middleware\ble/cy_ble.c ****             Cy_SysLib_ExitCriticalSection(interruptState);
 222              		.loc 1 954 0
 223 0042 074B     		ldr	r3, .L26+4
 224 0044 5868     		ldr	r0, [r3, #4]
 225              	.LVL33:
 226 0046 FFF7FEFF 		bl	Cy_SysLib_ExitCriticalSection
 227              	.LVL34:
 955:Generated_Source\PSoC6\pdl\middleware\ble/cy_ble.c ****             retVal = CY_SYSPM_FAIL;
 228              		.loc 1 955 0
 229 004a 0648     		ldr	r0, .L26+8
 956:Generated_Source\PSoC6\pdl\middleware\ble/cy_ble.c ****             break;
 230              		.loc 1 956 0
 231 004c 08BD     		pop	{r3, pc}
 232              	.LVL35:
 233              	.L24:
 957:Generated_Source\PSoC6\pdl\middleware\ble/cy_ble.c ****             
 958:Generated_Source\PSoC6\pdl\middleware\ble/cy_ble.c ****         default:
 959:Generated_Source\PSoC6\pdl\middleware\ble/cy_ble.c ****             retVal = CY_SYSPM_FAIL;
ARM GAS  C:\Users\kateb\AppData\Local\Temp\cciDLH78.s 			page 22


 234              		.loc 1 959 0
 235 004e 0548     		ldr	r0, .L26+8
 236              	.LVL36:
 237 0050 08BD     		pop	{r3, pc}
 238              	.LVL37:
 239              	.L22:
 923:Generated_Source\PSoC6\pdl\middleware\ble/cy_ble.c ****             }
 240              		.loc 1 923 0
 241 0052 0448     		ldr	r0, .L26+8
 242              	.LVL38:
 243 0054 08BD     		pop	{r3, pc}
 244              	.LVL39:
 245              	.L23:
 942:Generated_Source\PSoC6\pdl\middleware\ble/cy_ble.c ****                 }
 246              		.loc 1 942 0
 247 0056 0020     		movs	r0, #0
 248              	.LVL40:
 960:Generated_Source\PSoC6\pdl\middleware\ble/cy_ble.c ****             break;
 961:Generated_Source\PSoC6\pdl\middleware\ble/cy_ble.c ****     }
 962:Generated_Source\PSoC6\pdl\middleware\ble/cy_ble.c **** 
 963:Generated_Source\PSoC6\pdl\middleware\ble/cy_ble.c ****     return(retVal);
 964:Generated_Source\PSoC6\pdl\middleware\ble/cy_ble.c **** }
 249              		.loc 1 964 0
 250 0058 08BD     		pop	{r3, pc}
 251              	.L27:
 252 005a 00BF     		.align	2
 253              	.L26:
 254 005c 00000000 		.word	cy_ble_state
 255 0060 00000000 		.word	.LANCHOR0
 256 0064 FF004200 		.word	4325631
 257              		.cfi_endproc
 258              	.LFE256:
 259              		.size	Cy_BLE_SleepCallback, .-Cy_BLE_SleepCallback
 260              		.section	.text.Cy_BLE_UnregisterHostPMCallbacks,"ax",%progbits
 261              		.align	2
 262              		.global	Cy_BLE_UnregisterHostPMCallbacks
 263              		.thumb
 264              		.thumb_func
 265              		.type	Cy_BLE_UnregisterHostPMCallbacks, %function
 266              	Cy_BLE_UnregisterHostPMCallbacks:
 267              	.LFB248:
  97:Generated_Source\PSoC6\pdl\middleware\ble/cy_ble.c ****     #if (CY_BLE_USE_DEEP_SLEEP != 0u)
 268              		.loc 1 97 0
 269              		.cfi_startproc
 270              		@ args = 0, pretend = 0, frame = 0
 271              		@ frame_needed = 0, uses_anonymous_args = 0
 272 0000 10B5     		push	{r4, lr}
 273              		.cfi_def_cfa_offset 8
 274              		.cfi_offset 4, -8
 275              		.cfi_offset 14, -4
 100:Generated_Source\PSoC6\pdl\middleware\ble/cy_ble.c ****         
 276              		.loc 1 100 0
 277 0002 044C     		ldr	r4, .L30
 278 0004 2046     		mov	r0, r4
 279 0006 FFF7FEFF 		bl	Cy_SysPm_UnregisterCallback
 280              	.LVL41:
 105:Generated_Source\PSoC6\pdl\middleware\ble/cy_ble.c ****         #endif /* ( CY_BLE_STACK_MODE_HOST_IPC) */
ARM GAS  C:\Users\kateb\AppData\Local\Temp\cciDLH78.s 			page 23


 281              		.loc 1 105 0
 282 000a 04F11800 		add	r0, r4, #24
 283 000e FFF7FEFF 		bl	Cy_SysPm_UnregisterCallback
 284              	.LVL42:
 285 0012 10BD     		pop	{r4, pc}
 286              	.L31:
 287              		.align	2
 288              	.L30:
 289 0014 00000000 		.word	.LANCHOR1
 290              		.cfi_endproc
 291              	.LFE248:
 292              		.size	Cy_BLE_UnregisterHostPMCallbacks, .-Cy_BLE_UnregisterHostPMCallbacks
 293              		.section	.text.Cy_BLE_Init,"ax",%progbits
 294              		.align	2
 295              		.global	Cy_BLE_Init
 296              		.thumb
 297              		.thumb_func
 298              		.type	Cy_BLE_Init, %function
 299              	Cy_BLE_Init:
 300              	.LFB249:
 135:Generated_Source\PSoC6\pdl\middleware\ble/cy_ble.c ****     cy_en_ble_api_result_t apiResult = CY_BLE_SUCCESS;
 301              		.loc 1 135 0
 302              		.cfi_startproc
 303              		@ args = 0, pretend = 0, frame = 0
 304              		@ frame_needed = 0, uses_anonymous_args = 0
 305              	.LVL43:
 306 0000 10B5     		push	{r4, lr}
 307              		.cfi_def_cfa_offset 8
 308              		.cfi_offset 4, -8
 309              		.cfi_offset 14, -4
 310              	.LVL44:
 138:Generated_Source\PSoC6\pdl\middleware\ble/cy_ble.c ****     {
 311              		.loc 1 138 0
 312 0002 0028     		cmp	r0, #0
 313 0004 2FD0     		beq	.L37
 145:Generated_Source\PSoC6\pdl\middleware\ble/cy_ble.c **** 
 314              		.loc 1 145 0
 315 0006 1A4A     		ldr	r2, .L39
 316 0008 9060     		str	r0, [r2, #8]
 149:Generated_Source\PSoC6\pdl\middleware\ble/cy_ble.c ****         {
 317              		.loc 1 149 0
 318 000a C36A     		ldr	r3, [r0, #44]
 319 000c 03B1     		cbz	r3, .L34
 151:Generated_Source\PSoC6\pdl\middleware\ble/cy_ble.c ****         }
 320              		.loc 1 151 0
 321 000e D360     		str	r3, [r2, #12]
 322              	.L34:
 153:Generated_Source\PSoC6\pdl\middleware\ble/cy_ble.c ****         (void)memset((uint8_t*)&cy_ble_busyStatus, 0, sizeof(cy_ble_busyStatus));
 323              		.loc 1 153 0
 324 0010 0024     		movs	r4, #0
 325 0012 184B     		ldr	r3, .L39+4
 326 0014 1C70     		strb	r4, [r3]
 154:Generated_Source\PSoC6\pdl\middleware\ble/cy_ble.c **** 
 327              		.loc 1 154 0
 328 0016 184B     		ldr	r3, .L39+8
 329 0018 1C70     		strb	r4, [r3]
 156:Generated_Source\PSoC6\pdl\middleware\ble/cy_ble.c ****         
ARM GAS  C:\Users\kateb\AppData\Local\Temp\cciDLH78.s 			page 24


 330              		.loc 1 156 0
 331 001a 184B     		ldr	r3, .L39+12
 332 001c 1C60     		str	r4, [r3]
 333              	.LBB5:
 161:Generated_Source\PSoC6\pdl\middleware\ble/cy_ble.c ****             (void)memset(cy_ble_connHandle, -1, sizeof(cy_ble_connHandle));
 334              		.loc 1 161 0
 335 001e 184B     		ldr	r3, .L39+16
 336 0020 1C60     		str	r4, [r3]	@ unaligned
 337 0022 5C60     		str	r4, [r3, #4]	@ unaligned
 338 0024 9C60     		str	r4, [r3, #8]	@ unaligned
 339 0026 DC60     		str	r4, [r3, #12]	@ unaligned
 340 0028 1C82     		strh	r4, [r3, #16]	@ movhi
 162:Generated_Source\PSoC6\pdl\middleware\ble/cy_ble.c ****             (void)memset(&cy_ble_discovery, 0, sizeof(cy_ble_discovery));
 341              		.loc 1 162 0
 342 002a 4FF6FF72 		movw	r2, #65535
 343 002e 154B     		ldr	r3, .L39+20
 344 0030 1A80     		strh	r2, [r3]	@ unaligned
 163:Generated_Source\PSoC6\pdl\middleware\ble/cy_ble.c **** 
 345              		.loc 1 163 0
 346 0032 4422     		movs	r2, #68
 347 0034 2146     		mov	r1, r4
 348 0036 1448     		ldr	r0, .L39+24
 349              	.LVL45:
 350 0038 FFF7FEFF 		bl	memset
 351              	.LVL46:
 166:Generated_Source\PSoC6\pdl\middleware\ble/cy_ble.c ****             {
 352              		.loc 1 166 0
 353 003c 07E0     		b	.L35
 354              	.LVL47:
 355              	.L36:
 168:Generated_Source\PSoC6\pdl\middleware\ble/cy_ble.c ****             }
 356              		.loc 1 168 0 discriminator 3
 357 003e 04EB0412 		add	r2, r4, r4, lsl #4
 358 0042 9300     		lsls	r3, r2, #2
 359 0044 104A     		ldr	r2, .L39+24
 360 0046 1344     		add	r3, r3, r2
 361 0048 FF22     		movs	r2, #255
 362 004a 1A64     		str	r2, [r3, #64]
 166:Generated_Source\PSoC6\pdl\middleware\ble/cy_ble.c ****             {
 363              		.loc 1 166 0 discriminator 3
 364 004c 0134     		adds	r4, r4, #1
 365              	.LVL48:
 366              	.L35:
 166:Generated_Source\PSoC6\pdl\middleware\ble/cy_ble.c ****             {
 367              		.loc 1 166 0 is_stmt 0 discriminator 1
 368 004e 002C     		cmp	r4, #0
 369 0050 F5D0     		beq	.L36
 370              	.LBE5:
 174:Generated_Source\PSoC6\pdl\middleware\ble/cy_ble.c ****         #endif /* (CY_BLE_GAP_ROLE_PERIPHERAL || CY_BLE_GAP_ROLE_BROADCASTER)  */
 371              		.loc 1 174 0 is_stmt 1
 372 0052 0024     		movs	r4, #0
 373              	.LVL49:
 374 0054 0D4B     		ldr	r3, .L39+28
 375 0056 1C70     		strb	r4, [r3]
 181:Generated_Source\PSoC6\pdl\middleware\ble/cy_ble.c **** 
 376              		.loc 1 181 0
 377 0058 FFF7FEFF 		bl	Cy_BLE_ServiceInit
ARM GAS  C:\Users\kateb\AppData\Local\Temp\cciDLH78.s 			page 25


 378              	.LVL50:
 184:Generated_Source\PSoC6\pdl\middleware\ble/cy_ble.c ****         (void)memset(cy_ble_peerBonding, (int8_t)CY_BLE_GAP_BONDING_NONE, sizeof(cy_ble_peerBonding
 379              		.loc 1 184 0
 380 005c 0C4B     		ldr	r3, .L39+32
 381 005e 1C70     		strb	r4, [r3]
 185:Generated_Source\PSoC6\pdl\middleware\ble/cy_ble.c ****         #endif /* (CY_BLE_BONDING_REQUIREMENT == CY_BLE_BONDING_YES) */
 382              		.loc 1 185 0
 383 0060 0C4B     		ldr	r3, .L39+36
 384 0062 1C70     		strb	r4, [r3]
 385 0064 00E0     		b	.L33
 386              	.LVL51:
 387              	.L37:
 140:Generated_Source\PSoC6\pdl\middleware\ble/cy_ble.c ****     }
 388              		.loc 1 140 0
 389 0066 0C4C     		ldr	r4, .L39+40
 390              	.LVL52:
 391              	.L33:
 192:Generated_Source\PSoC6\pdl\middleware\ble/cy_ble.c ****     #endif /* (CY_BLE_STACK_MODE_IPC) */
 392              		.loc 1 192 0
 393 0068 FFF7FEFF 		bl	Cy_IPC_SystemPipeInit
 394              	.LVL53:
 197:Generated_Source\PSoC6\pdl\middleware\ble/cy_ble.c **** /** @} */
 395              		.loc 1 197 0
 396 006c 2046     		mov	r0, r4
 397 006e 10BD     		pop	{r4, pc}
 398              	.LVL54:
 399              	.L40:
 400              		.align	2
 401              	.L39:
 402 0070 00000000 		.word	.LANCHOR0
 403 0074 00000000 		.word	cy_ble_eventHandlerFlag
 404 0078 00000000 		.word	cy_ble_busyStatus
 405 007c 00000000 		.word	cy_ble_cmdStatus
 406 0080 00000000 		.word	cy_ble_serverInfo
 407 0084 00000000 		.word	cy_ble_connHandle
 408 0088 00000000 		.word	cy_ble_discovery
 409 008c 00000000 		.word	cy_ble_advertisingIntervalType
 410 0090 00000000 		.word	cy_ble_pendingFlashWrite
 411 0094 00000000 		.word	cy_ble_peerBonding
 412 0098 01001600 		.word	1441793
 413              		.cfi_endproc
 414              	.LFE249:
 415              		.size	Cy_BLE_Init, .-Cy_BLE_Init
 416              		.section	.text.Cy_BLE_Enable,"ax",%progbits
 417              		.align	2
 418              		.global	Cy_BLE_Enable
 419              		.thumb
 420              		.thumb_func
 421              		.type	Cy_BLE_Enable, %function
 422              	Cy_BLE_Enable:
 423              	.LFB250:
 268:Generated_Source\PSoC6\pdl\middleware\ble/cy_ble.c ****     cy_en_ble_api_result_t apiResult = CY_BLE_SUCCESS;
 424              		.loc 1 268 0
 425              		.cfi_startproc
 426              		@ args = 0, pretend = 0, frame = 64
 427              		@ frame_needed = 0, uses_anonymous_args = 0
 428 0000 10B5     		push	{r4, lr}
ARM GAS  C:\Users\kateb\AppData\Local\Temp\cciDLH78.s 			page 26


 429              		.cfi_def_cfa_offset 8
 430              		.cfi_offset 4, -8
 431              		.cfi_offset 14, -4
 432 0002 90B0     		sub	sp, sp, #64
 433              		.cfi_def_cfa_offset 72
 434              	.LVL55:
 272:Generated_Source\PSoC6\pdl\middleware\ble/cy_ble.c ****     {
 435              		.loc 1 272 0
 436 0004 344B     		ldr	r3, .L45
 437 0006 0CAC     		add	r4, sp, #48
 438 0008 1868     		ldr	r0, [r3]	@ unaligned
 439 000a 5968     		ldr	r1, [r3, #4]	@ unaligned
 440 000c 9A68     		ldr	r2, [r3, #8]	@ unaligned
 441 000e DB68     		ldr	r3, [r3, #12]	@ unaligned
 442 0010 0FC4     		stmia	r4!, {r0, r1, r2, r3}
 281:Generated_Source\PSoC6\pdl\middleware\ble/cy_ble.c ****     {
 443              		.loc 1 281 0
 444 0012 2822     		movs	r2, #40
 445 0014 0021     		movs	r1, #0
 446 0016 02A8     		add	r0, sp, #8
 447 0018 FFF7FEFF 		bl	memset
 448              	.LVL56:
 449 001c 2F4B     		ldr	r3, .L45+4
 450 001e 0293     		str	r3, [sp, #8]
 451 0020 0CAB     		add	r3, sp, #48
 452 0022 0493     		str	r3, [sp, #16]
 453 0024 42F66023 		movw	r3, #10848
 454 0028 ADF81430 		strh	r3, [sp, #20]	@ movhi
 455 002c 0423     		movs	r3, #4
 456 002e 8DF81630 		strb	r3, [sp, #22]
 294:Generated_Source\PSoC6\pdl\middleware\ble/cy_ble.c ****             .bleStackFlashSize               = CY_BLE_STACK_FLASH_SIZE,
 457              		.loc 1 294 0
 458 0032 2B4A     		ldr	r2, .L45+8
 459 0034 9268     		ldr	r2, [r2, #8]
 460 0036 1269     		ldr	r2, [r2, #16]
 281:Generated_Source\PSoC6\pdl\middleware\ble/cy_ble.c ****     {
 461              		.loc 1 281 0
 462 0038 0692     		str	r2, [sp, #24]
 463 003a 40F64A42 		movw	r2, #3146
 464 003e 0792     		str	r2, [sp, #28]
 465 0040 FB22     		movs	r2, #251
 466 0042 ADF82020 		strh	r2, [sp, #32]	@ movhi
 467 0046 ADF82220 		strh	r2, [sp, #34]	@ movhi
 468 004a 0322     		movs	r2, #3
 469 004c 8DF82420 		strb	r2, [sp, #36]
 470 0050 8DF82530 		strb	r3, [sp, #37]
 471 0054 0623     		movs	r3, #6
 472 0056 8DF82630 		strb	r3, [sp, #38]
 473 005a 1023     		movs	r3, #16
 474 005c 8DF82830 		strb	r3, [sp, #40]
 475 0060 8DF82930 		strb	r3, [sp, #41]
 476 0064 5123     		movs	r3, #81
 477 0066 ADF82A30 		strh	r3, [sp, #42]	@ movhi
 478 006a 0123     		movs	r3, #1
 479 006c 8DF82E30 		strb	r3, [sp, #46]
 333:Generated_Source\PSoC6\pdl\middleware\ble/cy_ble.c ****     
 480              		.loc 1 333 0
ARM GAS  C:\Users\kateb\AppData\Local\Temp\cciDLH78.s 			page 27


 481 0070 1C4C     		ldr	r4, .L45+12
 482 0072 2046     		mov	r0, r4
 483 0074 FFF7FEFF 		bl	Cy_SysPm_RegisterCallback
 484              	.LVL57:
 339:Generated_Source\PSoC6\pdl\middleware\ble/cy_ble.c ****     }
 485              		.loc 1 339 0
 486 0078 04F11800 		add	r0, r4, #24
 487 007c FFF7FEFF 		bl	Cy_SysPm_RegisterCallback
 488              	.LVL58:
 358:Generated_Source\PSoC6\pdl\middleware\ble/cy_ble.c ****     #endif /* CY_BLE_DLE_FEATURE_ENABLED */
 489              		.loc 1 358 0
 490 0080 FFF7FEFF 		bl	Cy_BLE_EnableDleFeature
 491              	.LVL59:
 369:Generated_Source\PSoC6\pdl\middleware\ble/cy_ble.c ****     }
 492              		.loc 1 369 0
 493 0084 08A8     		add	r0, sp, #32
 494 0086 FFF7FEFF 		bl	Cy_BLE_StackSetFeatureConfig
 495              	.LVL60:
 372:Generated_Source\PSoC6\pdl\middleware\ble/cy_ble.c ****     {
 496              		.loc 1 372 0
 497 008a 0346     		mov	r3, r0
 498 008c 00BB     		cbnz	r0, .L42
 374:Generated_Source\PSoC6\pdl\middleware\ble/cy_ble.c **** 
 499              		.loc 1 374 0
 500 008e 164B     		ldr	r3, .L45+16
 501 0090 0393     		str	r3, [sp, #12]
 377:Generated_Source\PSoC6\pdl\middleware\ble/cy_ble.c **** 
 502              		.loc 1 377 0
 503 0092 02A8     		add	r0, sp, #8
 504              	.LVL61:
 505 0094 FFF7FEFF 		bl	Cy_BLE_StackInit
 506              	.LVL62:
 380:Generated_Source\PSoC6\pdl\middleware\ble/cy_ble.c ****         {
 507              		.loc 1 380 0
 508 0098 0346     		mov	r3, r0
 509 009a B0B9     		cbnz	r0, .L43
 382:Generated_Source\PSoC6\pdl\middleware\ble/cy_ble.c **** 
 510              		.loc 1 382 0
 511 009c 0122     		movs	r2, #1
 512 009e 134B     		ldr	r3, .L45+20
 513 00a0 1A70     		strb	r2, [r3]
 385:Generated_Source\PSoC6\pdl\middleware\ble/cy_ble.c ****         #endif /* (CY_BLE_GAP_ROLE_CENTRAL || CY_BLE_GAP_ROLE_PERIPHERAL) */
 514              		.loc 1 385 0
 515 00a2 0023     		movs	r3, #0
 516 00a4 124A     		ldr	r2, .L45+24
 517 00a6 1370     		strb	r3, [r2]
 518              	.LVL63:
 519              	.LBB6:
 520              	.LBB7:
 521              		.file 2 "Generated_Source\\PSoC6\\pdl\\middleware\\ble\\cy_ble_gap.h"
   1:Generated_Source\PSoC6\pdl\middleware\ble/cy_ble_gap.h **** /***************************************************************************//**
   2:Generated_Source\PSoC6\pdl\middleware\ble/cy_ble_gap.h **** * \file cy_ble_gap.h
   3:Generated_Source\PSoC6\pdl\middleware\ble/cy_ble_gap.h **** * \version 2.20
   4:Generated_Source\PSoC6\pdl\middleware\ble/cy_ble_gap.h **** *
   5:Generated_Source\PSoC6\pdl\middleware\ble/cy_ble_gap.h **** * \brief
   6:Generated_Source\PSoC6\pdl\middleware\ble/cy_ble_gap.h **** *  Contains the prototypes and constants used in the BLE GAP profile.
   7:Generated_Source\PSoC6\pdl\middleware\ble/cy_ble_gap.h **** *
ARM GAS  C:\Users\kateb\AppData\Local\Temp\cciDLH78.s 			page 28


   8:Generated_Source\PSoC6\pdl\middleware\ble/cy_ble_gap.h **** ********************************************************************************
   9:Generated_Source\PSoC6\pdl\middleware\ble/cy_ble_gap.h **** * \copyright
  10:Generated_Source\PSoC6\pdl\middleware\ble/cy_ble_gap.h **** * Copyright 2017-2018, Cypress Semiconductor Corporation.  All rights reserved.
  11:Generated_Source\PSoC6\pdl\middleware\ble/cy_ble_gap.h **** * You may use this file only in accordance with the license, terms, conditions,
  12:Generated_Source\PSoC6\pdl\middleware\ble/cy_ble_gap.h **** * disclaimers, and limitations in the end user license agreement accompanying
  13:Generated_Source\PSoC6\pdl\middleware\ble/cy_ble_gap.h **** * the software package with which this file was provided.
  14:Generated_Source\PSoC6\pdl\middleware\ble/cy_ble_gap.h **** *******************************************************************************/
  15:Generated_Source\PSoC6\pdl\middleware\ble/cy_ble_gap.h **** 
  16:Generated_Source\PSoC6\pdl\middleware\ble/cy_ble_gap.h **** 
  17:Generated_Source\PSoC6\pdl\middleware\ble/cy_ble_gap.h **** #ifndef CY_BLE_GAP_H
  18:Generated_Source\PSoC6\pdl\middleware\ble/cy_ble_gap.h **** #define CY_BLE_GAP_H
  19:Generated_Source\PSoC6\pdl\middleware\ble/cy_ble_gap.h ****     
  20:Generated_Source\PSoC6\pdl\middleware\ble/cy_ble_gap.h **** #include "cy_ble_config.h"
  21:Generated_Source\PSoC6\pdl\middleware\ble/cy_ble_gap.h **** 
  22:Generated_Source\PSoC6\pdl\middleware\ble/cy_ble_gap.h **** /***************************************
  23:Generated_Source\PSoC6\pdl\middleware\ble/cy_ble_gap.h **** * BLE Stack includes
  24:Generated_Source\PSoC6\pdl\middleware\ble/cy_ble_gap.h **** ***************************************/
  25:Generated_Source\PSoC6\pdl\middleware\ble/cy_ble_gap.h **** #include "cy_ble_stack_gatt.h"    
  26:Generated_Source\PSoC6\pdl\middleware\ble/cy_ble_gap.h **** #include "cy_ble_stack_gap.h"
  27:Generated_Source\PSoC6\pdl\middleware\ble/cy_ble_gap.h **** #include "cy_ble_stack_gap_central.h"
  28:Generated_Source\PSoC6\pdl\middleware\ble/cy_ble_gap.h **** #include "cy_ble_stack_gap_peripheral.h"
  29:Generated_Source\PSoC6\pdl\middleware\ble/cy_ble_gap.h **** 
  30:Generated_Source\PSoC6\pdl\middleware\ble/cy_ble_gap.h **** /* C binding of definitions if building with C++ compiler */
  31:Generated_Source\PSoC6\pdl\middleware\ble/cy_ble_gap.h **** #ifdef __cplusplus
  32:Generated_Source\PSoC6\pdl\middleware\ble/cy_ble_gap.h **** extern "C" {
  33:Generated_Source\PSoC6\pdl\middleware\ble/cy_ble_gap.h **** #endif /* __cplusplus */
  34:Generated_Source\PSoC6\pdl\middleware\ble/cy_ble_gap.h **** 
  35:Generated_Source\PSoC6\pdl\middleware\ble/cy_ble_gap.h **** /***************************************
  36:Generated_Source\PSoC6\pdl\middleware\ble/cy_ble_gap.h **** * Conditional Compilation Parameters
  37:Generated_Source\PSoC6\pdl\middleware\ble/cy_ble_gap.h **** ***************************************/
  38:Generated_Source\PSoC6\pdl\middleware\ble/cy_ble_gap.h **** /**
  39:Generated_Source\PSoC6\pdl\middleware\ble/cy_ble_gap.h ****  * The BLE operation mode.
  40:Generated_Source\PSoC6\pdl\middleware\ble/cy_ble_gap.h ****  */
  41:Generated_Source\PSoC6\pdl\middleware\ble/cy_ble_gap.h **** #define CY_BLE_MODE                          (CY_BLE_CONFIG_MODE)
  42:Generated_Source\PSoC6\pdl\middleware\ble/cy_ble_gap.h **** 
  43:Generated_Source\PSoC6\pdl\middleware\ble/cy_ble_gap.h **** /** 
  44:Generated_Source\PSoC6\pdl\middleware\ble/cy_ble_gap.h ****  * Maximum number of BLE connections
  45:Generated_Source\PSoC6\pdl\middleware\ble/cy_ble_gap.h ****  * This parameter displays how many BLE connections (both Central and 
  46:Generated_Source\PSoC6\pdl\middleware\ble/cy_ble_gap.h ****  * Peripheral) are allowed. Valid range is from 1 to 4.
  47:Generated_Source\PSoC6\pdl\middleware\ble/cy_ble_gap.h ****  */
  48:Generated_Source\PSoC6\pdl\middleware\ble/cy_ble_gap.h **** #define CY_BLE_CONN_COUNT                    (CY_BLE_CONFIG_CONN_COUNT)
  49:Generated_Source\PSoC6\pdl\middleware\ble/cy_ble_gap.h ****  
  50:Generated_Source\PSoC6\pdl\middleware\ble/cy_ble_gap.h **** /**
  51:Generated_Source\PSoC6\pdl\middleware\ble/cy_ble_gap.h ****  * The GAP Role 
  52:Generated_Source\PSoC6\pdl\middleware\ble/cy_ble_gap.h ****  * The following defined mask can be used:
  53:Generated_Source\PSoC6\pdl\middleware\ble/cy_ble_gap.h ****  * CY_BLE_GAP_PERIPHERAL  (0x01u) - device operates as peripheral.
  54:Generated_Source\PSoC6\pdl\middleware\ble/cy_ble_gap.h ****  * CY_BLE_GAP_CENTRAL     (0x02u) - device operates as central. 
  55:Generated_Source\PSoC6\pdl\middleware\ble/cy_ble_gap.h ****  * CY_BLE_GAP_BROADCASTER (0x04u) - device operates as broadcaster.
  56:Generated_Source\PSoC6\pdl\middleware\ble/cy_ble_gap.h ****  * CY_BLE_GAP_OBSERVER    (0x08u) - device operates as observer.
  57:Generated_Source\PSoC6\pdl\middleware\ble/cy_ble_gap.h ****  * CY_BLE_GAP_HCI         (0x00u) - used when BLE operates in HCI mode.
  58:Generated_Source\PSoC6\pdl\middleware\ble/cy_ble_gap.h ****  */ 
  59:Generated_Source\PSoC6\pdl\middleware\ble/cy_ble_gap.h **** #define CY_BLE_GAP_ROLE                       (CY_BLE_CONFIG_GAP_ROLE)
  60:Generated_Source\PSoC6\pdl\middleware\ble/cy_ble_gap.h **** 
  61:Generated_Source\PSoC6\pdl\middleware\ble/cy_ble_gap.h **** /** The number of GAP Peripheral configurations structures */
  62:Generated_Source\PSoC6\pdl\middleware\ble/cy_ble_gap.h **** #define CY_BLE_GAP_PERIPHERAL_COUNT           (CY_BLE_CONFIG_GAP_PERIPHERAL_COUNT)
  63:Generated_Source\PSoC6\pdl\middleware\ble/cy_ble_gap.h **** 
  64:Generated_Source\PSoC6\pdl\middleware\ble/cy_ble_gap.h **** /** The number of GAP Broadcaster configurations structures */
ARM GAS  C:\Users\kateb\AppData\Local\Temp\cciDLH78.s 			page 29


  65:Generated_Source\PSoC6\pdl\middleware\ble/cy_ble_gap.h **** #define CY_BLE_GAP_BROADCASTER_COUNT          (CY_BLE_CONFIG_GAP_BROADCASTER_COUNT)
  66:Generated_Source\PSoC6\pdl\middleware\ble/cy_ble_gap.h **** 
  67:Generated_Source\PSoC6\pdl\middleware\ble/cy_ble_gap.h **** /** The number of GAP Central configurations structures */
  68:Generated_Source\PSoC6\pdl\middleware\ble/cy_ble_gap.h **** #define CY_BLE_GAP_CENTRAL_COUNT              (CY_BLE_CONFIG_GAP_CENTRAL_COUNT)
  69:Generated_Source\PSoC6\pdl\middleware\ble/cy_ble_gap.h **** 
  70:Generated_Source\PSoC6\pdl\middleware\ble/cy_ble_gap.h **** /** The number of GAP Observer configurations structures */
  71:Generated_Source\PSoC6\pdl\middleware\ble/cy_ble_gap.h **** #define CY_BLE_GAP_OBSERVER_COUNT             (CY_BLE_CONFIG_GAP_OBSERVER_COUNT)
  72:Generated_Source\PSoC6\pdl\middleware\ble/cy_ble_gap.h **** 
  73:Generated_Source\PSoC6\pdl\middleware\ble/cy_ble_gap.h **** /** The number of Security configurations structures */
  74:Generated_Source\PSoC6\pdl\middleware\ble/cy_ble_gap.h **** #define CY_BLE_AUTH_INFO_COUNT                (CY_BLE_CONFIG_AUTH_INFO_COUNT)
  75:Generated_Source\PSoC6\pdl\middleware\ble/cy_ble_gap.h **** 
  76:Generated_Source\PSoC6\pdl\middleware\ble/cy_ble_gap.h **** /** The Bonding Requirement structures */
  77:Generated_Source\PSoC6\pdl\middleware\ble/cy_ble_gap.h **** #define CY_BLE_BONDING_REQUIREMENT            (CY_BLE_CONFIG_BONDING_REQUIREMENT)
  78:Generated_Source\PSoC6\pdl\middleware\ble/cy_ble_gap.h **** 
  79:Generated_Source\PSoC6\pdl\middleware\ble/cy_ble_gap.h **** /** The GAP Role defines */
  80:Generated_Source\PSoC6\pdl\middleware\ble/cy_ble_gap.h **** #define CY_BLE_GAP_ROLE_PERIPHERAL            (0u != (CY_BLE_GAP_ROLE & CY_BLE_GAP_PERIPHERAL))
  81:Generated_Source\PSoC6\pdl\middleware\ble/cy_ble_gap.h **** #define CY_BLE_GAP_ROLE_CENTRAL               (0u != (CY_BLE_GAP_ROLE & CY_BLE_GAP_CENTRAL))
  82:Generated_Source\PSoC6\pdl\middleware\ble/cy_ble_gap.h **** #define CY_BLE_GAP_ROLE_OBSERVER              (0u != (CY_BLE_GAP_ROLE & CY_BLE_GAP_OBSERVER))
  83:Generated_Source\PSoC6\pdl\middleware\ble/cy_ble_gap.h **** #define CY_BLE_GAP_ROLE_BROADCASTER           (0u != (CY_BLE_GAP_ROLE & CY_BLE_GAP_BROADCASTER))
  84:Generated_Source\PSoC6\pdl\middleware\ble/cy_ble_gap.h **** 
  85:Generated_Source\PSoC6\pdl\middleware\ble/cy_ble_gap.h **** #define CY_BLE_GAPP_CONF_COUNT                (CY_BLE_GAP_PERIPHERAL_COUNT + CY_BLE_GAP_BROADCASTER
  86:Generated_Source\PSoC6\pdl\middleware\ble/cy_ble_gap.h **** #define CY_BLE_GAPC_CONF_COUNT                (CY_BLE_GAP_CENTRAL_COUNT + CY_BLE_GAP_OBSERVER_COUNT
  87:Generated_Source\PSoC6\pdl\middleware\ble/cy_ble_gap.h **** 
  88:Generated_Source\PSoC6\pdl\middleware\ble/cy_ble_gap.h **** /***************************************
  89:Generated_Source\PSoC6\pdl\middleware\ble/cy_ble_gap.h **** * Type Definitions
  90:Generated_Source\PSoC6\pdl\middleware\ble/cy_ble_gap.h **** ***************************************/
  91:Generated_Source\PSoC6\pdl\middleware\ble/cy_ble_gap.h **** 
  92:Generated_Source\PSoC6\pdl\middleware\ble/cy_ble_gap.h **** #if (CY_BLE_MODE_PROFILE)
  93:Generated_Source\PSoC6\pdl\middleware\ble/cy_ble_gap.h **** 
  94:Generated_Source\PSoC6\pdl\middleware\ble/cy_ble_gap.h **** /***************************************
  95:Generated_Source\PSoC6\pdl\middleware\ble/cy_ble_gap.h **** * Enumerated Types and Structures
  96:Generated_Source\PSoC6\pdl\middleware\ble/cy_ble_gap.h **** ***************************************/
  97:Generated_Source\PSoC6\pdl\middleware\ble/cy_ble_gap.h **** 
  98:Generated_Source\PSoC6\pdl\middleware\ble/cy_ble_gap.h **** /**
  99:Generated_Source\PSoC6\pdl\middleware\ble/cy_ble_gap.h ****  * \addtogroup group_ble_common_api_gap_definitions
 100:Generated_Source\PSoC6\pdl\middleware\ble/cy_ble_gap.h ****  * @{
 101:Generated_Source\PSoC6\pdl\middleware\ble/cy_ble_gap.h ****  */
 102:Generated_Source\PSoC6\pdl\middleware\ble/cy_ble_gap.h **** 
 103:Generated_Source\PSoC6\pdl\middleware\ble/cy_ble_gap.h **** /** BLE state machine type */
 104:Generated_Source\PSoC6\pdl\middleware\ble/cy_ble_gap.h **** typedef enum
 105:Generated_Source\PSoC6\pdl\middleware\ble/cy_ble_gap.h **** {
 106:Generated_Source\PSoC6\pdl\middleware\ble/cy_ble_gap.h ****     CY_BLE_STATE_STOPPED,                             /**< BLE is turned off */
 107:Generated_Source\PSoC6\pdl\middleware\ble/cy_ble_gap.h ****     CY_BLE_STATE_INITIALIZING,                        /**< Initializing state */
 108:Generated_Source\PSoC6\pdl\middleware\ble/cy_ble_gap.h ****     CY_BLE_STATE_ON,                                  /**< BLE is turned on */
 109:Generated_Source\PSoC6\pdl\middleware\ble/cy_ble_gap.h **** #if (CY_BLE_GAP_ROLE_CENTRAL)
 110:Generated_Source\PSoC6\pdl\middleware\ble/cy_ble_gap.h ****     CY_BLE_STATE_CONNECTING,                          /**< Connecting */
 111:Generated_Source\PSoC6\pdl\middleware\ble/cy_ble_gap.h **** #endif /* CY_BLE_GAP_ROLE_CENTRAL */
 112:Generated_Source\PSoC6\pdl\middleware\ble/cy_ble_gap.h **** } cy_en_ble_state_t;
 113:Generated_Source\PSoC6\pdl\middleware\ble/cy_ble_gap.h **** 
 114:Generated_Source\PSoC6\pdl\middleware\ble/cy_ble_gap.h **** 
 115:Generated_Source\PSoC6\pdl\middleware\ble/cy_ble_gap.h **** /** Scanning state machine type */
 116:Generated_Source\PSoC6\pdl\middleware\ble/cy_ble_gap.h **** typedef enum
 117:Generated_Source\PSoC6\pdl\middleware\ble/cy_ble_gap.h **** {
 118:Generated_Source\PSoC6\pdl\middleware\ble/cy_ble_gap.h ****     CY_BLE_SCAN_STATE_STOPPED,                        /**< Scanning is stopped */
 119:Generated_Source\PSoC6\pdl\middleware\ble/cy_ble_gap.h ****     CY_BLE_SCAN_STATE_SCAN_INITIATED,                 /**< Scanning is initiated */
 120:Generated_Source\PSoC6\pdl\middleware\ble/cy_ble_gap.h ****     CY_BLE_SCAN_STATE_SCANNING,                       /**< Scanning process */
 121:Generated_Source\PSoC6\pdl\middleware\ble/cy_ble_gap.h ****     CY_BLE_SCAN_STATE_STOP_INITIATED                  /**< Stop scanning is initiated */
ARM GAS  C:\Users\kateb\AppData\Local\Temp\cciDLH78.s 			page 30


 122:Generated_Source\PSoC6\pdl\middleware\ble/cy_ble_gap.h **** } cy_en_ble_scan_state_t;
 123:Generated_Source\PSoC6\pdl\middleware\ble/cy_ble_gap.h **** 
 124:Generated_Source\PSoC6\pdl\middleware\ble/cy_ble_gap.h **** /** Advertising state machine type */
 125:Generated_Source\PSoC6\pdl\middleware\ble/cy_ble_gap.h **** typedef enum
 126:Generated_Source\PSoC6\pdl\middleware\ble/cy_ble_gap.h **** {
 127:Generated_Source\PSoC6\pdl\middleware\ble/cy_ble_gap.h ****     CY_BLE_ADV_STATE_STOPPED,                         /**< Advertising is stopped */
 128:Generated_Source\PSoC6\pdl\middleware\ble/cy_ble_gap.h ****     CY_BLE_ADV_STATE_ADV_INITIATED,                   /**< Advertising is initiated */
 129:Generated_Source\PSoC6\pdl\middleware\ble/cy_ble_gap.h ****     CY_BLE_ADV_STATE_ADVERTISING,                     /**< Advertising process */
 130:Generated_Source\PSoC6\pdl\middleware\ble/cy_ble_gap.h ****     CY_BLE_ADV_STATE_STOP_INITIATED                   /**< Stop advertising is initiated */
 131:Generated_Source\PSoC6\pdl\middleware\ble/cy_ble_gap.h **** } cy_en_ble_adv_state_t;
 132:Generated_Source\PSoC6\pdl\middleware\ble/cy_ble_gap.h **** 
 133:Generated_Source\PSoC6\pdl\middleware\ble/cy_ble_gap.h **** /** Connection state machine type */
 134:Generated_Source\PSoC6\pdl\middleware\ble/cy_ble_gap.h **** typedef enum
 135:Generated_Source\PSoC6\pdl\middleware\ble/cy_ble_gap.h **** {
 136:Generated_Source\PSoC6\pdl\middleware\ble/cy_ble_gap.h ****     CY_BLE_CONN_STATE_DISCONNECTED,                   /**< Essentially idle state */
 137:Generated_Source\PSoC6\pdl\middleware\ble/cy_ble_gap.h ****     CY_BLE_CONN_STATE_CLIENT_DISCONNECTED_DISCOVERED, /**< Server is disconnected but discovered */
 138:Generated_Source\PSoC6\pdl\middleware\ble/cy_ble_gap.h ****     CY_BLE_CONN_STATE_CONNECTED,                      /**< Peer device is connected for this and fo
 139:Generated_Source\PSoC6\pdl\middleware\ble/cy_ble_gap.h ****     CY_BLE_CONN_STATE_CLIENT_SRVC_DISCOVERING,        /**< Server services are being discovered */
 140:Generated_Source\PSoC6\pdl\middleware\ble/cy_ble_gap.h ****     CY_BLE_CONN_STATE_CLIENT_INCL_DISCOVERING,        /**< Server included services are being disco
 141:Generated_Source\PSoC6\pdl\middleware\ble/cy_ble_gap.h ****     CY_BLE_CONN_STATE_CLIENT_CHAR_DISCOVERING,        /**< Server characteristics are being discove
 142:Generated_Source\PSoC6\pdl\middleware\ble/cy_ble_gap.h ****     CY_BLE_CONN_STATE_CLIENT_DESCR_DISCOVERING,       /**< Server char. descriptors are being disco
 143:Generated_Source\PSoC6\pdl\middleware\ble/cy_ble_gap.h ****     CY_BLE_CONN_STATE_CLIENT_DISCOVERED               /**< Server is discovered */
 144:Generated_Source\PSoC6\pdl\middleware\ble/cy_ble_gap.h **** } cy_en_ble_conn_state_t;
 145:Generated_Source\PSoC6\pdl\middleware\ble/cy_ble_gap.h **** 
 146:Generated_Source\PSoC6\pdl\middleware\ble/cy_ble_gap.h **** /** Structure with Generic Access Profile Service (GAPS) attribute handles */
 147:Generated_Source\PSoC6\pdl\middleware\ble/cy_ble_gap.h **** typedef struct
 148:Generated_Source\PSoC6\pdl\middleware\ble/cy_ble_gap.h **** {
 149:Generated_Source\PSoC6\pdl\middleware\ble/cy_ble_gap.h ****     /** Service handle*/
 150:Generated_Source\PSoC6\pdl\middleware\ble/cy_ble_gap.h ****     cy_ble_gatt_db_attr_handle_t serviceHandle;
 151:Generated_Source\PSoC6\pdl\middleware\ble/cy_ble_gap.h **** 
 152:Generated_Source\PSoC6\pdl\middleware\ble/cy_ble_gap.h ****     /** Handle of the GAPS Device Name Characteristic */
 153:Generated_Source\PSoC6\pdl\middleware\ble/cy_ble_gap.h ****     cy_ble_gatt_db_attr_handle_t deviceNameCharHandle;
 154:Generated_Source\PSoC6\pdl\middleware\ble/cy_ble_gap.h **** 
 155:Generated_Source\PSoC6\pdl\middleware\ble/cy_ble_gap.h ****     /** Handle of the GAPS Appearance Characteristic */
 156:Generated_Source\PSoC6\pdl\middleware\ble/cy_ble_gap.h ****     cy_ble_gatt_db_attr_handle_t appearanceCharHandle;
 157:Generated_Source\PSoC6\pdl\middleware\ble/cy_ble_gap.h **** 
 158:Generated_Source\PSoC6\pdl\middleware\ble/cy_ble_gap.h ****     /** Handle of the GAPS Peripheral Preferred Connection Parameters Characteristic */
 159:Generated_Source\PSoC6\pdl\middleware\ble/cy_ble_gap.h ****     cy_ble_gatt_db_attr_handle_t prefConnParamCharHandle;
 160:Generated_Source\PSoC6\pdl\middleware\ble/cy_ble_gap.h **** 
 161:Generated_Source\PSoC6\pdl\middleware\ble/cy_ble_gap.h ****     /** Handle of the GAPS Central Address Resolution characteristic */
 162:Generated_Source\PSoC6\pdl\middleware\ble/cy_ble_gap.h ****     cy_ble_gatt_db_attr_handle_t centralAddrResolutionCharHandle;
 163:Generated_Source\PSoC6\pdl\middleware\ble/cy_ble_gap.h **** 
 164:Generated_Source\PSoC6\pdl\middleware\ble/cy_ble_gap.h ****     /** Handle of the GAPS Resolvable Private Address Only characteristic */
 165:Generated_Source\PSoC6\pdl\middleware\ble/cy_ble_gap.h ****     cy_ble_gatt_db_attr_handle_t resolvablePrivateAddressOnly;
 166:Generated_Source\PSoC6\pdl\middleware\ble/cy_ble_gap.h **** } cy_stc_ble_gaps_t;
 167:Generated_Source\PSoC6\pdl\middleware\ble/cy_ble_gap.h **** 
 168:Generated_Source\PSoC6\pdl\middleware\ble/cy_ble_gap.h **** /** GAP Service characteristics server's GATT DB handles structure type */
 169:Generated_Source\PSoC6\pdl\middleware\ble/cy_ble_gap.h **** typedef struct
 170:Generated_Source\PSoC6\pdl\middleware\ble/cy_ble_gap.h **** {
 171:Generated_Source\PSoC6\pdl\middleware\ble/cy_ble_gap.h ****     /** Handle of the GAPS Device Name Characteristic */
 172:Generated_Source\PSoC6\pdl\middleware\ble/cy_ble_gap.h ****     cy_ble_gatt_db_attr_handle_t deviceNameCharHandle;
 173:Generated_Source\PSoC6\pdl\middleware\ble/cy_ble_gap.h **** 
 174:Generated_Source\PSoC6\pdl\middleware\ble/cy_ble_gap.h ****     /** Handle of the GAPS Appearance Characteristic */
 175:Generated_Source\PSoC6\pdl\middleware\ble/cy_ble_gap.h ****     cy_ble_gatt_db_attr_handle_t appearanceCharHandle;
 176:Generated_Source\PSoC6\pdl\middleware\ble/cy_ble_gap.h **** 
 177:Generated_Source\PSoC6\pdl\middleware\ble/cy_ble_gap.h ****     /** Handle of the GAPS Peripheral Privacy Flag Parameters Characteristic */
 178:Generated_Source\PSoC6\pdl\middleware\ble/cy_ble_gap.h ****     cy_ble_gatt_db_attr_handle_t periphPrivacyCharHandle;
ARM GAS  C:\Users\kateb\AppData\Local\Temp\cciDLH78.s 			page 31


 179:Generated_Source\PSoC6\pdl\middleware\ble/cy_ble_gap.h **** 
 180:Generated_Source\PSoC6\pdl\middleware\ble/cy_ble_gap.h ****     /** Handle of the GAPS Reconnection Address Characteristic */
 181:Generated_Source\PSoC6\pdl\middleware\ble/cy_ble_gap.h ****     cy_ble_gatt_db_attr_handle_t reconnAddrCharHandle;
 182:Generated_Source\PSoC6\pdl\middleware\ble/cy_ble_gap.h **** 
 183:Generated_Source\PSoC6\pdl\middleware\ble/cy_ble_gap.h ****     /** Handle of the GAPS Peripheral Preferred Connection Parameters Characteristic */
 184:Generated_Source\PSoC6\pdl\middleware\ble/cy_ble_gap.h ****     cy_ble_gatt_db_attr_handle_t prefConnParamCharHandle;
 185:Generated_Source\PSoC6\pdl\middleware\ble/cy_ble_gap.h **** 
 186:Generated_Source\PSoC6\pdl\middleware\ble/cy_ble_gap.h ****     /** Handle of the GAPS Central Address Resolution characteristic */
 187:Generated_Source\PSoC6\pdl\middleware\ble/cy_ble_gap.h ****     cy_ble_gatt_db_attr_handle_t centralAddrResolutionCharHandle;
 188:Generated_Source\PSoC6\pdl\middleware\ble/cy_ble_gap.h **** 
 189:Generated_Source\PSoC6\pdl\middleware\ble/cy_ble_gap.h ****     /** Handle of the GAPS Resolvable Private Address Only characteristic */
 190:Generated_Source\PSoC6\pdl\middleware\ble/cy_ble_gap.h ****     cy_ble_gatt_db_attr_handle_t resolvablePrivateAddressOnly;
 191:Generated_Source\PSoC6\pdl\middleware\ble/cy_ble_gap.h **** }cy_stc_ble_gapc_t;
 192:Generated_Source\PSoC6\pdl\middleware\ble/cy_ble_gap.h **** 
 193:Generated_Source\PSoC6\pdl\middleware\ble/cy_ble_gap.h **** /* Stack mode defines */
 194:Generated_Source\PSoC6\pdl\middleware\ble/cy_ble_gap.h **** 
 195:Generated_Source\PSoC6\pdl\middleware\ble/cy_ble_gap.h **** /** Advertisement SIG assigned numbers */
 196:Generated_Source\PSoC6\pdl\middleware\ble/cy_ble_gap.h **** typedef enum
 197:Generated_Source\PSoC6\pdl\middleware\ble/cy_ble_gap.h **** {
 198:Generated_Source\PSoC6\pdl\middleware\ble/cy_ble_gap.h ****     /** Flags */
 199:Generated_Source\PSoC6\pdl\middleware\ble/cy_ble_gap.h ****     CY_BLE_GAP_ADV_FLAGS = 0x01u,
 200:Generated_Source\PSoC6\pdl\middleware\ble/cy_ble_gap.h **** 
 201:Generated_Source\PSoC6\pdl\middleware\ble/cy_ble_gap.h ****     /** Incomplete List of 16-bit Service Class UUIDs */
 202:Generated_Source\PSoC6\pdl\middleware\ble/cy_ble_gap.h ****     CY_BLE_GAP_ADV_INCOMPL_16UUID,
 203:Generated_Source\PSoC6\pdl\middleware\ble/cy_ble_gap.h **** 
 204:Generated_Source\PSoC6\pdl\middleware\ble/cy_ble_gap.h ****     /** Complete List of 16-bit Service Class UUIDs */
 205:Generated_Source\PSoC6\pdl\middleware\ble/cy_ble_gap.h ****     CY_BLE_GAP_ADV_COMPL_16UUID,
 206:Generated_Source\PSoC6\pdl\middleware\ble/cy_ble_gap.h **** 
 207:Generated_Source\PSoC6\pdl\middleware\ble/cy_ble_gap.h ****     /** Incomplete List of 32-bit Service Class UUIDs */
 208:Generated_Source\PSoC6\pdl\middleware\ble/cy_ble_gap.h ****     CY_BLE_GAP_ADV_INCOMPL_32_UUID,
 209:Generated_Source\PSoC6\pdl\middleware\ble/cy_ble_gap.h **** 
 210:Generated_Source\PSoC6\pdl\middleware\ble/cy_ble_gap.h ****     /** Complete List of 32-bit Service Class UUIDs */
 211:Generated_Source\PSoC6\pdl\middleware\ble/cy_ble_gap.h ****     CY_BLE_GAP_ADV_COMPL_32_UUID,
 212:Generated_Source\PSoC6\pdl\middleware\ble/cy_ble_gap.h **** 
 213:Generated_Source\PSoC6\pdl\middleware\ble/cy_ble_gap.h ****     /** Incomplete List of 128-bit Service Class UUIDs */
 214:Generated_Source\PSoC6\pdl\middleware\ble/cy_ble_gap.h ****     CY_BLE_GAP_ADV_INCOMPL_128_UUID,
 215:Generated_Source\PSoC6\pdl\middleware\ble/cy_ble_gap.h **** 
 216:Generated_Source\PSoC6\pdl\middleware\ble/cy_ble_gap.h ****     /** Complete List of 128-bit Service Class UUIDs */
 217:Generated_Source\PSoC6\pdl\middleware\ble/cy_ble_gap.h ****     CY_BLE_GAP_ADV_COMPL_128_UUID,
 218:Generated_Source\PSoC6\pdl\middleware\ble/cy_ble_gap.h **** 
 219:Generated_Source\PSoC6\pdl\middleware\ble/cy_ble_gap.h ****     /** Shortened Local Name */
 220:Generated_Source\PSoC6\pdl\middleware\ble/cy_ble_gap.h ****     CY_BLE_GAP_ADV_SHORT_NAME,
 221:Generated_Source\PSoC6\pdl\middleware\ble/cy_ble_gap.h **** 
 222:Generated_Source\PSoC6\pdl\middleware\ble/cy_ble_gap.h ****     /** Complete Local Name */
 223:Generated_Source\PSoC6\pdl\middleware\ble/cy_ble_gap.h ****     CY_BLE_GAP_ADV_COMPL_NAME,
 224:Generated_Source\PSoC6\pdl\middleware\ble/cy_ble_gap.h **** 
 225:Generated_Source\PSoC6\pdl\middleware\ble/cy_ble_gap.h ****     /** Tx Power Level */
 226:Generated_Source\PSoC6\pdl\middleware\ble/cy_ble_gap.h ****     CY_BLE_GAP_ADV_TX_PWR_LVL,
 227:Generated_Source\PSoC6\pdl\middleware\ble/cy_ble_gap.h **** 
 228:Generated_Source\PSoC6\pdl\middleware\ble/cy_ble_gap.h ****     /** Class of Device */
 229:Generated_Source\PSoC6\pdl\middleware\ble/cy_ble_gap.h ****     CY_BLE_GAP_ADV_CLASS_OF_DEVICE = 0x0Du,
 230:Generated_Source\PSoC6\pdl\middleware\ble/cy_ble_gap.h **** 
 231:Generated_Source\PSoC6\pdl\middleware\ble/cy_ble_gap.h ****     /** Simple Pairing Hash C */
 232:Generated_Source\PSoC6\pdl\middleware\ble/cy_ble_gap.h ****     CY_BLE_GAP_ADV_SMPL_PAIR_HASH_C,
 233:Generated_Source\PSoC6\pdl\middleware\ble/cy_ble_gap.h **** 
 234:Generated_Source\PSoC6\pdl\middleware\ble/cy_ble_gap.h ****     /** Simple Pairing Randomizer R */
 235:Generated_Source\PSoC6\pdl\middleware\ble/cy_ble_gap.h ****     CY_BLE_GAP_ADV_SMPL_PAIR_RANDOM_R,
ARM GAS  C:\Users\kateb\AppData\Local\Temp\cciDLH78.s 			page 32


 236:Generated_Source\PSoC6\pdl\middleware\ble/cy_ble_gap.h **** 
 237:Generated_Source\PSoC6\pdl\middleware\ble/cy_ble_gap.h ****     /** Device ID*/
 238:Generated_Source\PSoC6\pdl\middleware\ble/cy_ble_gap.h ****     CY_BLE_GAP_ADV_DEVICE_ID,
 239:Generated_Source\PSoC6\pdl\middleware\ble/cy_ble_gap.h **** 
 240:Generated_Source\PSoC6\pdl\middleware\ble/cy_ble_gap.h ****     /** Security Manager TK Value */
 241:Generated_Source\PSoC6\pdl\middleware\ble/cy_ble_gap.h ****     CY_BLE_GAP_ADV_SCRT_MNGR_TK_VAL = 0x10u,
 242:Generated_Source\PSoC6\pdl\middleware\ble/cy_ble_gap.h **** 
 243:Generated_Source\PSoC6\pdl\middleware\ble/cy_ble_gap.h ****     /** Security Manager Out of Band Flags */
 244:Generated_Source\PSoC6\pdl\middleware\ble/cy_ble_gap.h ****     CY_BLE_GAP_ADV_SCRT_MNGR_OOB_FLAGS,
 245:Generated_Source\PSoC6\pdl\middleware\ble/cy_ble_gap.h **** 
 246:Generated_Source\PSoC6\pdl\middleware\ble/cy_ble_gap.h ****     /** Slave Connection Interval Range */
 247:Generated_Source\PSoC6\pdl\middleware\ble/cy_ble_gap.h ****     CY_BLE_GAP_ADV_SLAVE_CONN_INTRV_RANGE,
 248:Generated_Source\PSoC6\pdl\middleware\ble/cy_ble_gap.h **** 
 249:Generated_Source\PSoC6\pdl\middleware\ble/cy_ble_gap.h ****     /** List of 16-bit Service Solicitation UUIDs */
 250:Generated_Source\PSoC6\pdl\middleware\ble/cy_ble_gap.h ****     CY_BLE_GAP_ADV_SOLICIT_16UUID = 0x14u,
 251:Generated_Source\PSoC6\pdl\middleware\ble/cy_ble_gap.h **** 
 252:Generated_Source\PSoC6\pdl\middleware\ble/cy_ble_gap.h ****     /** List of 128-bit Service Solicitation UUIDs */
 253:Generated_Source\PSoC6\pdl\middleware\ble/cy_ble_gap.h ****     CY_BLE_GAP_ADV_SOLICIT_128UUID,
 254:Generated_Source\PSoC6\pdl\middleware\ble/cy_ble_gap.h **** 
 255:Generated_Source\PSoC6\pdl\middleware\ble/cy_ble_gap.h ****     /** Service Data - 16-bit UUID */
 256:Generated_Source\PSoC6\pdl\middleware\ble/cy_ble_gap.h ****     CY_BLE_GAP_ADV_SRVC_DATA_16UUID,
 257:Generated_Source\PSoC6\pdl\middleware\ble/cy_ble_gap.h **** 
 258:Generated_Source\PSoC6\pdl\middleware\ble/cy_ble_gap.h ****     /** Public Target Address */
 259:Generated_Source\PSoC6\pdl\middleware\ble/cy_ble_gap.h ****     CY_BLE_GAP_ADV_PUBLIC_TARGET_ADDR,
 260:Generated_Source\PSoC6\pdl\middleware\ble/cy_ble_gap.h **** 
 261:Generated_Source\PSoC6\pdl\middleware\ble/cy_ble_gap.h ****     /** Random Target Address */
 262:Generated_Source\PSoC6\pdl\middleware\ble/cy_ble_gap.h ****     CY_BLE_GAP_ADV_RANDOM_TARGET_ADDR,
 263:Generated_Source\PSoC6\pdl\middleware\ble/cy_ble_gap.h **** 
 264:Generated_Source\PSoC6\pdl\middleware\ble/cy_ble_gap.h ****     /** Appearance */
 265:Generated_Source\PSoC6\pdl\middleware\ble/cy_ble_gap.h ****     CY_BLE_GAP_ADV_APPEARANCE,
 266:Generated_Source\PSoC6\pdl\middleware\ble/cy_ble_gap.h **** 
 267:Generated_Source\PSoC6\pdl\middleware\ble/cy_ble_gap.h ****     /** Advertising Interval */
 268:Generated_Source\PSoC6\pdl\middleware\ble/cy_ble_gap.h ****     CY_BLE_GAP_ADV_ADVERT_INTERVAL,
 269:Generated_Source\PSoC6\pdl\middleware\ble/cy_ble_gap.h **** 
 270:Generated_Source\PSoC6\pdl\middleware\ble/cy_ble_gap.h ****     /** LE Bluetooth Device Address */
 271:Generated_Source\PSoC6\pdl\middleware\ble/cy_ble_gap.h ****     CY_BLE_GAP_ADV_LE_BT_DEVICE_ADDR,
 272:Generated_Source\PSoC6\pdl\middleware\ble/cy_ble_gap.h **** 
 273:Generated_Source\PSoC6\pdl\middleware\ble/cy_ble_gap.h ****     /** LE Role */
 274:Generated_Source\PSoC6\pdl\middleware\ble/cy_ble_gap.h ****     CY_BLE_GAP_ADV_LE_ROLE,
 275:Generated_Source\PSoC6\pdl\middleware\ble/cy_ble_gap.h **** 
 276:Generated_Source\PSoC6\pdl\middleware\ble/cy_ble_gap.h ****     /** Simple Pairing Hash C-256 */
 277:Generated_Source\PSoC6\pdl\middleware\ble/cy_ble_gap.h ****     CY_BLE_GAP_ADV_SMPL_PAIR_HASH_C256,
 278:Generated_Source\PSoC6\pdl\middleware\ble/cy_ble_gap.h **** 
 279:Generated_Source\PSoC6\pdl\middleware\ble/cy_ble_gap.h ****     /** Simple Pairing Randomizer R-256 */
 280:Generated_Source\PSoC6\pdl\middleware\ble/cy_ble_gap.h ****     CY_BLE_GAP_ADV_SMPL_PAIR_RANDOM_R256,
 281:Generated_Source\PSoC6\pdl\middleware\ble/cy_ble_gap.h **** 
 282:Generated_Source\PSoC6\pdl\middleware\ble/cy_ble_gap.h ****     /** List of 32-bit Service Solicitation UUIDs */
 283:Generated_Source\PSoC6\pdl\middleware\ble/cy_ble_gap.h ****     CY_BLE_GAP_ADV_SOLICIT_32UUID,
 284:Generated_Source\PSoC6\pdl\middleware\ble/cy_ble_gap.h **** 
 285:Generated_Source\PSoC6\pdl\middleware\ble/cy_ble_gap.h ****     /** Service Data - 32-bit UUID */
 286:Generated_Source\PSoC6\pdl\middleware\ble/cy_ble_gap.h ****     CY_BLE_GAP_ADV_SRVC_DATA_32UUID,
 287:Generated_Source\PSoC6\pdl\middleware\ble/cy_ble_gap.h **** 
 288:Generated_Source\PSoC6\pdl\middleware\ble/cy_ble_gap.h ****     /** Service Data - 128-bit UUID */
 289:Generated_Source\PSoC6\pdl\middleware\ble/cy_ble_gap.h ****     CY_BLE_GAP_ADV_SRVC_DATA_128UUID,
 290:Generated_Source\PSoC6\pdl\middleware\ble/cy_ble_gap.h **** 
 291:Generated_Source\PSoC6\pdl\middleware\ble/cy_ble_gap.h ****     /** 3D Information Data */
 292:Generated_Source\PSoC6\pdl\middleware\ble/cy_ble_gap.h ****     CY_BLE_GAP_ADV_3D_INFO_DATA = 0x3D,
ARM GAS  C:\Users\kateb\AppData\Local\Temp\cciDLH78.s 			page 33


 293:Generated_Source\PSoC6\pdl\middleware\ble/cy_ble_gap.h **** 
 294:Generated_Source\PSoC6\pdl\middleware\ble/cy_ble_gap.h ****     /** Manufacturer Specific Data */
 295:Generated_Source\PSoC6\pdl\middleware\ble/cy_ble_gap.h ****     CY_BLE_GAP_ADV_MANUFACTURER_SPECIFIC_DATA = 0xFF
 296:Generated_Source\PSoC6\pdl\middleware\ble/cy_ble_gap.h **** }cy_en_ble_gap_adv_assign_numbers_t;
 297:Generated_Source\PSoC6\pdl\middleware\ble/cy_ble_gap.h **** 
 298:Generated_Source\PSoC6\pdl\middleware\ble/cy_ble_gap.h **** /** GAPP advertising configuration parameters structure */
 299:Generated_Source\PSoC6\pdl\middleware\ble/cy_ble_gap.h **** typedef struct
 300:Generated_Source\PSoC6\pdl\middleware\ble/cy_ble_gap.h **** {
 301:Generated_Source\PSoC6\pdl\middleware\ble/cy_ble_gap.h ****     /** The minimum interval for fast advertising the data and establishing the LE Connection */
 302:Generated_Source\PSoC6\pdl\middleware\ble/cy_ble_gap.h ****     uint16_t fastAdvIntervalMin;
 303:Generated_Source\PSoC6\pdl\middleware\ble/cy_ble_gap.h **** 
 304:Generated_Source\PSoC6\pdl\middleware\ble/cy_ble_gap.h ****     /** The maximum interval for fast advertising the data and establishing the LE Connection */
 305:Generated_Source\PSoC6\pdl\middleware\ble/cy_ble_gap.h ****     uint16_t fastAdvIntervalMax;
 306:Generated_Source\PSoC6\pdl\middleware\ble/cy_ble_gap.h **** 
 307:Generated_Source\PSoC6\pdl\middleware\ble/cy_ble_gap.h ****     /** The timeout value of  fast advertising with fast advertising interval parameters */
 308:Generated_Source\PSoC6\pdl\middleware\ble/cy_ble_gap.h ****     uint16_t fastAdvTimeOut;
 309:Generated_Source\PSoC6\pdl\middleware\ble/cy_ble_gap.h **** 
 310:Generated_Source\PSoC6\pdl\middleware\ble/cy_ble_gap.h ****     /** Slow advertising enable */
 311:Generated_Source\PSoC6\pdl\middleware\ble/cy_ble_gap.h ****     uint8_t  slowAdvEnable;
 312:Generated_Source\PSoC6\pdl\middleware\ble/cy_ble_gap.h **** 
 313:Generated_Source\PSoC6\pdl\middleware\ble/cy_ble_gap.h ****     /** The minimum interval for slow advertising the data and establishing the LE Connection */
 314:Generated_Source\PSoC6\pdl\middleware\ble/cy_ble_gap.h ****     uint16_t slowAdvIntervalMin;
 315:Generated_Source\PSoC6\pdl\middleware\ble/cy_ble_gap.h **** 
 316:Generated_Source\PSoC6\pdl\middleware\ble/cy_ble_gap.h ****     /** The maximum interval for slow  advertising the data and establishing the LE Connection */
 317:Generated_Source\PSoC6\pdl\middleware\ble/cy_ble_gap.h ****     uint16_t slowAdvIntervalMax;
 318:Generated_Source\PSoC6\pdl\middleware\ble/cy_ble_gap.h **** 
 319:Generated_Source\PSoC6\pdl\middleware\ble/cy_ble_gap.h ****     /** The timeout value of slow advertising with slow advertising interval parameters */
 320:Generated_Source\PSoC6\pdl\middleware\ble/cy_ble_gap.h ****     uint16_t slowAdvTimeOut;
 321:Generated_Source\PSoC6\pdl\middleware\ble/cy_ble_gap.h **** }cy_stc_ble_gapp_adv_params_t;
 322:Generated_Source\PSoC6\pdl\middleware\ble/cy_ble_gap.h **** 
 323:Generated_Source\PSoC6\pdl\middleware\ble/cy_ble_gap.h **** /** GAPC advertising configuration parameters structure */
 324:Generated_Source\PSoC6\pdl\middleware\ble/cy_ble_gap.h **** typedef struct
 325:Generated_Source\PSoC6\pdl\middleware\ble/cy_ble_gap.h **** {
 326:Generated_Source\PSoC6\pdl\middleware\ble/cy_ble_gap.h ****     /** The scan interval when operating in Fast connection */
 327:Generated_Source\PSoC6\pdl\middleware\ble/cy_ble_gap.h ****     uint16_t fastScanInterval;
 328:Generated_Source\PSoC6\pdl\middleware\ble/cy_ble_gap.h **** 
 329:Generated_Source\PSoC6\pdl\middleware\ble/cy_ble_gap.h ****     /** Defines the scan window when operating in Fast connection */
 330:Generated_Source\PSoC6\pdl\middleware\ble/cy_ble_gap.h ****     uint16_t fastScanWindow;
 331:Generated_Source\PSoC6\pdl\middleware\ble/cy_ble_gap.h **** 
 332:Generated_Source\PSoC6\pdl\middleware\ble/cy_ble_gap.h ****     /** The timeout value of scanning with fast scan parameters */
 333:Generated_Source\PSoC6\pdl\middleware\ble/cy_ble_gap.h ****     uint16_t fastScanTimeOut;
 334:Generated_Source\PSoC6\pdl\middleware\ble/cy_ble_gap.h **** 
 335:Generated_Source\PSoC6\pdl\middleware\ble/cy_ble_gap.h ****     /** Slow scan enable/disable */
 336:Generated_Source\PSoC6\pdl\middleware\ble/cy_ble_gap.h ****     uint8_t  slowScanEnabled;
 337:Generated_Source\PSoC6\pdl\middleware\ble/cy_ble_gap.h **** 
 338:Generated_Source\PSoC6\pdl\middleware\ble/cy_ble_gap.h ****     /** The scan interval when operating in Slow connection */
 339:Generated_Source\PSoC6\pdl\middleware\ble/cy_ble_gap.h ****     uint16_t slowScanInterval;
 340:Generated_Source\PSoC6\pdl\middleware\ble/cy_ble_gap.h **** 
 341:Generated_Source\PSoC6\pdl\middleware\ble/cy_ble_gap.h ****     /** Defines the scan window when operating in Slow connection */
 342:Generated_Source\PSoC6\pdl\middleware\ble/cy_ble_gap.h ****     uint16_t slowScanWindow;
 343:Generated_Source\PSoC6\pdl\middleware\ble/cy_ble_gap.h **** 
 344:Generated_Source\PSoC6\pdl\middleware\ble/cy_ble_gap.h ****     /** The timeout value of scanning with Slow scan parameters */
 345:Generated_Source\PSoC6\pdl\middleware\ble/cy_ble_gap.h ****     uint16_t slowScanTimeOut;
 346:Generated_Source\PSoC6\pdl\middleware\ble/cy_ble_gap.h **** 
 347:Generated_Source\PSoC6\pdl\middleware\ble/cy_ble_gap.h ****     /** The minimum permissible connection time value to be used during a connection event */
 348:Generated_Source\PSoC6\pdl\middleware\ble/cy_ble_gap.h ****     uint16_t gapcConnectionIntervalMin;
 349:Generated_Source\PSoC6\pdl\middleware\ble/cy_ble_gap.h **** 
ARM GAS  C:\Users\kateb\AppData\Local\Temp\cciDLH78.s 			page 34


 350:Generated_Source\PSoC6\pdl\middleware\ble/cy_ble_gap.h ****     /** The maximum permissible connection time value to be used during a connection event */
 351:Generated_Source\PSoC6\pdl\middleware\ble/cy_ble_gap.h ****     uint16_t gapcConnectionIntervalMax;
 352:Generated_Source\PSoC6\pdl\middleware\ble/cy_ble_gap.h **** 
 353:Generated_Source\PSoC6\pdl\middleware\ble/cy_ble_gap.h ****     /** Defines the maximum time between two received Data Packet PDUs before
 354:Generated_Source\PSoC6\pdl\middleware\ble/cy_ble_gap.h ****      *  the connection is considered lost */
 355:Generated_Source\PSoC6\pdl\middleware\ble/cy_ble_gap.h ****     uint16_t gapcConnectionSlaveLatency;
 356:Generated_Source\PSoC6\pdl\middleware\ble/cy_ble_gap.h **** 
 357:Generated_Source\PSoC6\pdl\middleware\ble/cy_ble_gap.h ****     /** Defines the LE link supervision timeout interval */
 358:Generated_Source\PSoC6\pdl\middleware\ble/cy_ble_gap.h ****     uint16_t gapcConnectionTimeOut;
 359:Generated_Source\PSoC6\pdl\middleware\ble/cy_ble_gap.h **** }cy_stc_ble_gapc_scan_params_t;
 360:Generated_Source\PSoC6\pdl\middleware\ble/cy_ble_gap.h **** 
 361:Generated_Source\PSoC6\pdl\middleware\ble/cy_ble_gap.h **** /** Store BLE Application Data parameter into flash */
 362:Generated_Source\PSoC6\pdl\middleware\ble/cy_ble_gap.h **** typedef struct
 363:Generated_Source\PSoC6\pdl\middleware\ble/cy_ble_gap.h **** {
 364:Generated_Source\PSoC6\pdl\middleware\ble/cy_ble_gap.h ****     /** Source buffer */
 365:Generated_Source\PSoC6\pdl\middleware\ble/cy_ble_gap.h ****     const uint8_t *srcBuff;
 366:Generated_Source\PSoC6\pdl\middleware\ble/cy_ble_gap.h **** 
 367:Generated_Source\PSoC6\pdl\middleware\ble/cy_ble_gap.h ****     /** Destination buffer */
 368:Generated_Source\PSoC6\pdl\middleware\ble/cy_ble_gap.h ****     const uint8_t *destAddr;
 369:Generated_Source\PSoC6\pdl\middleware\ble/cy_ble_gap.h **** 
 370:Generated_Source\PSoC6\pdl\middleware\ble/cy_ble_gap.h ****     /** Source buffer length */
 371:Generated_Source\PSoC6\pdl\middleware\ble/cy_ble_gap.h ****     uint32_t      buffLen;
 372:Generated_Source\PSoC6\pdl\middleware\ble/cy_ble_gap.h ****     
 373:Generated_Source\PSoC6\pdl\middleware\ble/cy_ble_gap.h ****     /** Write mode: blocking (default) / non-blocking */
 374:Generated_Source\PSoC6\pdl\middleware\ble/cy_ble_gap.h ****     uint32_t      writeMode;
 375:Generated_Source\PSoC6\pdl\middleware\ble/cy_ble_gap.h ****     
 376:Generated_Source\PSoC6\pdl\middleware\ble/cy_ble_gap.h **** } cy_stc_ble_app_flash_param_t;
 377:Generated_Source\PSoC6\pdl\middleware\ble/cy_ble_gap.h **** 
 378:Generated_Source\PSoC6\pdl\middleware\ble/cy_ble_gap.h **** /** @} group_ble_common_api_gap_definitions */
 379:Generated_Source\PSoC6\pdl\middleware\ble/cy_ble_gap.h ****  
 380:Generated_Source\PSoC6\pdl\middleware\ble/cy_ble_gap.h **** /***************************************
 381:Generated_Source\PSoC6\pdl\middleware\ble/cy_ble_gap.h **** * API Constants
 382:Generated_Source\PSoC6\pdl\middleware\ble/cy_ble_gap.h **** ***************************************/
 383:Generated_Source\PSoC6\pdl\middleware\ble/cy_ble_gap.h **** #define CY_BLE_AD_TYPE_MORE16UUID                  (0x02u)
 384:Generated_Source\PSoC6\pdl\middleware\ble/cy_ble_gap.h **** #define CY_BLE_AD_TYPE_CMPL16UUID                  (0x03u)
 385:Generated_Source\PSoC6\pdl\middleware\ble/cy_ble_gap.h **** #define CY_BLE_AD_TYPE_MORE32UUID                  (0x04u)
 386:Generated_Source\PSoC6\pdl\middleware\ble/cy_ble_gap.h **** #define CY_BLE_AD_TYPE_CMPL32UUID                  (0x05u)
 387:Generated_Source\PSoC6\pdl\middleware\ble/cy_ble_gap.h **** #define CY_BLE_AD_TYPE_MORE128UUID                 (0x06u)
 388:Generated_Source\PSoC6\pdl\middleware\ble/cy_ble_gap.h **** #define CY_BLE_AD_TYPE_CMPL128UUID                 (0x07u)
 389:Generated_Source\PSoC6\pdl\middleware\ble/cy_ble_gap.h **** 
 390:Generated_Source\PSoC6\pdl\middleware\ble/cy_ble_gap.h **** #define CY_BLE_AD_TYPE_SERVICE_DATA                (0x16u)
 391:Generated_Source\PSoC6\pdl\middleware\ble/cy_ble_gap.h **** #define CY_BLE_AD_SERVICE_DATA_OVERHEAD            (0x03u)
 392:Generated_Source\PSoC6\pdl\middleware\ble/cy_ble_gap.h **** 
 393:Generated_Source\PSoC6\pdl\middleware\ble/cy_ble_gap.h **** #define CY_BLE_DISCOVERY_IDLE                      (0x00u)
 394:Generated_Source\PSoC6\pdl\middleware\ble/cy_ble_gap.h **** #define CY_BLE_DISCOVERY_SERVICE                   (0x01u)
 395:Generated_Source\PSoC6\pdl\middleware\ble/cy_ble_gap.h **** #define CY_BLE_DISCOVERY_CHAR                      (0x02u)
 396:Generated_Source\PSoC6\pdl\middleware\ble/cy_ble_gap.h **** #define CY_BLE_DISCOVERY_DESCR                     (0x03u)
 397:Generated_Source\PSoC6\pdl\middleware\ble/cy_ble_gap.h **** #define CY_BLE_DISCOVERY_DONE                      (0x04u)
 398:Generated_Source\PSoC6\pdl\middleware\ble/cy_ble_gap.h **** 
 399:Generated_Source\PSoC6\pdl\middleware\ble/cy_ble_gap.h **** /* Cy_BLE_NextCharDscrDiscovery parameters */
 400:Generated_Source\PSoC6\pdl\middleware\ble/cy_ble_gap.h **** #define CY_BLE_DISCOVERY_INIT                      (0x00u)
 401:Generated_Source\PSoC6\pdl\middleware\ble/cy_ble_gap.h **** #define CY_BLE_DISCOVERY_CONTINUE                  (0x01u)
 402:Generated_Source\PSoC6\pdl\middleware\ble/cy_ble_gap.h **** 
 403:Generated_Source\PSoC6\pdl\middleware\ble/cy_ble_gap.h **** #define CY_BLE_SFLASH_DIE_X_MASK                   (0x3Fu)
 404:Generated_Source\PSoC6\pdl\middleware\ble/cy_ble_gap.h **** #define CY_BLE_SFLASH_DIE_X_BITS                   (6u)
 405:Generated_Source\PSoC6\pdl\middleware\ble/cy_ble_gap.h **** #define CY_BLE_SFLASH_DIE_Y_MASK                   (0x3Fu)
 406:Generated_Source\PSoC6\pdl\middleware\ble/cy_ble_gap.h **** #define CY_BLE_SFLASH_DIE_Y_BITS                   (6u)
ARM GAS  C:\Users\kateb\AppData\Local\Temp\cciDLH78.s 			page 35


 407:Generated_Source\PSoC6\pdl\middleware\ble/cy_ble_gap.h **** #define CY_BLE_SFLASH_DIE_XY_BITS                  (CY_BLE_SFLASH_DIE_X_BITS + CY_BLE_SFLASH_DIE_Y_
 408:Generated_Source\PSoC6\pdl\middleware\ble/cy_ble_gap.h **** #define CY_BLE_SFLASH_DIE_WAFER_MASK               (0x1Fu)
 409:Generated_Source\PSoC6\pdl\middleware\ble/cy_ble_gap.h **** #define CY_BLE_SFLASH_DIE_WAFER_BITS               (5u)
 410:Generated_Source\PSoC6\pdl\middleware\ble/cy_ble_gap.h **** #define CY_BLE_SFLASH_DIE_XYWAFER_BITS             (CY_BLE_SFLASH_DIE_XY_BITS + CY_BLE_SFLASH_DIE_W
 411:Generated_Source\PSoC6\pdl\middleware\ble/cy_ble_gap.h **** #define CY_BLE_SFLASH_DIE_LOT_MASK                 (0x7Fu)
 412:Generated_Source\PSoC6\pdl\middleware\ble/cy_ble_gap.h **** #define CY_BLE_SFLASH_DIE_LOT_BITS                 (7u)
 413:Generated_Source\PSoC6\pdl\middleware\ble/cy_ble_gap.h **** 
 414:Generated_Source\PSoC6\pdl\middleware\ble/cy_ble_gap.h **** /* Device address stored by user in ROW4 of the SFLASH */
 415:Generated_Source\PSoC6\pdl\middleware\ble/cy_ble_gap.h **** #define CY_BLE_SFLASH_DEVICE_ADDRESS_PTR           ((cy_stc_ble_gap_bd_addr_t*)(SFLASH->BLE_DEVICE_
 416:Generated_Source\PSoC6\pdl\middleware\ble/cy_ble_gap.h **** #define CY_BLE_AD_STRUCTURE_MAX_LENGTH             (31u)
 417:Generated_Source\PSoC6\pdl\middleware\ble/cy_ble_gap.h **** 
 418:Generated_Source\PSoC6\pdl\middleware\ble/cy_ble_gap.h **** /* AD types for complete, shortened local name and device address */
 419:Generated_Source\PSoC6\pdl\middleware\ble/cy_ble_gap.h **** #define CY_BLE_SHORT_LOCAL_NAME                    (0x08u)  /**< Shortened Local Name */
 420:Generated_Source\PSoC6\pdl\middleware\ble/cy_ble_gap.h **** #define CY_BLE_COMPLETE_LOCAL_NAME                 (0x09u)  /**< Complete Local Name */
 421:Generated_Source\PSoC6\pdl\middleware\ble/cy_ble_gap.h **** #define CY_BLE_ADV_DEVICE_ADDR                     (0x1Bu)  /**< LE Bluetooth Device Address */
 422:Generated_Source\PSoC6\pdl\middleware\ble/cy_ble_gap.h **** 
 423:Generated_Source\PSoC6\pdl\middleware\ble/cy_ble_gap.h **** #define CY_BLE_ADVERTISING_FAST                    (0x00u)
 424:Generated_Source\PSoC6\pdl\middleware\ble/cy_ble_gap.h **** #define CY_BLE_ADVERTISING_SLOW                    (0x01u)
 425:Generated_Source\PSoC6\pdl\middleware\ble/cy_ble_gap.h **** #define CY_BLE_ADVERTISING_CUSTOM                  (0x02u)
 426:Generated_Source\PSoC6\pdl\middleware\ble/cy_ble_gap.h **** 
 427:Generated_Source\PSoC6\pdl\middleware\ble/cy_ble_gap.h **** #define CY_BLE_SCANNING_FAST                       (0x00u)
 428:Generated_Source\PSoC6\pdl\middleware\ble/cy_ble_gap.h **** #define CY_BLE_SCANNING_SLOW                       (0x01u)
 429:Generated_Source\PSoC6\pdl\middleware\ble/cy_ble_gap.h **** #define CY_BLE_SCANNING_CUSTOM                     (0x02u)
 430:Generated_Source\PSoC6\pdl\middleware\ble/cy_ble_gap.h **** 
 431:Generated_Source\PSoC6\pdl\middleware\ble/cy_ble_gap.h **** #define CY_BLE_PENDING_STACK_FLASH_WRITE_BIT       (0x01u)
 432:Generated_Source\PSoC6\pdl\middleware\ble/cy_ble_gap.h **** #define CY_BLE_PENDING_CCCD_FLASH_WRITE_BIT        (0x02u)
 433:Generated_Source\PSoC6\pdl\middleware\ble/cy_ble_gap.h **** #define CY_BLE_PENDING_CCCD_FLASH_CLEAR_BIT        (0x04u)
 434:Generated_Source\PSoC6\pdl\middleware\ble/cy_ble_gap.h **** #define CY_BLE_PENDING_CCCD_FLASH_CLEAR_ALL_BIT    (0x08u)
 435:Generated_Source\PSoC6\pdl\middleware\ble/cy_ble_gap.h **** #define CY_BLE_PENDING_CCCD_FLASH_CLEAR_MASK \
 436:Generated_Source\PSoC6\pdl\middleware\ble/cy_ble_gap.h ****     (CY_BLE_PENDING_CCCD_FLASH_CLEAR_BIT | CY_BLE_PENDING_CCCD_FLASH_CLEAR_ALL_BIT)
 437:Generated_Source\PSoC6\pdl\middleware\ble/cy_ble_gap.h ****   
 438:Generated_Source\PSoC6\pdl\middleware\ble/cy_ble_gap.h **** /**
 439:Generated_Source\PSoC6\pdl\middleware\ble/cy_ble_gap.h ****  * \addtogroup group_ble_common_api_macros
 440:Generated_Source\PSoC6\pdl\middleware\ble/cy_ble_gap.h ****  * @{
 441:Generated_Source\PSoC6\pdl\middleware\ble/cy_ble_gap.h ****  */
 442:Generated_Source\PSoC6\pdl\middleware\ble/cy_ble_gap.h ****  
 443:Generated_Source\PSoC6\pdl\middleware\ble/cy_ble_gap.h **** /* GAP Advertisement Flags */
 444:Generated_Source\PSoC6\pdl\middleware\ble/cy_ble_gap.h **** #define CY_BLE_GAP_ADV_FLAG_LE_LIMITED_DISC_MODE        (0x01u)     /**< LE Limited Discoverable Mo
 445:Generated_Source\PSoC6\pdl\middleware\ble/cy_ble_gap.h **** #define CY_BLE_GAP_ADV_FLAG_LE_GENERAL_DISC_MODE        (0x02u)     /**< LE General Discoverable Mo
 446:Generated_Source\PSoC6\pdl\middleware\ble/cy_ble_gap.h **** #define CY_BLE_GAP_ADV_FLAG_BR_EDR_NOT_SUPPORTED        (0x04u)     /**< BR/EDR not supported. */
 447:Generated_Source\PSoC6\pdl\middleware\ble/cy_ble_gap.h **** #define CY_BLE_GAP_ADV_FLAG_LE_BR_EDR_CONTROLLER        (0x08u)     /**< Simultaneous LE and BR/EDR
 448:Generated_Source\PSoC6\pdl\middleware\ble/cy_ble_gap.h **** #define CY_BLE_GAP_ADV_FLAG_LE_BR_EDR_HOST              (0x10u)     /**< Simultaneous LE and BR/EDR
 449:Generated_Source\PSoC6\pdl\middleware\ble/cy_ble_gap.h **** #define CY_BLE_GAP_ADV_FLAGS_PACKET_LENGTH              (0x02u)     /**< Length of flags in an adve
 450:Generated_Source\PSoC6\pdl\middleware\ble/cy_ble_gap.h **** 
 451:Generated_Source\PSoC6\pdl\middleware\ble/cy_ble_gap.h **** /* GAP Advertising interval min and max */
 452:Generated_Source\PSoC6\pdl\middleware\ble/cy_ble_gap.h **** #define CY_BLE_GAP_ADV_ADVERT_INTERVAL_MIN              (0x0020u)   /**< Minimum Advertising interv
 453:Generated_Source\PSoC6\pdl\middleware\ble/cy_ble_gap.h ****                                                                      *   i.e. 20 ms. */
 454:Generated_Source\PSoC6\pdl\middleware\ble/cy_ble_gap.h **** #define CY_BLE_GAP_ADV_ADVERT_INTERVAL_NONCON_MIN       (0x00A0u)   /**< Minimum Advertising interv
 455:Generated_Source\PSoC6\pdl\middleware\ble/cy_ble_gap.h ****                                                                      *   for non connectable mode, 
 456:Generated_Source\PSoC6\pdl\middleware\ble/cy_ble_gap.h **** #define CY_BLE_GAP_ADV_ADVERT_INTERVAL_MAX              (0x4000u)   /**< Maximum Advertising interv
 457:Generated_Source\PSoC6\pdl\middleware\ble/cy_ble_gap.h ****                                                                      *   i.e. 10.24 s. */
 458:Generated_Source\PSoC6\pdl\middleware\ble/cy_ble_gap.h **** #define CY_BLE_GAP_ADV_ADVERT_INTERVAL_PACKET_LENGTH    (0x03u)     /**< Length of the Advertising 
 459:Generated_Source\PSoC6\pdl\middleware\ble/cy_ble_gap.h ****                                                                      *   an advertisement packet */
 460:Generated_Source\PSoC6\pdl\middleware\ble/cy_ble_gap.h **** #define CY_BLE_GAPC_CONNECTING_TIMEOUT                  (30u)       /**< Seconds */
 461:Generated_Source\PSoC6\pdl\middleware\ble/cy_ble_gap.h **** #define CY_BLE_INVALID_CONN_HANDLE_VALUE                (0xFFu)     /**< Invalid Connection Handle 
 462:Generated_Source\PSoC6\pdl\middleware\ble/cy_ble_gap.h **** 
 463:Generated_Source\PSoC6\pdl\middleware\ble/cy_ble_gap.h **** /* Write mode for Cy_BLE_StoreAppData */
ARM GAS  C:\Users\kateb\AppData\Local\Temp\cciDLH78.s 			page 36


 464:Generated_Source\PSoC6\pdl\middleware\ble/cy_ble_gap.h **** #define CY_BLE_STORE_DATA_MODE_BLOCKING                 (0x0u)      /**< Blocking write */
 465:Generated_Source\PSoC6\pdl\middleware\ble/cy_ble_gap.h **** #define CY_BLE_STORE_DATA_MODE_NON_BLOCKING             (0x1u)      /**< Non-blocking write */
 466:Generated_Source\PSoC6\pdl\middleware\ble/cy_ble_gap.h **** 
 467:Generated_Source\PSoC6\pdl\middleware\ble/cy_ble_gap.h **** /** @} group_ble_common_api_macros */
 468:Generated_Source\PSoC6\pdl\middleware\ble/cy_ble_gap.h **** 
 469:Generated_Source\PSoC6\pdl\middleware\ble/cy_ble_gap.h **** /***************************************
 470:Generated_Source\PSoC6\pdl\middleware\ble/cy_ble_gap.h **** * Private Function Prototypes
 471:Generated_Source\PSoC6\pdl\middleware\ble/cy_ble_gap.h **** ***************************************/
 472:Generated_Source\PSoC6\pdl\middleware\ble/cy_ble_gap.h **** void Cy_BLE_ServiceInit(void);
 473:Generated_Source\PSoC6\pdl\middleware\ble/cy_ble_gap.h **** uint32_t Cy_BLE_GetDiscoveryIdx(cy_stc_ble_conn_handle_t connHandle);
 474:Generated_Source\PSoC6\pdl\middleware\ble/cy_ble_gap.h **** 
 475:Generated_Source\PSoC6\pdl\middleware\ble/cy_ble_gap.h **** /***************************************
 476:Generated_Source\PSoC6\pdl\middleware\ble/cy_ble_gap.h **** * Function Prototypes
 477:Generated_Source\PSoC6\pdl\middleware\ble/cy_ble_gap.h **** ***************************************/
 478:Generated_Source\PSoC6\pdl\middleware\ble/cy_ble_gap.h **** /**
 479:Generated_Source\PSoC6\pdl\middleware\ble/cy_ble_gap.h ****  * \addtogroup group_ble_common_api_functions
 480:Generated_Source\PSoC6\pdl\middleware\ble/cy_ble_gap.h ****  * @{
 481:Generated_Source\PSoC6\pdl\middleware\ble/cy_ble_gap.h ****  */
 482:Generated_Source\PSoC6\pdl\middleware\ble/cy_ble_gap.h **** 
 483:Generated_Source\PSoC6\pdl\middleware\ble/cy_ble_gap.h **** cy_en_ble_api_result_t Cy_BLE_StoreAppData(const cy_stc_ble_app_flash_param_t *param);
 484:Generated_Source\PSoC6\pdl\middleware\ble/cy_ble_gap.h **** 
 485:Generated_Source\PSoC6\pdl\middleware\ble/cy_ble_gap.h **** #if ((CY_BLE_GAP_ROLE_PERIPHERAL || CY_BLE_GAP_ROLE_CENTRAL) && (CY_BLE_BONDING_REQUIREMENT == CY_B
 486:Generated_Source\PSoC6\pdl\middleware\ble/cy_ble_gap.h **** cy_en_ble_api_result_t Cy_BLE_StoreBondingData(void);
 487:Generated_Source\PSoC6\pdl\middleware\ble/cy_ble_gap.h **** cy_en_ble_api_result_t Cy_BLE_GAP_RemoveBondedDevice(cy_stc_ble_gap_bd_addr_t* bdAddr);
 488:Generated_Source\PSoC6\pdl\middleware\ble/cy_ble_gap.h **** #endif /* (CY_BLE_GAP_ROLE_PERIPHERAL || CY_BLE_GAP_ROLE_CENTRAL) && (CY_BLE_BONDING_REQUIREMENT ==
 489:Generated_Source\PSoC6\pdl\middleware\ble/cy_ble_gap.h **** 
 490:Generated_Source\PSoC6\pdl\middleware\ble/cy_ble_gap.h **** #if (CY_BLE_GAP_ROLE_PERIPHERAL || CY_BLE_GAP_ROLE_CENTRAL)
 491:Generated_Source\PSoC6\pdl\middleware\ble/cy_ble_gap.h **** bool Cy_BLE_IsPeerConnected(uint8_t *bdAddr);
 492:Generated_Source\PSoC6\pdl\middleware\ble/cy_ble_gap.h **** bool Cy_BLE_IsDevicePaired(cy_stc_ble_conn_handle_t *connHandle);
 493:Generated_Source\PSoC6\pdl\middleware\ble/cy_ble_gap.h **** uint8_t Cy_BLE_GetDeviceRole(cy_stc_ble_conn_handle_t *connHandle);
 494:Generated_Source\PSoC6\pdl\middleware\ble/cy_ble_gap.h **** 
 495:Generated_Source\PSoC6\pdl\middleware\ble/cy_ble_gap.h **** cy_en_ble_api_result_t Cy_BLE_GetRssiPeer(uint8_t  bdHandle);
 496:Generated_Source\PSoC6\pdl\middleware\ble/cy_ble_gap.h **** #endif /* (CY_BLE_GAP_ROLE_PERIPHERAL || CY_BLE_GAP_ROLE_CENTRAL) */
 497:Generated_Source\PSoC6\pdl\middleware\ble/cy_ble_gap.h **** /** @} group_ble_common_api_functions */
 498:Generated_Source\PSoC6\pdl\middleware\ble/cy_ble_gap.h **** 
 499:Generated_Source\PSoC6\pdl\middleware\ble/cy_ble_gap.h **** /**
 500:Generated_Source\PSoC6\pdl\middleware\ble/cy_ble_gap.h ****  * \addtogroup group_ble_common_api_gap_peripheral_functions
 501:Generated_Source\PSoC6\pdl\middleware\ble/cy_ble_gap.h ****  * @{
 502:Generated_Source\PSoC6\pdl\middleware\ble/cy_ble_gap.h ****  */
 503:Generated_Source\PSoC6\pdl\middleware\ble/cy_ble_gap.h ****  
 504:Generated_Source\PSoC6\pdl\middleware\ble/cy_ble_gap.h **** #if (CY_BLE_GAP_ROLE_PERIPHERAL || CY_BLE_GAP_ROLE_BROADCASTER)
 505:Generated_Source\PSoC6\pdl\middleware\ble/cy_ble_gap.h **** cy_en_ble_api_result_t Cy_BLE_GAPP_StartAdvertisement(uint8_t advertisingIntervalType, uint8_t adve
 506:Generated_Source\PSoC6\pdl\middleware\ble/cy_ble_gap.h **** cy_en_ble_api_result_t Cy_BLE_GAPP_StopAdvertisement(void);
 507:Generated_Source\PSoC6\pdl\middleware\ble/cy_ble_gap.h **** 
 508:Generated_Source\PSoC6\pdl\middleware\ble/cy_ble_gap.h **** /** \cond IGNORE */
 509:Generated_Source\PSoC6\pdl\middleware\ble/cy_ble_gap.h **** void Cy_BLE_ChangeAdDeviceAddress(const cy_stc_ble_gap_bd_addr_t* bdAddr, uint8_t dest);
 510:Generated_Source\PSoC6\pdl\middleware\ble/cy_ble_gap.h **** /** \endcond */
 511:Generated_Source\PSoC6\pdl\middleware\ble/cy_ble_gap.h **** 
 512:Generated_Source\PSoC6\pdl\middleware\ble/cy_ble_gap.h **** #endif /* CY_BLE_GAP_ROLE_PERIPHERAL */
 513:Generated_Source\PSoC6\pdl\middleware\ble/cy_ble_gap.h **** 
 514:Generated_Source\PSoC6\pdl\middleware\ble/cy_ble_gap.h **** /** @} group_ble_common_api_gap_peripheral_functions */
 515:Generated_Source\PSoC6\pdl\middleware\ble/cy_ble_gap.h **** 
 516:Generated_Source\PSoC6\pdl\middleware\ble/cy_ble_gap.h **** /**
 517:Generated_Source\PSoC6\pdl\middleware\ble/cy_ble_gap.h ****  * \addtogroup group_ble_common_api_gap_central_functions
 518:Generated_Source\PSoC6\pdl\middleware\ble/cy_ble_gap.h ****  * @{
 519:Generated_Source\PSoC6\pdl\middleware\ble/cy_ble_gap.h ****  */
 520:Generated_Source\PSoC6\pdl\middleware\ble/cy_ble_gap.h ****  
ARM GAS  C:\Users\kateb\AppData\Local\Temp\cciDLH78.s 			page 37


 521:Generated_Source\PSoC6\pdl\middleware\ble/cy_ble_gap.h **** #if (CY_BLE_GAP_ROLE_CENTRAL || CY_BLE_GAP_ROLE_OBSERVER)
 522:Generated_Source\PSoC6\pdl\middleware\ble/cy_ble_gap.h **** cy_en_ble_api_result_t Cy_BLE_GAPC_StartScan(uint8_t scanningIntervalType, uint8_t scanParamIndex);
 523:Generated_Source\PSoC6\pdl\middleware\ble/cy_ble_gap.h **** cy_en_ble_api_result_t Cy_BLE_GAPC_StopScan(void);
 524:Generated_Source\PSoC6\pdl\middleware\ble/cy_ble_gap.h **** #endif /* CY_BLE_GAP_ROLE_CENTRAL || CY_BLE_GAP_ROLE_OBSERVER */
 525:Generated_Source\PSoC6\pdl\middleware\ble/cy_ble_gap.h **** 
 526:Generated_Source\PSoC6\pdl\middleware\ble/cy_ble_gap.h **** #if (CY_BLE_GAP_ROLE_CENTRAL)
 527:Generated_Source\PSoC6\pdl\middleware\ble/cy_ble_gap.h **** cy_en_ble_api_result_t Cy_BLE_GAPC_ConnectDevice(const cy_stc_ble_gap_bd_addr_t * address, uint8_t 
 528:Generated_Source\PSoC6\pdl\middleware\ble/cy_ble_gap.h **** cy_en_ble_api_result_t Cy_BLE_GAPC_CancelDeviceConnection(void);
 529:Generated_Source\PSoC6\pdl\middleware\ble/cy_ble_gap.h **** #endif /* CY_BLE_GAP_ROLE_CENTRAL */
 530:Generated_Source\PSoC6\pdl\middleware\ble/cy_ble_gap.h **** 
 531:Generated_Source\PSoC6\pdl\middleware\ble/cy_ble_gap.h **** /** @} group_ble_common_api_gap_central_functions */
 532:Generated_Source\PSoC6\pdl\middleware\ble/cy_ble_gap.h **** 
 533:Generated_Source\PSoC6\pdl\middleware\ble/cy_ble_gap.h **** /***************************************
 534:Generated_Source\PSoC6\pdl\middleware\ble/cy_ble_gap.h **** * External data references
 535:Generated_Source\PSoC6\pdl\middleware\ble/cy_ble_gap.h **** ***************************************/
 536:Generated_Source\PSoC6\pdl\middleware\ble/cy_ble_gap.h **** extern volatile uint8_t cy_ble_eventHandlerFlag;
 537:Generated_Source\PSoC6\pdl\middleware\ble/cy_ble_gap.h **** extern cy_stc_ble_gap_bd_addr_t *cy_ble_sflashDeviceAddress;
 538:Generated_Source\PSoC6\pdl\middleware\ble/cy_ble_gap.h **** extern cy_stc_ble_gap_bd_addr_t cy_ble_deviceAddress;
 539:Generated_Source\PSoC6\pdl\middleware\ble/cy_ble_gap.h **** extern cy_en_ble_state_t cy_ble_state;
 540:Generated_Source\PSoC6\pdl\middleware\ble/cy_ble_gap.h **** 
 541:Generated_Source\PSoC6\pdl\middleware\ble/cy_ble_gap.h **** #if ((CY_BLE_GAP_ROLE_PERIPHERAL || CY_BLE_GAP_ROLE_CENTRAL))
 542:Generated_Source\PSoC6\pdl\middleware\ble/cy_ble_gap.h **** extern cy_stc_ble_gap_auth_info_t cy_ble_authInfo[CY_BLE_AUTH_INFO_COUNT];
 543:Generated_Source\PSoC6\pdl\middleware\ble/cy_ble_gap.h **** #endif /* ((CY_BLE_GAP_ROLE_PERIPHERAL || CY_BLE_GAP_ROLE_CENTRAL)) */
 544:Generated_Source\PSoC6\pdl\middleware\ble/cy_ble_gap.h **** 
 545:Generated_Source\PSoC6\pdl\middleware\ble/cy_ble_gap.h **** #if (CY_BLE_GAP_ROLE_PERIPHERAL || CY_BLE_GAP_ROLE_BROADCASTER)
 546:Generated_Source\PSoC6\pdl\middleware\ble/cy_ble_gap.h **** extern cy_en_ble_adv_state_t cy_ble_advState;
 547:Generated_Source\PSoC6\pdl\middleware\ble/cy_ble_gap.h **** extern uint8_t cy_ble_advIndex;
 548:Generated_Source\PSoC6\pdl\middleware\ble/cy_ble_gap.h **** #endif  /* (CY_BLE_GAP_ROLE_PERIPHERAL || CY_BLE_GAP_ROLE_BROADCASTER) */
 549:Generated_Source\PSoC6\pdl\middleware\ble/cy_ble_gap.h **** 
 550:Generated_Source\PSoC6\pdl\middleware\ble/cy_ble_gap.h **** #if (CY_BLE_GAP_ROLE_CENTRAL || CY_BLE_GAP_ROLE_OBSERVER)
 551:Generated_Source\PSoC6\pdl\middleware\ble/cy_ble_gap.h **** extern cy_en_ble_scan_state_t cy_ble_scanState;
 552:Generated_Source\PSoC6\pdl\middleware\ble/cy_ble_gap.h **** extern uint8_t cy_ble_scanIndex;
 553:Generated_Source\PSoC6\pdl\middleware\ble/cy_ble_gap.h **** #endif /* (CY_BLE_GAP_ROLE_CENTRAL || CY_BLE_GAP_ROLE_OBSERVER) */
 554:Generated_Source\PSoC6\pdl\middleware\ble/cy_ble_gap.h **** 
 555:Generated_Source\PSoC6\pdl\middleware\ble/cy_ble_gap.h **** #if ((CY_BLE_GAP_ROLE_PERIPHERAL || CY_BLE_GAP_ROLE_CENTRAL))
 556:Generated_Source\PSoC6\pdl\middleware\ble/cy_ble_gap.h **** extern cy_stc_ble_conn_handle_t cy_ble_connHandle[CY_BLE_CONN_COUNT];
 557:Generated_Source\PSoC6\pdl\middleware\ble/cy_ble_gap.h **** extern cy_en_ble_conn_state_t cy_ble_connState[CY_BLE_CONN_COUNT];
 558:Generated_Source\PSoC6\pdl\middleware\ble/cy_ble_gap.h **** 
 559:Generated_Source\PSoC6\pdl\middleware\ble/cy_ble_gap.h **** extern volatile uint8_t cy_ble_devConnRole[CY_BLE_CONN_COUNT];                                     
 560:Generated_Source\PSoC6\pdl\middleware\ble/cy_ble_gap.h **** extern volatile bool cy_ble_pairStatus[CY_BLE_CONN_COUNT];
 561:Generated_Source\PSoC6\pdl\middleware\ble/cy_ble_gap.h **** 
 562:Generated_Source\PSoC6\pdl\middleware\ble/cy_ble_gap.h **** #endif /* ((CY_BLE_GAP_ROLE_PERIPHERAL || CY_BLE_GAP_ROLE_CENTRAL)) */
 563:Generated_Source\PSoC6\pdl\middleware\ble/cy_ble_gap.h **** 
 564:Generated_Source\PSoC6\pdl\middleware\ble/cy_ble_gap.h **** #if (CY_BLE_GAP_ROLE_CENTRAL || CY_BLE_GAP_ROLE_OBSERVER)
 565:Generated_Source\PSoC6\pdl\middleware\ble/cy_ble_gap.h **** extern cy_stc_ble_gapc_disc_info_t cy_ble_discoveryInfo[CY_BLE_GAPC_CONF_COUNT];
 566:Generated_Source\PSoC6\pdl\middleware\ble/cy_ble_gap.h **** #endif /* CY_BLE_GAP_ROLE_CENTRAL || CY_BLE_GAP_ROLE_OBSERVER */
 567:Generated_Source\PSoC6\pdl\middleware\ble/cy_ble_gap.h **** 
 568:Generated_Source\PSoC6\pdl\middleware\ble/cy_ble_gap.h **** #if (CY_BLE_GAP_ROLE_CENTRAL)
 569:Generated_Source\PSoC6\pdl\middleware\ble/cy_ble_gap.h **** extern cy_stc_ble_gapc_conn_info_t cy_ble_connectionParameters;
 570:Generated_Source\PSoC6\pdl\middleware\ble/cy_ble_gap.h **** extern cy_stc_ble_timer_info_t cy_ble_connectingTimeout;
 571:Generated_Source\PSoC6\pdl\middleware\ble/cy_ble_gap.h **** #endif /* CY_BLE_GAP_ROLE_CENTRAL */
 572:Generated_Source\PSoC6\pdl\middleware\ble/cy_ble_gap.h **** 
 573:Generated_Source\PSoC6\pdl\middleware\ble/cy_ble_gap.h **** #if (CY_BLE_GAP_ROLE_PERIPHERAL || CY_BLE_GAP_ROLE_BROADCASTER)
 574:Generated_Source\PSoC6\pdl\middleware\ble/cy_ble_gap.h **** extern cy_stc_ble_gapp_disc_mode_info_t cy_ble_discoveryModeInfo[CY_BLE_GAPP_CONF_COUNT];
 575:Generated_Source\PSoC6\pdl\middleware\ble/cy_ble_gap.h **** extern cy_stc_ble_gapp_disc_param_t cy_ble_discoveryParam[CY_BLE_GAPP_CONF_COUNT];
 576:Generated_Source\PSoC6\pdl\middleware\ble/cy_ble_gap.h **** extern cy_stc_ble_gapp_disc_data_t cy_ble_discoveryData[CY_BLE_GAPP_CONF_COUNT];
 577:Generated_Source\PSoC6\pdl\middleware\ble/cy_ble_gap.h **** extern cy_stc_ble_gapp_scan_rsp_data_t cy_ble_scanRspData[CY_BLE_GAPP_CONF_COUNT];
ARM GAS  C:\Users\kateb\AppData\Local\Temp\cciDLH78.s 			page 38


 578:Generated_Source\PSoC6\pdl\middleware\ble/cy_ble_gap.h **** #endif /* CY_BLE_GAP_ROLE_PERIPHERAL || CY_BLE_GAP_ROLE_BROADCASTER */
 579:Generated_Source\PSoC6\pdl\middleware\ble/cy_ble_gap.h **** 
 580:Generated_Source\PSoC6\pdl\middleware\ble/cy_ble_gap.h **** #if ((CY_BLE_GAP_ROLE_PERIPHERAL || CY_BLE_GAP_ROLE_CENTRAL) && (CY_BLE_BONDING_REQUIREMENT == CY_B
 581:Generated_Source\PSoC6\pdl\middleware\ble/cy_ble_gap.h **** 
 582:Generated_Source\PSoC6\pdl\middleware\ble/cy_ble_gap.h **** /**
 583:Generated_Source\PSoC6\pdl\middleware\ble/cy_ble_gap.h ****  * \addtogroup group_ble_common_api_global_variables
 584:Generated_Source\PSoC6\pdl\middleware\ble/cy_ble_gap.h ****  * @{
 585:Generated_Source\PSoC6\pdl\middleware\ble/cy_ble_gap.h ****  */  
 586:Generated_Source\PSoC6\pdl\middleware\ble/cy_ble_gap.h **** /** This is a two-bit variable that contains status of pending write to flash operation.
 587:Generated_Source\PSoC6\pdl\middleware\ble/cy_ble_gap.h ****  * This variable is initialized to zero in Cy_BLE_Init().
 588:Generated_Source\PSoC6\pdl\middleware\ble/cy_ble_gap.h ****  * CY_BLE_PENDING_CCCD_FLASH_WRITE_BIT flag is set after write to CCCD event when a
 589:Generated_Source\PSoC6\pdl\middleware\ble/cy_ble_gap.h ****  * peer device supports bonding (cy_ble_peerBonding[eventParam->connHandle.attId] == CY_BLE_GAP_BON
 590:Generated_Source\PSoC6\pdl\middleware\ble/cy_ble_gap.h ****  * CY_BLE_PENDING_STACK_FLASH_WRITE_BIT flag is set after CY_BLE_EVT_PENDING_FLASH_WRITE event.
 591:Generated_Source\PSoC6\pdl\middleware\ble/cy_ble_gap.h ****  * Cy_BLE_StoreBondingData() should be called to store pending bonding data.
 592:Generated_Source\PSoC6\pdl\middleware\ble/cy_ble_gap.h ****  * This function automatically clears pending bits after write operation is complete.
 593:Generated_Source\PSoC6\pdl\middleware\ble/cy_ble_gap.h ****  */
 594:Generated_Source\PSoC6\pdl\middleware\ble/cy_ble_gap.h **** extern uint8_t cy_ble_pendingFlashWrite;
 595:Generated_Source\PSoC6\pdl\middleware\ble/cy_ble_gap.h **** /** @} group_ble_common_api_global_variables */
 596:Generated_Source\PSoC6\pdl\middleware\ble/cy_ble_gap.h ****     
 597:Generated_Source\PSoC6\pdl\middleware\ble/cy_ble_gap.h **** /** Bonding type setting of peer device, CY_BLE_GAP_BONDING_NONE or CY_BLE_GAP_BONDING.
 598:Generated_Source\PSoC6\pdl\middleware\ble/cy_ble_gap.h ****  * It is initialized after pairing with peer device and used for cy_ble_pendingFlashWrite variable
 599:Generated_Source\PSoC6\pdl\middleware\ble/cy_ble_gap.h ****  * setting.
 600:Generated_Source\PSoC6\pdl\middleware\ble/cy_ble_gap.h ****  */
 601:Generated_Source\PSoC6\pdl\middleware\ble/cy_ble_gap.h **** extern uint8_t cy_ble_peerBonding[CY_BLE_CONN_COUNT];
 602:Generated_Source\PSoC6\pdl\middleware\ble/cy_ble_gap.h **** 
 603:Generated_Source\PSoC6\pdl\middleware\ble/cy_ble_gap.h **** #endif  /* (CY_BLE_BONDING_REQUIREMENT == CY_BLE_BONDING_YES) */
 604:Generated_Source\PSoC6\pdl\middleware\ble/cy_ble_gap.h **** 
 605:Generated_Source\PSoC6\pdl\middleware\ble/cy_ble_gap.h **** 
 606:Generated_Source\PSoC6\pdl\middleware\ble/cy_ble_gap.h **** /***************************************
 607:Generated_Source\PSoC6\pdl\middleware\ble/cy_ble_gap.h **** * Exported Functions (MACROS)
 608:Generated_Source\PSoC6\pdl\middleware\ble/cy_ble_gap.h **** ***************************************/
 609:Generated_Source\PSoC6\pdl\middleware\ble/cy_ble_gap.h **** #if ((CY_BLE_GAP_ROLE_PERIPHERAL || CY_BLE_GAP_ROLE_CENTRAL))
 610:Generated_Source\PSoC6\pdl\middleware\ble/cy_ble_gap.h ****    
 611:Generated_Source\PSoC6\pdl\middleware\ble/cy_ble_gap.h **** /******************************************************************************
 612:Generated_Source\PSoC6\pdl\middleware\ble/cy_ble_gap.h **** * Function Name: Cy_BLE_GetConnHandleIdx
 613:Generated_Source\PSoC6\pdl\middleware\ble/cy_ble_gap.h **** ***************************************************************************//**
 614:Generated_Source\PSoC6\pdl\middleware\ble/cy_ble_gap.h **** *
 615:Generated_Source\PSoC6\pdl\middleware\ble/cy_ble_gap.h **** *  This function searches the array of connection handles (cy_ble_connHandle[])
 616:Generated_Source\PSoC6\pdl\middleware\ble/cy_ble_gap.h **** *  for the location (index) of a handle that corresponds to the input parameter
 617:Generated_Source\PSoC6\pdl\middleware\ble/cy_ble_gap.h **** *  connHandle. bdHandle.
 618:Generated_Source\PSoC6\pdl\middleware\ble/cy_ble_gap.h **** *
 619:Generated_Source\PSoC6\pdl\middleware\ble/cy_ble_gap.h **** *  This function is designated for internal usage. 
 620:Generated_Source\PSoC6\pdl\middleware\ble/cy_ble_gap.h **** *    
 621:Generated_Source\PSoC6\pdl\middleware\ble/cy_ble_gap.h **** *  \param connHandle: The connection handle.
 622:Generated_Source\PSoC6\pdl\middleware\ble/cy_ble_gap.h **** *
 623:Generated_Source\PSoC6\pdl\middleware\ble/cy_ble_gap.h **** *  \return
 624:Generated_Source\PSoC6\pdl\middleware\ble/cy_ble_gap.h **** *  retValue: the index of connHandle  
 625:Generated_Source\PSoC6\pdl\middleware\ble/cy_ble_gap.h **** *    
 626:Generated_Source\PSoC6\pdl\middleware\ble/cy_ble_gap.h **** ******************************************************************************/
 627:Generated_Source\PSoC6\pdl\middleware\ble/cy_ble_gap.h **** __STATIC_INLINE uint8_t Cy_BLE_GetConnHandleIdx(cy_stc_ble_conn_handle_t connHandle)
 628:Generated_Source\PSoC6\pdl\middleware\ble/cy_ble_gap.h **** {
 629:Generated_Source\PSoC6\pdl\middleware\ble/cy_ble_gap.h ****     uint8_t idx;
 630:Generated_Source\PSoC6\pdl\middleware\ble/cy_ble_gap.h ****     uint8_t retValue = CY_BLE_CONN_COUNT;
 631:Generated_Source\PSoC6\pdl\middleware\ble/cy_ble_gap.h **** 
 632:Generated_Source\PSoC6\pdl\middleware\ble/cy_ble_gap.h ****     for(idx = 0u; idx < CY_BLE_CONN_COUNT; idx++)
 633:Generated_Source\PSoC6\pdl\middleware\ble/cy_ble_gap.h ****     {
 634:Generated_Source\PSoC6\pdl\middleware\ble/cy_ble_gap.h ****         if(cy_ble_connHandle[idx].bdHandle == connHandle.bdHandle)
ARM GAS  C:\Users\kateb\AppData\Local\Temp\cciDLH78.s 			page 39


 635:Generated_Source\PSoC6\pdl\middleware\ble/cy_ble_gap.h ****         {
 636:Generated_Source\PSoC6\pdl\middleware\ble/cy_ble_gap.h ****             retValue = idx;
 637:Generated_Source\PSoC6\pdl\middleware\ble/cy_ble_gap.h ****             break;
 638:Generated_Source\PSoC6\pdl\middleware\ble/cy_ble_gap.h ****         }
 639:Generated_Source\PSoC6\pdl\middleware\ble/cy_ble_gap.h ****     }
 640:Generated_Source\PSoC6\pdl\middleware\ble/cy_ble_gap.h ****     if(retValue == CY_BLE_CONN_COUNT)
 641:Generated_Source\PSoC6\pdl\middleware\ble/cy_ble_gap.h ****     {
 642:Generated_Source\PSoC6\pdl\middleware\ble/cy_ble_gap.h ****         /* HALT in debug mode */
 643:Generated_Source\PSoC6\pdl\middleware\ble/cy_ble_gap.h ****         CY_ASSERT(retValue != CY_BLE_CONN_COUNT);
 644:Generated_Source\PSoC6\pdl\middleware\ble/cy_ble_gap.h ****         retValue = 0u;
 645:Generated_Source\PSoC6\pdl\middleware\ble/cy_ble_gap.h ****     }
 646:Generated_Source\PSoC6\pdl\middleware\ble/cy_ble_gap.h **** 
 647:Generated_Source\PSoC6\pdl\middleware\ble/cy_ble_gap.h ****     return(retValue);
 648:Generated_Source\PSoC6\pdl\middleware\ble/cy_ble_gap.h **** }
 649:Generated_Source\PSoC6\pdl\middleware\ble/cy_ble_gap.h **** #endif  /* ((CY_BLE_GAP_ROLE_PERIPHERAL || CY_BLE_GAP_ROLE_CENTRAL)) */
 650:Generated_Source\PSoC6\pdl\middleware\ble/cy_ble_gap.h **** 
 651:Generated_Source\PSoC6\pdl\middleware\ble/cy_ble_gap.h **** /**
 652:Generated_Source\PSoC6\pdl\middleware\ble/cy_ble_gap.h ****  * \addtogroup group_ble_common_api_functions
 653:Generated_Source\PSoC6\pdl\middleware\ble/cy_ble_gap.h ****  * @{
 654:Generated_Source\PSoC6\pdl\middleware\ble/cy_ble_gap.h **** */
 655:Generated_Source\PSoC6\pdl\middleware\ble/cy_ble_gap.h **** /******************************************************************************
 656:Generated_Source\PSoC6\pdl\middleware\ble/cy_ble_gap.h **** * Function Name: Cy_BLE_GetState
 657:Generated_Source\PSoC6\pdl\middleware\ble/cy_ble_gap.h **** ***************************************************************************//**
 658:Generated_Source\PSoC6\pdl\middleware\ble/cy_ble_gap.h **** *
 659:Generated_Source\PSoC6\pdl\middleware\ble/cy_ble_gap.h **** *  This function is used to determine the current state of the BLE Middleware
 660:Generated_Source\PSoC6\pdl\middleware\ble/cy_ble_gap.h **** *  state machine :
 661:Generated_Source\PSoC6\pdl\middleware\ble/cy_ble_gap.h **** *
 662:Generated_Source\PSoC6\pdl\middleware\ble/cy_ble_gap.h **** *  \image html ble_middleware_state_machine.png
 663:Generated_Source\PSoC6\pdl\middleware\ble/cy_ble_gap.h **** *
 664:Generated_Source\PSoC6\pdl\middleware\ble/cy_ble_gap.h **** *  The BLE Middleware is in the state #CY_BLE_STATE_INITIALIZING after the 
 665:Generated_Source\PSoC6\pdl\middleware\ble/cy_ble_gap.h **** *  Cy_BLE_Enable() is called and until the #CY_BLE_EVT_STACK_ON event is not 
 666:Generated_Source\PSoC6\pdl\middleware\ble/cy_ble_gap.h **** *  received. After successful initialization the state is changed to 
 667:Generated_Source\PSoC6\pdl\middleware\ble/cy_ble_gap.h **** *  #CY_BLE_STATE_ON.
 668:Generated_Source\PSoC6\pdl\middleware\ble/cy_ble_gap.h **** *
 669:Generated_Source\PSoC6\pdl\middleware\ble/cy_ble_gap.h **** *  The BLE Middleware is in the state #CY_BLE_STATE_STOPPED 
 670:Generated_Source\PSoC6\pdl\middleware\ble/cy_ble_gap.h **** *  when the #CY_BLE_EVT_STACK_SHUTDOWN_COMPLETE event is received (after the 
 671:Generated_Source\PSoC6\pdl\middleware\ble/cy_ble_gap.h **** *  Cy_BLE_Disable() is called).
 672:Generated_Source\PSoC6\pdl\middleware\ble/cy_ble_gap.h **** *  
 673:Generated_Source\PSoC6\pdl\middleware\ble/cy_ble_gap.h **** *  For GAP Central role when the Cy_BLE_GAPC_ConnectDevice() is called, the state
 674:Generated_Source\PSoC6\pdl\middleware\ble/cy_ble_gap.h **** *  is changed to #CY_BLE_STATE_CONNECTING. After successful connection indicated
 675:Generated_Source\PSoC6\pdl\middleware\ble/cy_ble_gap.h **** *  by #CY_BLE_EVT_GAP_DEVICE_CONNECTED or #CY_BLE_EVT_GAP_ENHANCE_CONN_COMPLETE
 676:Generated_Source\PSoC6\pdl\middleware\ble/cy_ble_gap.h **** *  event or the timeout indicated by #CY_BLE_EVT_TIMEOUT event, the state is
 677:Generated_Source\PSoC6\pdl\middleware\ble/cy_ble_gap.h **** *  changed to #CY_BLE_STATE_ON.
 678:Generated_Source\PSoC6\pdl\middleware\ble/cy_ble_gap.h **** *
 679:Generated_Source\PSoC6\pdl\middleware\ble/cy_ble_gap.h **** * \return
 680:Generated_Source\PSoC6\pdl\middleware\ble/cy_ble_gap.h **** * \ref cy_en_ble_state_t : The current BLE Middleware state. The following are 
 681:Generated_Source\PSoC6\pdl\middleware\ble/cy_ble_gap.h **** *                         possible states:
 682:Generated_Source\PSoC6\pdl\middleware\ble/cy_ble_gap.h **** *
 683:Generated_Source\PSoC6\pdl\middleware\ble/cy_ble_gap.h **** *   State                      | Description
 684:Generated_Source\PSoC6\pdl\middleware\ble/cy_ble_gap.h **** *   -------------------------- | -----------
 685:Generated_Source\PSoC6\pdl\middleware\ble/cy_ble_gap.h **** *   CY_BLE_STATE_STOPPED       | BLE is turned off.
 686:Generated_Source\PSoC6\pdl\middleware\ble/cy_ble_gap.h **** *   CY_BLE_STATE_INITIALIZING  | BLE is initializing (waiting for #CY_BLE_EVT_STACK_ON event).
 687:Generated_Source\PSoC6\pdl\middleware\ble/cy_ble_gap.h **** *   CY_BLE_STATE_ON            | BLE is turned on.
 688:Generated_Source\PSoC6\pdl\middleware\ble/cy_ble_gap.h **** *   CY_BLE_STATE_CONNECTING    | BLE is connecting.
 689:Generated_Source\PSoC6\pdl\middleware\ble/cy_ble_gap.h **** 
 690:Generated_Source\PSoC6\pdl\middleware\ble/cy_ble_gap.h **** ******************************************************************************/
 691:Generated_Source\PSoC6\pdl\middleware\ble/cy_ble_gap.h **** #define Cy_BLE_GetState()    (cy_ble_state)
ARM GAS  C:\Users\kateb\AppData\Local\Temp\cciDLH78.s 			page 40


 692:Generated_Source\PSoC6\pdl\middleware\ble/cy_ble_gap.h **** 
 693:Generated_Source\PSoC6\pdl\middleware\ble/cy_ble_gap.h **** /** \cond IGNORE */
 694:Generated_Source\PSoC6\pdl\middleware\ble/cy_ble_gap.h **** /******************************************************************************
 695:Generated_Source\PSoC6\pdl\middleware\ble/cy_ble_gap.h **** * Function Name: Cy_BLE_SetState
 696:Generated_Source\PSoC6\pdl\middleware\ble/cy_ble_gap.h **** ***************************************************************************//**
 697:Generated_Source\PSoC6\pdl\middleware\ble/cy_ble_gap.h **** *
 698:Generated_Source\PSoC6\pdl\middleware\ble/cy_ble_gap.h **** *  Used to set the BLE Middleware state machine's state.
 699:Generated_Source\PSoC6\pdl\middleware\ble/cy_ble_gap.h **** *
 700:Generated_Source\PSoC6\pdl\middleware\ble/cy_ble_gap.h **** *  \param state: The desired state to which the event handler's
 701:Generated_Source\PSoC6\pdl\middleware\ble/cy_ble_gap.h **** *   state machine should be set. The parameter state is a variable
 702:Generated_Source\PSoC6\pdl\middleware\ble/cy_ble_gap.h **** *   of type cy_en_ble_state_t.
 703:Generated_Source\PSoC6\pdl\middleware\ble/cy_ble_gap.h **** *
 704:Generated_Source\PSoC6\pdl\middleware\ble/cy_ble_gap.h **** * \return
 705:Generated_Source\PSoC6\pdl\middleware\ble/cy_ble_gap.h **** *  None
 706:Generated_Source\PSoC6\pdl\middleware\ble/cy_ble_gap.h **** *
 707:Generated_Source\PSoC6\pdl\middleware\ble/cy_ble_gap.h **** ******************************************************************************/
 708:Generated_Source\PSoC6\pdl\middleware\ble/cy_ble_gap.h **** #define Cy_BLE_SetState(state)    (cy_ble_state = (state))
 709:Generated_Source\PSoC6\pdl\middleware\ble/cy_ble_gap.h **** /** \endcond */
 710:Generated_Source\PSoC6\pdl\middleware\ble/cy_ble_gap.h **** 
 711:Generated_Source\PSoC6\pdl\middleware\ble/cy_ble_gap.h **** #if (CY_BLE_GAP_ROLE_PERIPHERAL || CY_BLE_GAP_ROLE_BROADCASTER)
 712:Generated_Source\PSoC6\pdl\middleware\ble/cy_ble_gap.h **** 
 713:Generated_Source\PSoC6\pdl\middleware\ble/cy_ble_gap.h **** 
 714:Generated_Source\PSoC6\pdl\middleware\ble/cy_ble_gap.h **** /******************************************************************************
 715:Generated_Source\PSoC6\pdl\middleware\ble/cy_ble_gap.h **** * Function Name: Cy_BLE_GetAdvertisementState
 716:Generated_Source\PSoC6\pdl\middleware\ble/cy_ble_gap.h **** ***************************************************************************//**
 717:Generated_Source\PSoC6\pdl\middleware\ble/cy_ble_gap.h **** *    
 718:Generated_Source\PSoC6\pdl\middleware\ble/cy_ble_gap.h **** *  This function returns the state of the link layer hardware advertisement
 719:Generated_Source\PSoC6\pdl\middleware\ble/cy_ble_gap.h **** *  engine.
 720:Generated_Source\PSoC6\pdl\middleware\ble/cy_ble_gap.h **** *
 721:Generated_Source\PSoC6\pdl\middleware\ble/cy_ble_gap.h **** *  \image html ble_advertisement_state_machine.png
 722:Generated_Source\PSoC6\pdl\middleware\ble/cy_ble_gap.h **** *
 723:Generated_Source\PSoC6\pdl\middleware\ble/cy_ble_gap.h **** *  When Cy_BLE_GAPP_StartAdvertisement() is called, the state is set to
 724:Generated_Source\PSoC6\pdl\middleware\ble/cy_ble_gap.h **** *  #CY_BLE_ADV_STATE_ADV_INITIATED. It automatically changes to
 725:Generated_Source\PSoC6\pdl\middleware\ble/cy_ble_gap.h **** *  #CY_BLE_ADV_STATE_ADVERTISING when #CY_BLE_EVT_GAPP_ADVERTISEMENT_START_STOP
 726:Generated_Source\PSoC6\pdl\middleware\ble/cy_ble_gap.h **** *  event is received. When Cy_BLE_GAPP_StopAdvertisement() is called, the
 727:Generated_Source\PSoC6\pdl\middleware\ble/cy_ble_gap.h **** *  state is set to #CY_BLE_ADV_STATE_STOP_INITIATED. It automatically changes
 728:Generated_Source\PSoC6\pdl\middleware\ble/cy_ble_gap.h **** *  to #CY_BLE_ADV_STATE_STOPPED when the #CY_BLE_EVT_GAPP_ADVERTISEMENT_START_STOP
 729:Generated_Source\PSoC6\pdl\middleware\ble/cy_ble_gap.h **** *  event is received.
 730:Generated_Source\PSoC6\pdl\middleware\ble/cy_ble_gap.h **** *
 731:Generated_Source\PSoC6\pdl\middleware\ble/cy_ble_gap.h **** * \return
 732:Generated_Source\PSoC6\pdl\middleware\ble/cy_ble_gap.h **** * \ref cy_en_ble_adv_state_t :The current advertising state. The following are 
 733:Generated_Source\PSoC6\pdl\middleware\ble/cy_ble_gap.h **** *                              possible states.
 734:Generated_Source\PSoC6\pdl\middleware\ble/cy_ble_gap.h **** *
 735:Generated_Source\PSoC6\pdl\middleware\ble/cy_ble_gap.h **** *               State                |         Description
 736:Generated_Source\PSoC6\pdl\middleware\ble/cy_ble_gap.h **** *   -------------------------------- | -----------------------------
 737:Generated_Source\PSoC6\pdl\middleware\ble/cy_ble_gap.h **** *   CY_BLE_ADV_STATE_STOPPED         | Advertising is stopped.
 738:Generated_Source\PSoC6\pdl\middleware\ble/cy_ble_gap.h **** *   CY_BLE_ADV_STATE_ADV_INITIATED   | Advertising is initiated.
 739:Generated_Source\PSoC6\pdl\middleware\ble/cy_ble_gap.h **** *   CY_BLE_ADV_STATE_ADVERTISING     | Advertising is initiated.
 740:Generated_Source\PSoC6\pdl\middleware\ble/cy_ble_gap.h **** *   CY_BLE_ADV_STATE_STOP_INITIATED  | Stop advertising is initiated.
 741:Generated_Source\PSoC6\pdl\middleware\ble/cy_ble_gap.h **** *
 742:Generated_Source\PSoC6\pdl\middleware\ble/cy_ble_gap.h **** ******************************************************************************/
 743:Generated_Source\PSoC6\pdl\middleware\ble/cy_ble_gap.h **** __STATIC_INLINE cy_en_ble_adv_state_t Cy_BLE_GetAdvertisementState(void)
 744:Generated_Source\PSoC6\pdl\middleware\ble/cy_ble_gap.h **** {
 745:Generated_Source\PSoC6\pdl\middleware\ble/cy_ble_gap.h ****     return(cy_ble_advState);
 746:Generated_Source\PSoC6\pdl\middleware\ble/cy_ble_gap.h **** }
 747:Generated_Source\PSoC6\pdl\middleware\ble/cy_ble_gap.h **** 
 748:Generated_Source\PSoC6\pdl\middleware\ble/cy_ble_gap.h **** /** \cond IGNORE */
ARM GAS  C:\Users\kateb\AppData\Local\Temp\cciDLH78.s 			page 41


 749:Generated_Source\PSoC6\pdl\middleware\ble/cy_ble_gap.h **** /******************************************************************************
 750:Generated_Source\PSoC6\pdl\middleware\ble/cy_ble_gap.h **** * Function Name: Cy_BLE_SetAdvertisementState
 751:Generated_Source\PSoC6\pdl\middleware\ble/cy_ble_gap.h **** ***************************************************************************//**
 752:Generated_Source\PSoC6\pdl\middleware\ble/cy_ble_gap.h **** *
 753:Generated_Source\PSoC6\pdl\middleware\ble/cy_ble_gap.h **** *  Used to set the state of the link layer hardware advertisement engine.
 754:Generated_Source\PSoC6\pdl\middleware\ble/cy_ble_gap.h **** *
 755:Generated_Source\PSoC6\pdl\middleware\ble/cy_ble_gap.h **** *  \param state: The desired state.
 756:Generated_Source\PSoC6\pdl\middleware\ble/cy_ble_gap.h **** *
 757:Generated_Source\PSoC6\pdl\middleware\ble/cy_ble_gap.h **** * \return
 758:Generated_Source\PSoC6\pdl\middleware\ble/cy_ble_gap.h **** *  None
 759:Generated_Source\PSoC6\pdl\middleware\ble/cy_ble_gap.h **** *
 760:Generated_Source\PSoC6\pdl\middleware\ble/cy_ble_gap.h **** ******************************************************************************/
 761:Generated_Source\PSoC6\pdl\middleware\ble/cy_ble_gap.h **** __STATIC_INLINE void Cy_BLE_SetAdvertisementState(cy_en_ble_adv_state_t state)
 762:Generated_Source\PSoC6\pdl\middleware\ble/cy_ble_gap.h **** {
 763:Generated_Source\PSoC6\pdl\middleware\ble/cy_ble_gap.h ****     cy_ble_advState = state;
 522              		.loc 2 763 0
 523 00a8 124A     		ldr	r2, .L45+28
 524 00aa 1370     		strb	r3, [r2]
 525              	.LVL64:
 526              	.LBE7:
 527              	.LBE6:
 528              	.LBB8:
 400:Generated_Source\PSoC6\pdl\middleware\ble/cy_ble.c ****                     .gattDbTotalEntries = cy_ble_configPtr->params->gattDbIndexCount,
 529              		.loc 1 400 0
 530 00ac 0C4B     		ldr	r3, .L45+8
 531 00ae 9B68     		ldr	r3, [r3, #8]
 532 00b0 1A6A     		ldr	r2, [r3, #32]
 398:Generated_Source\PSoC6\pdl\middleware\ble/cy_ble.c ****                 {
 533              		.loc 1 398 0
 534 00b2 0092     		str	r2, [sp]
 401:Generated_Source\PSoC6\pdl\middleware\ble/cy_ble.c ****                     .gattDbMaxValue     = CY_BLE_GATT_DB_MAX_VALUE_LEN
 535              		.loc 1 401 0
 536 00b4 9B6A     		ldr	r3, [r3, #40]
 537 00b6 DB88     		ldrh	r3, [r3, #6]
 398:Generated_Source\PSoC6\pdl\middleware\ble/cy_ble.c ****                 {
 538              		.loc 1 398 0
 539 00b8 ADF80430 		strh	r3, [sp, #4]	@ movhi
 540 00bc 0823     		movs	r3, #8
 541 00be ADF80630 		strh	r3, [sp, #6]	@ movhi
 405:Generated_Source\PSoC6\pdl\middleware\ble/cy_ble.c ****             }
 542              		.loc 1 405 0
 543 00c2 6846     		mov	r0, sp
 544              	.LVL65:
 545 00c4 FFF7FEFF 		bl	Cy_BLE_GATTS_DbRegister
 546              	.LVL66:
 547 00c8 0346     		mov	r3, r0
 548              	.LVL67:
 549              	.L43:
 550              	.LBE8:
 409:Generated_Source\PSoC6\pdl\middleware\ble/cy_ble.c ****     #endif /* (CY_BLE_MODE_PROFILE) */
 551              		.loc 1 409 0
 552 00ca 0021     		movs	r1, #0
 553 00cc 0A4A     		ldr	r2, .L45+32
 554 00ce 1160     		str	r1, [r2]
 555              	.L42:
 414:Generated_Source\PSoC6\pdl\middleware\ble/cy_ble.c **** 
 556              		.loc 1 414 0
ARM GAS  C:\Users\kateb\AppData\Local\Temp\cciDLH78.s 			page 42


 557 00d0 1846     		mov	r0, r3
 558 00d2 10B0     		add	sp, sp, #64
 559              		.cfi_def_cfa_offset 8
 560              		@ sp needed
 561 00d4 10BD     		pop	{r4, pc}
 562              	.L46:
 563 00d6 00BF     		.align	2
 564              	.L45:
 565 00d8 00000000 		.word	.LANCHOR2
 566 00dc 00000000 		.word	Cy_BLE_EventHandler
 567 00e0 00000000 		.word	.LANCHOR0
 568 00e4 00000000 		.word	.LANCHOR1
 569 00e8 00000000 		.word	.LANCHOR3
 570 00ec 00000000 		.word	cy_ble_state
 571 00f0 00000000 		.word	cy_ble_connState
 572 00f4 00000000 		.word	cy_ble_advState
 573 00f8 00000000 		.word	cy_ble_cmdStatus
 574              		.cfi_endproc
 575              	.LFE250:
 576              		.size	Cy_BLE_Enable, .-Cy_BLE_Enable
 577              		.section	.text.Cy_BLE_Disable,"ax",%progbits
 578              		.align	2
 579              		.global	Cy_BLE_Disable
 580              		.thumb
 581              		.thumb_func
 582              		.type	Cy_BLE_Disable, %function
 583              	Cy_BLE_Disable:
 584              	.LFB251:
 455:Generated_Source\PSoC6\pdl\middleware\ble/cy_ble.c ****     cy_en_ble_api_result_t apiResult;
 585              		.loc 1 455 0
 586              		.cfi_startproc
 587              		@ args = 0, pretend = 0, frame = 0
 588              		@ frame_needed = 0, uses_anonymous_args = 0
 589 0000 08B5     		push	{r3, lr}
 590              		.cfi_def_cfa_offset 8
 591              		.cfi_offset 3, -8
 592              		.cfi_offset 14, -4
 463:Generated_Source\PSoC6\pdl\middleware\ble/cy_ble.c ****     
 593              		.loc 1 463 0
 594 0002 FFF7FEFF 		bl	Cy_BLE_StackShutdown
 595              	.LVL68:
 474:Generated_Source\PSoC6\pdl\middleware\ble/cy_ble.c **** 
 596              		.loc 1 474 0
 597 0006 08BD     		pop	{r3, pc}
 598              		.cfi_endproc
 599              	.LFE251:
 600              		.size	Cy_BLE_Disable, .-Cy_BLE_Disable
 601              		.section	.text.Cy_BLE_ConfigureExtPA,"ax",%progbits
 602              		.align	2
 603              		.global	Cy_BLE_ConfigureExtPA
 604              		.thumb
 605              		.thumb_func
 606              		.type	Cy_BLE_ConfigureExtPA, %function
 607              	Cy_BLE_ConfigureExtPA:
 608              	.LFB252:
 511:Generated_Source\PSoC6\pdl\middleware\ble/cy_ble.c ****     BLE->BLESS.EXT_PA_LNA_CTRL = controlValue;
 609              		.loc 1 511 0
ARM GAS  C:\Users\kateb\AppData\Local\Temp\cciDLH78.s 			page 43


 610              		.cfi_startproc
 611              		@ args = 0, pretend = 0, frame = 0
 612              		@ frame_needed = 0, uses_anonymous_args = 0
 613              		@ link register save eliminated.
 614              	.LVL69:
 512:Generated_Source\PSoC6\pdl\middleware\ble/cy_ble.c **** }
 615              		.loc 1 512 0
 616 0000 014B     		ldr	r3, .L50
 617 0002 9867     		str	r0, [r3, #120]
 618 0004 7047     		bx	lr
 619              	.L51:
 620 0006 00BF     		.align	2
 621              	.L50:
 622 0008 00F03D40 		.word	1077800960
 623              		.cfi_endproc
 624              	.LFE252:
 625              		.size	Cy_BLE_ConfigureExtPA, .-Cy_BLE_ConfigureExtPA
 626              		.section	.text.Cy_BLE_RegisterAppHostCallback,"ax",%progbits
 627              		.align	2
 628              		.global	Cy_BLE_RegisterAppHostCallback
 629              		.thumb
 630              		.thumb_func
 631              		.type	Cy_BLE_RegisterAppHostCallback, %function
 632              	Cy_BLE_RegisterAppHostCallback:
 633              	.LFB253:
 702:Generated_Source\PSoC6\pdl\middleware\ble/cy_ble.c ****     cy_en_ble_api_result_t apiResult = CY_BLE_SUCCESS;
 634              		.loc 1 702 0
 635              		.cfi_startproc
 636              		@ args = 0, pretend = 0, frame = 0
 637              		@ frame_needed = 0, uses_anonymous_args = 0
 638              		@ link register save eliminated.
 639              	.LVL70:
 705:Generated_Source\PSoC6\pdl\middleware\ble/cy_ble.c ****     {
 640              		.loc 1 705 0
 641 0000 18B1     		cbz	r0, .L54
 707:Generated_Source\PSoC6\pdl\middleware\ble/cy_ble.c ****     }
 642              		.loc 1 707 0
 643 0002 034A     		ldr	r2, .L55
 644 0004 1061     		str	r0, [r2, #16]
 703:Generated_Source\PSoC6\pdl\middleware\ble/cy_ble.c ****     
 645              		.loc 1 703 0
 646 0006 0020     		movs	r0, #0
 647              	.LVL71:
 648 0008 7047     		bx	lr
 649              	.LVL72:
 650              	.L54:
 711:Generated_Source\PSoC6\pdl\middleware\ble/cy_ble.c ****     }   
 651              		.loc 1 711 0
 652 000a 0248     		ldr	r0, .L55+4
 653              	.LVL73:
 714:Generated_Source\PSoC6\pdl\middleware\ble/cy_ble.c **** 
 654              		.loc 1 714 0
 655 000c 7047     		bx	lr
 656              	.L56:
 657 000e 00BF     		.align	2
 658              	.L55:
 659 0010 00000000 		.word	.LANCHOR0
ARM GAS  C:\Users\kateb\AppData\Local\Temp\cciDLH78.s 			page 44


 660 0014 01001600 		.word	1441793
 661              		.cfi_endproc
 662              	.LFE253:
 663              		.size	Cy_BLE_RegisterAppHostCallback, .-Cy_BLE_RegisterAppHostCallback
 664              		.section	.text.Cy_BLE_UnRegisterAppHostCallback,"ax",%progbits
 665              		.align	2
 666              		.global	Cy_BLE_UnRegisterAppHostCallback
 667              		.thumb
 668              		.thumb_func
 669              		.type	Cy_BLE_UnRegisterAppHostCallback, %function
 670              	Cy_BLE_UnRegisterAppHostCallback:
 671              	.LFB254:
 724:Generated_Source\PSoC6\pdl\middleware\ble/cy_ble.c ****     Cy_BLE_HostRegisteredCallback = NULL;
 672              		.loc 1 724 0
 673              		.cfi_startproc
 674              		@ args = 0, pretend = 0, frame = 0
 675              		@ frame_needed = 0, uses_anonymous_args = 0
 676              		@ link register save eliminated.
 725:Generated_Source\PSoC6\pdl\middleware\ble/cy_ble.c **** }
 677              		.loc 1 725 0
 678 0000 0022     		movs	r2, #0
 679 0002 014B     		ldr	r3, .L58
 680 0004 1A61     		str	r2, [r3, #16]
 681 0006 7047     		bx	lr
 682              	.L59:
 683              		.align	2
 684              	.L58:
 685 0008 00000000 		.word	.LANCHOR0
 686              		.cfi_endproc
 687              	.LFE254:
 688              		.size	Cy_BLE_UnRegisterAppHostCallback, .-Cy_BLE_UnRegisterAppHostCallback
 689              		.global	cy_ble_configPtr
 690              		.global	Cy_BLE_HostRegisteredCallback
 691              		.global	Cy_BLE_ApplCallback
 692              		.global	cy_ble_stackMemoryRam
 693              		.section	.rodata
 694              		.align	2
 695              		.set	.LANCHOR2,. + 0
 696              	.LC0:
 697 0000 2400     		.short	36
 698 0002 0600     		.short	6
 699 0004 0000     		.short	0
 700 0006 0000     		.short	0
 701 0008 0000     		.short	0
 702 000a 0000     		.short	0
 703 000c 0C00     		.short	12
 704 000e 0000     		.short	0
 705              		.data
 706              		.align	2
 707              		.set	.LANCHOR1,. + 0
 708              		.type	bleDeepSleepCallback, %object
 709              		.size	bleDeepSleepCallback, 24
 710              	bleDeepSleepCallback:
 711 0000 00000000 		.word	Cy_BLE_DeepSleepCallback
 712 0004 01       		.byte	1
 713 0005 000000   		.space	3
 714 0008 06000000 		.word	6
ARM GAS  C:\Users\kateb\AppData\Local\Temp\cciDLH78.s 			page 45


 715 000c 20000000 		.word	bleDeepSleepCallbackParams
 716 0010 00000000 		.space	8
 716      00000000 
 717              		.type	bleSleepCallback, %object
 718              		.size	bleSleepCallback, 24
 719              	bleSleepCallback:
 720 0018 00000000 		.word	Cy_BLE_SleepCallback
 721 001c 00       		.byte	0
 722 001d 000000   		.space	3
 723 0020 06000000 		.word	6
 724 0024 14000000 		.word	bleSleepCallbackParams
 725 0028 00000000 		.space	8
 725      00000000 
 726              		.section	.noinit,"aw",%progbits
 727              		.align	2
 728              		.set	.LANCHOR3,. + 0
 729              		.type	cy_ble_stackMemoryRam, %object
 730              		.size	cy_ble_stackMemoryRam, 10848
 731              	cy_ble_stackMemoryRam:
 732 0000 00000000 		.space	10848
 732      00000000 
 732      00000000 
 732      00000000 
 732      00000000 
 733              		.bss
 734              		.align	2
 735              		.set	.LANCHOR0,. + 0
 736              		.type	interruptState.14228, %object
 737              		.size	interruptState.14228, 4
 738              	interruptState.14228:
 739 0000 00000000 		.space	4
 740              		.type	interruptState.14239, %object
 741              		.size	interruptState.14239, 4
 742              	interruptState.14239:
 743 0004 00000000 		.space	4
 744              		.type	cy_ble_configPtr, %object
 745              		.size	cy_ble_configPtr, 4
 746              	cy_ble_configPtr:
 747 0008 00000000 		.space	4
 748              		.type	Cy_BLE_ApplCallback, %object
 749              		.size	Cy_BLE_ApplCallback, 4
 750              	Cy_BLE_ApplCallback:
 751 000c 00000000 		.space	4
 752              		.type	Cy_BLE_HostRegisteredCallback, %object
 753              		.size	Cy_BLE_HostRegisteredCallback, 4
 754              	Cy_BLE_HostRegisteredCallback:
 755 0010 00000000 		.space	4
 756              		.type	bleSleepCallbackParams, %object
 757              		.size	bleSleepCallbackParams, 12
 758              	bleSleepCallbackParams:
 759 0014 00000000 		.space	12
 759      00000000 
 759      00000000 
 760              		.type	bleDeepSleepCallbackParams, %object
 761              		.size	bleDeepSleepCallbackParams, 12
 762              	bleDeepSleepCallbackParams:
 763 0020 00000000 		.space	12
ARM GAS  C:\Users\kateb\AppData\Local\Temp\cciDLH78.s 			page 46


 763      00000000 
 763      00000000 
 764              		.text
 765              	.Letext0:
 766              		.file 3 "c:\\program files (x86)\\cypress\\psoc creator\\4.2\\psoc creator\\import\\gnu\\arm\\5.4.
 767              		.file 4 "c:\\program files (x86)\\cypress\\psoc creator\\4.2\\psoc creator\\import\\gnu\\arm\\5.4.
 768              		.file 5 "Generated_Source\\PSoC6\\pdl\\devices/psoc6/psoc63/include/cy8c6347bzi_bld53.h"
 769              		.file 6 "Generated_Source\\PSoC6\\pdl\\devices/psoc6/ip/cyip_ble.h"
 770              		.file 7 "Generated_Source\\PSoC6\\pdl\\drivers/peripheral/sysint/cy_sysint.h"
 771              		.file 8 "Generated_Source\\PSoC6\\pdl\\drivers/peripheral/syspm/cy_syspm.h"
 772              		.file 9 "Generated_Source\\PSoC6\\pdl\\middleware\\ble\\cy_ble_stack.h"
 773              		.file 10 "Generated_Source\\PSoC6\\pdl\\middleware\\ble\\cy_ble_stack_host_main.h"
 774              		.file 11 "Generated_Source\\PSoC6\\pdl\\middleware\\ble\\cy_ble_stack_gatt.h"
 775              		.file 12 "Generated_Source\\PSoC6\\pdl\\middleware\\ble\\cy_ble_stack_gap.h"
 776              		.file 13 "Generated_Source\\PSoC6\\pdl\\middleware\\ble\\cy_ble_stack_gap_central.h"
 777              		.file 14 "Generated_Source\\PSoC6\\pdl\\middleware\\ble\\cy_ble_stack_gap_peripheral.h"
 778              		.file 15 "Generated_Source\\PSoC6\\pdl\\middleware\\ble\\cy_ble_stack_gatt_db.h"
 779              		.file 16 "Generated_Source\\PSoC6\\pdl\\middleware\\ble\\cy_ble_gatt.h"
 780              		.file 17 "Generated_Source\\PSoC6\\pdl\\middleware\\ble\\cy_ble.h"
 781              		.file 18 "Generated_Source\\PSoC6\\pdl\\middleware\\ble\\cy_ble_cts.h"
 782              		.file 19 "Generated_Source\\PSoC6\\pdl\\middleware\\ble\\cy_ble_event_handler.h"
 783              		.file 20 "Generated_Source\\PSoC6\\pdl\\drivers/peripheral/ipc/cy_ipc_sema.h"
 784              		.file 21 "Generated_Source\\PSoC6\\pdl\\cmsis/include/core_cm4.h"
 785              		.file 22 "Generated_Source\\PSoC6\\pdl\\drivers/peripheral/syslib/cy_syslib.h"
 786              		.file 23 "./cy_ipc_config.h"
 787              		.section	.debug_info,"",%progbits
 788              	.Ldebug_info0:
 789 0000 7D370000 		.4byte	0x377d
 790 0004 0400     		.2byte	0x4
 791 0006 00000000 		.4byte	.Ldebug_abbrev0
 792 000a 04       		.byte	0x4
 793 000b 01       		.uleb128 0x1
 794 000c F0110000 		.4byte	.LASF1026
 795 0010 0C       		.byte	0xc
 796 0011 34490000 		.4byte	.LASF1027
 797 0015 D41D0000 		.4byte	.LASF1028
 798 0019 00000000 		.4byte	.Ldebug_ranges0+0
 799 001d 00000000 		.4byte	0
 800 0021 00000000 		.4byte	.Ldebug_line0
 801 0025 02       		.uleb128 0x2
 802 0026 04       		.byte	0x4
 803 0027 05       		.byte	0x5
 804 0028 696E7400 		.ascii	"int\000"
 805 002c 03       		.uleb128 0x3
 806 002d 04       		.byte	0x4
 807 002e 07       		.byte	0x7
 808 002f E9530000 		.4byte	.LASF0
 809 0033 03       		.uleb128 0x3
 810 0034 08       		.byte	0x8
 811 0035 05       		.byte	0x5
 812 0036 514E0000 		.4byte	.LASF1
 813 003a 03       		.uleb128 0x3
 814 003b 08       		.byte	0x8
 815 003c 04       		.byte	0x4
 816 003d 24390000 		.4byte	.LASF2
 817 0041 04       		.uleb128 0x4
 818 0042 85520000 		.4byte	.LASF4
ARM GAS  C:\Users\kateb\AppData\Local\Temp\cciDLH78.s 			page 47


 819 0046 03       		.byte	0x3
 820 0047 1B       		.byte	0x1b
 821 0048 4C000000 		.4byte	0x4c
 822 004c 03       		.uleb128 0x3
 823 004d 01       		.byte	0x1
 824 004e 06       		.byte	0x6
 825 004f 9B2E0000 		.4byte	.LASF3
 826 0053 04       		.uleb128 0x4
 827 0054 8D020000 		.4byte	.LASF5
 828 0058 03       		.byte	0x3
 829 0059 1D       		.byte	0x1d
 830 005a 5E000000 		.4byte	0x5e
 831 005e 03       		.uleb128 0x3
 832 005f 01       		.byte	0x1
 833 0060 08       		.byte	0x8
 834 0061 DF130000 		.4byte	.LASF6
 835 0065 03       		.uleb128 0x3
 836 0066 02       		.byte	0x2
 837 0067 05       		.byte	0x5
 838 0068 2A550000 		.4byte	.LASF7
 839 006c 04       		.uleb128 0x4
 840 006d EB100000 		.4byte	.LASF8
 841 0071 03       		.byte	0x3
 842 0072 2B       		.byte	0x2b
 843 0073 77000000 		.4byte	0x77
 844 0077 03       		.uleb128 0x3
 845 0078 02       		.byte	0x2
 846 0079 07       		.byte	0x7
 847 007a 882E0000 		.4byte	.LASF9
 848 007e 04       		.uleb128 0x4
 849 007f 14440000 		.4byte	.LASF10
 850 0083 03       		.byte	0x3
 851 0084 3F       		.byte	0x3f
 852 0085 89000000 		.4byte	0x89
 853 0089 03       		.uleb128 0x3
 854 008a 04       		.byte	0x4
 855 008b 05       		.byte	0x5
 856 008c 74350000 		.4byte	.LASF11
 857 0090 04       		.uleb128 0x4
 858 0091 2D440000 		.4byte	.LASF12
 859 0095 03       		.byte	0x3
 860 0096 41       		.byte	0x41
 861 0097 9B000000 		.4byte	0x9b
 862 009b 03       		.uleb128 0x3
 863 009c 04       		.byte	0x4
 864 009d 07       		.byte	0x7
 865 009e B3390000 		.4byte	.LASF13
 866 00a2 03       		.uleb128 0x3
 867 00a3 08       		.byte	0x8
 868 00a4 07       		.byte	0x7
 869 00a5 30480000 		.4byte	.LASF14
 870 00a9 03       		.uleb128 0x3
 871 00aa 04       		.byte	0x4
 872 00ab 07       		.byte	0x7
 873 00ac 842D0000 		.4byte	.LASF15
 874 00b0 05       		.uleb128 0x5
 875 00b1 04       		.byte	0x4
ARM GAS  C:\Users\kateb\AppData\Local\Temp\cciDLH78.s 			page 48


 876 00b2 03       		.uleb128 0x3
 877 00b3 01       		.byte	0x1
 878 00b4 08       		.byte	0x8
 879 00b5 3D3B0000 		.4byte	.LASF16
 880 00b9 06       		.uleb128 0x6
 881 00ba 04       		.byte	0x4
 882 00bb BF000000 		.4byte	0xbf
 883 00bf 07       		.uleb128 0x7
 884 00c0 04       		.uleb128 0x4
 885 00c1 89420000 		.4byte	.LASF17
 886 00c5 04       		.byte	0x4
 887 00c6 14       		.byte	0x14
 888 00c7 41000000 		.4byte	0x41
 889 00cb 04       		.uleb128 0x4
 890 00cc 521E0000 		.4byte	.LASF18
 891 00d0 04       		.byte	0x4
 892 00d1 18       		.byte	0x18
 893 00d2 53000000 		.4byte	0x53
 894 00d6 04       		.uleb128 0x4
 895 00d7 12060000 		.4byte	.LASF19
 896 00db 04       		.byte	0x4
 897 00dc 24       		.byte	0x24
 898 00dd 6C000000 		.4byte	0x6c
 899 00e1 04       		.uleb128 0x4
 900 00e2 BA060000 		.4byte	.LASF20
 901 00e6 04       		.byte	0x4
 902 00e7 2C       		.byte	0x2c
 903 00e8 7E000000 		.4byte	0x7e
 904 00ec 04       		.uleb128 0x4
 905 00ed D4080000 		.4byte	.LASF21
 906 00f1 04       		.byte	0x4
 907 00f2 30       		.byte	0x30
 908 00f3 90000000 		.4byte	0x90
 909 00f7 08       		.uleb128 0x8
 910 00f8 02       		.byte	0x2
 911 00f9 65000000 		.4byte	0x65
 912 00fd 05       		.byte	0x5
 913 00fe 24       		.byte	0x24
 914 00ff B8040000 		.4byte	0x4b8
 915 0103 09       		.uleb128 0x9
 916 0104 463C0000 		.4byte	.LASF22
 917 0108 71       		.sleb128 -15
 918 0109 09       		.uleb128 0x9
 919 010a 69450000 		.4byte	.LASF23
 920 010e 72       		.sleb128 -14
 921 010f 09       		.uleb128 0x9
 922 0110 DA150000 		.4byte	.LASF24
 923 0114 73       		.sleb128 -13
 924 0115 09       		.uleb128 0x9
 925 0116 AA2D0000 		.4byte	.LASF25
 926 011a 74       		.sleb128 -12
 927 011b 09       		.uleb128 0x9
 928 011c A4560000 		.4byte	.LASF26
 929 0120 75       		.sleb128 -11
 930 0121 09       		.uleb128 0x9
 931 0122 1E280000 		.4byte	.LASF27
 932 0126 76       		.sleb128 -10
ARM GAS  C:\Users\kateb\AppData\Local\Temp\cciDLH78.s 			page 49


 933 0127 09       		.uleb128 0x9
 934 0128 AA0C0000 		.4byte	.LASF28
 935 012c 7B       		.sleb128 -5
 936 012d 09       		.uleb128 0x9
 937 012e D1020000 		.4byte	.LASF29
 938 0132 7C       		.sleb128 -4
 939 0133 09       		.uleb128 0x9
 940 0134 364D0000 		.4byte	.LASF30
 941 0138 7E       		.sleb128 -2
 942 0139 09       		.uleb128 0x9
 943 013a 76440000 		.4byte	.LASF31
 944 013e 7F       		.sleb128 -1
 945 013f 0A       		.uleb128 0xa
 946 0140 ED2C0000 		.4byte	.LASF32
 947 0144 00       		.byte	0
 948 0145 0A       		.uleb128 0xa
 949 0146 DE410000 		.4byte	.LASF33
 950 014a 01       		.byte	0x1
 951 014b 0A       		.uleb128 0xa
 952 014c 973C0000 		.4byte	.LASF34
 953 0150 02       		.byte	0x2
 954 0151 0A       		.uleb128 0xa
 955 0152 183B0000 		.4byte	.LASF35
 956 0156 03       		.byte	0x3
 957 0157 0A       		.uleb128 0xa
 958 0158 E9390000 		.4byte	.LASF36
 959 015c 04       		.byte	0x4
 960 015d 0A       		.uleb128 0xa
 961 015e 95070000 		.4byte	.LASF37
 962 0162 05       		.byte	0x5
 963 0163 0A       		.uleb128 0xa
 964 0164 85060000 		.4byte	.LASF38
 965 0168 06       		.byte	0x6
 966 0169 0A       		.uleb128 0xa
 967 016a 61050000 		.4byte	.LASF39
 968 016e 07       		.byte	0x7
 969 016f 0A       		.uleb128 0xa
 970 0170 A72E0000 		.4byte	.LASF40
 971 0174 08       		.byte	0x8
 972 0175 0A       		.uleb128 0xa
 973 0176 87270000 		.4byte	.LASF41
 974 017a 09       		.byte	0x9
 975 017b 0A       		.uleb128 0xa
 976 017c 270C0000 		.4byte	.LASF42
 977 0180 0A       		.byte	0xa
 978 0181 0A       		.uleb128 0xa
 979 0182 01280000 		.4byte	.LASF43
 980 0186 0B       		.byte	0xb
 981 0187 0A       		.uleb128 0xa
 982 0188 AC090000 		.4byte	.LASF44
 983 018c 0C       		.byte	0xc
 984 018d 0A       		.uleb128 0xa
 985 018e DA2E0000 		.4byte	.LASF45
 986 0192 0D       		.byte	0xd
 987 0193 0A       		.uleb128 0xa
 988 0194 392D0000 		.4byte	.LASF46
 989 0198 0E       		.byte	0xe
ARM GAS  C:\Users\kateb\AppData\Local\Temp\cciDLH78.s 			page 50


 990 0199 0A       		.uleb128 0xa
 991 019a 41190000 		.4byte	.LASF47
 992 019e 0F       		.byte	0xf
 993 019f 0A       		.uleb128 0xa
 994 01a0 61100000 		.4byte	.LASF48
 995 01a4 10       		.byte	0x10
 996 01a5 0A       		.uleb128 0xa
 997 01a6 B7140000 		.4byte	.LASF49
 998 01aa 11       		.byte	0x11
 999 01ab 0A       		.uleb128 0xa
 1000 01ac A6080000 		.4byte	.LASF50
 1001 01b0 12       		.byte	0x12
 1002 01b1 0A       		.uleb128 0xa
 1003 01b2 26270000 		.4byte	.LASF51
 1004 01b6 13       		.byte	0x13
 1005 01b7 0A       		.uleb128 0xa
 1006 01b8 2A260000 		.4byte	.LASF52
 1007 01bc 14       		.byte	0x14
 1008 01bd 0A       		.uleb128 0xa
 1009 01be 1C3A0000 		.4byte	.LASF53
 1010 01c2 15       		.byte	0x15
 1011 01c3 0A       		.uleb128 0xa
 1012 01c4 8C0F0000 		.4byte	.LASF54
 1013 01c8 16       		.byte	0x16
 1014 01c9 0A       		.uleb128 0xa
 1015 01ca 75380000 		.4byte	.LASF55
 1016 01ce 17       		.byte	0x17
 1017 01cf 0A       		.uleb128 0xa
 1018 01d0 45070000 		.4byte	.LASF56
 1019 01d4 18       		.byte	0x18
 1020 01d5 0A       		.uleb128 0xa
 1021 01d6 CE470000 		.4byte	.LASF57
 1022 01da 19       		.byte	0x19
 1023 01db 0A       		.uleb128 0xa
 1024 01dc A4150000 		.4byte	.LASF58
 1025 01e0 1A       		.byte	0x1a
 1026 01e1 0A       		.uleb128 0xa
 1027 01e2 15140000 		.4byte	.LASF59
 1028 01e6 1B       		.byte	0x1b
 1029 01e7 0A       		.uleb128 0xa
 1030 01e8 00130000 		.4byte	.LASF60
 1031 01ec 1C       		.byte	0x1c
 1032 01ed 0A       		.uleb128 0xa
 1033 01ee 4C390000 		.4byte	.LASF61
 1034 01f2 1D       		.byte	0x1d
 1035 01f3 0A       		.uleb128 0xa
 1036 01f4 0F380000 		.4byte	.LASF62
 1037 01f8 1E       		.byte	0x1e
 1038 01f9 0A       		.uleb128 0xa
 1039 01fa BF360000 		.4byte	.LASF63
 1040 01fe 1F       		.byte	0x1f
 1041 01ff 0A       		.uleb128 0xa
 1042 0200 2F040000 		.4byte	.LASF64
 1043 0204 20       		.byte	0x20
 1044 0205 0A       		.uleb128 0xa
 1045 0206 08030000 		.4byte	.LASF65
 1046 020a 21       		.byte	0x21
ARM GAS  C:\Users\kateb\AppData\Local\Temp\cciDLH78.s 			page 51


 1047 020b 0A       		.uleb128 0xa
 1048 020c 87010000 		.4byte	.LASF66
 1049 0210 22       		.byte	0x22
 1050 0211 0A       		.uleb128 0xa
 1051 0212 43550000 		.4byte	.LASF67
 1052 0216 23       		.byte	0x23
 1053 0217 0A       		.uleb128 0xa
 1054 0218 1C540000 		.4byte	.LASF68
 1055 021c 24       		.byte	0x24
 1056 021d 0A       		.uleb128 0xa
 1057 021e 8E520000 		.4byte	.LASF69
 1058 0222 25       		.byte	0x25
 1059 0223 0A       		.uleb128 0xa
 1060 0224 AD200000 		.4byte	.LASF70
 1061 0228 26       		.byte	0x26
 1062 0229 0A       		.uleb128 0xa
 1063 022a D31E0000 		.4byte	.LASF71
 1064 022e 27       		.byte	0x27
 1065 022f 0A       		.uleb128 0xa
 1066 0230 1E1D0000 		.4byte	.LASF72
 1067 0234 28       		.byte	0x28
 1068 0235 0A       		.uleb128 0xa
 1069 0236 CB1B0000 		.4byte	.LASF73
 1070 023a 29       		.byte	0x29
 1071 023b 0A       		.uleb128 0xa
 1072 023c C4070000 		.4byte	.LASF74
 1073 0240 2A       		.byte	0x2a
 1074 0241 0A       		.uleb128 0xa
 1075 0242 0B170000 		.4byte	.LASF75
 1076 0246 2B       		.byte	0x2b
 1077 0247 0A       		.uleb128 0xa
 1078 0248 4C2E0000 		.4byte	.LASF76
 1079 024c 2C       		.byte	0x2c
 1080 024d 0A       		.uleb128 0xa
 1081 024e 741E0000 		.4byte	.LASF77
 1082 0252 2D       		.byte	0x2d
 1083 0253 0A       		.uleb128 0xa
 1084 0254 71540000 		.4byte	.LASF78
 1085 0258 2E       		.byte	0x2e
 1086 0259 0A       		.uleb128 0xa
 1087 025a 790D0000 		.4byte	.LASF79
 1088 025e 2F       		.byte	0x2f
 1089 025f 0A       		.uleb128 0xa
 1090 0260 184F0000 		.4byte	.LASF80
 1091 0264 30       		.byte	0x30
 1092 0265 0A       		.uleb128 0xa
 1093 0266 873D0000 		.4byte	.LASF81
 1094 026a 31       		.byte	0x31
 1095 026b 0A       		.uleb128 0xa
 1096 026c A3360000 		.4byte	.LASF82
 1097 0270 32       		.byte	0x32
 1098 0271 0A       		.uleb128 0xa
 1099 0272 05350000 		.4byte	.LASF83
 1100 0276 33       		.byte	0x33
 1101 0277 0A       		.uleb128 0xa
 1102 0278 CF330000 		.4byte	.LASF84
 1103 027c 34       		.byte	0x34
ARM GAS  C:\Users\kateb\AppData\Local\Temp\cciDLH78.s 			page 52


 1104 027d 0A       		.uleb128 0xa
 1105 027e 24030000 		.4byte	.LASF85
 1106 0282 35       		.byte	0x35
 1107 0283 0A       		.uleb128 0xa
 1108 0284 15000000 		.4byte	.LASF86
 1109 0288 36       		.byte	0x36
 1110 0289 0A       		.uleb128 0xa
 1111 028a B8550000 		.4byte	.LASF87
 1112 028e 37       		.byte	0x37
 1113 028f 0A       		.uleb128 0xa
 1114 0290 59340000 		.4byte	.LASF88
 1115 0294 38       		.byte	0x38
 1116 0295 0A       		.uleb128 0xa
 1117 0296 64220000 		.4byte	.LASF89
 1118 029a 39       		.byte	0x39
 1119 029b 0A       		.uleb128 0xa
 1120 029c 41210000 		.4byte	.LASF90
 1121 02a0 3A       		.byte	0x3a
 1122 02a1 0A       		.uleb128 0xa
 1123 02a2 CC180000 		.4byte	.LASF91
 1124 02a6 3B       		.byte	0x3b
 1125 02a7 0A       		.uleb128 0xa
 1126 02a8 22020000 		.4byte	.LASF92
 1127 02ac 3C       		.byte	0x3c
 1128 02ad 0A       		.uleb128 0xa
 1129 02ae 7C000000 		.4byte	.LASF93
 1130 02b2 3D       		.byte	0x3d
 1131 02b3 0A       		.uleb128 0xa
 1132 02b4 E50E0000 		.4byte	.LASF94
 1133 02b8 3E       		.byte	0x3e
 1134 02b9 0A       		.uleb128 0xa
 1135 02ba 54240000 		.4byte	.LASF95
 1136 02be 3F       		.byte	0x3f
 1137 02bf 0A       		.uleb128 0xa
 1138 02c0 CF220000 		.4byte	.LASF96
 1139 02c4 40       		.byte	0x40
 1140 02c5 0A       		.uleb128 0xa
 1141 02c6 AC210000 		.4byte	.LASF97
 1142 02ca 41       		.byte	0x41
 1143 02cb 0A       		.uleb128 0xa
 1144 02cc E2400000 		.4byte	.LASF98
 1145 02d0 42       		.byte	0x42
 1146 02d1 0A       		.uleb128 0xa
 1147 02d2 81370000 		.4byte	.LASF99
 1148 02d6 43       		.byte	0x43
 1149 02d7 0A       		.uleb128 0xa
 1150 02d8 DB350000 		.4byte	.LASF100
 1151 02dc 44       		.byte	0x44
 1152 02dd 0A       		.uleb128 0xa
 1153 02de CB030000 		.4byte	.LASF101
 1154 02e2 45       		.byte	0x45
 1155 02e3 0A       		.uleb128 0xa
 1156 02e4 3F020000 		.4byte	.LASF102
 1157 02e8 46       		.byte	0x46
 1158 02e9 0A       		.uleb128 0xa
 1159 02ea B2000000 		.4byte	.LASF103
 1160 02ee 47       		.byte	0x47
ARM GAS  C:\Users\kateb\AppData\Local\Temp\cciDLH78.s 			page 53


 1161 02ef 0A       		.uleb128 0xa
 1162 02f0 7B250000 		.4byte	.LASF104
 1163 02f4 48       		.byte	0x48
 1164 02f5 0A       		.uleb128 0xa
 1165 02f6 71240000 		.4byte	.LASF105
 1166 02fa 49       		.byte	0x49
 1167 02fb 0A       		.uleb128 0xa
 1168 02fc 05230000 		.4byte	.LASF106
 1169 0300 4A       		.byte	0x4a
 1170 0301 0A       		.uleb128 0xa
 1171 0302 FB260000 		.4byte	.LASF107
 1172 0306 4B       		.byte	0x4b
 1173 0307 0A       		.uleb128 0xa
 1174 0308 70020000 		.4byte	.LASF108
 1175 030c 4C       		.byte	0x4c
 1176 030d 0A       		.uleb128 0xa
 1177 030e FF000000 		.4byte	.LASF109
 1178 0312 4D       		.byte	0x4d
 1179 0313 0A       		.uleb128 0xa
 1180 0314 7F560000 		.4byte	.LASF110
 1181 0318 4E       		.byte	0x4e
 1182 0319 0A       		.uleb128 0xa
 1183 031a A8240000 		.4byte	.LASF111
 1184 031e 4F       		.byte	0x4f
 1185 031f 0A       		.uleb128 0xa
 1186 0320 42230000 		.4byte	.LASF112
 1187 0324 50       		.byte	0x50
 1188 0325 0A       		.uleb128 0xa
 1189 0326 E0210000 		.4byte	.LASF113
 1190 032a 51       		.byte	0x51
 1191 032b 0A       		.uleb128 0xa
 1192 032c 1B100000 		.4byte	.LASF114
 1193 0330 52       		.byte	0x52
 1194 0331 0A       		.uleb128 0xa
 1195 0332 AD0E0000 		.4byte	.LASF115
 1196 0336 53       		.byte	0x53
 1197 0337 0A       		.uleb128 0xa
 1198 0338 67490000 		.4byte	.LASF116
 1199 033c 54       		.byte	0x54
 1200 033d 0A       		.uleb128 0xa
 1201 033e F72E0000 		.4byte	.LASF117
 1202 0342 55       		.byte	0x55
 1203 0343 0A       		.uleb128 0xa
 1204 0344 91530000 		.4byte	.LASF118
 1205 0348 56       		.byte	0x56
 1206 0349 0A       		.uleb128 0xa
 1207 034a FB0F0000 		.4byte	.LASF119
 1208 034e 57       		.byte	0x57
 1209 034f 0A       		.uleb128 0xa
 1210 0350 A70D0000 		.4byte	.LASF120
 1211 0354 58       		.byte	0x58
 1212 0355 0A       		.uleb128 0xa
 1213 0356 6D0C0000 		.4byte	.LASF121
 1214 035a 59       		.byte	0x59
 1215 035b 0A       		.uleb128 0xa
 1216 035c C6270000 		.4byte	.LASF122
 1217 0360 5A       		.byte	0x5a
ARM GAS  C:\Users\kateb\AppData\Local\Temp\cciDLH78.s 			page 54


 1218 0361 0A       		.uleb128 0xa
 1219 0362 FF4C0000 		.4byte	.LASF123
 1220 0366 5B       		.byte	0x5b
 1221 0367 0A       		.uleb128 0xa
 1222 0368 BC4B0000 		.4byte	.LASF124
 1223 036c 5C       		.byte	0x5c
 1224 036d 0A       		.uleb128 0xa
 1225 036e 694A0000 		.4byte	.LASF125
 1226 0372 5D       		.byte	0x5d
 1227 0373 0A       		.uleb128 0xa
 1228 0374 CB0E0000 		.4byte	.LASF126
 1229 0378 5E       		.byte	0x5e
 1230 0379 0A       		.uleb128 0xa
 1231 037a 26160000 		.4byte	.LASF127
 1232 037e 5F       		.byte	0x5f
 1233 037f 0A       		.uleb128 0xa
 1234 0380 47150000 		.4byte	.LASF128
 1235 0384 60       		.byte	0x60
 1236 0385 0A       		.uleb128 0xa
 1237 0386 94190000 		.4byte	.LASF129
 1238 038a 61       		.byte	0x61
 1239 038b 0A       		.uleb128 0xa
 1240 038c 1F2D0000 		.4byte	.LASF130
 1241 0390 62       		.byte	0x62
 1242 0391 0A       		.uleb128 0xa
 1243 0392 36520000 		.4byte	.LASF131
 1244 0396 63       		.byte	0x63
 1245 0397 0A       		.uleb128 0xa
 1246 0398 0D510000 		.4byte	.LASF132
 1247 039c 64       		.byte	0x64
 1248 039d 0A       		.uleb128 0xa
 1249 039e 0C500000 		.4byte	.LASF133
 1250 03a2 65       		.byte	0x65
 1251 03a3 0A       		.uleb128 0xa
 1252 03a4 744E0000 		.4byte	.LASF134
 1253 03a8 66       		.byte	0x66
 1254 03a9 0A       		.uleb128 0xa
 1255 03aa 421B0000 		.4byte	.LASF135
 1256 03ae 67       		.byte	0x67
 1257 03af 0A       		.uleb128 0xa
 1258 03b0 381A0000 		.4byte	.LASF136
 1259 03b4 68       		.byte	0x68
 1260 03b5 0A       		.uleb128 0xa
 1261 03b6 FD180000 		.4byte	.LASF137
 1262 03ba 69       		.byte	0x69
 1263 03bb 0A       		.uleb128 0xa
 1264 03bc 073F0000 		.4byte	.LASF138
 1265 03c0 6A       		.byte	0x6a
 1266 03c1 0A       		.uleb128 0xa
 1267 03c2 FA3D0000 		.4byte	.LASF139
 1268 03c6 6B       		.byte	0x6b
 1269 03c7 0A       		.uleb128 0xa
 1270 03c8 1B320000 		.4byte	.LASF140
 1271 03cc 6C       		.byte	0x6c
 1272 03cd 0A       		.uleb128 0xa
 1273 03ce 53300000 		.4byte	.LASF141
 1274 03d2 6D       		.byte	0x6d
ARM GAS  C:\Users\kateb\AppData\Local\Temp\cciDLH78.s 			page 55


 1275 03d3 0A       		.uleb128 0xa
 1276 03d4 0F2F0000 		.4byte	.LASF142
 1277 03d8 6E       		.byte	0x6e
 1278 03d9 0A       		.uleb128 0xa
 1279 03da 692D0000 		.4byte	.LASF143
 1280 03de 6F       		.byte	0x6f
 1281 03df 0A       		.uleb128 0xa
 1282 03e0 6A520000 		.4byte	.LASF144
 1283 03e4 70       		.byte	0x70
 1284 03e5 0A       		.uleb128 0xa
 1285 03e6 4B510000 		.4byte	.LASF145
 1286 03ea 71       		.byte	0x71
 1287 03eb 0A       		.uleb128 0xa
 1288 03ec 58500000 		.4byte	.LASF146
 1289 03f0 72       		.byte	0x72
 1290 03f1 0A       		.uleb128 0xa
 1291 03f2 B91C0000 		.4byte	.LASF147
 1292 03f6 73       		.byte	0x73
 1293 03f7 0A       		.uleb128 0xa
 1294 03f8 651B0000 		.4byte	.LASF148
 1295 03fc 74       		.byte	0x74
 1296 03fd 0A       		.uleb128 0xa
 1297 03fe 601A0000 		.4byte	.LASF149
 1298 0402 75       		.byte	0x75
 1299 0403 0A       		.uleb128 0xa
 1300 0404 EA430000 		.4byte	.LASF150
 1301 0408 76       		.byte	0x76
 1302 0409 0A       		.uleb128 0xa
 1303 040a 90170000 		.4byte	.LASF151
 1304 040e 77       		.byte	0x77
 1305 040f 0A       		.uleb128 0xa
 1306 0410 B0410000 		.4byte	.LASF152
 1307 0414 78       		.byte	0x78
 1308 0415 0A       		.uleb128 0xa
 1309 0416 330E0000 		.4byte	.LASF153
 1310 041a 79       		.byte	0x79
 1311 041b 0A       		.uleb128 0xa
 1312 041c B6480000 		.4byte	.LASF154
 1313 0420 7A       		.byte	0x7a
 1314 0421 0A       		.uleb128 0xa
 1315 0422 E8460000 		.4byte	.LASF155
 1316 0426 7B       		.byte	0x7b
 1317 0427 0A       		.uleb128 0xa
 1318 0428 B8380000 		.4byte	.LASF156
 1319 042c 7C       		.byte	0x7c
 1320 042d 0A       		.uleb128 0xa
 1321 042e ED440000 		.4byte	.LASF157
 1322 0432 7D       		.byte	0x7d
 1323 0433 0A       		.uleb128 0xa
 1324 0434 DA110000 		.4byte	.LASF158
 1325 0438 7E       		.byte	0x7e
 1326 0439 0A       		.uleb128 0xa
 1327 043a 6B110000 		.4byte	.LASF159
 1328 043e 7F       		.byte	0x7f
 1329 043f 0A       		.uleb128 0xa
 1330 0440 A00F0000 		.4byte	.LASF160
 1331 0444 80       		.byte	0x80
ARM GAS  C:\Users\kateb\AppData\Local\Temp\cciDLH78.s 			page 56


 1332 0445 0A       		.uleb128 0xa
 1333 0446 0B360000 		.4byte	.LASF161
 1334 044a 81       		.byte	0x81
 1335 044b 0A       		.uleb128 0xa
 1336 044c 89340000 		.4byte	.LASF162
 1337 0450 82       		.byte	0x82
 1338 0451 0A       		.uleb128 0xa
 1339 0452 95330000 		.4byte	.LASF163
 1340 0456 83       		.byte	0x83
 1341 0457 0A       		.uleb128 0xa
 1342 0458 C9210000 		.4byte	.LASF164
 1343 045c 84       		.byte	0x84
 1344 045d 0A       		.uleb128 0xa
 1345 045e 96200000 		.4byte	.LASF165
 1346 0462 85       		.byte	0x85
 1347 0463 0A       		.uleb128 0xa
 1348 0464 B1440000 		.4byte	.LASF166
 1349 0468 86       		.byte	0x86
 1350 0469 0A       		.uleb128 0xa
 1351 046a D3430000 		.4byte	.LASF167
 1352 046e 87       		.byte	0x87
 1353 046f 0A       		.uleb128 0xa
 1354 0470 B1420000 		.4byte	.LASF168
 1355 0474 88       		.byte	0x88
 1356 0475 0A       		.uleb128 0xa
 1357 0476 4C0F0000 		.4byte	.LASF169
 1358 047a 89       		.byte	0x89
 1359 047b 0A       		.uleb128 0xa
 1360 047c 440C0000 		.4byte	.LASF170
 1361 0480 8A       		.byte	0x8a
 1362 0481 0A       		.uleb128 0xa
 1363 0482 4E060000 		.4byte	.LASF171
 1364 0486 8B       		.byte	0x8b
 1365 0487 0A       		.uleb128 0xa
 1366 0488 1C130000 		.4byte	.LASF172
 1367 048c 8C       		.byte	0x8c
 1368 048d 0A       		.uleb128 0xa
 1369 048e 194C0000 		.4byte	.LASF173
 1370 0492 8D       		.byte	0x8d
 1371 0493 0A       		.uleb128 0xa
 1372 0494 A4550000 		.4byte	.LASF174
 1373 0498 8E       		.byte	0x8e
 1374 0499 0A       		.uleb128 0xa
 1375 049a 304C0000 		.4byte	.LASF175
 1376 049e 8F       		.byte	0x8f
 1377 049f 0A       		.uleb128 0xa
 1378 04a0 451C0000 		.4byte	.LASF176
 1379 04a4 90       		.byte	0x90
 1380 04a5 0A       		.uleb128 0xa
 1381 04a6 E7030000 		.4byte	.LASF177
 1382 04aa 91       		.byte	0x91
 1383 04ab 0A       		.uleb128 0xa
 1384 04ac 06300000 		.4byte	.LASF178
 1385 04b0 92       		.byte	0x92
 1386 04b1 0A       		.uleb128 0xa
 1387 04b2 C53B0000 		.4byte	.LASF179
 1388 04b6 F0       		.byte	0xf0
ARM GAS  C:\Users\kateb\AppData\Local\Temp\cciDLH78.s 			page 57


 1389 04b7 00       		.byte	0
 1390 04b8 04       		.uleb128 0x4
 1391 04b9 7B290000 		.4byte	.LASF180
 1392 04bd 05       		.byte	0x5
 1393 04be F4       		.byte	0xf4
 1394 04bf F7000000 		.4byte	0xf7
 1395 04c3 0B       		.uleb128 0xb
 1396 04c4 EC000000 		.4byte	0xec
 1397 04c8 0B       		.uleb128 0xb
 1398 04c9 CB000000 		.4byte	0xcb
 1399 04cd 0C       		.uleb128 0xc
 1400 04ce C3040000 		.4byte	0x4c3
 1401 04d2 0D       		.uleb128 0xd
 1402 04d3 CD040000 		.4byte	0x4cd
 1403 04d7 E2040000 		.4byte	0x4e2
 1404 04db 0E       		.uleb128 0xe
 1405 04dc A9000000 		.4byte	0xa9
 1406 04e0 01       		.byte	0x1
 1407 04e1 00       		.byte	0
 1408 04e2 0D       		.uleb128 0xd
 1409 04e3 CD040000 		.4byte	0x4cd
 1410 04e7 F2040000 		.4byte	0x4f2
 1411 04eb 0E       		.uleb128 0xe
 1412 04ec A9000000 		.4byte	0xa9
 1413 04f0 03       		.byte	0x3
 1414 04f1 00       		.byte	0
 1415 04f2 0D       		.uleb128 0xd
 1416 04f3 CD040000 		.4byte	0x4cd
 1417 04f7 02050000 		.4byte	0x502
 1418 04fb 0E       		.uleb128 0xe
 1419 04fc A9000000 		.4byte	0xa9
 1420 0500 04       		.byte	0x4
 1421 0501 00       		.byte	0
 1422 0502 0D       		.uleb128 0xd
 1423 0503 CD040000 		.4byte	0x4cd
 1424 0507 12050000 		.4byte	0x512
 1425 050b 0E       		.uleb128 0xe
 1426 050c A9000000 		.4byte	0xa9
 1427 0510 07       		.byte	0x7
 1428 0511 00       		.byte	0
 1429 0512 0D       		.uleb128 0xd
 1430 0513 C3040000 		.4byte	0x4c3
 1431 0517 22050000 		.4byte	0x522
 1432 051b 0E       		.uleb128 0xe
 1433 051c A9000000 		.4byte	0xa9
 1434 0520 0F       		.byte	0xf
 1435 0521 00       		.byte	0
 1436 0522 0D       		.uleb128 0xd
 1437 0523 CD040000 		.4byte	0x4cd
 1438 0527 32050000 		.4byte	0x532
 1439 052b 0E       		.uleb128 0xe
 1440 052c A9000000 		.4byte	0xa9
 1441 0530 2F       		.byte	0x2f
 1442 0531 00       		.byte	0
 1443 0532 0D       		.uleb128 0xd
 1444 0533 CD040000 		.4byte	0x4cd
 1445 0537 42050000 		.4byte	0x542
ARM GAS  C:\Users\kateb\AppData\Local\Temp\cciDLH78.s 			page 58


 1446 053b 0E       		.uleb128 0xe
 1447 053c A9000000 		.4byte	0xa9
 1448 0540 05       		.byte	0x5
 1449 0541 00       		.byte	0
 1450 0542 0D       		.uleb128 0xd
 1451 0543 CD040000 		.4byte	0x4cd
 1452 0547 53050000 		.4byte	0x553
 1453 054b 0F       		.uleb128 0xf
 1454 054c A9000000 		.4byte	0xa9
 1455 0550 FE03     		.2byte	0x3fe
 1456 0552 00       		.byte	0
 1457 0553 0D       		.uleb128 0xd
 1458 0554 CD040000 		.4byte	0x4cd
 1459 0558 63050000 		.4byte	0x563
 1460 055c 0E       		.uleb128 0xe
 1461 055d A9000000 		.4byte	0xa9
 1462 0561 02       		.byte	0x2
 1463 0562 00       		.byte	0
 1464 0563 0D       		.uleb128 0xd
 1465 0564 CD040000 		.4byte	0x4cd
 1466 0568 73050000 		.4byte	0x573
 1467 056c 0E       		.uleb128 0xe
 1468 056d A9000000 		.4byte	0xa9
 1469 0571 1E       		.byte	0x1e
 1470 0572 00       		.byte	0
 1471 0573 0D       		.uleb128 0xd
 1472 0574 CD040000 		.4byte	0x4cd
 1473 0578 83050000 		.4byte	0x583
 1474 057c 0E       		.uleb128 0xe
 1475 057d A9000000 		.4byte	0xa9
 1476 0581 0B       		.byte	0xb
 1477 0582 00       		.byte	0
 1478 0583 0D       		.uleb128 0xd
 1479 0584 CD040000 		.4byte	0x4cd
 1480 0588 94050000 		.4byte	0x594
 1481 058c 0F       		.uleb128 0xf
 1482 058d A9000000 		.4byte	0xa9
 1483 0591 7F03     		.2byte	0x37f
 1484 0593 00       		.byte	0
 1485 0594 0D       		.uleb128 0xd
 1486 0595 CD040000 		.4byte	0x4cd
 1487 0599 A4050000 		.4byte	0x5a4
 1488 059d 0E       		.uleb128 0xe
 1489 059e A9000000 		.4byte	0xa9
 1490 05a2 1C       		.byte	0x1c
 1491 05a3 00       		.byte	0
 1492 05a4 0D       		.uleb128 0xd
 1493 05a5 CD040000 		.4byte	0x4cd
 1494 05a9 B4050000 		.4byte	0x5b4
 1495 05ad 0E       		.uleb128 0xe
 1496 05ae A9000000 		.4byte	0xa9
 1497 05b2 17       		.byte	0x17
 1498 05b3 00       		.byte	0
 1499 05b4 0D       		.uleb128 0xd
 1500 05b5 CD040000 		.4byte	0x4cd
 1501 05b9 C4050000 		.4byte	0x5c4
 1502 05bd 0E       		.uleb128 0xe
ARM GAS  C:\Users\kateb\AppData\Local\Temp\cciDLH78.s 			page 59


 1503 05be A9000000 		.4byte	0xa9
 1504 05c2 3A       		.byte	0x3a
 1505 05c3 00       		.byte	0
 1506 05c4 0D       		.uleb128 0xd
 1507 05c5 C3040000 		.4byte	0x4c3
 1508 05c9 D4050000 		.4byte	0x5d4
 1509 05cd 0E       		.uleb128 0xe
 1510 05ce A9000000 		.4byte	0xa9
 1511 05d2 03       		.byte	0x3
 1512 05d3 00       		.byte	0
 1513 05d4 0D       		.uleb128 0xd
 1514 05d5 CD040000 		.4byte	0x4cd
 1515 05d9 E4050000 		.4byte	0x5e4
 1516 05dd 0E       		.uleb128 0xe
 1517 05de A9000000 		.4byte	0xa9
 1518 05e2 2E       		.byte	0x2e
 1519 05e3 00       		.byte	0
 1520 05e4 10       		.uleb128 0x10
 1521 05e5 0001     		.2byte	0x100
 1522 05e7 06       		.byte	0x6
 1523 05e8 25       		.byte	0x25
 1524 05e9 A2060000 		.4byte	0x6a2
 1525 05ed 11       		.uleb128 0x11
 1526 05ee 42050000 		.4byte	.LASF181
 1527 05f2 06       		.byte	0x6
 1528 05f3 26       		.byte	0x26
 1529 05f4 C3040000 		.4byte	0x4c3
 1530 05f8 00       		.byte	0
 1531 05f9 11       		.uleb128 0x11
 1532 05fa D9490000 		.4byte	.LASF182
 1533 05fe 06       		.byte	0x6
 1534 05ff 27       		.byte	0x27
 1535 0600 A7060000 		.4byte	0x6a7
 1536 0604 04       		.byte	0x4
 1537 0605 11       		.uleb128 0x11
 1538 0606 EC220000 		.4byte	.LASF183
 1539 060a 06       		.byte	0x6
 1540 060b 28       		.byte	0x28
 1541 060c C3040000 		.4byte	0x4c3
 1542 0610 10       		.byte	0x10
 1543 0611 11       		.uleb128 0x11
 1544 0612 7D350000 		.4byte	.LASF184
 1545 0616 06       		.byte	0x6
 1546 0617 29       		.byte	0x29
 1547 0618 C3040000 		.4byte	0x4c3
 1548 061c 14       		.byte	0x14
 1549 061d 11       		.uleb128 0x11
 1550 061e 85290000 		.4byte	.LASF185
 1551 0622 06       		.byte	0x6
 1552 0623 2A       		.byte	0x2a
 1553 0624 C3040000 		.4byte	0x4c3
 1554 0628 18       		.byte	0x18
 1555 0629 11       		.uleb128 0x11
 1556 062a 053A0000 		.4byte	.LASF186
 1557 062e 06       		.byte	0x6
 1558 062f 2B       		.byte	0x2b
 1559 0630 CD040000 		.4byte	0x4cd
ARM GAS  C:\Users\kateb\AppData\Local\Temp\cciDLH78.s 			page 60


 1560 0634 1C       		.byte	0x1c
 1561 0635 11       		.uleb128 0x11
 1562 0636 700B0000 		.4byte	.LASF187
 1563 063a 06       		.byte	0x6
 1564 063b 2C       		.byte	0x2c
 1565 063c C3040000 		.4byte	0x4c3
 1566 0640 20       		.byte	0x20
 1567 0641 11       		.uleb128 0x11
 1568 0642 E2090000 		.4byte	.LASF188
 1569 0646 06       		.byte	0x6
 1570 0647 2D       		.byte	0x2d
 1571 0648 C3040000 		.4byte	0x4c3
 1572 064c 24       		.byte	0x24
 1573 064d 11       		.uleb128 0x11
 1574 064e 09090000 		.4byte	.LASF189
 1575 0652 06       		.byte	0x6
 1576 0653 2E       		.byte	0x2e
 1577 0654 C3040000 		.4byte	0x4c3
 1578 0658 28       		.byte	0x28
 1579 0659 11       		.uleb128 0x11
 1580 065a C02D0000 		.4byte	.LASF190
 1581 065e 06       		.byte	0x6
 1582 065f 2F       		.byte	0x2f
 1583 0660 C3040000 		.4byte	0x4c3
 1584 0664 2C       		.byte	0x2c
 1585 0665 11       		.uleb128 0x11
 1586 0666 A62B0000 		.4byte	.LASF191
 1587 066a 06       		.byte	0x6
 1588 066b 30       		.byte	0x30
 1589 066c C3040000 		.4byte	0x4c3
 1590 0670 30       		.byte	0x30
 1591 0671 11       		.uleb128 0x11
 1592 0672 C7450000 		.4byte	.LASF192
 1593 0676 06       		.byte	0x6
 1594 0677 31       		.byte	0x31
 1595 0678 B1060000 		.4byte	0x6b1
 1596 067c 34       		.byte	0x34
 1597 067d 11       		.uleb128 0x11
 1598 067e 37070000 		.4byte	.LASF193
 1599 0682 06       		.byte	0x6
 1600 0683 32       		.byte	0x32
 1601 0684 C3040000 		.4byte	0x4c3
 1602 0688 40       		.byte	0x40
 1603 0689 11       		.uleb128 0x11
 1604 068a B5370000 		.4byte	.LASF194
 1605 068e 06       		.byte	0x6
 1606 068f 33       		.byte	0x33
 1607 0690 C3040000 		.4byte	0x4c3
 1608 0694 44       		.byte	0x44
 1609 0695 11       		.uleb128 0x11
 1610 0696 D1450000 		.4byte	.LASF195
 1611 069a 06       		.byte	0x6
 1612 069b 34       		.byte	0x34
 1613 069c CB060000 		.4byte	0x6cb
 1614 06a0 48       		.byte	0x48
 1615 06a1 00       		.byte	0
 1616 06a2 0B       		.uleb128 0xb
ARM GAS  C:\Users\kateb\AppData\Local\Temp\cciDLH78.s 			page 61


 1617 06a3 53050000 		.4byte	0x553
 1618 06a7 0C       		.uleb128 0xc
 1619 06a8 A2060000 		.4byte	0x6a2
 1620 06ac 0B       		.uleb128 0xb
 1621 06ad 53050000 		.4byte	0x553
 1622 06b1 0C       		.uleb128 0xc
 1623 06b2 AC060000 		.4byte	0x6ac
 1624 06b6 0D       		.uleb128 0xd
 1625 06b7 CD040000 		.4byte	0x4cd
 1626 06bb C6060000 		.4byte	0x6c6
 1627 06bf 0E       		.uleb128 0xe
 1628 06c0 A9000000 		.4byte	0xa9
 1629 06c4 2D       		.byte	0x2d
 1630 06c5 00       		.byte	0
 1631 06c6 0B       		.uleb128 0xb
 1632 06c7 B6060000 		.4byte	0x6b6
 1633 06cb 0C       		.uleb128 0xc
 1634 06cc C6060000 		.4byte	0x6c6
 1635 06d0 04       		.uleb128 0x4
 1636 06d1 2B1C0000 		.4byte	.LASF196
 1637 06d5 06       		.byte	0x6
 1638 06d6 35       		.byte	0x35
 1639 06d7 E4050000 		.4byte	0x5e4
 1640 06db 10       		.uleb128 0x10
 1641 06dc 0002     		.2byte	0x200
 1642 06de 06       		.byte	0x6
 1643 06df 3A       		.byte	0x3a
 1644 06e0 CA070000 		.4byte	0x7ca
 1645 06e4 11       		.uleb128 0x11
 1646 06e5 42050000 		.4byte	.LASF181
 1647 06e9 06       		.byte	0x6
 1648 06ea 3B       		.byte	0x3b
 1649 06eb C3040000 		.4byte	0x4c3
 1650 06ef 00       		.byte	0
 1651 06f0 11       		.uleb128 0x11
 1652 06f1 003F0000 		.4byte	.LASF197
 1653 06f5 06       		.byte	0x6
 1654 06f6 3C       		.byte	0x3c
 1655 06f7 CD040000 		.4byte	0x4cd
 1656 06fb 04       		.byte	0x4
 1657 06fc 11       		.uleb128 0x11
 1658 06fd D9490000 		.4byte	.LASF182
 1659 0701 06       		.byte	0x6
 1660 0702 3D       		.byte	0x3d
 1661 0703 CF070000 		.4byte	0x7cf
 1662 0707 08       		.byte	0x8
 1663 0708 11       		.uleb128 0x11
 1664 0709 5D3A0000 		.4byte	.LASF198
 1665 070d 06       		.byte	0x6
 1666 070e 3E       		.byte	0x3e
 1667 070f C3040000 		.4byte	0x4c3
 1668 0713 10       		.byte	0x10
 1669 0714 11       		.uleb128 0x11
 1670 0715 5B090000 		.4byte	.LASF199
 1671 0719 06       		.byte	0x6
 1672 071a 3F       		.byte	0x3f
 1673 071b C3040000 		.4byte	0x4c3
ARM GAS  C:\Users\kateb\AppData\Local\Temp\cciDLH78.s 			page 62


 1674 071f 14       		.byte	0x14
 1675 0720 11       		.uleb128 0x11
 1676 0721 4F310000 		.4byte	.LASF200
 1677 0725 06       		.byte	0x6
 1678 0726 40       		.byte	0x40
 1679 0727 CD040000 		.4byte	0x4cd
 1680 072b 18       		.byte	0x18
 1681 072c 11       		.uleb128 0x11
 1682 072d 3B3C0000 		.4byte	.LASF201
 1683 0731 06       		.byte	0x6
 1684 0732 41       		.byte	0x41
 1685 0733 C3040000 		.4byte	0x4c3
 1686 0737 1C       		.byte	0x1c
 1687 0738 11       		.uleb128 0x11
 1688 0739 D7130000 		.4byte	.LASF202
 1689 073d 06       		.byte	0x6
 1690 073e 42       		.byte	0x42
 1691 073f C3040000 		.4byte	0x4c3
 1692 0743 20       		.byte	0x20
 1693 0744 11       		.uleb128 0x11
 1694 0745 42310000 		.4byte	.LASF203
 1695 0749 06       		.byte	0x6
 1696 074a 43       		.byte	0x43
 1697 074b C3040000 		.4byte	0x4c3
 1698 074f 24       		.byte	0x24
 1699 0750 11       		.uleb128 0x11
 1700 0751 A9380000 		.4byte	.LASF204
 1701 0755 06       		.byte	0x6
 1702 0756 44       		.byte	0x44
 1703 0757 CD040000 		.4byte	0x4cd
 1704 075b 28       		.byte	0x28
 1705 075c 11       		.uleb128 0x11
 1706 075d 683B0000 		.4byte	.LASF205
 1707 0761 06       		.byte	0x6
 1708 0762 45       		.byte	0x45
 1709 0763 CD040000 		.4byte	0x4cd
 1710 0767 2C       		.byte	0x2c
 1711 0768 11       		.uleb128 0x11
 1712 0769 2D4E0000 		.4byte	.LASF206
 1713 076d 06       		.byte	0x6
 1714 076e 46       		.byte	0x46
 1715 076f CD040000 		.4byte	0x4cd
 1716 0773 30       		.byte	0x30
 1717 0774 11       		.uleb128 0x11
 1718 0775 C7450000 		.4byte	.LASF192
 1719 0779 06       		.byte	0x6
 1720 077a 47       		.byte	0x47
 1721 077b D9070000 		.4byte	0x7d9
 1722 077f 34       		.byte	0x34
 1723 0780 11       		.uleb128 0x11
 1724 0781 EC220000 		.4byte	.LASF183
 1725 0785 06       		.byte	0x6
 1726 0786 48       		.byte	0x48
 1727 0787 C3040000 		.4byte	0x4c3
 1728 078b 40       		.byte	0x40
 1729 078c 11       		.uleb128 0x11
 1730 078d 7D350000 		.4byte	.LASF184
ARM GAS  C:\Users\kateb\AppData\Local\Temp\cciDLH78.s 			page 63


 1731 0791 06       		.byte	0x6
 1732 0792 49       		.byte	0x49
 1733 0793 C3040000 		.4byte	0x4c3
 1734 0797 44       		.byte	0x44
 1735 0798 11       		.uleb128 0x11
 1736 0799 85290000 		.4byte	.LASF185
 1737 079d 06       		.byte	0x6
 1738 079e 4A       		.byte	0x4a
 1739 079f C3040000 		.4byte	0x4c3
 1740 07a3 48       		.byte	0x48
 1741 07a4 11       		.uleb128 0x11
 1742 07a5 053A0000 		.4byte	.LASF186
 1743 07a9 06       		.byte	0x6
 1744 07aa 4B       		.byte	0x4b
 1745 07ab CD040000 		.4byte	0x4cd
 1746 07af 4C       		.byte	0x4c
 1747 07b0 11       		.uleb128 0x11
 1748 07b1 D1450000 		.4byte	.LASF195
 1749 07b5 06       		.byte	0x6
 1750 07b6 4C       		.byte	0x4c
 1751 07b7 F3070000 		.4byte	0x7f3
 1752 07bb 50       		.byte	0x50
 1753 07bc 12       		.uleb128 0x12
 1754 07bd D72A0000 		.4byte	.LASF207
 1755 07c1 06       		.byte	0x6
 1756 07c2 4D       		.byte	0x4d
 1757 07c3 D0060000 		.4byte	0x6d0
 1758 07c7 0001     		.2byte	0x100
 1759 07c9 00       		.byte	0
 1760 07ca 0B       		.uleb128 0xb
 1761 07cb D2040000 		.4byte	0x4d2
 1762 07cf 0C       		.uleb128 0xc
 1763 07d0 CA070000 		.4byte	0x7ca
 1764 07d4 0B       		.uleb128 0xb
 1765 07d5 53050000 		.4byte	0x553
 1766 07d9 0C       		.uleb128 0xc
 1767 07da D4070000 		.4byte	0x7d4
 1768 07de 0D       		.uleb128 0xd
 1769 07df CD040000 		.4byte	0x4cd
 1770 07e3 EE070000 		.4byte	0x7ee
 1771 07e7 0E       		.uleb128 0xe
 1772 07e8 A9000000 		.4byte	0xa9
 1773 07ec 2B       		.byte	0x2b
 1774 07ed 00       		.byte	0
 1775 07ee 0B       		.uleb128 0xb
 1776 07ef DE070000 		.4byte	0x7de
 1777 07f3 0C       		.uleb128 0xc
 1778 07f4 EE070000 		.4byte	0x7ee
 1779 07f8 04       		.uleb128 0x4
 1780 07f9 78480000 		.4byte	.LASF208
 1781 07fd 06       		.byte	0x6
 1782 07fe 4E       		.byte	0x4e
 1783 07ff DB060000 		.4byte	0x6db
 1784 0803 13       		.uleb128 0x13
 1785 0804 00E00100 		.4byte	0x1e000
 1786 0808 06       		.byte	0x6
 1787 0809 53       		.byte	0x53
ARM GAS  C:\Users\kateb\AppData\Local\Temp\cciDLH78.s 			page 64


 1788 080a C7150000 		.4byte	0x15c7
 1789 080e 11       		.uleb128 0x11
 1790 080f E7420000 		.4byte	.LASF209
 1791 0813 06       		.byte	0x6
 1792 0814 54       		.byte	0x54
 1793 0815 C3040000 		.4byte	0x4c3
 1794 0819 00       		.byte	0
 1795 081a 11       		.uleb128 0x11
 1796 081b D9490000 		.4byte	.LASF182
 1797 081f 06       		.byte	0x6
 1798 0820 55       		.byte	0x55
 1799 0821 CD040000 		.4byte	0x4cd
 1800 0825 04       		.byte	0x4
 1801 0826 11       		.uleb128 0x11
 1802 0827 CD290000 		.4byte	.LASF210
 1803 082b 06       		.byte	0x6
 1804 082c 56       		.byte	0x56
 1805 082d C3040000 		.4byte	0x4c3
 1806 0831 08       		.byte	0x8
 1807 0832 11       		.uleb128 0x11
 1808 0833 C7450000 		.4byte	.LASF192
 1809 0837 06       		.byte	0x6
 1810 0838 57       		.byte	0x57
 1811 0839 CD040000 		.4byte	0x4cd
 1812 083d 0C       		.byte	0xc
 1813 083e 11       		.uleb128 0x11
 1814 083f 72170000 		.4byte	.LASF211
 1815 0843 06       		.byte	0x6
 1816 0844 58       		.byte	0x58
 1817 0845 C3040000 		.4byte	0x4c3
 1818 0849 10       		.byte	0x10
 1819 084a 11       		.uleb128 0x11
 1820 084b D1450000 		.4byte	.LASF195
 1821 084f 06       		.byte	0x6
 1822 0850 59       		.byte	0x59
 1823 0851 CD040000 		.4byte	0x4cd
 1824 0855 14       		.byte	0x14
 1825 0856 11       		.uleb128 0x11
 1826 0857 AA130000 		.4byte	.LASF212
 1827 085b 06       		.byte	0x6
 1828 085c 5A       		.byte	0x5a
 1829 085d C3040000 		.4byte	0x4c3
 1830 0861 18       		.byte	0x18
 1831 0862 11       		.uleb128 0x11
 1832 0863 0B430000 		.4byte	.LASF213
 1833 0867 06       		.byte	0x6
 1834 0868 5B       		.byte	0x5b
 1835 0869 C3040000 		.4byte	0x4c3
 1836 086d 1C       		.byte	0x1c
 1837 086e 11       		.uleb128 0x11
 1838 086f 7D050000 		.4byte	.LASF214
 1839 0873 06       		.byte	0x6
 1840 0874 5C       		.byte	0x5c
 1841 0875 C3040000 		.4byte	0x4c3
 1842 0879 20       		.byte	0x20
 1843 087a 11       		.uleb128 0x11
 1844 087b EA470000 		.4byte	.LASF215
ARM GAS  C:\Users\kateb\AppData\Local\Temp\cciDLH78.s 			page 65


 1845 087f 06       		.byte	0x6
 1846 0880 5D       		.byte	0x5d
 1847 0881 CD040000 		.4byte	0x4cd
 1848 0885 24       		.byte	0x24
 1849 0886 11       		.uleb128 0x11
 1850 0887 97540000 		.4byte	.LASF216
 1851 088b 06       		.byte	0x6
 1852 088c 5E       		.byte	0x5e
 1853 088d C3040000 		.4byte	0x4c3
 1854 0891 28       		.byte	0x28
 1855 0892 11       		.uleb128 0x11
 1856 0893 EF260000 		.4byte	.LASF217
 1857 0897 06       		.byte	0x6
 1858 0898 5F       		.byte	0x5f
 1859 0899 C3040000 		.4byte	0x4c3
 1860 089d 2C       		.byte	0x2c
 1861 089e 11       		.uleb128 0x11
 1862 089f DD3A0000 		.4byte	.LASF218
 1863 08a3 06       		.byte	0x6
 1864 08a4 60       		.byte	0x60
 1865 08a5 C3040000 		.4byte	0x4c3
 1866 08a9 30       		.byte	0x30
 1867 08aa 11       		.uleb128 0x11
 1868 08ab DB450000 		.4byte	.LASF219
 1869 08af 06       		.byte	0x6
 1870 08b0 61       		.byte	0x61
 1871 08b1 CD040000 		.4byte	0x4cd
 1872 08b5 34       		.byte	0x34
 1873 08b6 11       		.uleb128 0x11
 1874 08b7 F0360000 		.4byte	.LASF220
 1875 08bb 06       		.byte	0x6
 1876 08bc 62       		.byte	0x62
 1877 08bd C3040000 		.4byte	0x4c3
 1878 08c1 38       		.byte	0x38
 1879 08c2 11       		.uleb128 0x11
 1880 08c3 D9070000 		.4byte	.LASF221
 1881 08c7 06       		.byte	0x6
 1882 08c8 63       		.byte	0x63
 1883 08c9 CD040000 		.4byte	0x4cd
 1884 08cd 3C       		.byte	0x3c
 1885 08ce 11       		.uleb128 0x11
 1886 08cf 88280000 		.4byte	.LASF222
 1887 08d3 06       		.byte	0x6
 1888 08d4 64       		.byte	0x64
 1889 08d5 C3040000 		.4byte	0x4c3
 1890 08d9 40       		.byte	0x40
 1891 08da 11       		.uleb128 0x11
 1892 08db 4D250000 		.4byte	.LASF223
 1893 08df 06       		.byte	0x6
 1894 08e0 65       		.byte	0x65
 1895 08e1 C3040000 		.4byte	0x4c3
 1896 08e5 44       		.byte	0x44
 1897 08e6 11       		.uleb128 0x11
 1898 08e7 B13A0000 		.4byte	.LASF224
 1899 08eb 06       		.byte	0x6
 1900 08ec 66       		.byte	0x66
 1901 08ed C3040000 		.4byte	0x4c3
ARM GAS  C:\Users\kateb\AppData\Local\Temp\cciDLH78.s 			page 66


 1902 08f1 48       		.byte	0x48
 1903 08f2 11       		.uleb128 0x11
 1904 08f3 E5450000 		.4byte	.LASF225
 1905 08f7 06       		.byte	0x6
 1906 08f8 67       		.byte	0x67
 1907 08f9 CD040000 		.4byte	0x4cd
 1908 08fd 4C       		.byte	0x4c
 1909 08fe 11       		.uleb128 0x11
 1910 08ff F6100000 		.4byte	.LASF226
 1911 0903 06       		.byte	0x6
 1912 0904 68       		.byte	0x68
 1913 0905 C3040000 		.4byte	0x4c3
 1914 0909 50       		.byte	0x50
 1915 090a 11       		.uleb128 0x11
 1916 090b 4C180000 		.4byte	.LASF227
 1917 090f 06       		.byte	0x6
 1918 0910 69       		.byte	0x69
 1919 0911 CD040000 		.4byte	0x4cd
 1920 0915 54       		.byte	0x54
 1921 0916 11       		.uleb128 0x11
 1922 0917 83200000 		.4byte	.LASF228
 1923 091b 06       		.byte	0x6
 1924 091c 6A       		.byte	0x6a
 1925 091d C3040000 		.4byte	0x4c3
 1926 0921 58       		.byte	0x58
 1927 0922 11       		.uleb128 0x11
 1928 0923 423B0000 		.4byte	.LASF229
 1929 0927 06       		.byte	0x6
 1930 0928 6B       		.byte	0x6b
 1931 0929 C3040000 		.4byte	0x4c3
 1932 092d 5C       		.byte	0x5c
 1933 092e 11       		.uleb128 0x11
 1934 092f FB3A0000 		.4byte	.LASF230
 1935 0933 06       		.byte	0x6
 1936 0934 6C       		.byte	0x6c
 1937 0935 C3040000 		.4byte	0x4c3
 1938 0939 60       		.byte	0x60
 1939 093a 11       		.uleb128 0x11
 1940 093b EF450000 		.4byte	.LASF231
 1941 093f 06       		.byte	0x6
 1942 0940 6D       		.byte	0x6d
 1943 0941 CD040000 		.4byte	0x4cd
 1944 0945 64       		.byte	0x64
 1945 0946 11       		.uleb128 0x11
 1946 0947 76130000 		.4byte	.LASF232
 1947 094b 06       		.byte	0x6
 1948 094c 6E       		.byte	0x6e
 1949 094d C3040000 		.4byte	0x4c3
 1950 0951 68       		.byte	0x68
 1951 0952 11       		.uleb128 0x11
 1952 0953 8E380000 		.4byte	.LASF233
 1953 0957 06       		.byte	0x6
 1954 0958 6F       		.byte	0x6f
 1955 0959 C3040000 		.4byte	0x4c3
 1956 095d 6C       		.byte	0x6c
 1957 095e 11       		.uleb128 0x11
 1958 095f 69380000 		.4byte	.LASF234
ARM GAS  C:\Users\kateb\AppData\Local\Temp\cciDLH78.s 			page 67


 1959 0963 06       		.byte	0x6
 1960 0964 70       		.byte	0x70
 1961 0965 C3040000 		.4byte	0x4c3
 1962 0969 70       		.byte	0x70
 1963 096a 11       		.uleb128 0x11
 1964 096b F9450000 		.4byte	.LASF235
 1965 096f 06       		.byte	0x6
 1966 0970 71       		.byte	0x71
 1967 0971 CD040000 		.4byte	0x4cd
 1968 0975 74       		.byte	0x74
 1969 0976 11       		.uleb128 0x11
 1970 0977 BC250000 		.4byte	.LASF236
 1971 097b 06       		.byte	0x6
 1972 097c 72       		.byte	0x72
 1973 097d C3040000 		.4byte	0x4c3
 1974 0981 78       		.byte	0x78
 1975 0982 11       		.uleb128 0x11
 1976 0983 464C0000 		.4byte	.LASF237
 1977 0987 06       		.byte	0x6
 1978 0988 73       		.byte	0x73
 1979 0989 C3040000 		.4byte	0x4c3
 1980 098d 7C       		.byte	0x7c
 1981 098e 11       		.uleb128 0x11
 1982 098f 24200000 		.4byte	.LASF238
 1983 0993 06       		.byte	0x6
 1984 0994 74       		.byte	0x74
 1985 0995 C3040000 		.4byte	0x4c3
 1986 0999 80       		.byte	0x80
 1987 099a 11       		.uleb128 0x11
 1988 099b 02560000 		.4byte	.LASF239
 1989 099f 06       		.byte	0x6
 1990 09a0 75       		.byte	0x75
 1991 09a1 C3040000 		.4byte	0x4c3
 1992 09a5 84       		.byte	0x84
 1993 09a6 11       		.uleb128 0x11
 1994 09a7 40160000 		.4byte	.LASF240
 1995 09ab 06       		.byte	0x6
 1996 09ac 76       		.byte	0x76
 1997 09ad C3040000 		.4byte	0x4c3
 1998 09b1 88       		.byte	0x88
 1999 09b2 11       		.uleb128 0x11
 2000 09b3 7F170000 		.4byte	.LASF241
 2001 09b7 06       		.byte	0x6
 2002 09b8 77       		.byte	0x77
 2003 09b9 C3040000 		.4byte	0x4c3
 2004 09bd 8C       		.byte	0x8c
 2005 09be 11       		.uleb128 0x11
 2006 09bf B0100000 		.4byte	.LASF242
 2007 09c3 06       		.byte	0x6
 2008 09c4 78       		.byte	0x78
 2009 09c5 C3040000 		.4byte	0x4c3
 2010 09c9 90       		.byte	0x90
 2011 09ca 11       		.uleb128 0x11
 2012 09cb 03460000 		.4byte	.LASF243
 2013 09cf 06       		.byte	0x6
 2014 09d0 79       		.byte	0x79
 2015 09d1 CD040000 		.4byte	0x4cd
ARM GAS  C:\Users\kateb\AppData\Local\Temp\cciDLH78.s 			page 68


 2016 09d5 94       		.byte	0x94
 2017 09d6 11       		.uleb128 0x11
 2018 09d7 51160000 		.4byte	.LASF244
 2019 09db 06       		.byte	0x6
 2020 09dc 7A       		.byte	0x7a
 2021 09dd C3040000 		.4byte	0x4c3
 2022 09e1 98       		.byte	0x98
 2023 09e2 11       		.uleb128 0x11
 2024 09e3 060A0000 		.4byte	.LASF245
 2025 09e7 06       		.byte	0x6
 2026 09e8 7B       		.byte	0x7b
 2027 09e9 C3040000 		.4byte	0x4c3
 2028 09ed 9C       		.byte	0x9c
 2029 09ee 11       		.uleb128 0x11
 2030 09ef C1100000 		.4byte	.LASF246
 2031 09f3 06       		.byte	0x6
 2032 09f4 7C       		.byte	0x7c
 2033 09f5 C3040000 		.4byte	0x4c3
 2034 09f9 A0       		.byte	0xa0
 2035 09fa 11       		.uleb128 0x11
 2036 09fb 0D460000 		.4byte	.LASF247
 2037 09ff 06       		.byte	0x6
 2038 0a00 7D       		.byte	0x7d
 2039 0a01 CD040000 		.4byte	0x4cd
 2040 0a05 A4       		.byte	0xa4
 2041 0a06 11       		.uleb128 0x11
 2042 0a07 96290000 		.4byte	.LASF248
 2043 0a0b 06       		.byte	0x6
 2044 0a0c 7E       		.byte	0x7e
 2045 0a0d C3040000 		.4byte	0x4c3
 2046 0a11 A8       		.byte	0xa8
 2047 0a12 11       		.uleb128 0x11
 2048 0a13 DF2D0000 		.4byte	.LASF249
 2049 0a17 06       		.byte	0x6
 2050 0a18 7F       		.byte	0x7f
 2051 0a19 CD040000 		.4byte	0x4cd
 2052 0a1d AC       		.byte	0xac
 2053 0a1e 11       		.uleb128 0x11
 2054 0a1f 97110000 		.4byte	.LASF250
 2055 0a23 06       		.byte	0x6
 2056 0a24 80       		.byte	0x80
 2057 0a25 C3040000 		.4byte	0x4c3
 2058 0a29 B0       		.byte	0xb0
 2059 0a2a 11       		.uleb128 0x11
 2060 0a2b 17460000 		.4byte	.LASF251
 2061 0a2f 06       		.byte	0x6
 2062 0a30 81       		.byte	0x81
 2063 0a31 CD040000 		.4byte	0x4cd
 2064 0a35 B4       		.byte	0xb4
 2065 0a36 11       		.uleb128 0x11
 2066 0a37 E3020000 		.4byte	.LASF252
 2067 0a3b 06       		.byte	0x6
 2068 0a3c 82       		.byte	0x82
 2069 0a3d C3040000 		.4byte	0x4c3
 2070 0a41 B8       		.byte	0xb8
 2071 0a42 11       		.uleb128 0x11
 2072 0a43 D3280000 		.4byte	.LASF253
ARM GAS  C:\Users\kateb\AppData\Local\Temp\cciDLH78.s 			page 69


 2073 0a47 06       		.byte	0x6
 2074 0a48 83       		.byte	0x83
 2075 0a49 CD040000 		.4byte	0x4cd
 2076 0a4d BC       		.byte	0xbc
 2077 0a4e 11       		.uleb128 0x11
 2078 0a4f 52100000 		.4byte	.LASF254
 2079 0a53 06       		.byte	0x6
 2080 0a54 84       		.byte	0x84
 2081 0a55 C3040000 		.4byte	0x4c3
 2082 0a59 C0       		.byte	0xc0
 2083 0a5a 11       		.uleb128 0x11
 2084 0a5b F8380000 		.4byte	.LASF255
 2085 0a5f 06       		.byte	0x6
 2086 0a60 85       		.byte	0x85
 2087 0a61 C3040000 		.4byte	0x4c3
 2088 0a65 C4       		.byte	0xc4
 2089 0a66 11       		.uleb128 0x11
 2090 0a67 29210000 		.4byte	.LASF256
 2091 0a6b 06       		.byte	0x6
 2092 0a6c 86       		.byte	0x86
 2093 0a6d CD040000 		.4byte	0x4cd
 2094 0a71 C8       		.byte	0xc8
 2095 0a72 11       		.uleb128 0x11
 2096 0a73 14340000 		.4byte	.LASF257
 2097 0a77 06       		.byte	0x6
 2098 0a78 87       		.byte	0x87
 2099 0a79 C3040000 		.4byte	0x4c3
 2100 0a7d CC       		.byte	0xcc
 2101 0a7e 11       		.uleb128 0x11
 2102 0a7f DE280000 		.4byte	.LASF258
 2103 0a83 06       		.byte	0x6
 2104 0a84 88       		.byte	0x88
 2105 0a85 CC150000 		.4byte	0x15cc
 2106 0a89 D0       		.byte	0xd0
 2107 0a8a 11       		.uleb128 0x11
 2108 0a8b 5F4E0000 		.4byte	.LASF259
 2109 0a8f 06       		.byte	0x6
 2110 0a90 89       		.byte	0x89
 2111 0a91 C3040000 		.4byte	0x4c3
 2112 0a95 D8       		.byte	0xd8
 2113 0a96 11       		.uleb128 0x11
 2114 0a97 E9280000 		.4byte	.LASF260
 2115 0a9b 06       		.byte	0x6
 2116 0a9c 8A       		.byte	0x8a
 2117 0a9d CD040000 		.4byte	0x4cd
 2118 0aa1 DC       		.byte	0xdc
 2119 0aa2 11       		.uleb128 0x11
 2120 0aa3 CB170000 		.4byte	.LASF261
 2121 0aa7 06       		.byte	0x6
 2122 0aa8 8B       		.byte	0x8b
 2123 0aa9 C3040000 		.4byte	0x4c3
 2124 0aad E0       		.byte	0xe0
 2125 0aae 11       		.uleb128 0x11
 2126 0aaf F4280000 		.4byte	.LASF262
 2127 0ab3 06       		.byte	0x6
 2128 0ab4 8C       		.byte	0x8c
 2129 0ab5 CD040000 		.4byte	0x4cd
ARM GAS  C:\Users\kateb\AppData\Local\Temp\cciDLH78.s 			page 70


 2130 0ab9 E4       		.byte	0xe4
 2131 0aba 11       		.uleb128 0x11
 2132 0abb F1220000 		.4byte	.LASF263
 2133 0abf 06       		.byte	0x6
 2134 0ac0 8D       		.byte	0x8d
 2135 0ac1 C3040000 		.4byte	0x4c3
 2136 0ac5 E8       		.byte	0xe8
 2137 0ac6 11       		.uleb128 0x11
 2138 0ac7 FF280000 		.4byte	.LASF264
 2139 0acb 06       		.byte	0x6
 2140 0acc 8F       		.byte	0x8f
 2141 0acd D6150000 		.4byte	0x15d6
 2142 0ad1 EC       		.byte	0xec
 2143 0ad2 11       		.uleb128 0x11
 2144 0ad3 F9190000 		.4byte	.LASF265
 2145 0ad7 06       		.byte	0x6
 2146 0ad8 90       		.byte	0x90
 2147 0ad9 CD040000 		.4byte	0x4cd
 2148 0add F8       		.byte	0xf8
 2149 0ade 11       		.uleb128 0x11
 2150 0adf 0A290000 		.4byte	.LASF266
 2151 0ae3 06       		.byte	0x6
 2152 0ae4 92       		.byte	0x92
 2153 0ae5 CD040000 		.4byte	0x4cd
 2154 0ae9 FC       		.byte	0xfc
 2155 0aea 12       		.uleb128 0x12
 2156 0aeb 83390000 		.4byte	.LASF267
 2157 0aef 06       		.byte	0x6
 2158 0af0 93       		.byte	0x93
 2159 0af1 C3040000 		.4byte	0x4c3
 2160 0af5 0001     		.2byte	0x100
 2161 0af7 12       		.uleb128 0x12
 2162 0af8 664B0000 		.4byte	.LASF268
 2163 0afc 06       		.byte	0x6
 2164 0afd 94       		.byte	0x94
 2165 0afe C3040000 		.4byte	0x4c3
 2166 0b02 0401     		.2byte	0x104
 2167 0b04 12       		.uleb128 0x12
 2168 0b05 9A3F0000 		.4byte	.LASF269
 2169 0b09 06       		.byte	0x6
 2170 0b0a 95       		.byte	0x95
 2171 0b0b C3040000 		.4byte	0x4c3
 2172 0b0f 0801     		.2byte	0x108
 2173 0b11 12       		.uleb128 0x12
 2174 0b12 A1060000 		.4byte	.LASF270
 2175 0b16 06       		.byte	0x6
 2176 0b17 96       		.byte	0x96
 2177 0b18 C3040000 		.4byte	0x4c3
 2178 0b1c 0C01     		.2byte	0x10c
 2179 0b1e 12       		.uleb128 0x12
 2180 0b1f 68390000 		.4byte	.LASF271
 2181 0b23 06       		.byte	0x6
 2182 0b24 97       		.byte	0x97
 2183 0b25 C3040000 		.4byte	0x4c3
 2184 0b29 1001     		.2byte	0x110
 2185 0b2b 12       		.uleb128 0x12
 2186 0b2c C91F0000 		.4byte	.LASF272
ARM GAS  C:\Users\kateb\AppData\Local\Temp\cciDLH78.s 			page 71


 2187 0b30 06       		.byte	0x6
 2188 0b31 98       		.byte	0x98
 2189 0b32 C3040000 		.4byte	0x4c3
 2190 0b36 1401     		.2byte	0x114
 2191 0b38 12       		.uleb128 0x12
 2192 0b39 1B070000 		.4byte	.LASF273
 2193 0b3d 06       		.byte	0x6
 2194 0b3e 99       		.byte	0x99
 2195 0b3f C3040000 		.4byte	0x4c3
 2196 0b43 1801     		.2byte	0x118
 2197 0b45 12       		.uleb128 0x12
 2198 0b46 4E280000 		.4byte	.LASF274
 2199 0b4a 06       		.byte	0x6
 2200 0b4b 9A       		.byte	0x9a
 2201 0b4c C3040000 		.4byte	0x4c3
 2202 0b50 1C01     		.2byte	0x11c
 2203 0b52 12       		.uleb128 0x12
 2204 0b53 8B410000 		.4byte	.LASF275
 2205 0b57 06       		.byte	0x6
 2206 0b58 9B       		.byte	0x9b
 2207 0b59 CD040000 		.4byte	0x4cd
 2208 0b5d 2001     		.2byte	0x120
 2209 0b5f 12       		.uleb128 0x12
 2210 0b60 D2100000 		.4byte	.LASF276
 2211 0b64 06       		.byte	0x6
 2212 0b65 9C       		.byte	0x9c
 2213 0b66 CD040000 		.4byte	0x4cd
 2214 0b6a 2401     		.2byte	0x124
 2215 0b6c 12       		.uleb128 0x12
 2216 0b6d 97430000 		.4byte	.LASF277
 2217 0b71 06       		.byte	0x6
 2218 0b72 9D       		.byte	0x9d
 2219 0b73 C3040000 		.4byte	0x4c3
 2220 0b77 2801     		.2byte	0x128
 2221 0b79 12       		.uleb128 0x12
 2222 0b7a 31420000 		.4byte	.LASF278
 2223 0b7e 06       		.byte	0x6
 2224 0b7f 9E       		.byte	0x9e
 2225 0b80 C3040000 		.4byte	0x4c3
 2226 0b84 2C01     		.2byte	0x12c
 2227 0b86 12       		.uleb128 0x12
 2228 0b87 99000000 		.4byte	.LASF279
 2229 0b8b 06       		.byte	0x6
 2230 0b8c 9F       		.byte	0x9f
 2231 0b8d C3040000 		.4byte	0x4c3
 2232 0b91 3001     		.2byte	0x130
 2233 0b93 12       		.uleb128 0x12
 2234 0b94 56030000 		.4byte	.LASF280
 2235 0b98 06       		.byte	0x6
 2236 0b99 A0       		.byte	0xa0
 2237 0b9a C3040000 		.4byte	0x4c3
 2238 0b9e 3401     		.2byte	0x134
 2239 0ba0 12       		.uleb128 0x12
 2240 0ba1 27340000 		.4byte	.LASF281
 2241 0ba5 06       		.byte	0x6
 2242 0ba6 A1       		.byte	0xa1
 2243 0ba7 C3040000 		.4byte	0x4c3
ARM GAS  C:\Users\kateb\AppData\Local\Temp\cciDLH78.s 			page 72


 2244 0bab 3801     		.2byte	0x138
 2245 0bad 12       		.uleb128 0x12
 2246 0bae 15290000 		.4byte	.LASF282
 2247 0bb2 06       		.byte	0x6
 2248 0bb3 A2       		.byte	0xa2
 2249 0bb4 CD040000 		.4byte	0x4cd
 2250 0bb8 3C01     		.2byte	0x13c
 2251 0bba 12       		.uleb128 0x12
 2252 0bbb 4A4A0000 		.4byte	.LASF283
 2253 0bbf 06       		.byte	0x6
 2254 0bc0 A3       		.byte	0xa3
 2255 0bc1 EB150000 		.4byte	0x15eb
 2256 0bc5 4001     		.2byte	0x140
 2257 0bc7 12       		.uleb128 0x12
 2258 0bc8 11540000 		.4byte	.LASF284
 2259 0bcc 06       		.byte	0x6
 2260 0bcd A4       		.byte	0xa4
 2261 0bce F5150000 		.4byte	0x15f5
 2262 0bd2 5401     		.2byte	0x154
 2263 0bd4 12       		.uleb128 0x12
 2264 0bd5 AB400000 		.4byte	.LASF285
 2265 0bd9 06       		.byte	0x6
 2266 0bda A5       		.byte	0xa5
 2267 0bdb C3040000 		.4byte	0x4c3
 2268 0bdf 6001     		.2byte	0x160
 2269 0be1 12       		.uleb128 0x12
 2270 0be2 912A0000 		.4byte	.LASF286
 2271 0be6 06       		.byte	0x6
 2272 0be7 A6       		.byte	0xa6
 2273 0be8 C3040000 		.4byte	0x4c3
 2274 0bec 6401     		.2byte	0x164
 2275 0bee 12       		.uleb128 0x12
 2276 0bef 29290000 		.4byte	.LASF287
 2277 0bf3 06       		.byte	0x6
 2278 0bf4 A7       		.byte	0xa7
 2279 0bf5 FF150000 		.4byte	0x15ff
 2280 0bf9 6801     		.2byte	0x168
 2281 0bfb 12       		.uleb128 0x12
 2282 0bfc 9D0E0000 		.4byte	.LASF288
 2283 0c00 06       		.byte	0x6
 2284 0c01 A8       		.byte	0xa8
 2285 0c02 C3040000 		.4byte	0x4c3
 2286 0c06 7001     		.2byte	0x170
 2287 0c08 12       		.uleb128 0x12
 2288 0c09 2A2F0000 		.4byte	.LASF289
 2289 0c0d 06       		.byte	0x6
 2290 0c0e A9       		.byte	0xa9
 2291 0c0f CD040000 		.4byte	0x4cd
 2292 0c13 7401     		.2byte	0x174
 2293 0c15 12       		.uleb128 0x12
 2294 0c16 143E0000 		.4byte	.LASF290
 2295 0c1a 06       		.byte	0x6
 2296 0c1b AA       		.byte	0xaa
 2297 0c1c C3040000 		.4byte	0x4c3
 2298 0c20 7801     		.2byte	0x178
 2299 0c22 12       		.uleb128 0x12
 2300 0c23 34290000 		.4byte	.LASF291
ARM GAS  C:\Users\kateb\AppData\Local\Temp\cciDLH78.s 			page 73


 2301 0c27 06       		.byte	0x6
 2302 0c28 AB       		.byte	0xab
 2303 0c29 09160000 		.4byte	0x1609
 2304 0c2d 7C01     		.2byte	0x17c
 2305 0c2f 12       		.uleb128 0x12
 2306 0c30 5D4B0000 		.4byte	.LASF292
 2307 0c34 06       		.byte	0x6
 2308 0c35 AC       		.byte	0xac
 2309 0c36 CD040000 		.4byte	0x4cd
 2310 0c3a 8801     		.2byte	0x188
 2311 0c3c 12       		.uleb128 0x12
 2312 0c3d E1290000 		.4byte	.LASF293
 2313 0c41 06       		.byte	0x6
 2314 0c42 AD       		.byte	0xad
 2315 0c43 CD040000 		.4byte	0x4cd
 2316 0c47 8C01     		.2byte	0x18c
 2317 0c49 12       		.uleb128 0x12
 2318 0c4a 57420000 		.4byte	.LASF294
 2319 0c4e 06       		.byte	0x6
 2320 0c4f AE       		.byte	0xae
 2321 0c50 C3040000 		.4byte	0x4c3
 2322 0c54 9001     		.2byte	0x190
 2323 0c56 12       		.uleb128 0x12
 2324 0c57 EC290000 		.4byte	.LASF295
 2325 0c5b 06       		.byte	0x6
 2326 0c5c AF       		.byte	0xaf
 2327 0c5d 13160000 		.4byte	0x1613
 2328 0c61 9401     		.2byte	0x194
 2329 0c63 12       		.uleb128 0x12
 2330 0c64 CE3E0000 		.4byte	.LASF296
 2331 0c68 06       		.byte	0x6
 2332 0c69 B0       		.byte	0xb0
 2333 0c6a C3040000 		.4byte	0x4c3
 2334 0c6e A801     		.2byte	0x1a8
 2335 0c70 12       		.uleb128 0x12
 2336 0c71 44170000 		.4byte	.LASF297
 2337 0c75 06       		.byte	0x6
 2338 0c76 B1       		.byte	0xb1
 2339 0c77 C3040000 		.4byte	0x4c3
 2340 0c7b AC01     		.2byte	0x1ac
 2341 0c7d 12       		.uleb128 0x12
 2342 0c7e C32E0000 		.4byte	.LASF298
 2343 0c82 06       		.byte	0x6
 2344 0c83 B2       		.byte	0xb2
 2345 0c84 C3040000 		.4byte	0x4c3
 2346 0c88 B001     		.2byte	0x1b0
 2347 0c8a 12       		.uleb128 0x12
 2348 0c8b 6E300000 		.4byte	.LASF299
 2349 0c8f 06       		.byte	0x6
 2350 0c90 B3       		.byte	0xb3
 2351 0c91 C3040000 		.4byte	0x4c3
 2352 0c95 B401     		.2byte	0x1b4
 2353 0c97 12       		.uleb128 0x12
 2354 0c98 DF510000 		.4byte	.LASF300
 2355 0c9c 06       		.byte	0x6
 2356 0c9d B4       		.byte	0xb4
 2357 0c9e C3040000 		.4byte	0x4c3
ARM GAS  C:\Users\kateb\AppData\Local\Temp\cciDLH78.s 			page 74


 2358 0ca2 B801     		.2byte	0x1b8
 2359 0ca4 12       		.uleb128 0x12
 2360 0ca5 4D530000 		.4byte	.LASF301
 2361 0ca9 06       		.byte	0x6
 2362 0caa B5       		.byte	0xb5
 2363 0cab C3040000 		.4byte	0x4c3
 2364 0caf BC01     		.2byte	0x1bc
 2365 0cb1 12       		.uleb128 0x12
 2366 0cb2 901F0000 		.4byte	.LASF302
 2367 0cb6 06       		.byte	0x6
 2368 0cb7 B6       		.byte	0xb6
 2369 0cb8 C3040000 		.4byte	0x4c3
 2370 0cbc C001     		.2byte	0x1c0
 2371 0cbe 12       		.uleb128 0x12
 2372 0cbf 9F1F0000 		.4byte	.LASF303
 2373 0cc3 06       		.byte	0x6
 2374 0cc4 B7       		.byte	0xb7
 2375 0cc5 C3040000 		.4byte	0x4c3
 2376 0cc9 C401     		.2byte	0x1c4
 2377 0ccb 12       		.uleb128 0x12
 2378 0ccc 4A1F0000 		.4byte	.LASF304
 2379 0cd0 06       		.byte	0x6
 2380 0cd1 B8       		.byte	0xb8
 2381 0cd2 C3040000 		.4byte	0x4c3
 2382 0cd6 C801     		.2byte	0x1c8
 2383 0cd8 12       		.uleb128 0x12
 2384 0cd9 F7290000 		.4byte	.LASF305
 2385 0cdd 06       		.byte	0x6
 2386 0cde B9       		.byte	0xb9
 2387 0cdf CD040000 		.4byte	0x4cd
 2388 0ce3 CC01     		.2byte	0x1cc
 2389 0ce5 12       		.uleb128 0x12
 2390 0ce6 EB330000 		.4byte	.LASF306
 2391 0cea 06       		.byte	0x6
 2392 0ceb BA       		.byte	0xba
 2393 0cec C3040000 		.4byte	0x4c3
 2394 0cf0 D001     		.2byte	0x1d0
 2395 0cf2 12       		.uleb128 0x12
 2396 0cf3 592F0000 		.4byte	.LASF307
 2397 0cf7 06       		.byte	0x6
 2398 0cf8 BB       		.byte	0xbb
 2399 0cf9 C3040000 		.4byte	0x4c3
 2400 0cfd D401     		.2byte	0x1d4
 2401 0cff 12       		.uleb128 0x12
 2402 0d00 A7390000 		.4byte	.LASF308
 2403 0d04 06       		.byte	0x6
 2404 0d05 BC       		.byte	0xbc
 2405 0d06 C3040000 		.4byte	0x4c3
 2406 0d0a D801     		.2byte	0x1d8
 2407 0d0c 12       		.uleb128 0x12
 2408 0d0d 69060000 		.4byte	.LASF309
 2409 0d11 06       		.byte	0x6
 2410 0d12 BD       		.byte	0xbd
 2411 0d13 C3040000 		.4byte	0x4c3
 2412 0d17 DC01     		.2byte	0x1dc
 2413 0d19 12       		.uleb128 0x12
 2414 0d1a E30D0000 		.4byte	.LASF310
ARM GAS  C:\Users\kateb\AppData\Local\Temp\cciDLH78.s 			page 75


 2415 0d1e 06       		.byte	0x6
 2416 0d1f BE       		.byte	0xbe
 2417 0d20 C3040000 		.4byte	0x4c3
 2418 0d24 E001     		.2byte	0x1e0
 2419 0d26 12       		.uleb128 0x12
 2420 0d27 022A0000 		.4byte	.LASF311
 2421 0d2b 06       		.byte	0x6
 2422 0d2c BF       		.byte	0xbf
 2423 0d2d CD040000 		.4byte	0x4cd
 2424 0d31 E401     		.2byte	0x1e4
 2425 0d33 12       		.uleb128 0x12
 2426 0d34 E4480000 		.4byte	.LASF312
 2427 0d38 06       		.byte	0x6
 2428 0d39 C0       		.byte	0xc0
 2429 0d3a C3040000 		.4byte	0x4c3
 2430 0d3e E801     		.2byte	0x1e8
 2431 0d40 12       		.uleb128 0x12
 2432 0d41 F0480000 		.4byte	.LASF313
 2433 0d45 06       		.byte	0x6
 2434 0d46 C1       		.byte	0xc1
 2435 0d47 C3040000 		.4byte	0x4c3
 2436 0d4b EC01     		.2byte	0x1ec
 2437 0d4d 12       		.uleb128 0x12
 2438 0d4e 4C400000 		.4byte	.LASF314
 2439 0d52 06       		.byte	0x6
 2440 0d53 C2       		.byte	0xc2
 2441 0d54 C3040000 		.4byte	0x4c3
 2442 0d58 F001     		.2byte	0x1f0
 2443 0d5a 12       		.uleb128 0x12
 2444 0d5b E8180000 		.4byte	.LASF315
 2445 0d5f 06       		.byte	0x6
 2446 0d60 C3       		.byte	0xc3
 2447 0d61 C3040000 		.4byte	0x4c3
 2448 0d65 F401     		.2byte	0x1f4
 2449 0d67 12       		.uleb128 0x12
 2450 0d68 653A0000 		.4byte	.LASF316
 2451 0d6c 06       		.byte	0x6
 2452 0d6d C4       		.byte	0xc4
 2453 0d6e C3040000 		.4byte	0x4c3
 2454 0d72 F801     		.2byte	0x1f8
 2455 0d74 12       		.uleb128 0x12
 2456 0d75 0D2A0000 		.4byte	.LASF317
 2457 0d79 06       		.byte	0x6
 2458 0d7a C5       		.byte	0xc5
 2459 0d7b CD040000 		.4byte	0x4cd
 2460 0d7f FC01     		.2byte	0x1fc
 2461 0d81 12       		.uleb128 0x12
 2462 0d82 F23A0000 		.4byte	.LASF318
 2463 0d86 06       		.byte	0x6
 2464 0d87 C6       		.byte	0xc6
 2465 0d88 CD040000 		.4byte	0x4cd
 2466 0d8c 0002     		.2byte	0x200
 2467 0d8e 12       		.uleb128 0x12
 2468 0d8f A83F0000 		.4byte	.LASF319
 2469 0d93 06       		.byte	0x6
 2470 0d94 C7       		.byte	0xc7
 2471 0d95 CD040000 		.4byte	0x4cd
ARM GAS  C:\Users\kateb\AppData\Local\Temp\cciDLH78.s 			page 76


 2472 0d99 0402     		.2byte	0x204
 2473 0d9b 12       		.uleb128 0x12
 2474 0d9c B13F0000 		.4byte	.LASF320
 2475 0da0 06       		.byte	0x6
 2476 0da1 C8       		.byte	0xc8
 2477 0da2 CD040000 		.4byte	0x4cd
 2478 0da6 0802     		.2byte	0x208
 2479 0da8 12       		.uleb128 0x12
 2480 0da9 343B0000 		.4byte	.LASF321
 2481 0dad 06       		.byte	0x6
 2482 0dae C9       		.byte	0xc9
 2483 0daf CD040000 		.4byte	0x4cd
 2484 0db3 0C02     		.2byte	0x20c
 2485 0db5 12       		.uleb128 0x12
 2486 0db6 DA3F0000 		.4byte	.LASF322
 2487 0dba 06       		.byte	0x6
 2488 0dbb CA       		.byte	0xca
 2489 0dbc CD040000 		.4byte	0x4cd
 2490 0dc0 1002     		.2byte	0x210
 2491 0dc2 12       		.uleb128 0x12
 2492 0dc3 E33F0000 		.4byte	.LASF323
 2493 0dc7 06       		.byte	0x6
 2494 0dc8 CB       		.byte	0xcb
 2495 0dc9 CD040000 		.4byte	0x4cd
 2496 0dcd 1402     		.2byte	0x214
 2497 0dcf 12       		.uleb128 0x12
 2498 0dd0 6F370000 		.4byte	.LASF324
 2499 0dd4 06       		.byte	0x6
 2500 0dd5 CC       		.byte	0xcc
 2501 0dd6 CD040000 		.4byte	0x4cd
 2502 0dda 1802     		.2byte	0x218
 2503 0ddc 12       		.uleb128 0x12
 2504 0ddd 78370000 		.4byte	.LASF325
 2505 0de1 06       		.byte	0x6
 2506 0de2 CD       		.byte	0xcd
 2507 0de3 CD040000 		.4byte	0x4cd
 2508 0de7 1C02     		.2byte	0x21c
 2509 0de9 12       		.uleb128 0x12
 2510 0dea 15400000 		.4byte	.LASF326
 2511 0dee 06       		.byte	0x6
 2512 0def CE       		.byte	0xce
 2513 0df0 CD040000 		.4byte	0x4cd
 2514 0df4 2002     		.2byte	0x220
 2515 0df6 12       		.uleb128 0x12
 2516 0df7 6A1E0000 		.4byte	.LASF327
 2517 0dfb 06       		.byte	0x6
 2518 0dfc CF       		.byte	0xcf
 2519 0dfd CD040000 		.4byte	0x4cd
 2520 0e01 2402     		.2byte	0x224
 2521 0e03 12       		.uleb128 0x12
 2522 0e04 182A0000 		.4byte	.LASF328
 2523 0e08 06       		.byte	0x6
 2524 0e09 D0       		.byte	0xd0
 2525 0e0a 1D160000 		.4byte	0x161d
 2526 0e0e 2802     		.2byte	0x228
 2527 0e10 12       		.uleb128 0x12
 2528 0e11 812F0000 		.4byte	.LASF329
ARM GAS  C:\Users\kateb\AppData\Local\Temp\cciDLH78.s 			page 77


 2529 0e15 06       		.byte	0x6
 2530 0e16 D1       		.byte	0xd1
 2531 0e17 C3040000 		.4byte	0x4c3
 2532 0e1b 3002     		.2byte	0x230
 2533 0e1d 12       		.uleb128 0x12
 2534 0e1e 922F0000 		.4byte	.LASF330
 2535 0e22 06       		.byte	0x6
 2536 0e23 D2       		.byte	0xd2
 2537 0e24 C3040000 		.4byte	0x4c3
 2538 0e28 3402     		.2byte	0x234
 2539 0e2a 12       		.uleb128 0x12
 2540 0e2b 702F0000 		.4byte	.LASF331
 2541 0e2f 06       		.byte	0x6
 2542 0e30 D3       		.byte	0xd3
 2543 0e31 C3040000 		.4byte	0x4c3
 2544 0e35 3802     		.2byte	0x238
 2545 0e37 12       		.uleb128 0x12
 2546 0e38 FA010000 		.4byte	.LASF332
 2547 0e3c 06       		.byte	0x6
 2548 0e3d D4       		.byte	0xd4
 2549 0e3e C3040000 		.4byte	0x4c3
 2550 0e42 3C02     		.2byte	0x23c
 2551 0e44 12       		.uleb128 0x12
 2552 0e45 0E020000 		.4byte	.LASF333
 2553 0e49 06       		.byte	0x6
 2554 0e4a D6       		.byte	0xd6
 2555 0e4b C3040000 		.4byte	0x4c3
 2556 0e4f 4002     		.2byte	0x240
 2557 0e51 12       		.uleb128 0x12
 2558 0e52 E6010000 		.4byte	.LASF334
 2559 0e56 06       		.byte	0x6
 2560 0e57 D8       		.byte	0xd8
 2561 0e58 C3040000 		.4byte	0x4c3
 2562 0e5c 4402     		.2byte	0x244
 2563 0e5e 12       		.uleb128 0x12
 2564 0e5f 19090000 		.4byte	.LASF335
 2565 0e63 06       		.byte	0x6
 2566 0e64 DA       		.byte	0xda
 2567 0e65 C3040000 		.4byte	0x4c3
 2568 0e69 4802     		.2byte	0x248
 2569 0e6b 12       		.uleb128 0x12
 2570 0e6c C72A0000 		.4byte	.LASF336
 2571 0e70 06       		.byte	0x6
 2572 0e71 DB       		.byte	0xdb
 2573 0e72 C3040000 		.4byte	0x4c3
 2574 0e76 4C02     		.2byte	0x24c
 2575 0e78 12       		.uleb128 0x12
 2576 0e79 232A0000 		.4byte	.LASF337
 2577 0e7d 06       		.byte	0x6
 2578 0e7e DC       		.byte	0xdc
 2579 0e7f 27160000 		.4byte	0x1627
 2580 0e83 5002     		.2byte	0x250
 2581 0e85 12       		.uleb128 0x12
 2582 0e86 5B400000 		.4byte	.LASF338
 2583 0e8a 06       		.byte	0x6
 2584 0e8b DD       		.byte	0xdd
 2585 0e8c C3040000 		.4byte	0x4c3
ARM GAS  C:\Users\kateb\AppData\Local\Temp\cciDLH78.s 			page 78


 2586 0e90 5802     		.2byte	0x258
 2587 0e92 12       		.uleb128 0x12
 2588 0e93 2E2A0000 		.4byte	.LASF339
 2589 0e97 06       		.byte	0x6
 2590 0e98 DE       		.byte	0xde
 2591 0e99 CD040000 		.4byte	0x4cd
 2592 0e9d 5C02     		.2byte	0x25c
 2593 0e9f 12       		.uleb128 0x12
 2594 0ea0 15530000 		.4byte	.LASF340
 2595 0ea4 06       		.byte	0x6
 2596 0ea5 DF       		.byte	0xdf
 2597 0ea6 C3040000 		.4byte	0x4c3
 2598 0eaa 6002     		.2byte	0x260
 2599 0eac 12       		.uleb128 0x12
 2600 0ead 76420000 		.4byte	.LASF341
 2601 0eb1 06       		.byte	0x6
 2602 0eb2 E0       		.byte	0xe0
 2603 0eb3 CD040000 		.4byte	0x4cd
 2604 0eb7 6402     		.2byte	0x264
 2605 0eb9 12       		.uleb128 0x12
 2606 0eba AB330000 		.4byte	.LASF342
 2607 0ebe 06       		.byte	0x6
 2608 0ebf E1       		.byte	0xe1
 2609 0ec0 CD040000 		.4byte	0x4cd
 2610 0ec4 6802     		.2byte	0x268
 2611 0ec6 12       		.uleb128 0x12
 2612 0ec7 392A0000 		.4byte	.LASF343
 2613 0ecb 06       		.byte	0x6
 2614 0ecc E2       		.byte	0xe2
 2615 0ecd 41160000 		.4byte	0x1641
 2616 0ed1 6C02     		.2byte	0x26c
 2617 0ed3 12       		.uleb128 0x12
 2618 0ed4 C9090000 		.4byte	.LASF344
 2619 0ed8 06       		.byte	0x6
 2620 0ed9 E3       		.byte	0xe3
 2621 0eda C3040000 		.4byte	0x4c3
 2622 0ede A403     		.2byte	0x3a4
 2623 0ee0 12       		.uleb128 0x12
 2624 0ee1 413D0000 		.4byte	.LASF345
 2625 0ee5 06       		.byte	0x6
 2626 0ee6 E4       		.byte	0xe4
 2627 0ee7 C3040000 		.4byte	0x4c3
 2628 0eeb A803     		.2byte	0x3a8
 2629 0eed 12       		.uleb128 0x12
 2630 0eee B5180000 		.4byte	.LASF346
 2631 0ef2 06       		.byte	0x6
 2632 0ef3 E5       		.byte	0xe5
 2633 0ef4 C3040000 		.4byte	0x4c3
 2634 0ef8 AC03     		.2byte	0x3ac
 2635 0efa 12       		.uleb128 0x12
 2636 0efb 361E0000 		.4byte	.LASF347
 2637 0eff 06       		.byte	0x6
 2638 0f00 E6       		.byte	0xe6
 2639 0f01 C3040000 		.4byte	0x4c3
 2640 0f05 B003     		.2byte	0x3b0
 2641 0f07 12       		.uleb128 0x12
 2642 0f08 442A0000 		.4byte	.LASF348
ARM GAS  C:\Users\kateb\AppData\Local\Temp\cciDLH78.s 			page 79


 2643 0f0c 06       		.byte	0x6
 2644 0f0d E7       		.byte	0xe7
 2645 0f0e 4B160000 		.4byte	0x164b
 2646 0f12 B403     		.2byte	0x3b4
 2647 0f14 12       		.uleb128 0x12
 2648 0f15 644D0000 		.4byte	.LASF349
 2649 0f19 06       		.byte	0x6
 2650 0f1a E8       		.byte	0xe8
 2651 0f1b C3040000 		.4byte	0x4c3
 2652 0f1f C003     		.2byte	0x3c0
 2653 0f21 12       		.uleb128 0x12
 2654 0f22 734D0000 		.4byte	.LASF350
 2655 0f26 06       		.byte	0x6
 2656 0f27 E9       		.byte	0xe9
 2657 0f28 C3040000 		.4byte	0x4c3
 2658 0f2c C403     		.2byte	0x3c4
 2659 0f2e 12       		.uleb128 0x12
 2660 0f2f 824D0000 		.4byte	.LASF351
 2661 0f33 06       		.byte	0x6
 2662 0f34 EA       		.byte	0xea
 2663 0f35 C3040000 		.4byte	0x4c3
 2664 0f39 C803     		.2byte	0x3c8
 2665 0f3b 12       		.uleb128 0x12
 2666 0f3c 914D0000 		.4byte	.LASF352
 2667 0f40 06       		.byte	0x6
 2668 0f41 EB       		.byte	0xeb
 2669 0f42 C3040000 		.4byte	0x4c3
 2670 0f46 CC03     		.2byte	0x3cc
 2671 0f48 12       		.uleb128 0x12
 2672 0f49 A04D0000 		.4byte	.LASF353
 2673 0f4d 06       		.byte	0x6
 2674 0f4e EC       		.byte	0xec
 2675 0f4f C3040000 		.4byte	0x4c3
 2676 0f53 D003     		.2byte	0x3d0
 2677 0f55 12       		.uleb128 0x12
 2678 0f56 AF4D0000 		.4byte	.LASF354
 2679 0f5a 06       		.byte	0x6
 2680 0f5b ED       		.byte	0xed
 2681 0f5c C3040000 		.4byte	0x4c3
 2682 0f60 D403     		.2byte	0x3d4
 2683 0f62 12       		.uleb128 0x12
 2684 0f63 BE4D0000 		.4byte	.LASF355
 2685 0f67 06       		.byte	0x6
 2686 0f68 EE       		.byte	0xee
 2687 0f69 C3040000 		.4byte	0x4c3
 2688 0f6d D803     		.2byte	0x3d8
 2689 0f6f 12       		.uleb128 0x12
 2690 0f70 CD4D0000 		.4byte	.LASF356
 2691 0f74 06       		.byte	0x6
 2692 0f75 EF       		.byte	0xef
 2693 0f76 C3040000 		.4byte	0x4c3
 2694 0f7a DC03     		.2byte	0x3dc
 2695 0f7c 12       		.uleb128 0x12
 2696 0f7d DC4D0000 		.4byte	.LASF357
 2697 0f81 06       		.byte	0x6
 2698 0f82 F0       		.byte	0xf0
 2699 0f83 C3040000 		.4byte	0x4c3
ARM GAS  C:\Users\kateb\AppData\Local\Temp\cciDLH78.s 			page 80


 2700 0f87 E003     		.2byte	0x3e0
 2701 0f89 12       		.uleb128 0x12
 2702 0f8a EB4D0000 		.4byte	.LASF358
 2703 0f8e 06       		.byte	0x6
 2704 0f8f F1       		.byte	0xf1
 2705 0f90 C3040000 		.4byte	0x4c3
 2706 0f94 E403     		.2byte	0x3e4
 2707 0f96 12       		.uleb128 0x12
 2708 0f97 BE040000 		.4byte	.LASF359
 2709 0f9b 06       		.byte	0x6
 2710 0f9c F2       		.byte	0xf2
 2711 0f9d C3040000 		.4byte	0x4c3
 2712 0fa1 E803     		.2byte	0x3e8
 2713 0fa3 12       		.uleb128 0x12
 2714 0fa4 CE040000 		.4byte	.LASF360
 2715 0fa8 06       		.byte	0x6
 2716 0fa9 F3       		.byte	0xf3
 2717 0faa C3040000 		.4byte	0x4c3
 2718 0fae EC03     		.2byte	0x3ec
 2719 0fb0 12       		.uleb128 0x12
 2720 0fb1 D82B0000 		.4byte	.LASF361
 2721 0fb5 06       		.byte	0x6
 2722 0fb6 F4       		.byte	0xf4
 2723 0fb7 66160000 		.4byte	0x1666
 2724 0fbb F003     		.2byte	0x3f0
 2725 0fbd 12       		.uleb128 0x12
 2726 0fbe 17270000 		.4byte	.LASF362
 2727 0fc2 06       		.byte	0x6
 2728 0fc3 F5       		.byte	0xf5
 2729 0fc4 C3040000 		.4byte	0x4c3
 2730 0fc8 040A     		.2byte	0xa04
 2731 0fca 12       		.uleb128 0x12
 2732 0fcb B4340000 		.4byte	.LASF363
 2733 0fcf 06       		.byte	0x6
 2734 0fd0 F6       		.byte	0xf6
 2735 0fd1 CD040000 		.4byte	0x4cd
 2736 0fd5 080A     		.2byte	0xa08
 2737 0fd7 12       		.uleb128 0x12
 2738 0fd8 49540000 		.4byte	.LASF364
 2739 0fdc 06       		.byte	0x6
 2740 0fdd F7       		.byte	0xf7
 2741 0fde CD040000 		.4byte	0x4cd
 2742 0fe2 0C0A     		.2byte	0xa0c
 2743 0fe4 12       		.uleb128 0x12
 2744 0fe5 9A3D0000 		.4byte	.LASF365
 2745 0fe9 06       		.byte	0x6
 2746 0fea F8       		.byte	0xf8
 2747 0feb C3040000 		.4byte	0x4c3
 2748 0fef 100A     		.2byte	0xa10
 2749 0ff1 12       		.uleb128 0x12
 2750 0ff2 33010000 		.4byte	.LASF366
 2751 0ff6 06       		.byte	0x6
 2752 0ff7 F9       		.byte	0xf9
 2753 0ff8 C3040000 		.4byte	0x4c3
 2754 0ffc 140A     		.2byte	0xa14
 2755 0ffe 12       		.uleb128 0x12
 2756 0fff D5300000 		.4byte	.LASF367
ARM GAS  C:\Users\kateb\AppData\Local\Temp\cciDLH78.s 			page 81


 2757 1003 06       		.byte	0x6
 2758 1004 FA       		.byte	0xfa
 2759 1005 C3040000 		.4byte	0x4c3
 2760 1009 180A     		.2byte	0xa18
 2761 100b 12       		.uleb128 0x12
 2762 100c A3270000 		.4byte	.LASF368
 2763 1010 06       		.byte	0x6
 2764 1011 FB       		.byte	0xfb
 2765 1012 C3040000 		.4byte	0x4c3
 2766 1016 1C0A     		.2byte	0xa1c
 2767 1018 12       		.uleb128 0x12
 2768 1019 3B2F0000 		.4byte	.LASF369
 2769 101d 06       		.byte	0x6
 2770 101e FC       		.byte	0xfc
 2771 101f C3040000 		.4byte	0x4c3
 2772 1023 200A     		.2byte	0xa20
 2773 1025 12       		.uleb128 0x12
 2774 1026 8E220000 		.4byte	.LASF370
 2775 102a 06       		.byte	0x6
 2776 102b FD       		.byte	0xfd
 2777 102c C3040000 		.4byte	0x4c3
 2778 1030 240A     		.2byte	0xa24
 2779 1032 12       		.uleb128 0x12
 2780 1033 8C310000 		.4byte	.LASF371
 2781 1037 06       		.byte	0x6
 2782 1038 FE       		.byte	0xfe
 2783 1039 CD040000 		.4byte	0x4cd
 2784 103d 280A     		.2byte	0xa28
 2785 103f 12       		.uleb128 0x12
 2786 1040 C5240000 		.4byte	.LASF372
 2787 1044 06       		.byte	0x6
 2788 1045 FF       		.byte	0xff
 2789 1046 CD040000 		.4byte	0x4cd
 2790 104a 2C0A     		.2byte	0xa2c
 2791 104c 14       		.uleb128 0x14
 2792 104d E32B0000 		.4byte	.LASF373
 2793 1051 06       		.byte	0x6
 2794 1052 0001     		.2byte	0x100
 2795 1054 80160000 		.4byte	0x1680
 2796 1058 300A     		.2byte	0xa30
 2797 105a 14       		.uleb128 0x14
 2798 105b 170C0000 		.4byte	.LASF374
 2799 105f 06       		.byte	0x6
 2800 1060 0101     		.2byte	0x101
 2801 1062 C3040000 		.4byte	0x4c3
 2802 1066 000E     		.2byte	0xe00
 2803 1068 14       		.uleb128 0x14
 2804 1069 8C1B0000 		.4byte	.LASF375
 2805 106d 06       		.byte	0x6
 2806 106e 0201     		.2byte	0x102
 2807 1070 C3040000 		.4byte	0x4c3
 2808 1074 040E     		.2byte	0xe04
 2809 1076 14       		.uleb128 0x14
 2810 1077 75460000 		.4byte	.LASF376
 2811 107b 06       		.byte	0x6
 2812 107c 0301     		.2byte	0x103
 2813 107e C3040000 		.4byte	0x4c3
ARM GAS  C:\Users\kateb\AppData\Local\Temp\cciDLH78.s 			page 82


 2814 1082 080E     		.2byte	0xe08
 2815 1084 14       		.uleb128 0x14
 2816 1085 EE2B0000 		.4byte	.LASF377
 2817 1089 06       		.byte	0x6
 2818 108a 0401     		.2byte	0x104
 2819 108c CD040000 		.4byte	0x4cd
 2820 1090 0C0E     		.2byte	0xe0c
 2821 1092 14       		.uleb128 0x14
 2822 1093 F01E0000 		.4byte	.LASF378
 2823 1097 06       		.byte	0x6
 2824 1098 0501     		.2byte	0x105
 2825 109a C3040000 		.4byte	0x4c3
 2826 109e 100E     		.2byte	0xe10
 2827 10a0 14       		.uleb128 0x14
 2828 10a1 F92B0000 		.4byte	.LASF379
 2829 10a5 06       		.byte	0x6
 2830 10a6 0601     		.2byte	0x106
 2831 10a8 8A160000 		.4byte	0x168a
 2832 10ac 140E     		.2byte	0xe14
 2833 10ae 14       		.uleb128 0x14
 2834 10af 08080000 		.4byte	.LASF380
 2835 10b3 06       		.byte	0x6
 2836 10b4 0701     		.2byte	0x107
 2837 10b6 C3040000 		.4byte	0x4c3
 2838 10ba 000F     		.2byte	0xf00
 2839 10bc 14       		.uleb128 0x14
 2840 10bd 460D0000 		.4byte	.LASF381
 2841 10c1 06       		.byte	0x6
 2842 10c2 0801     		.2byte	0x108
 2843 10c4 C3040000 		.4byte	0x4c3
 2844 10c8 040F     		.2byte	0xf04
 2845 10ca 14       		.uleb128 0x14
 2846 10cb B90A0000 		.4byte	.LASF382
 2847 10cf 06       		.byte	0x6
 2848 10d0 0901     		.2byte	0x109
 2849 10d2 C3040000 		.4byte	0x4c3
 2850 10d6 080F     		.2byte	0xf08
 2851 10d8 14       		.uleb128 0x14
 2852 10d9 490A0000 		.4byte	.LASF383
 2853 10dd 06       		.byte	0x6
 2854 10de 0B01     		.2byte	0x10b
 2855 10e0 C3040000 		.4byte	0x4c3
 2856 10e4 0C0F     		.2byte	0xf0c
 2857 10e6 14       		.uleb128 0x14
 2858 10e7 8E4E0000 		.4byte	.LASF384
 2859 10eb 06       		.byte	0x6
 2860 10ec 0D01     		.2byte	0x10d
 2861 10ee 8F160000 		.4byte	0x168f
 2862 10f2 100F     		.2byte	0xf10
 2863 10f4 14       		.uleb128 0x14
 2864 10f5 042C0000 		.4byte	.LASF385
 2865 10f9 06       		.byte	0x6
 2866 10fa 0E01     		.2byte	0x10e
 2867 10fc A9160000 		.4byte	0x16a9
 2868 1100 500F     		.2byte	0xf50
 2869 1102 14       		.uleb128 0x14
 2870 1103 9F280000 		.4byte	.LASF386
ARM GAS  C:\Users\kateb\AppData\Local\Temp\cciDLH78.s 			page 83


 2871 1107 06       		.byte	0x6
 2872 1108 0F01     		.2byte	0x10f
 2873 110a C3040000 		.4byte	0x4c3
 2874 110e A00F     		.2byte	0xfa0
 2875 1110 14       		.uleb128 0x14
 2876 1111 0F2C0000 		.4byte	.LASF387
 2877 1115 06       		.byte	0x6
 2878 1116 1001     		.2byte	0x110
 2879 1118 C4160000 		.4byte	0x16c4
 2880 111c A40F     		.2byte	0xfa4
 2881 111e 14       		.uleb128 0x14
 2882 111f FC230000 		.4byte	.LASF388
 2883 1123 06       		.byte	0x6
 2884 1124 1101     		.2byte	0x111
 2885 1126 C3040000 		.4byte	0x4c3
 2886 112a 0018     		.2byte	0x1800
 2887 112c 14       		.uleb128 0x14
 2888 112d 19180000 		.4byte	.LASF389
 2889 1131 06       		.byte	0x6
 2890 1132 1201     		.2byte	0x112
 2891 1134 CE160000 		.4byte	0x16ce
 2892 1138 0418     		.2byte	0x1804
 2893 113a 14       		.uleb128 0x14
 2894 113b 13080000 		.4byte	.LASF390
 2895 113f 06       		.byte	0x6
 2896 1140 1301     		.2byte	0x113
 2897 1142 C3040000 		.4byte	0x4c3
 2898 1146 0028     		.2byte	0x2800
 2899 1148 14       		.uleb128 0x14
 2900 1149 392C0000 		.4byte	.LASF391
 2901 114d 06       		.byte	0x6
 2902 114e 1401     		.2byte	0x114
 2903 1150 E9160000 		.4byte	0x16e9
 2904 1154 0428     		.2byte	0x2804
 2905 1156 15       		.uleb128 0x15
 2906 1157 42440000 		.4byte	.LASF392
 2907 115b 06       		.byte	0x6
 2908 115c 1501     		.2byte	0x115
 2909 115e C3040000 		.4byte	0x4c3
 2910 1162 00280100 		.4byte	0x12800
 2911 1166 15       		.uleb128 0x15
 2912 1167 442C0000 		.4byte	.LASF393
 2913 116b 06       		.byte	0x6
 2914 116c 1601     		.2byte	0x116
 2915 116e F3160000 		.4byte	0x16f3
 2916 1172 04280100 		.4byte	0x12804
 2917 1176 15       		.uleb128 0x15
 2918 1177 30560000 		.4byte	.LASF394
 2919 117b 06       		.byte	0x6
 2920 117c 1701     		.2byte	0x117
 2921 117e C3040000 		.4byte	0x4c3
 2922 1182 80280100 		.4byte	0x12880
 2923 1186 15       		.uleb128 0x15
 2924 1187 8F180000 		.4byte	.LASF395
 2925 118b 06       		.byte	0x6
 2926 118c 1801     		.2byte	0x118
 2927 118e FD160000 		.4byte	0x16fd
ARM GAS  C:\Users\kateb\AppData\Local\Temp\cciDLH78.s 			page 84


 2928 1192 84280100 		.4byte	0x12884
 2929 1196 15       		.uleb128 0x15
 2930 1197 E00F0000 		.4byte	.LASF396
 2931 119b 06       		.byte	0x6
 2932 119c 1901     		.2byte	0x119
 2933 119e C3040000 		.4byte	0x4c3
 2934 11a2 00290100 		.4byte	0x12900
 2935 11a6 15       		.uleb128 0x15
 2936 11a7 F42D0000 		.4byte	.LASF397
 2937 11ab 06       		.byte	0x6
 2938 11ac 1A01     		.2byte	0x11a
 2939 11ae 07170000 		.4byte	0x1707
 2940 11b2 04290100 		.4byte	0x12904
 2941 11b6 15       		.uleb128 0x15
 2942 11b7 B4220000 		.4byte	.LASF398
 2943 11bb 06       		.byte	0x6
 2944 11bc 1B01     		.2byte	0x11b
 2945 11be C3040000 		.4byte	0x4c3
 2946 11c2 80290100 		.4byte	0x12980
 2947 11c6 15       		.uleb128 0x15
 2948 11c7 FF2D0000 		.4byte	.LASF399
 2949 11cb 06       		.byte	0x6
 2950 11cc 1C01     		.2byte	0x11c
 2951 11ce 22170000 		.4byte	0x1722
 2952 11d2 84290100 		.4byte	0x12984
 2953 11d6 15       		.uleb128 0x15
 2954 11d7 D63B0000 		.4byte	.LASF400
 2955 11db 06       		.byte	0x6
 2956 11dc 1D01     		.2byte	0x11d
 2957 11de C3040000 		.4byte	0x4c3
 2958 11e2 00400100 		.4byte	0x14000
 2959 11e6 15       		.uleb128 0x15
 2960 11e7 E7060000 		.4byte	.LASF401
 2961 11eb 06       		.byte	0x6
 2962 11ec 1E01     		.2byte	0x11e
 2963 11ee C3040000 		.4byte	0x4c3
 2964 11f2 04400100 		.4byte	0x14004
 2965 11f6 15       		.uleb128 0x15
 2966 11f7 C9430000 		.4byte	.LASF402
 2967 11fb 06       		.byte	0x6
 2968 11fc 1F01     		.2byte	0x11f
 2969 11fe C3040000 		.4byte	0x4c3
 2970 1202 08400100 		.4byte	0x14008
 2971 1206 15       		.uleb128 0x15
 2972 1207 4E420000 		.4byte	.LASF403
 2973 120b 06       		.byte	0x6
 2974 120c 2001     		.2byte	0x120
 2975 120e C3040000 		.4byte	0x4c3
 2976 1212 0C400100 		.4byte	0x1400c
 2977 1216 15       		.uleb128 0x15
 2978 1217 0A2E0000 		.4byte	.LASF404
 2979 121b 06       		.byte	0x6
 2980 121c 2101     		.2byte	0x121
 2981 121e 2C170000 		.4byte	0x172c
 2982 1222 10400100 		.4byte	0x14010
 2983 1226 15       		.uleb128 0x15
 2984 1227 E4340000 		.4byte	.LASF405
ARM GAS  C:\Users\kateb\AppData\Local\Temp\cciDLH78.s 			page 85


 2985 122b 06       		.byte	0x6
 2986 122c 2201     		.2byte	0x122
 2987 122e CD040000 		.4byte	0x4cd
 2988 1232 20400100 		.4byte	0x14020
 2989 1236 15       		.uleb128 0x15
 2990 1237 90260000 		.4byte	.LASF406
 2991 123b 06       		.byte	0x6
 2992 123c 2301     		.2byte	0x123
 2993 123e CD040000 		.4byte	0x4cd
 2994 1242 24400100 		.4byte	0x14024
 2995 1246 15       		.uleb128 0x15
 2996 1247 86540000 		.4byte	.LASF407
 2997 124b 06       		.byte	0x6
 2998 124c 2401     		.2byte	0x124
 2999 124e CD040000 		.4byte	0x4cd
 3000 1252 28400100 		.4byte	0x14028
 3001 1256 15       		.uleb128 0x15
 3002 1257 630F0000 		.4byte	.LASF408
 3003 125b 06       		.byte	0x6
 3004 125c 2501     		.2byte	0x125
 3005 125e CD040000 		.4byte	0x4cd
 3006 1262 2C400100 		.4byte	0x1402c
 3007 1266 15       		.uleb128 0x15
 3008 1267 4C080000 		.4byte	.LASF409
 3009 126b 06       		.byte	0x6
 3010 126c 2601     		.2byte	0x126
 3011 126e CD040000 		.4byte	0x4cd
 3012 1272 30400100 		.4byte	0x14030
 3013 1276 15       		.uleb128 0x15
 3014 1277 6A290000 		.4byte	.LASF410
 3015 127b 06       		.byte	0x6
 3016 127c 2701     		.2byte	0x127
 3017 127e CD040000 		.4byte	0x4cd
 3018 1282 34400100 		.4byte	0x14034
 3019 1286 15       		.uleb128 0x15
 3020 1287 8C4C0000 		.4byte	.LASF411
 3021 128b 06       		.byte	0x6
 3022 128c 2801     		.2byte	0x128
 3023 128e CD040000 		.4byte	0x4cd
 3024 1292 38400100 		.4byte	0x14038
 3025 1296 15       		.uleb128 0x15
 3026 1297 324B0000 		.4byte	.LASF412
 3027 129b 06       		.byte	0x6
 3028 129c 2901     		.2byte	0x129
 3029 129e CD040000 		.4byte	0x4cd
 3030 12a2 3C400100 		.4byte	0x1403c
 3031 12a6 15       		.uleb128 0x15
 3032 12a7 2B070000 		.4byte	.LASF413
 3033 12ab 06       		.byte	0x6
 3034 12ac 2A01     		.2byte	0x12a
 3035 12ae C3040000 		.4byte	0x4c3
 3036 12b2 40400100 		.4byte	0x14040
 3037 12b6 15       		.uleb128 0x15
 3038 12b7 5E4A0000 		.4byte	.LASF414
 3039 12bb 06       		.byte	0x6
 3040 12bc 2B01     		.2byte	0x12b
 3041 12be CD040000 		.4byte	0x4cd
ARM GAS  C:\Users\kateb\AppData\Local\Temp\cciDLH78.s 			page 86


 3042 12c2 44400100 		.4byte	0x14044
 3043 12c6 15       		.uleb128 0x15
 3044 12c7 7B2E0000 		.4byte	.LASF415
 3045 12cb 06       		.byte	0x6
 3046 12cc 2C01     		.2byte	0x12c
 3047 12ce C3040000 		.4byte	0x4c3
 3048 12d2 48400100 		.4byte	0x14048
 3049 12d6 15       		.uleb128 0x15
 3050 12d7 61150000 		.4byte	.LASF416
 3051 12db 06       		.byte	0x6
 3052 12dc 2D01     		.2byte	0x12d
 3053 12de CD040000 		.4byte	0x4cd
 3054 12e2 4C400100 		.4byte	0x1404c
 3055 12e6 15       		.uleb128 0x15
 3056 12e7 152E0000 		.4byte	.LASF417
 3057 12eb 06       		.byte	0x6
 3058 12ec 2E01     		.2byte	0x12e
 3059 12ee 36170000 		.4byte	0x1736
 3060 12f2 50400100 		.4byte	0x14050
 3061 12f6 15       		.uleb128 0x15
 3062 12f7 79100000 		.4byte	.LASF418
 3063 12fb 06       		.byte	0x6
 3064 12fc 2F01     		.2byte	0x12f
 3065 12fe CD040000 		.4byte	0x4cd
 3066 1302 80400100 		.4byte	0x14080
 3067 1306 15       		.uleb128 0x15
 3068 1307 7B1A0000 		.4byte	.LASF419
 3069 130b 06       		.byte	0x6
 3070 130c 3001     		.2byte	0x130
 3071 130e CD040000 		.4byte	0x4cd
 3072 1312 84400100 		.4byte	0x14084
 3073 1316 15       		.uleb128 0x15
 3074 1317 53460000 		.4byte	.LASF420
 3075 131b 06       		.byte	0x6
 3076 131c 3101     		.2byte	0x131
 3077 131e CD040000 		.4byte	0x4cd
 3078 1322 88400100 		.4byte	0x14088
 3079 1326 15       		.uleb128 0x15
 3080 1327 202E0000 		.4byte	.LASF421
 3081 132b 06       		.byte	0x6
 3082 132c 3201     		.2byte	0x132
 3083 132e 40170000 		.4byte	0x1740
 3084 1332 8C400100 		.4byte	0x1408c
 3085 1336 15       		.uleb128 0x15
 3086 1337 8E0D0000 		.4byte	.LASF422
 3087 133b 06       		.byte	0x6
 3088 133c 3301     		.2byte	0x133
 3089 133e 45170000 		.4byte	0x1745
 3090 1342 00410100 		.4byte	0x14100
 3091 1346 15       		.uleb128 0x15
 3092 1347 2B2E0000 		.4byte	.LASF423
 3093 134b 06       		.byte	0x6
 3094 134c 3401     		.2byte	0x134
 3095 134e 4F170000 		.4byte	0x174f
 3096 1352 40410100 		.4byte	0x14140
 3097 1356 15       		.uleb128 0x15
 3098 1357 C9510000 		.4byte	.LASF424
ARM GAS  C:\Users\kateb\AppData\Local\Temp\cciDLH78.s 			page 87


 3099 135b 06       		.byte	0x6
 3100 135c 3501     		.2byte	0x135
 3101 135e C3040000 		.4byte	0x4c3
 3102 1362 00420100 		.4byte	0x14200
 3103 1366 15       		.uleb128 0x15
 3104 1367 27510000 		.4byte	.LASF425
 3105 136b 06       		.byte	0x6
 3106 136c 3601     		.2byte	0x136
 3107 136e C3040000 		.4byte	0x4c3
 3108 1372 04420100 		.4byte	0x14204
 3109 1376 15       		.uleb128 0x15
 3110 1377 64030000 		.4byte	.LASF426
 3111 137b 06       		.byte	0x6
 3112 137c 3701     		.2byte	0x137
 3113 137e C3040000 		.4byte	0x4c3
 3114 1382 08420100 		.4byte	0x14208
 3115 1386 15       		.uleb128 0x15
 3116 1387 362E0000 		.4byte	.LASF427
 3117 138b 06       		.byte	0x6
 3118 138c 3801     		.2byte	0x138
 3119 138e CD040000 		.4byte	0x4cd
 3120 1392 0C420100 		.4byte	0x1420c
 3121 1396 15       		.uleb128 0x15
 3122 1397 2B3D0000 		.4byte	.LASF428
 3123 139b 06       		.byte	0x6
 3124 139c 3901     		.2byte	0x139
 3125 139e C3040000 		.4byte	0x4c3
 3126 13a2 10420100 		.4byte	0x14210
 3127 13a6 15       		.uleb128 0x15
 3128 13a7 C8420000 		.4byte	.LASF429
 3129 13ab 06       		.byte	0x6
 3130 13ac 3A01     		.2byte	0x13a
 3131 13ae C3040000 		.4byte	0x4c3
 3132 13b2 14420100 		.4byte	0x14214
 3133 13b6 15       		.uleb128 0x15
 3134 13b7 76400000 		.4byte	.LASF430
 3135 13bb 06       		.byte	0x6
 3136 13bc 3B01     		.2byte	0x13b
 3137 13be C3040000 		.4byte	0x4c3
 3138 13c2 18420100 		.4byte	0x14218
 3139 13c6 15       		.uleb128 0x15
 3140 13c7 412E0000 		.4byte	.LASF431
 3141 13cb 06       		.byte	0x6
 3142 13cc 3C01     		.2byte	0x13c
 3143 13ce CD040000 		.4byte	0x4cd
 3144 13d2 1C420100 		.4byte	0x1421c
 3145 13d6 15       		.uleb128 0x15
 3146 13d7 764C0000 		.4byte	.LASF432
 3147 13db 06       		.byte	0x6
 3148 13dc 3D01     		.2byte	0x13d
 3149 13de C3040000 		.4byte	0x4c3
 3150 13e2 20420100 		.4byte	0x14220
 3151 13e6 15       		.uleb128 0x15
 3152 13e7 FD030000 		.4byte	.LASF433
 3153 13eb 06       		.byte	0x6
 3154 13ec 3E01     		.2byte	0x13e
 3155 13ee C3040000 		.4byte	0x4c3
ARM GAS  C:\Users\kateb\AppData\Local\Temp\cciDLH78.s 			page 88


 3156 13f2 24420100 		.4byte	0x14224
 3157 13f6 15       		.uleb128 0x15
 3158 13f7 31000000 		.4byte	.LASF434
 3159 13fb 06       		.byte	0x6
 3160 13fc 3F01     		.2byte	0x13f
 3161 13fe C3040000 		.4byte	0x4c3
 3162 1402 28420100 		.4byte	0x14228
 3163 1406 15       		.uleb128 0x15
 3164 1407 FF1A0000 		.4byte	.LASF435
 3165 140b 06       		.byte	0x6
 3166 140c 4001     		.2byte	0x140
 3167 140e CD040000 		.4byte	0x4cd
 3168 1412 2C420100 		.4byte	0x1422c
 3169 1416 15       		.uleb128 0x15
 3170 1417 F9370000 		.4byte	.LASF436
 3171 141b 06       		.byte	0x6
 3172 141c 4101     		.2byte	0x141
 3173 141e C3040000 		.4byte	0x4c3
 3174 1422 30420100 		.4byte	0x14230
 3175 1426 15       		.uleb128 0x15
 3176 1427 ED200000 		.4byte	.LASF437
 3177 142b 06       		.byte	0x6
 3178 142c 4201     		.2byte	0x142
 3179 142e C3040000 		.4byte	0x4c3
 3180 1432 34420100 		.4byte	0x14234
 3181 1436 15       		.uleb128 0x15
 3182 1437 66510000 		.4byte	.LASF438
 3183 143b 06       		.byte	0x6
 3184 143c 4301     		.2byte	0x143
 3185 143e C3040000 		.4byte	0x4c3
 3186 1442 38420100 		.4byte	0x14238
 3187 1446 15       		.uleb128 0x15
 3188 1447 0A1B0000 		.4byte	.LASF439
 3189 144b 06       		.byte	0x6
 3190 144c 4401     		.2byte	0x144
 3191 144e 69170000 		.4byte	0x1769
 3192 1452 3C420100 		.4byte	0x1423c
 3193 1456 15       		.uleb128 0x15
 3194 1457 81160000 		.4byte	.LASF440
 3195 145b 06       		.byte	0x6
 3196 145c 4501     		.2byte	0x145
 3197 145e C3040000 		.4byte	0x4c3
 3198 1462 00440100 		.4byte	0x14400
 3199 1466 15       		.uleb128 0x15
 3200 1467 B5430000 		.4byte	.LASF441
 3201 146b 06       		.byte	0x6
 3202 146c 4601     		.2byte	0x146
 3203 146e C3040000 		.4byte	0x4c3
 3204 1472 04440100 		.4byte	0x14404
 3205 1476 15       		.uleb128 0x15
 3206 1477 350A0000 		.4byte	.LASF442
 3207 147b 06       		.byte	0x6
 3208 147c 4701     		.2byte	0x147
 3209 147e C3040000 		.4byte	0x4c3
 3210 1482 08440100 		.4byte	0x14408
 3211 1486 15       		.uleb128 0x15
 3212 1487 A32F0000 		.4byte	.LASF443
ARM GAS  C:\Users\kateb\AppData\Local\Temp\cciDLH78.s 			page 89


 3213 148b 06       		.byte	0x6
 3214 148c 4801     		.2byte	0x148
 3215 148e CD040000 		.4byte	0x4cd
 3216 1492 0C440100 		.4byte	0x1440c
 3217 1496 15       		.uleb128 0x15
 3218 1497 FF150000 		.4byte	.LASF444
 3219 149b 06       		.byte	0x6
 3220 149c 4901     		.2byte	0x149
 3221 149e C3040000 		.4byte	0x4c3
 3222 14a2 10440100 		.4byte	0x14410
 3223 14a6 15       		.uleb128 0x15
 3224 14a7 CE4A0000 		.4byte	.LASF445
 3225 14ab 06       		.byte	0x6
 3226 14ac 4B01     		.2byte	0x14b
 3227 14ae C3040000 		.4byte	0x4c3
 3228 14b2 14440100 		.4byte	0x14414
 3229 14b6 15       		.uleb128 0x15
 3230 14b7 AE2F0000 		.4byte	.LASF446
 3231 14bb 06       		.byte	0x6
 3232 14bc 4D01     		.2byte	0x14d
 3233 14be 73170000 		.4byte	0x1773
 3234 14c2 18440100 		.4byte	0x14418
 3235 14c6 15       		.uleb128 0x15
 3236 14c7 AB060000 		.4byte	.LASF447
 3237 14cb 06       		.byte	0x6
 3238 14cc 4E01     		.2byte	0x14e
 3239 14ce C3040000 		.4byte	0x4c3
 3240 14d2 20440100 		.4byte	0x14420
 3241 14d6 15       		.uleb128 0x15
 3242 14d7 59290000 		.4byte	.LASF448
 3243 14db 06       		.byte	0x6
 3244 14dc 5001     		.2byte	0x150
 3245 14de CD040000 		.4byte	0x4cd
 3246 14e2 24440100 		.4byte	0x14424
 3247 14e6 15       		.uleb128 0x15
 3248 14e7 03340000 		.4byte	.LASF449
 3249 14eb 06       		.byte	0x6
 3250 14ec 5101     		.2byte	0x151
 3251 14ee CD040000 		.4byte	0x4cd
 3252 14f2 28440100 		.4byte	0x14428
 3253 14f6 15       		.uleb128 0x15
 3254 14f7 B92F0000 		.4byte	.LASF450
 3255 14fb 06       		.byte	0x6
 3256 14fc 5201     		.2byte	0x152
 3257 14fe CD040000 		.4byte	0x4cd
 3258 1502 2C440100 		.4byte	0x1442c
 3259 1506 15       		.uleb128 0x15
 3260 1507 77280000 		.4byte	.LASF451
 3261 150b 06       		.byte	0x6
 3262 150c 5301     		.2byte	0x153
 3263 150e 7D170000 		.4byte	0x177d
 3264 1512 30440100 		.4byte	0x14430
 3265 1516 15       		.uleb128 0x15
 3266 1517 C42F0000 		.4byte	.LASF452
 3267 151b 06       		.byte	0x6
 3268 151c 5401     		.2byte	0x154
 3269 151e 97170000 		.4byte	0x1797
ARM GAS  C:\Users\kateb\AppData\Local\Temp\cciDLH78.s 			page 90


 3270 1522 50440100 		.4byte	0x14450
 3271 1526 15       		.uleb128 0x15
 3272 1527 F2090000 		.4byte	.LASF453
 3273 152b 06       		.byte	0x6
 3274 152c 5501     		.2byte	0x155
 3275 152e C3040000 		.4byte	0x4c3
 3276 1532 00480100 		.4byte	0x14800
 3277 1536 15       		.uleb128 0x15
 3278 1537 CF2F0000 		.4byte	.LASF454
 3279 153b 06       		.byte	0x6
 3280 153c 5601     		.2byte	0x156
 3281 153e A1170000 		.4byte	0x17a1
 3282 1542 04480100 		.4byte	0x14804
 3283 1546 15       		.uleb128 0x15
 3284 1547 B4280000 		.4byte	.LASF455
 3285 154b 06       		.byte	0x6
 3286 154c 5701     		.2byte	0x157
 3287 154e C3040000 		.4byte	0x4c3
 3288 1552 C0480100 		.4byte	0x148c0
 3289 1556 15       		.uleb128 0x15
 3290 1557 DA2F0000 		.4byte	.LASF456
 3291 155b 06       		.byte	0x6
 3292 155c 5801     		.2byte	0x158
 3293 155e AB170000 		.4byte	0x17ab
 3294 1562 C4480100 		.4byte	0x148c4
 3295 1566 15       		.uleb128 0x15
 3296 1567 EB070000 		.4byte	.LASF457
 3297 156b 06       		.byte	0x6
 3298 156c 5901     		.2byte	0x159
 3299 156e C3040000 		.4byte	0x4c3
 3300 1572 80490100 		.4byte	0x14980
 3301 1576 15       		.uleb128 0x15
 3302 1577 E52F0000 		.4byte	.LASF458
 3303 157b 06       		.byte	0x6
 3304 157c 5B01     		.2byte	0x15b
 3305 157e B5170000 		.4byte	0x17b5
 3306 1582 84490100 		.4byte	0x14984
 3307 1586 15       		.uleb128 0x15
 3308 1587 5F230000 		.4byte	.LASF459
 3309 158b 06       		.byte	0x6
 3310 158c 5C01     		.2byte	0x15c
 3311 158e C3040000 		.4byte	0x4c3
 3312 1592 404A0100 		.4byte	0x14a40
 3313 1596 15       		.uleb128 0x15
 3314 1597 F02F0000 		.4byte	.LASF460
 3315 159b 06       		.byte	0x6
 3316 159c 5E01     		.2byte	0x15e
 3317 159e BF170000 		.4byte	0x17bf
 3318 15a2 444A0100 		.4byte	0x14a44
 3319 15a6 15       		.uleb128 0x15
 3320 15a7 BA3F0000 		.4byte	.LASF461
 3321 15ab 06       		.byte	0x6
 3322 15ac 5F01     		.2byte	0x15f
 3323 15ae C3040000 		.4byte	0x4c3
 3324 15b2 004B0100 		.4byte	0x14b00
 3325 15b6 15       		.uleb128 0x15
 3326 15b7 FB2F0000 		.4byte	.LASF462
ARM GAS  C:\Users\kateb\AppData\Local\Temp\cciDLH78.s 			page 91


 3327 15bb 06       		.byte	0x6
 3328 15bc 6001     		.2byte	0x160
 3329 15be DA170000 		.4byte	0x17da
 3330 15c2 044B0100 		.4byte	0x14b04
 3331 15c6 00       		.byte	0
 3332 15c7 0B       		.uleb128 0xb
 3333 15c8 D2040000 		.4byte	0x4d2
 3334 15cc 0C       		.uleb128 0xc
 3335 15cd C7150000 		.4byte	0x15c7
 3336 15d1 0B       		.uleb128 0xb
 3337 15d2 53050000 		.4byte	0x553
 3338 15d6 0C       		.uleb128 0xc
 3339 15d7 D1150000 		.4byte	0x15d1
 3340 15db 0D       		.uleb128 0xd
 3341 15dc C3040000 		.4byte	0x4c3
 3342 15e0 EB150000 		.4byte	0x15eb
 3343 15e4 0E       		.uleb128 0xe
 3344 15e5 A9000000 		.4byte	0xa9
 3345 15e9 04       		.byte	0x4
 3346 15ea 00       		.byte	0
 3347 15eb 0B       		.uleb128 0xb
 3348 15ec DB150000 		.4byte	0x15db
 3349 15f0 0B       		.uleb128 0xb
 3350 15f1 53050000 		.4byte	0x553
 3351 15f5 0C       		.uleb128 0xc
 3352 15f6 F0150000 		.4byte	0x15f0
 3353 15fa 0B       		.uleb128 0xb
 3354 15fb D2040000 		.4byte	0x4d2
 3355 15ff 0C       		.uleb128 0xc
 3356 1600 FA150000 		.4byte	0x15fa
 3357 1604 0B       		.uleb128 0xb
 3358 1605 53050000 		.4byte	0x553
 3359 1609 0C       		.uleb128 0xc
 3360 160a 04160000 		.4byte	0x1604
 3361 160e 0B       		.uleb128 0xb
 3362 160f F2040000 		.4byte	0x4f2
 3363 1613 0C       		.uleb128 0xc
 3364 1614 0E160000 		.4byte	0x160e
 3365 1618 0B       		.uleb128 0xb
 3366 1619 D2040000 		.4byte	0x4d2
 3367 161d 0C       		.uleb128 0xc
 3368 161e 18160000 		.4byte	0x1618
 3369 1622 0B       		.uleb128 0xb
 3370 1623 D2040000 		.4byte	0x4d2
 3371 1627 0C       		.uleb128 0xc
 3372 1628 22160000 		.4byte	0x1622
 3373 162c 0D       		.uleb128 0xd
 3374 162d CD040000 		.4byte	0x4cd
 3375 1631 3C160000 		.4byte	0x163c
 3376 1635 0E       		.uleb128 0xe
 3377 1636 A9000000 		.4byte	0xa9
 3378 163a 4D       		.byte	0x4d
 3379 163b 00       		.byte	0
 3380 163c 0B       		.uleb128 0xb
 3381 163d 2C160000 		.4byte	0x162c
 3382 1641 0C       		.uleb128 0xc
 3383 1642 3C160000 		.4byte	0x163c
ARM GAS  C:\Users\kateb\AppData\Local\Temp\cciDLH78.s 			page 92


 3384 1646 0B       		.uleb128 0xb
 3385 1647 53050000 		.4byte	0x553
 3386 164b 0C       		.uleb128 0xc
 3387 164c 46160000 		.4byte	0x1646
 3388 1650 0D       		.uleb128 0xd
 3389 1651 CD040000 		.4byte	0x4cd
 3390 1655 61160000 		.4byte	0x1661
 3391 1659 0F       		.uleb128 0xf
 3392 165a A9000000 		.4byte	0xa9
 3393 165e 8401     		.2byte	0x184
 3394 1660 00       		.byte	0
 3395 1661 0B       		.uleb128 0xb
 3396 1662 50160000 		.4byte	0x1650
 3397 1666 0C       		.uleb128 0xc
 3398 1667 61160000 		.4byte	0x1661
 3399 166b 0D       		.uleb128 0xd
 3400 166c CD040000 		.4byte	0x4cd
 3401 1670 7B160000 		.4byte	0x167b
 3402 1674 0E       		.uleb128 0xe
 3403 1675 A9000000 		.4byte	0xa9
 3404 1679 F3       		.byte	0xf3
 3405 167a 00       		.byte	0
 3406 167b 0B       		.uleb128 0xb
 3407 167c 6B160000 		.4byte	0x166b
 3408 1680 0C       		.uleb128 0xc
 3409 1681 7B160000 		.4byte	0x167b
 3410 1685 0B       		.uleb128 0xb
 3411 1686 B4050000 		.4byte	0x5b4
 3412 168a 0C       		.uleb128 0xc
 3413 168b 85160000 		.4byte	0x1685
 3414 168f 0B       		.uleb128 0xb
 3415 1690 12050000 		.4byte	0x512
 3416 1694 0D       		.uleb128 0xd
 3417 1695 CD040000 		.4byte	0x4cd
 3418 1699 A4160000 		.4byte	0x16a4
 3419 169d 0E       		.uleb128 0xe
 3420 169e A9000000 		.4byte	0xa9
 3421 16a2 13       		.byte	0x13
 3422 16a3 00       		.byte	0
 3423 16a4 0B       		.uleb128 0xb
 3424 16a5 94160000 		.4byte	0x1694
 3425 16a9 0C       		.uleb128 0xc
 3426 16aa A4160000 		.4byte	0x16a4
 3427 16ae 0D       		.uleb128 0xd
 3428 16af CD040000 		.4byte	0x4cd
 3429 16b3 BF160000 		.4byte	0x16bf
 3430 16b7 0F       		.uleb128 0xf
 3431 16b8 A9000000 		.4byte	0xa9
 3432 16bc 1602     		.2byte	0x216
 3433 16be 00       		.byte	0
 3434 16bf 0B       		.uleb128 0xb
 3435 16c0 AE160000 		.4byte	0x16ae
 3436 16c4 0C       		.uleb128 0xc
 3437 16c5 BF160000 		.4byte	0x16bf
 3438 16c9 0B       		.uleb128 0xb
 3439 16ca 42050000 		.4byte	0x542
 3440 16ce 0C       		.uleb128 0xc
ARM GAS  C:\Users\kateb\AppData\Local\Temp\cciDLH78.s 			page 93


 3441 16cf C9160000 		.4byte	0x16c9
 3442 16d3 0D       		.uleb128 0xd
 3443 16d4 CD040000 		.4byte	0x4cd
 3444 16d8 E4160000 		.4byte	0x16e4
 3445 16dc 0F       		.uleb128 0xf
 3446 16dd A9000000 		.4byte	0xa9
 3447 16e1 FE3F     		.2byte	0x3ffe
 3448 16e3 00       		.byte	0
 3449 16e4 0B       		.uleb128 0xb
 3450 16e5 D3160000 		.4byte	0x16d3
 3451 16e9 0C       		.uleb128 0xc
 3452 16ea E4160000 		.4byte	0x16e4
 3453 16ee 0B       		.uleb128 0xb
 3454 16ef 63050000 		.4byte	0x563
 3455 16f3 0C       		.uleb128 0xc
 3456 16f4 EE160000 		.4byte	0x16ee
 3457 16f8 0B       		.uleb128 0xb
 3458 16f9 63050000 		.4byte	0x563
 3459 16fd 0C       		.uleb128 0xc
 3460 16fe F8160000 		.4byte	0x16f8
 3461 1702 0B       		.uleb128 0xb
 3462 1703 63050000 		.4byte	0x563
 3463 1707 0C       		.uleb128 0xc
 3464 1708 02170000 		.4byte	0x1702
 3465 170c 0D       		.uleb128 0xd
 3466 170d CD040000 		.4byte	0x4cd
 3467 1711 1D170000 		.4byte	0x171d
 3468 1715 0F       		.uleb128 0xf
 3469 1716 A9000000 		.4byte	0xa9
 3470 171a 9E05     		.2byte	0x59e
 3471 171c 00       		.byte	0
 3472 171d 0B       		.uleb128 0xb
 3473 171e 0C170000 		.4byte	0x170c
 3474 1722 0C       		.uleb128 0xc
 3475 1723 1D170000 		.4byte	0x171d
 3476 1727 0B       		.uleb128 0xb
 3477 1728 E2040000 		.4byte	0x4e2
 3478 172c 0C       		.uleb128 0xc
 3479 172d 27170000 		.4byte	0x1727
 3480 1731 0B       		.uleb128 0xb
 3481 1732 73050000 		.4byte	0x573
 3482 1736 0C       		.uleb128 0xc
 3483 1737 31170000 		.4byte	0x1731
 3484 173b 0B       		.uleb128 0xb
 3485 173c 94050000 		.4byte	0x594
 3486 1740 0C       		.uleb128 0xc
 3487 1741 3B170000 		.4byte	0x173b
 3488 1745 0B       		.uleb128 0xb
 3489 1746 12050000 		.4byte	0x512
 3490 174a 0B       		.uleb128 0xb
 3491 174b 22050000 		.4byte	0x522
 3492 174f 0C       		.uleb128 0xc
 3493 1750 4A170000 		.4byte	0x174a
 3494 1754 0D       		.uleb128 0xd
 3495 1755 CD040000 		.4byte	0x4cd
 3496 1759 64170000 		.4byte	0x1764
 3497 175d 0E       		.uleb128 0xe
ARM GAS  C:\Users\kateb\AppData\Local\Temp\cciDLH78.s 			page 94


 3498 175e A9000000 		.4byte	0xa9
 3499 1762 70       		.byte	0x70
 3500 1763 00       		.byte	0
 3501 1764 0B       		.uleb128 0xb
 3502 1765 54170000 		.4byte	0x1754
 3503 1769 0C       		.uleb128 0xc
 3504 176a 64170000 		.4byte	0x1764
 3505 176e 0B       		.uleb128 0xb
 3506 176f D2040000 		.4byte	0x4d2
 3507 1773 0C       		.uleb128 0xc
 3508 1774 6E170000 		.4byte	0x176e
 3509 1778 0B       		.uleb128 0xb
 3510 1779 02050000 		.4byte	0x502
 3511 177d 0C       		.uleb128 0xc
 3512 177e 78170000 		.4byte	0x1778
 3513 1782 0D       		.uleb128 0xd
 3514 1783 CD040000 		.4byte	0x4cd
 3515 1787 92170000 		.4byte	0x1792
 3516 178b 0E       		.uleb128 0xe
 3517 178c A9000000 		.4byte	0xa9
 3518 1790 EB       		.byte	0xeb
 3519 1791 00       		.byte	0
 3520 1792 0B       		.uleb128 0xb
 3521 1793 82170000 		.4byte	0x1782
 3522 1797 0C       		.uleb128 0xc
 3523 1798 92170000 		.4byte	0x1792
 3524 179c 0B       		.uleb128 0xb
 3525 179d D4050000 		.4byte	0x5d4
 3526 17a1 0C       		.uleb128 0xc
 3527 17a2 9C170000 		.4byte	0x179c
 3528 17a6 0B       		.uleb128 0xb
 3529 17a7 D4050000 		.4byte	0x5d4
 3530 17ab 0C       		.uleb128 0xc
 3531 17ac A6170000 		.4byte	0x17a6
 3532 17b0 0B       		.uleb128 0xb
 3533 17b1 D4050000 		.4byte	0x5d4
 3534 17b5 0C       		.uleb128 0xc
 3535 17b6 B0170000 		.4byte	0x17b0
 3536 17ba 0B       		.uleb128 0xb
 3537 17bb D4050000 		.4byte	0x5d4
 3538 17bf 0C       		.uleb128 0xc
 3539 17c0 BA170000 		.4byte	0x17ba
 3540 17c4 0D       		.uleb128 0xd
 3541 17c5 CD040000 		.4byte	0x4cd
 3542 17c9 D5170000 		.4byte	0x17d5
 3543 17cd 0F       		.uleb128 0xf
 3544 17ce A9000000 		.4byte	0xa9
 3545 17d2 3E25     		.2byte	0x253e
 3546 17d4 00       		.byte	0
 3547 17d5 0B       		.uleb128 0xb
 3548 17d6 C4170000 		.4byte	0x17c4
 3549 17da 0C       		.uleb128 0xc
 3550 17db D5170000 		.4byte	0x17d5
 3551 17df 16       		.uleb128 0x16
 3552 17e0 7C030000 		.4byte	.LASF463
 3553 17e4 06       		.byte	0x6
 3554 17e5 6101     		.2byte	0x161
ARM GAS  C:\Users\kateb\AppData\Local\Temp\cciDLH78.s 			page 95


 3555 17e7 03080000 		.4byte	0x803
 3556 17eb 17       		.uleb128 0x17
 3557 17ec 0010     		.2byte	0x1000
 3558 17ee 06       		.byte	0x6
 3559 17ef 6601     		.2byte	0x166
 3560 17f1 001B0000 		.4byte	0x1b00
 3561 17f5 18       		.uleb128 0x18
 3562 17f6 D9490000 		.4byte	.LASF182
 3563 17fa 06       		.byte	0x6
 3564 17fb 6701     		.2byte	0x167
 3565 17fd 051B0000 		.4byte	0x1b05
 3566 1801 00       		.byte	0
 3567 1802 18       		.uleb128 0x18
 3568 1803 AC350000 		.4byte	.LASF464
 3569 1807 06       		.byte	0x6
 3570 1808 6801     		.2byte	0x168
 3571 180a C3040000 		.4byte	0x4c3
 3572 180e 60       		.byte	0x60
 3573 180f 18       		.uleb128 0x18
 3574 1810 F51C0000 		.4byte	.LASF465
 3575 1814 06       		.byte	0x6
 3576 1815 6901     		.2byte	0x169
 3577 1817 C3040000 		.4byte	0x4c3
 3578 181b 64       		.byte	0x64
 3579 181c 18       		.uleb128 0x18
 3580 181d E83A0000 		.4byte	.LASF466
 3581 1821 06       		.byte	0x6
 3582 1822 6A01     		.2byte	0x16a
 3583 1824 C3040000 		.4byte	0x4c3
 3584 1828 68       		.byte	0x68
 3585 1829 18       		.uleb128 0x18
 3586 182a 85290000 		.4byte	.LASF185
 3587 182e 06       		.byte	0x6
 3588 182f 6B01     		.2byte	0x16b
 3589 1831 C3040000 		.4byte	0x4c3
 3590 1835 6C       		.byte	0x6c
 3591 1836 18       		.uleb128 0x18
 3592 1837 9E1B0000 		.4byte	.LASF467
 3593 183b 06       		.byte	0x6
 3594 183c 6C01     		.2byte	0x16c
 3595 183e C3040000 		.4byte	0x4c3
 3596 1842 70       		.byte	0x70
 3597 1843 18       		.uleb128 0x18
 3598 1844 4F090000 		.4byte	.LASF468
 3599 1848 06       		.byte	0x6
 3600 1849 6D01     		.2byte	0x16d
 3601 184b C3040000 		.4byte	0x4c3
 3602 184f 74       		.byte	0x74
 3603 1850 18       		.uleb128 0x18
 3604 1851 A3010000 		.4byte	.LASF469
 3605 1855 06       		.byte	0x6
 3606 1856 6E01     		.2byte	0x16e
 3607 1858 C3040000 		.4byte	0x4c3
 3608 185c 78       		.byte	0x78
 3609 185d 18       		.uleb128 0x18
 3610 185e C7450000 		.4byte	.LASF192
 3611 1862 06       		.byte	0x6
ARM GAS  C:\Users\kateb\AppData\Local\Temp\cciDLH78.s 			page 96


 3612 1863 6F01     		.2byte	0x16f
 3613 1865 CD040000 		.4byte	0x4cd
 3614 1869 7C       		.byte	0x7c
 3615 186a 18       		.uleb128 0x18
 3616 186b 2C050000 		.4byte	.LASF470
 3617 186f 06       		.byte	0x6
 3618 1870 7001     		.2byte	0x170
 3619 1872 CD040000 		.4byte	0x4cd
 3620 1876 80       		.byte	0x80
 3621 1877 18       		.uleb128 0x18
 3622 1878 800B0000 		.4byte	.LASF471
 3623 187c 06       		.byte	0x6
 3624 187d 7201     		.2byte	0x172
 3625 187f CD040000 		.4byte	0x4cd
 3626 1883 84       		.byte	0x84
 3627 1884 18       		.uleb128 0x18
 3628 1885 D1450000 		.4byte	.LASF195
 3629 1889 06       		.byte	0x6
 3630 188a 7301     		.2byte	0x173
 3631 188c 0F1B0000 		.4byte	0x1b0f
 3632 1890 88       		.byte	0x88
 3633 1891 18       		.uleb128 0x18
 3634 1892 EE1C0000 		.4byte	.LASF472
 3635 1896 06       		.byte	0x6
 3636 1897 7401     		.2byte	0x174
 3637 1899 C3040000 		.4byte	0x4c3
 3638 189d A0       		.byte	0xa0
 3639 189e 18       		.uleb128 0x18
 3640 189f 801C0000 		.4byte	.LASF473
 3641 18a3 06       		.byte	0x6
 3642 18a4 7501     		.2byte	0x175
 3643 18a6 C3040000 		.4byte	0x4c3
 3644 18aa A4       		.byte	0xa4
 3645 18ab 18       		.uleb128 0x18
 3646 18ac 6D080000 		.4byte	.LASF474
 3647 18b0 06       		.byte	0x6
 3648 18b1 7601     		.2byte	0x176
 3649 18b3 C3040000 		.4byte	0x4c3
 3650 18b7 A8       		.byte	0xa8
 3651 18b8 18       		.uleb128 0x18
 3652 18b9 7B080000 		.4byte	.LASF475
 3653 18bd 06       		.byte	0x6
 3654 18be 7701     		.2byte	0x177
 3655 18c0 C3040000 		.4byte	0x4c3
 3656 18c4 AC       		.byte	0xac
 3657 18c5 18       		.uleb128 0x18
 3658 18c6 40110000 		.4byte	.LASF476
 3659 18ca 06       		.byte	0x6
 3660 18cb 7801     		.2byte	0x178
 3661 18cd C3040000 		.4byte	0x4c3
 3662 18d1 B0       		.byte	0xb0
 3663 18d2 18       		.uleb128 0x18
 3664 18d3 38440000 		.4byte	.LASF477
 3665 18d7 06       		.byte	0x6
 3666 18d8 7901     		.2byte	0x179
 3667 18da CD040000 		.4byte	0x4cd
 3668 18de B4       		.byte	0xb4
ARM GAS  C:\Users\kateb\AppData\Local\Temp\cciDLH78.s 			page 97


 3669 18df 18       		.uleb128 0x18
 3670 18e0 C5390000 		.4byte	.LASF478
 3671 18e4 06       		.byte	0x6
 3672 18e5 7A01     		.2byte	0x17a
 3673 18e7 CD040000 		.4byte	0x4cd
 3674 18eb B8       		.byte	0xb8
 3675 18ec 18       		.uleb128 0x18
 3676 18ed DB450000 		.4byte	.LASF219
 3677 18f1 06       		.byte	0x6
 3678 18f2 7B01     		.2byte	0x17b
 3679 18f4 CD040000 		.4byte	0x4cd
 3680 18f8 BC       		.byte	0xbc
 3681 18f9 18       		.uleb128 0x18
 3682 18fa AB4F0000 		.4byte	.LASF479
 3683 18fe 06       		.byte	0x6
 3684 18ff 7C01     		.2byte	0x17c
 3685 1901 C3040000 		.4byte	0x4c3
 3686 1905 C0       		.byte	0xc0
 3687 1906 18       		.uleb128 0x18
 3688 1907 3F0F0000 		.4byte	.LASF480
 3689 190b 06       		.byte	0x6
 3690 190c 7D01     		.2byte	0x17d
 3691 190e C3040000 		.4byte	0x4c3
 3692 1912 C4       		.byte	0xc4
 3693 1913 18       		.uleb128 0x18
 3694 1914 E5450000 		.4byte	.LASF225
 3695 1918 06       		.byte	0x6
 3696 1919 7E01     		.2byte	0x17e
 3697 191b 191B0000 		.4byte	0x1b19
 3698 191f C8       		.byte	0xc8
 3699 1920 18       		.uleb128 0x18
 3700 1921 C5120000 		.4byte	.LASF481
 3701 1925 06       		.byte	0x6
 3702 1926 7F01     		.2byte	0x17f
 3703 1928 C3040000 		.4byte	0x4c3
 3704 192c D0       		.byte	0xd0
 3705 192d 18       		.uleb128 0x18
 3706 192e 45010000 		.4byte	.LASF482
 3707 1932 06       		.byte	0x6
 3708 1933 8001     		.2byte	0x180
 3709 1935 C3040000 		.4byte	0x4c3
 3710 1939 D4       		.byte	0xd4
 3711 193a 18       		.uleb128 0x18
 3712 193b 55010000 		.4byte	.LASF483
 3713 193f 06       		.byte	0x6
 3714 1940 8201     		.2byte	0x182
 3715 1942 C3040000 		.4byte	0x4c3
 3716 1946 D8       		.byte	0xd8
 3717 1947 18       		.uleb128 0x18
 3718 1948 65010000 		.4byte	.LASF484
 3719 194c 06       		.byte	0x6
 3720 194d 8301     		.2byte	0x183
 3721 194f C3040000 		.4byte	0x4c3
 3722 1953 DC       		.byte	0xdc
 3723 1954 18       		.uleb128 0x18
 3724 1955 1B450000 		.4byte	.LASF485
 3725 1959 06       		.byte	0x6
ARM GAS  C:\Users\kateb\AppData\Local\Temp\cciDLH78.s 			page 98


 3726 195a 8401     		.2byte	0x184
 3727 195c CD040000 		.4byte	0x4cd
 3728 1960 E0       		.byte	0xe0
 3729 1961 18       		.uleb128 0x18
 3730 1962 03450000 		.4byte	.LASF486
 3731 1966 06       		.byte	0x6
 3732 1967 8501     		.2byte	0x185
 3733 1969 CD040000 		.4byte	0x4cd
 3734 196d E4       		.byte	0xe4
 3735 196e 18       		.uleb128 0x18
 3736 196f 244B0000 		.4byte	.LASF487
 3737 1973 06       		.byte	0x6
 3738 1974 8601     		.2byte	0x186
 3739 1976 C3040000 		.4byte	0x4c3
 3740 197a E8       		.byte	0xe8
 3741 197b 18       		.uleb128 0x18
 3742 197c 164B0000 		.4byte	.LASF488
 3743 1980 06       		.byte	0x6
 3744 1981 8701     		.2byte	0x187
 3745 1983 C3040000 		.4byte	0x4c3
 3746 1987 EC       		.byte	0xec
 3747 1988 18       		.uleb128 0x18
 3748 1989 1E400000 		.4byte	.LASF489
 3749 198d 06       		.byte	0x6
 3750 198e 8801     		.2byte	0x188
 3751 1990 C3040000 		.4byte	0x4c3
 3752 1994 F0       		.byte	0xf0
 3753 1995 18       		.uleb128 0x18
 3754 1996 572B0000 		.4byte	.LASF490
 3755 199a 06       		.byte	0x6
 3756 199b 8901     		.2byte	0x189
 3757 199d CD040000 		.4byte	0x4cd
 3758 19a1 F4       		.byte	0xf4
 3759 19a2 18       		.uleb128 0x18
 3760 19a3 EF450000 		.4byte	.LASF231
 3761 19a7 06       		.byte	0x6
 3762 19a8 8A01     		.2byte	0x18a
 3763 19aa 231B0000 		.4byte	0x1b23
 3764 19ae F8       		.byte	0xf8
 3765 19af 14       		.uleb128 0x14
 3766 19b0 BA110000 		.4byte	.LASF491
 3767 19b4 06       		.byte	0x6
 3768 19b5 8B01     		.2byte	0x18b
 3769 19b7 C3040000 		.4byte	0x4c3
 3770 19bb 0001     		.2byte	0x100
 3771 19bd 14       		.uleb128 0x14
 3772 19be CA110000 		.4byte	.LASF492
 3773 19c2 06       		.byte	0x6
 3774 19c3 8C01     		.2byte	0x18c
 3775 19c5 C3040000 		.4byte	0x4c3
 3776 19c9 0401     		.2byte	0x104
 3777 19cb 14       		.uleb128 0x14
 3778 19cc 74410000 		.4byte	.LASF493
 3779 19d0 06       		.byte	0x6
 3780 19d1 8D01     		.2byte	0x18d
 3781 19d3 C3040000 		.4byte	0x4c3
 3782 19d7 0801     		.2byte	0x108
ARM GAS  C:\Users\kateb\AppData\Local\Temp\cciDLH78.s 			page 99


 3783 19d9 14       		.uleb128 0x14
 3784 19da 0E3B0000 		.4byte	.LASF494
 3785 19de 06       		.byte	0x6
 3786 19df 8E01     		.2byte	0x18e
 3787 19e1 C3040000 		.4byte	0x4c3
 3788 19e5 0C01     		.2byte	0x10c
 3789 19e7 14       		.uleb128 0x14
 3790 19e8 712C0000 		.4byte	.LASF495
 3791 19ec 06       		.byte	0x6
 3792 19ed 8F01     		.2byte	0x18f
 3793 19ef 281B0000 		.4byte	0x1b28
 3794 19f3 1001     		.2byte	0x110
 3795 19f5 14       		.uleb128 0x14
 3796 19f6 421F0000 		.4byte	.LASF496
 3797 19fa 06       		.byte	0x6
 3798 19fb 9001     		.2byte	0x190
 3799 19fd C3040000 		.4byte	0x4c3
 3800 1a01 2001     		.2byte	0x120
 3801 1a03 14       		.uleb128 0x14
 3802 1a04 96280000 		.4byte	.LASF497
 3803 1a08 06       		.byte	0x6
 3804 1a09 9101     		.2byte	0x191
 3805 1a0b CD040000 		.4byte	0x4cd
 3806 1a0f 2401     		.2byte	0x124
 3807 1a11 14       		.uleb128 0x14
 3808 1a12 31140000 		.4byte	.LASF498
 3809 1a16 06       		.byte	0x6
 3810 1a17 9201     		.2byte	0x192
 3811 1a19 C3040000 		.4byte	0x4c3
 3812 1a1d 2801     		.2byte	0x128
 3813 1a1f 14       		.uleb128 0x14
 3814 1a20 1F300000 		.4byte	.LASF499
 3815 1a24 06       		.byte	0x6
 3816 1a25 9301     		.2byte	0x193
 3817 1a27 C3040000 		.4byte	0x4c3
 3818 1a2b 2C01     		.2byte	0x12c
 3819 1a2d 14       		.uleb128 0x14
 3820 1a2e B8230000 		.4byte	.LASF500
 3821 1a32 06       		.byte	0x6
 3822 1a33 9401     		.2byte	0x194
 3823 1a35 C3040000 		.4byte	0x4c3
 3824 1a39 3001     		.2byte	0x130
 3825 1a3b 14       		.uleb128 0x14
 3826 1a3c 29450000 		.4byte	.LASF501
 3827 1a40 06       		.byte	0x6
 3828 1a41 9501     		.2byte	0x195
 3829 1a43 C3040000 		.4byte	0x4c3
 3830 1a47 3401     		.2byte	0x134
 3831 1a49 14       		.uleb128 0x14
 3832 1a4a F9450000 		.4byte	.LASF235
 3833 1a4e 06       		.byte	0x6
 3834 1a4f 9601     		.2byte	0x196
 3835 1a51 321B0000 		.4byte	0x1b32
 3836 1a55 3801     		.2byte	0x138
 3837 1a57 14       		.uleb128 0x14
 3838 1a58 75340000 		.4byte	.LASF502
 3839 1a5c 06       		.byte	0x6
ARM GAS  C:\Users\kateb\AppData\Local\Temp\cciDLH78.s 			page 100


 3840 1a5d 9701     		.2byte	0x197
 3841 1a5f 371B0000 		.4byte	0x1b37
 3842 1a63 4001     		.2byte	0x140
 3843 1a65 14       		.uleb128 0x14
 3844 1a66 B4270000 		.4byte	.LASF503
 3845 1a6a 06       		.byte	0x6
 3846 1a6b 9801     		.2byte	0x198
 3847 1a6d C3040000 		.4byte	0x4c3
 3848 1a71 5001     		.2byte	0x150
 3849 1a73 14       		.uleb128 0x14
 3850 1a74 03460000 		.4byte	.LASF243
 3851 1a78 06       		.byte	0x6
 3852 1a79 9901     		.2byte	0x199
 3853 1a7b 521B0000 		.4byte	0x1b52
 3854 1a7f 5401     		.2byte	0x154
 3855 1a81 14       		.uleb128 0x14
 3856 1a82 F93B0000 		.4byte	.LASF504
 3857 1a86 06       		.byte	0x6
 3858 1a87 9A01     		.2byte	0x19a
 3859 1a89 C3040000 		.4byte	0x4c3
 3860 1a8d 000F     		.2byte	0xf00
 3861 1a8f 14       		.uleb128 0x14
 3862 1a90 043C0000 		.4byte	.LASF505
 3863 1a94 06       		.byte	0x6
 3864 1a95 9B01     		.2byte	0x19b
 3865 1a97 C3040000 		.4byte	0x4c3
 3866 1a9b 040F     		.2byte	0xf04
 3867 1a9d 14       		.uleb128 0x14
 3868 1a9e 0F3C0000 		.4byte	.LASF506
 3869 1aa2 06       		.byte	0x6
 3870 1aa3 9C01     		.2byte	0x19c
 3871 1aa5 C3040000 		.4byte	0x4c3
 3872 1aa9 080F     		.2byte	0xf08
 3873 1aab 14       		.uleb128 0x14
 3874 1aac 1A3C0000 		.4byte	.LASF507
 3875 1ab0 06       		.byte	0x6
 3876 1ab1 9D01     		.2byte	0x19d
 3877 1ab3 C3040000 		.4byte	0x4c3
 3878 1ab7 0C0F     		.2byte	0xf0c
 3879 1ab9 14       		.uleb128 0x14
 3880 1aba 190D0000 		.4byte	.LASF508
 3881 1abe 06       		.byte	0x6
 3882 1abf 9E01     		.2byte	0x19e
 3883 1ac1 571B0000 		.4byte	0x1b57
 3884 1ac5 100F     		.2byte	0xf10
 3885 1ac7 14       		.uleb128 0x14
 3886 1ac8 0D460000 		.4byte	.LASF247
 3887 1acc 06       		.byte	0x6
 3888 1acd 9F01     		.2byte	0x19f
 3889 1acf 611B0000 		.4byte	0x1b61
 3890 1ad3 200F     		.2byte	0xf20
 3891 1ad5 14       		.uleb128 0x14
 3892 1ad6 253C0000 		.4byte	.LASF509
 3893 1ada 06       		.byte	0x6
 3894 1adb A001     		.2byte	0x1a0
 3895 1add C3040000 		.4byte	0x4c3
 3896 1ae1 300F     		.2byte	0xf30
ARM GAS  C:\Users\kateb\AppData\Local\Temp\cciDLH78.s 			page 101


 3897 1ae3 14       		.uleb128 0x14
 3898 1ae4 303C0000 		.4byte	.LASF510
 3899 1ae8 06       		.byte	0x6
 3900 1ae9 A101     		.2byte	0x1a1
 3901 1aeb C3040000 		.4byte	0x4c3
 3902 1aef 340F     		.2byte	0xf34
 3903 1af1 14       		.uleb128 0x14
 3904 1af2 17460000 		.4byte	.LASF251
 3905 1af6 06       		.byte	0x6
 3906 1af7 A201     		.2byte	0x1a2
 3907 1af9 7B1B0000 		.4byte	0x1b7b
 3908 1afd 380F     		.2byte	0xf38
 3909 1aff 00       		.byte	0
 3910 1b00 0B       		.uleb128 0xb
 3911 1b01 A4050000 		.4byte	0x5a4
 3912 1b05 0C       		.uleb128 0xc
 3913 1b06 001B0000 		.4byte	0x1b00
 3914 1b0a 0B       		.uleb128 0xb
 3915 1b0b 32050000 		.4byte	0x532
 3916 1b0f 0C       		.uleb128 0xc
 3917 1b10 0A1B0000 		.4byte	0x1b0a
 3918 1b14 0B       		.uleb128 0xb
 3919 1b15 D2040000 		.4byte	0x4d2
 3920 1b19 0C       		.uleb128 0xc
 3921 1b1a 141B0000 		.4byte	0x1b14
 3922 1b1e 0B       		.uleb128 0xb
 3923 1b1f D2040000 		.4byte	0x4d2
 3924 1b23 0C       		.uleb128 0xc
 3925 1b24 1E1B0000 		.4byte	0x1b1e
 3926 1b28 0B       		.uleb128 0xb
 3927 1b29 C4050000 		.4byte	0x5c4
 3928 1b2d 0B       		.uleb128 0xb
 3929 1b2e D2040000 		.4byte	0x4d2
 3930 1b32 0C       		.uleb128 0xc
 3931 1b33 2D1B0000 		.4byte	0x1b2d
 3932 1b37 0B       		.uleb128 0xb
 3933 1b38 C4050000 		.4byte	0x5c4
 3934 1b3c 0D       		.uleb128 0xd
 3935 1b3d CD040000 		.4byte	0x4cd
 3936 1b41 4D1B0000 		.4byte	0x1b4d
 3937 1b45 0F       		.uleb128 0xf
 3938 1b46 A9000000 		.4byte	0xa9
 3939 1b4a 6A03     		.2byte	0x36a
 3940 1b4c 00       		.byte	0
 3941 1b4d 0B       		.uleb128 0xb
 3942 1b4e 3C1B0000 		.4byte	0x1b3c
 3943 1b52 0C       		.uleb128 0xc
 3944 1b53 4D1B0000 		.4byte	0x1b4d
 3945 1b57 0B       		.uleb128 0xb
 3946 1b58 C4050000 		.4byte	0x5c4
 3947 1b5c 0B       		.uleb128 0xb
 3948 1b5d E2040000 		.4byte	0x4e2
 3949 1b61 0C       		.uleb128 0xc
 3950 1b62 5C1B0000 		.4byte	0x1b5c
 3951 1b66 0D       		.uleb128 0xd
 3952 1b67 CD040000 		.4byte	0x4cd
 3953 1b6b 761B0000 		.4byte	0x1b76
ARM GAS  C:\Users\kateb\AppData\Local\Temp\cciDLH78.s 			page 102


 3954 1b6f 0E       		.uleb128 0xe
 3955 1b70 A9000000 		.4byte	0xa9
 3956 1b74 31       		.byte	0x31
 3957 1b75 00       		.byte	0
 3958 1b76 0B       		.uleb128 0xb
 3959 1b77 661B0000 		.4byte	0x1b66
 3960 1b7b 0C       		.uleb128 0xc
 3961 1b7c 761B0000 		.4byte	0x1b76
 3962 1b80 16       		.uleb128 0x16
 3963 1b81 67400000 		.4byte	.LASF511
 3964 1b85 06       		.byte	0x6
 3965 1b86 A301     		.2byte	0x1a3
 3966 1b88 EB170000 		.4byte	0x17eb
 3967 1b8c 19       		.uleb128 0x19
 3968 1b8d 00000200 		.4byte	0x20000
 3969 1b91 06       		.byte	0x6
 3970 1b92 A801     		.2byte	0x1a8
 3971 1b94 D21B0000 		.4byte	0x1bd2
 3972 1b98 1A       		.uleb128 0x1a
 3973 1b99 52434200 		.ascii	"RCB\000"
 3974 1b9d 06       		.byte	0x6
 3975 1b9e A901     		.2byte	0x1a9
 3976 1ba0 F8070000 		.4byte	0x7f8
 3977 1ba4 00       		.byte	0
 3978 1ba5 14       		.uleb128 0x14
 3979 1ba6 D9490000 		.4byte	.LASF182
 3980 1baa 06       		.byte	0x6
 3981 1bab AA01     		.2byte	0x1aa
 3982 1bad D71B0000 		.4byte	0x1bd7
 3983 1bb1 0002     		.2byte	0x200
 3984 1bb3 14       		.uleb128 0x14
 3985 1bb4 2F0A0000 		.4byte	.LASF512
 3986 1bb8 06       		.byte	0x6
 3987 1bb9 AB01     		.2byte	0x1ab
 3988 1bbb DF170000 		.4byte	0x17df
 3989 1bbf 0010     		.2byte	0x1000
 3990 1bc1 15       		.uleb128 0x15
 3991 1bc2 76000000 		.4byte	.LASF513
 3992 1bc6 06       		.byte	0x6
 3993 1bc7 AC01     		.2byte	0x1ac
 3994 1bc9 801B0000 		.4byte	0x1b80
 3995 1bcd 00F00100 		.4byte	0x1f000
 3996 1bd1 00       		.byte	0
 3997 1bd2 0B       		.uleb128 0xb
 3998 1bd3 83050000 		.4byte	0x583
 3999 1bd7 0C       		.uleb128 0xc
 4000 1bd8 D21B0000 		.4byte	0x1bd2
 4001 1bdc 16       		.uleb128 0x16
 4002 1bdd E2100000 		.4byte	.LASF514
 4003 1be1 06       		.byte	0x6
 4004 1be2 AD01     		.2byte	0x1ad
 4005 1be4 8C1B0000 		.4byte	0x1b8c
 4006 1be8 03       		.uleb128 0x3
 4007 1be9 04       		.byte	0x4
 4008 1bea 04       		.byte	0x4
 4009 1beb E0140000 		.4byte	.LASF515
 4010 1bef 03       		.uleb128 0x3
ARM GAS  C:\Users\kateb\AppData\Local\Temp\cciDLH78.s 			page 103


 4011 1bf0 08       		.byte	0x8
 4012 1bf1 04       		.byte	0x4
 4013 1bf2 AA420000 		.4byte	.LASF516
 4014 1bf6 1B       		.uleb128 0x1b
 4015 1bf7 08       		.byte	0x8
 4016 1bf8 07       		.byte	0x7
 4017 1bf9 EB       		.byte	0xeb
 4018 1bfa 171C0000 		.4byte	0x1c17
 4019 1bfe 11       		.uleb128 0x11
 4020 1bff 9C560000 		.4byte	.LASF517
 4021 1c03 07       		.byte	0x7
 4022 1c04 EC       		.byte	0xec
 4023 1c05 B8040000 		.4byte	0x4b8
 4024 1c09 00       		.byte	0
 4025 1c0a 11       		.uleb128 0x11
 4026 1c0b A7340000 		.4byte	.LASF518
 4027 1c0f 07       		.byte	0x7
 4028 1c10 F0       		.byte	0xf0
 4029 1c11 EC000000 		.4byte	0xec
 4030 1c15 04       		.byte	0x4
 4031 1c16 00       		.byte	0
 4032 1c17 04       		.uleb128 0x4
 4033 1c18 66420000 		.4byte	.LASF519
 4034 1c1c 07       		.byte	0x7
 4035 1c1d F1       		.byte	0xf1
 4036 1c1e F61B0000 		.4byte	0x1bf6
 4037 1c22 1C       		.uleb128 0x1c
 4038 1c23 04       		.byte	0x4
 4039 1c24 2C000000 		.4byte	0x2c
 4040 1c28 08       		.byte	0x8
 4041 1c29 BF03     		.2byte	0x3bf
 4042 1c2b 631C0000 		.4byte	0x1c63
 4043 1c2f 0A       		.uleb128 0xa
 4044 1c30 BD310000 		.4byte	.LASF520
 4045 1c34 00       		.byte	0
 4046 1c35 1D       		.uleb128 0x1d
 4047 1c36 553B0000 		.4byte	.LASF521
 4048 1c3a 01004200 		.4byte	0x420001
 4049 1c3e 1D       		.uleb128 0x1d
 4050 1c3f 21190000 		.4byte	.LASF522
 4051 1c43 02004200 		.4byte	0x420002
 4052 1c47 1D       		.uleb128 0x1d
 4053 1c48 1C010000 		.4byte	.LASF523
 4054 1c4c 03004200 		.4byte	0x420003
 4055 1c50 1D       		.uleb128 0x1d
 4056 1c51 5B080000 		.4byte	.LASF524
 4057 1c55 04004200 		.4byte	0x420004
 4058 1c59 1D       		.uleb128 0x1d
 4059 1c5a 004C0000 		.4byte	.LASF525
 4060 1c5e FF004200 		.4byte	0x4200ff
 4061 1c62 00       		.byte	0
 4062 1c63 16       		.uleb128 0x16
 4063 1c64 61130000 		.4byte	.LASF526
 4064 1c68 08       		.byte	0x8
 4065 1c69 C703     		.2byte	0x3c7
 4066 1c6b 221C0000 		.4byte	0x1c22
 4067 1c6f 1C       		.uleb128 0x1c
ARM GAS  C:\Users\kateb\AppData\Local\Temp\cciDLH78.s 			page 104


 4068 1c70 01       		.byte	0x1
 4069 1c71 5E000000 		.4byte	0x5e
 4070 1c75 08       		.byte	0x8
 4071 1c76 5904     		.2byte	0x459
 4072 1c78 9B1C0000 		.4byte	0x1c9b
 4073 1c7c 0A       		.uleb128 0xa
 4074 1c7d 83490000 		.4byte	.LASF527
 4075 1c81 00       		.byte	0
 4076 1c82 0A       		.uleb128 0xa
 4077 1c83 1B2B0000 		.4byte	.LASF528
 4078 1c87 01       		.byte	0x1
 4079 1c88 0A       		.uleb128 0xa
 4080 1c89 EC1A0000 		.4byte	.LASF529
 4081 1c8d 02       		.byte	0x2
 4082 1c8e 0A       		.uleb128 0xa
 4083 1c8f D4550000 		.4byte	.LASF530
 4084 1c93 03       		.byte	0x3
 4085 1c94 0A       		.uleb128 0xa
 4086 1c95 C70D0000 		.4byte	.LASF531
 4087 1c99 04       		.byte	0x4
 4088 1c9a 00       		.byte	0
 4089 1c9b 16       		.uleb128 0x16
 4090 1c9c 00110000 		.4byte	.LASF532
 4091 1ca0 08       		.byte	0x8
 4092 1ca1 5F04     		.2byte	0x45f
 4093 1ca3 6F1C0000 		.4byte	0x1c6f
 4094 1ca7 1C       		.uleb128 0x1c
 4095 1ca8 01       		.byte	0x1
 4096 1ca9 5E000000 		.4byte	0x5e
 4097 1cad 08       		.byte	0x8
 4098 1cae 6304     		.2byte	0x463
 4099 1cb0 CD1C0000 		.4byte	0x1ccd
 4100 1cb4 0A       		.uleb128 0xa
 4101 1cb5 220D0000 		.4byte	.LASF533
 4102 1cb9 01       		.byte	0x1
 4103 1cba 0A       		.uleb128 0xa
 4104 1cbb F7350000 		.4byte	.LASF534
 4105 1cbf 02       		.byte	0x2
 4106 1cc0 0A       		.uleb128 0xa
 4107 1cc1 891E0000 		.4byte	.LASF535
 4108 1cc5 04       		.byte	0x4
 4109 1cc6 0A       		.uleb128 0xa
 4110 1cc7 50520000 		.4byte	.LASF536
 4111 1ccb 08       		.byte	0x8
 4112 1ccc 00       		.byte	0
 4113 1ccd 16       		.uleb128 0x16
 4114 1cce C0460000 		.4byte	.LASF537
 4115 1cd2 08       		.byte	0x8
 4116 1cd3 6D04     		.2byte	0x46d
 4117 1cd5 A71C0000 		.4byte	0x1ca7
 4118 1cd9 1E       		.uleb128 0x1e
 4119 1cda 0C       		.byte	0xc
 4120 1cdb 08       		.byte	0x8
 4121 1cdc 8904     		.2byte	0x489
 4122 1cde 0A1D0000 		.4byte	0x1d0a
 4123 1ce2 18       		.uleb128 0x18
 4124 1ce3 A3120000 		.4byte	.LASF538
ARM GAS  C:\Users\kateb\AppData\Local\Temp\cciDLH78.s 			page 105


 4125 1ce7 08       		.byte	0x8
 4126 1ce8 8B04     		.2byte	0x48b
 4127 1cea CD1C0000 		.4byte	0x1ccd
 4128 1cee 00       		.byte	0
 4129 1cef 18       		.uleb128 0x18
 4130 1cf0 7D450000 		.4byte	.LASF539
 4131 1cf4 08       		.byte	0x8
 4132 1cf5 8F04     		.2byte	0x48f
 4133 1cf7 B0000000 		.4byte	0xb0
 4134 1cfb 04       		.byte	0x4
 4135 1cfc 18       		.uleb128 0x18
 4136 1cfd D4370000 		.4byte	.LASF540
 4137 1d01 08       		.byte	0x8
 4138 1d02 9104     		.2byte	0x491
 4139 1d04 B0000000 		.4byte	0xb0
 4140 1d08 08       		.byte	0x8
 4141 1d09 00       		.byte	0
 4142 1d0a 16       		.uleb128 0x16
 4143 1d0b EB4E0000 		.4byte	.LASF541
 4144 1d0f 08       		.byte	0x8
 4145 1d10 9404     		.2byte	0x494
 4146 1d12 D91C0000 		.4byte	0x1cd9
 4147 1d16 16       		.uleb128 0x16
 4148 1d17 B9160000 		.4byte	.LASF542
 4149 1d1b 08       		.byte	0x8
 4150 1d1c 9704     		.2byte	0x497
 4151 1d1e 221D0000 		.4byte	0x1d22
 4152 1d22 06       		.uleb128 0x6
 4153 1d23 04       		.byte	0x4
 4154 1d24 281D0000 		.4byte	0x1d28
 4155 1d28 1F       		.uleb128 0x1f
 4156 1d29 631C0000 		.4byte	0x1c63
 4157 1d2d 371D0000 		.4byte	0x1d37
 4158 1d31 20       		.uleb128 0x20
 4159 1d32 371D0000 		.4byte	0x1d37
 4160 1d36 00       		.byte	0
 4161 1d37 06       		.uleb128 0x6
 4162 1d38 04       		.byte	0x4
 4163 1d39 0A1D0000 		.4byte	0x1d0a
 4164 1d3d 21       		.uleb128 0x21
 4165 1d3e E9150000 		.4byte	.LASF1029
 4166 1d42 18       		.byte	0x18
 4167 1d43 08       		.byte	0x8
 4168 1d44 9A04     		.2byte	0x49a
 4169 1d46 991D0000 		.4byte	0x1d99
 4170 1d4a 18       		.uleb128 0x18
 4171 1d4b 25330000 		.4byte	.LASF543
 4172 1d4f 08       		.byte	0x8
 4173 1d50 9C04     		.2byte	0x49c
 4174 1d52 161D0000 		.4byte	0x1d16
 4175 1d56 00       		.byte	0
 4176 1d57 18       		.uleb128 0x18
 4177 1d58 4D100000 		.4byte	.LASF544
 4178 1d5c 08       		.byte	0x8
 4179 1d5d 9D04     		.2byte	0x49d
 4180 1d5f 9B1C0000 		.4byte	0x1c9b
 4181 1d63 04       		.byte	0x4
ARM GAS  C:\Users\kateb\AppData\Local\Temp\cciDLH78.s 			page 106


 4182 1d64 18       		.uleb128 0x18
 4183 1d65 20290000 		.4byte	.LASF545
 4184 1d69 08       		.byte	0x8
 4185 1d6a 9E04     		.2byte	0x49e
 4186 1d6c EC000000 		.4byte	0xec
 4187 1d70 08       		.byte	0x8
 4188 1d71 18       		.uleb128 0x18
 4189 1d72 8E320000 		.4byte	.LASF546
 4190 1d76 08       		.byte	0x8
 4191 1d77 A504     		.2byte	0x4a5
 4192 1d79 371D0000 		.4byte	0x1d37
 4193 1d7d 0C       		.byte	0xc
 4194 1d7e 18       		.uleb128 0x18
 4195 1d7f 9F340000 		.4byte	.LASF547
 4196 1d83 08       		.byte	0x8
 4197 1d84 A804     		.2byte	0x4a8
 4198 1d86 991D0000 		.4byte	0x1d99
 4199 1d8a 10       		.byte	0x10
 4200 1d8b 18       		.uleb128 0x18
 4201 1d8c 81340000 		.4byte	.LASF548
 4202 1d90 08       		.byte	0x8
 4203 1d91 AE04     		.2byte	0x4ae
 4204 1d93 991D0000 		.4byte	0x1d99
 4205 1d97 14       		.byte	0x14
 4206 1d98 00       		.byte	0
 4207 1d99 06       		.uleb128 0x6
 4208 1d9a 04       		.byte	0x4
 4209 1d9b 3D1D0000 		.4byte	0x1d3d
 4210 1d9f 16       		.uleb128 0x16
 4211 1da0 8C150000 		.4byte	.LASF549
 4212 1da4 08       		.byte	0x8
 4213 1da5 B304     		.2byte	0x4b3
 4214 1da7 3D1D0000 		.4byte	0x1d3d
 4215 1dab 1C       		.uleb128 0x1c
 4216 1dac 02       		.byte	0x2
 4217 1dad 77000000 		.4byte	0x77
 4218 1db1 09       		.byte	0x9
 4219 1db2 4201     		.2byte	0x142
 4220 1db4 E4200000 		.4byte	0x20e4
 4221 1db8 0A       		.uleb128 0xa
 4222 1db9 23520000 		.4byte	.LASF550
 4223 1dbd 00       		.byte	0
 4224 1dbe 22       		.uleb128 0x22
 4225 1dbf 63280000 		.4byte	.LASF551
 4226 1dc3 0010     		.2byte	0x1000
 4227 1dc5 22       		.uleb128 0x22
 4228 1dc6 562D0000 		.4byte	.LASF552
 4229 1dca 0110     		.2byte	0x1001
 4230 1dcc 22       		.uleb128 0x22
 4231 1dcd 851D0000 		.4byte	.LASF553
 4232 1dd1 0210     		.2byte	0x1002
 4233 1dd3 22       		.uleb128 0x22
 4234 1dd4 E74A0000 		.4byte	.LASF554
 4235 1dd8 0310     		.2byte	0x1003
 4236 1dda 22       		.uleb128 0x22
 4237 1ddb 21530000 		.4byte	.LASF555
 4238 1ddf 0410     		.2byte	0x1004
ARM GAS  C:\Users\kateb\AppData\Local\Temp\cciDLH78.s 			page 107


 4239 1de1 22       		.uleb128 0x22
 4240 1de2 97020000 		.4byte	.LASF556
 4241 1de6 0510     		.2byte	0x1005
 4242 1de8 22       		.uleb128 0x22
 4243 1de9 FA360000 		.4byte	.LASF557
 4244 1ded 0020     		.2byte	0x2000
 4245 1def 22       		.uleb128 0x22
 4246 1df0 F1060000 		.4byte	.LASF558
 4247 1df4 0120     		.2byte	0x2001
 4248 1df6 22       		.uleb128 0x22
 4249 1df7 7A040000 		.4byte	.LASF559
 4250 1dfb 0220     		.2byte	0x2002
 4251 1dfd 22       		.uleb128 0x22
 4252 1dfe 1C110000 		.4byte	.LASF560
 4253 1e02 0320     		.2byte	0x2003
 4254 1e04 22       		.uleb128 0x22
 4255 1e05 89460000 		.4byte	.LASF561
 4256 1e09 0420     		.2byte	0x2004
 4257 1e0b 22       		.uleb128 0x22
 4258 1e0c CF4F0000 		.4byte	.LASF562
 4259 1e10 0520     		.2byte	0x2005
 4260 1e12 22       		.uleb128 0x22
 4261 1e13 DC3E0000 		.4byte	.LASF563
 4262 1e17 0620     		.2byte	0x2006
 4263 1e19 22       		.uleb128 0x22
 4264 1e1a 593D0000 		.4byte	.LASF564
 4265 1e1e 0720     		.2byte	0x2007
 4266 1e20 22       		.uleb128 0x22
 4267 1e21 7F360000 		.4byte	.LASF565
 4268 1e25 0820     		.2byte	0x2008
 4269 1e27 22       		.uleb128 0x22
 4270 1e28 E0540000 		.4byte	.LASF566
 4271 1e2c 0920     		.2byte	0x2009
 4272 1e2e 22       		.uleb128 0x22
 4273 1e2f 792C0000 		.4byte	.LASF567
 4274 1e33 0A20     		.2byte	0x200a
 4275 1e35 22       		.uleb128 0x22
 4276 1e36 F0040000 		.4byte	.LASF568
 4277 1e3a 0B20     		.2byte	0x200b
 4278 1e3c 22       		.uleb128 0x22
 4279 1e3d 05390000 		.4byte	.LASF569
 4280 1e41 0C20     		.2byte	0x200c
 4281 1e43 22       		.uleb128 0x22
 4282 1e44 F40B0000 		.4byte	.LASF570
 4283 1e48 0D20     		.2byte	0x200d
 4284 1e4a 22       		.uleb128 0x22
 4285 1e4b 22150000 		.4byte	.LASF571
 4286 1e4f 0E20     		.2byte	0x200e
 4287 1e51 22       		.uleb128 0x22
 4288 1e52 770A0000 		.4byte	.LASF572
 4289 1e56 0F20     		.2byte	0x200f
 4290 1e58 22       		.uleb128 0x22
 4291 1e59 60550000 		.4byte	.LASF573
 4292 1e5d 1020     		.2byte	0x2010
 4293 1e5f 22       		.uleb128 0x22
 4294 1e60 733B0000 		.4byte	.LASF574
 4295 1e64 1120     		.2byte	0x2011
ARM GAS  C:\Users\kateb\AppData\Local\Temp\cciDLH78.s 			page 108


 4296 1e66 22       		.uleb128 0x22
 4297 1e67 21460000 		.4byte	.LASF575
 4298 1e6b 1220     		.2byte	0x2012
 4299 1e6d 22       		.uleb128 0x22
 4300 1e6e 85300000 		.4byte	.LASF576
 4301 1e72 1320     		.2byte	0x2013
 4302 1e74 22       		.uleb128 0x22
 4303 1e75 BE400000 		.4byte	.LASF577
 4304 1e79 1420     		.2byte	0x2014
 4305 1e7b 22       		.uleb128 0x22
 4306 1e7c 94100000 		.4byte	.LASF578
 4307 1e80 1520     		.2byte	0x2015
 4308 1e82 22       		.uleb128 0x22
 4309 1e83 AD3D0000 		.4byte	.LASF579
 4310 1e87 1620     		.2byte	0x2016
 4311 1e89 22       		.uleb128 0x22
 4312 1e8a 540D0000 		.4byte	.LASF580
 4313 1e8e 1720     		.2byte	0x2017
 4314 1e90 22       		.uleb128 0x22
 4315 1e91 5D210000 		.4byte	.LASF581
 4316 1e95 0030     		.2byte	0x3000
 4317 1e97 22       		.uleb128 0x22
 4318 1e98 D0260000 		.4byte	.LASF582
 4319 1e9c 0130     		.2byte	0x3001
 4320 1e9e 22       		.uleb128 0x22
 4321 1e9f BA520000 		.4byte	.LASF583
 4322 1ea3 0230     		.2byte	0x3002
 4323 1ea5 22       		.uleb128 0x22
 4324 1ea6 5D470000 		.4byte	.LASF584
 4325 1eaa 0330     		.2byte	0x3003
 4326 1eac 22       		.uleb128 0x22
 4327 1ead 12040000 		.4byte	.LASF585
 4328 1eb1 0430     		.2byte	0x3004
 4329 1eb3 22       		.uleb128 0x22
 4330 1eb4 C9250000 		.4byte	.LASF586
 4331 1eb8 0530     		.2byte	0x3005
 4332 1eba 22       		.uleb128 0x22
 4333 1ebb 713E0000 		.4byte	.LASF587
 4334 1ebf 0630     		.2byte	0x3006
 4335 1ec1 22       		.uleb128 0x22
 4336 1ec2 A81B0000 		.4byte	.LASF588
 4337 1ec6 0730     		.2byte	0x3007
 4338 1ec8 22       		.uleb128 0x22
 4339 1ec9 41220000 		.4byte	.LASF589
 4340 1ecd 0830     		.2byte	0x3008
 4341 1ecf 22       		.uleb128 0x22
 4342 1ed0 96160000 		.4byte	.LASF590
 4343 1ed4 0930     		.2byte	0x3009
 4344 1ed6 22       		.uleb128 0x22
 4345 1ed7 650E0000 		.4byte	.LASF591
 4346 1edb 0A30     		.2byte	0x300a
 4347 1edd 22       		.uleb128 0x22
 4348 1ede 9A2C0000 		.4byte	.LASF592
 4349 1ee2 0B30     		.2byte	0x300b
 4350 1ee4 22       		.uleb128 0x22
 4351 1ee5 3B410000 		.4byte	.LASF593
 4352 1ee9 0C30     		.2byte	0x300c
ARM GAS  C:\Users\kateb\AppData\Local\Temp\cciDLH78.s 			page 109


 4353 1eeb 22       		.uleb128 0x22
 4354 1eec D5050000 		.4byte	.LASF594
 4355 1ef0 1130     		.2byte	0x3011
 4356 1ef2 22       		.uleb128 0x22
 4357 1ef3 081C0000 		.4byte	.LASF595
 4358 1ef7 1230     		.2byte	0x3012
 4359 1ef9 22       		.uleb128 0x22
 4360 1efa 99480000 		.4byte	.LASF596
 4361 1efe 1330     		.2byte	0x3013
 4362 1f00 22       		.uleb128 0x22
 4363 1f01 4C110000 		.4byte	.LASF597
 4364 1f05 1430     		.2byte	0x3014
 4365 1f07 22       		.uleb128 0x22
 4366 1f08 020F0000 		.4byte	.LASF598
 4367 1f0c 1530     		.2byte	0x3015
 4368 1f0e 22       		.uleb128 0x22
 4369 1f0f FE460000 		.4byte	.LASF599
 4370 1f13 1630     		.2byte	0x3016
 4371 1f15 22       		.uleb128 0x22
 4372 1f16 08260000 		.4byte	.LASF600
 4373 1f1a 1730     		.2byte	0x3017
 4374 1f1c 22       		.uleb128 0x22
 4375 1f1d 6B2A0000 		.4byte	.LASF601
 4376 1f21 1830     		.2byte	0x3018
 4377 1f23 22       		.uleb128 0x22
 4378 1f24 87210000 		.4byte	.LASF602
 4379 1f28 0040     		.2byte	0x4000
 4380 1f2a 22       		.uleb128 0x22
 4381 1f2b 0A150000 		.4byte	.LASF603
 4382 1f2f 0140     		.2byte	0x4001
 4383 1f31 22       		.uleb128 0x22
 4384 1f32 C2060000 		.4byte	.LASF604
 4385 1f36 0240     		.2byte	0x4002
 4386 1f38 22       		.uleb128 0x22
 4387 1f39 C51A0000 		.4byte	.LASF605
 4388 1f3d 0340     		.2byte	0x4003
 4389 1f3f 22       		.uleb128 0x22
 4390 1f40 8E400000 		.4byte	.LASF606
 4391 1f44 0440     		.2byte	0x4004
 4392 1f46 22       		.uleb128 0x22
 4393 1f47 B74C0000 		.4byte	.LASF607
 4394 1f4b 0540     		.2byte	0x4005
 4395 1f4d 22       		.uleb128 0x22
 4396 1f4e 26500000 		.4byte	.LASF608
 4397 1f52 0640     		.2byte	0x4006
 4398 1f54 22       		.uleb128 0x22
 4399 1f55 2C080000 		.4byte	.LASF609
 4400 1f59 0740     		.2byte	0x4007
 4401 1f5b 22       		.uleb128 0x22
 4402 1f5c F82A0000 		.4byte	.LASF610
 4403 1f60 0840     		.2byte	0x4008
 4404 1f62 22       		.uleb128 0x22
 4405 1f63 3B200000 		.4byte	.LASF611
 4406 1f67 0940     		.2byte	0x4009
 4407 1f69 22       		.uleb128 0x22
 4408 1f6a 37130000 		.4byte	.LASF612
 4409 1f6e 0A40     		.2byte	0x400a
ARM GAS  C:\Users\kateb\AppData\Local\Temp\cciDLH78.s 			page 110


 4410 1f70 22       		.uleb128 0x22
 4411 1f71 A0290000 		.4byte	.LASF613
 4412 1f75 0B40     		.2byte	0x400b
 4413 1f77 22       		.uleb128 0x22
 4414 1f78 940B0000 		.4byte	.LASF614
 4415 1f7c 0C40     		.2byte	0x400c
 4416 1f7e 22       		.uleb128 0x22
 4417 1f7f 55430000 		.4byte	.LASF615
 4418 1f83 0D40     		.2byte	0x400d
 4419 1f85 22       		.uleb128 0x22
 4420 1f86 E4080000 		.4byte	.LASF616
 4421 1f8a 0E40     		.2byte	0x400e
 4422 1f8c 22       		.uleb128 0x22
 4423 1f8d 0E1A0000 		.4byte	.LASF617
 4424 1f91 0F40     		.2byte	0x400f
 4425 1f93 22       		.uleb128 0x22
 4426 1f94 D53D0000 		.4byte	.LASF618
 4427 1f98 1040     		.2byte	0x4010
 4428 1f9a 22       		.uleb128 0x22
 4429 1f9b 662B0000 		.4byte	.LASF619
 4430 1f9f 1140     		.2byte	0x4011
 4431 1fa1 22       		.uleb128 0x22
 4432 1fa2 EB170000 		.4byte	.LASF620
 4433 1fa6 1240     		.2byte	0x4012
 4434 1fa8 22       		.uleb128 0x22
 4435 1fa9 2C240000 		.4byte	.LASF621
 4436 1fad 1340     		.2byte	0x4013
 4437 1faf 22       		.uleb128 0x22
 4438 1fb0 B0020000 		.4byte	.LASF622
 4439 1fb4 1440     		.2byte	0x4014
 4440 1fb6 22       		.uleb128 0x22
 4441 1fb7 EB320000 		.4byte	.LASF623
 4442 1fbb 1540     		.2byte	0x4015
 4443 1fbd 22       		.uleb128 0x22
 4444 1fbe 7E510000 		.4byte	.LASF624
 4445 1fc2 1640     		.2byte	0x4016
 4446 1fc4 22       		.uleb128 0x22
 4447 1fc5 4B330000 		.4byte	.LASF625
 4448 1fc9 1740     		.2byte	0x4017
 4449 1fcb 22       		.uleb128 0x22
 4450 1fcc B64F0000 		.4byte	.LASF626
 4451 1fd0 1840     		.2byte	0x4018
 4452 1fd2 22       		.uleb128 0x22
 4453 1fd3 5E310000 		.4byte	.LASF627
 4454 1fd7 1940     		.2byte	0x4019
 4455 1fd9 22       		.uleb128 0x22
 4456 1fda 40030000 		.4byte	.LASF628
 4457 1fde 1A40     		.2byte	0x401a
 4458 1fe0 22       		.uleb128 0x22
 4459 1fe1 9A180000 		.4byte	.LASF629
 4460 1fe5 0050     		.2byte	0x5000
 4461 1fe7 22       		.uleb128 0x22
 4462 1fe8 81470000 		.4byte	.LASF630
 4463 1fec 0150     		.2byte	0x5001
 4464 1fee 22       		.uleb128 0x22
 4465 1fef E14B0000 		.4byte	.LASF631
 4466 1ff3 0250     		.2byte	0x5002
ARM GAS  C:\Users\kateb\AppData\Local\Temp\cciDLH78.s 			page 111


 4467 1ff5 22       		.uleb128 0x22
 4468 1ff6 FA0C0000 		.4byte	.LASF632
 4469 1ffa 0350     		.2byte	0x5003
 4470 1ffc 22       		.uleb128 0x22
 4471 1ffd 1A2C0000 		.4byte	.LASF633
 4472 2001 0450     		.2byte	0x5004
 4473 2003 22       		.uleb128 0x22
 4474 2004 24180000 		.4byte	.LASF634
 4475 2008 0550     		.2byte	0x5005
 4476 200a 22       		.uleb128 0x22
 4477 200b 19410000 		.4byte	.LASF635
 4478 200f 0650     		.2byte	0x5006
 4479 2011 22       		.uleb128 0x22
 4480 2012 513C0000 		.4byte	.LASF636
 4481 2016 0750     		.2byte	0x5007
 4482 2018 22       		.uleb128 0x22
 4483 2019 ED130000 		.4byte	.LASF637
 4484 201d 0850     		.2byte	0x5008
 4485 201f 22       		.uleb128 0x22
 4486 2020 A3310000 		.4byte	.LASF638
 4487 2024 0950     		.2byte	0x5009
 4488 2026 22       		.uleb128 0x22
 4489 2027 3E470000 		.4byte	.LASF639
 4490 202b 0A50     		.2byte	0x500a
 4491 202d 22       		.uleb128 0x22
 4492 202e 82450000 		.4byte	.LASF640
 4493 2032 0B50     		.2byte	0x500b
 4494 2034 22       		.uleb128 0x22
 4495 2035 FE400000 		.4byte	.LASF641
 4496 2039 0C50     		.2byte	0x500c
 4497 203b 22       		.uleb128 0x22
 4498 203c 08520000 		.4byte	.LASF642
 4499 2040 0D50     		.2byte	0x500d
 4500 2042 22       		.uleb128 0x22
 4501 2043 CE380000 		.4byte	.LASF643
 4502 2047 0E50     		.2byte	0x500e
 4503 2049 22       		.uleb128 0x22
 4504 204a AB170000 		.4byte	.LASF644
 4505 204e 0F50     		.2byte	0x500f
 4506 2050 22       		.uleb128 0x22
 4507 2051 B2560000 		.4byte	.LASF645
 4508 2055 1050     		.2byte	0x5010
 4509 2057 22       		.uleb128 0x22
 4510 2058 2E280000 		.4byte	.LASF646
 4511 205c 1150     		.2byte	0x5011
 4512 205e 22       		.uleb128 0x22
 4513 205f D80C0000 		.4byte	.LASF647
 4514 2063 1250     		.2byte	0x5012
 4515 2065 22       		.uleb128 0x22
 4516 2066 F9310000 		.4byte	.LASF648
 4517 206a 1350     		.2byte	0x5013
 4518 206c 22       		.uleb128 0x22
 4519 206d EC3F0000 		.4byte	.LASF649
 4520 2071 1450     		.2byte	0x5014
 4521 2073 22       		.uleb128 0x22
 4522 2074 3C320000 		.4byte	.LASF650
 4523 2078 1550     		.2byte	0x5015
ARM GAS  C:\Users\kateb\AppData\Local\Temp\cciDLH78.s 			page 112


 4524 207a 22       		.uleb128 0x22
 4525 207b CA2C0000 		.4byte	.LASF651
 4526 207f 1650     		.2byte	0x5016
 4527 2081 22       		.uleb128 0x22
 4528 2082 FC480000 		.4byte	.LASF652
 4529 2086 1750     		.2byte	0x5017
 4530 2088 22       		.uleb128 0x22
 4531 2089 C74E0000 		.4byte	.LASF653
 4532 208d 1850     		.2byte	0x5018
 4533 208f 22       		.uleb128 0x22
 4534 2090 21350000 		.4byte	.LASF654
 4535 2094 0060     		.2byte	0x6000
 4536 2096 22       		.uleb128 0x22
 4537 2097 09480000 		.4byte	.LASF655
 4538 209b 0160     		.2byte	0x6001
 4539 209d 22       		.uleb128 0x22
 4540 209e 6F150000 		.4byte	.LASF656
 4541 20a2 0260     		.2byte	0x6002
 4542 20a4 22       		.uleb128 0x22
 4543 20a5 B33C0000 		.4byte	.LASF657
 4544 20a9 0360     		.2byte	0x6003
 4545 20ab 22       		.uleb128 0x22
 4546 20ac 30090000 		.4byte	.LASF658
 4547 20b0 0460     		.2byte	0x6004
 4548 20b2 22       		.uleb128 0x22
 4549 20b3 73070000 		.4byte	.LASF659
 4550 20b7 0560     		.2byte	0x6005
 4551 20b9 22       		.uleb128 0x22
 4552 20ba A52A0000 		.4byte	.LASF660
 4553 20be 0660     		.2byte	0x6006
 4554 20c0 22       		.uleb128 0x22
 4555 20c1 6C3F0000 		.4byte	.LASF661
 4556 20c5 0760     		.2byte	0x6007
 4557 20c7 22       		.uleb128 0x22
 4558 20c8 404F0000 		.4byte	.LASF662
 4559 20cc 0860     		.2byte	0x6008
 4560 20ce 22       		.uleb128 0x22
 4561 20cf 86500000 		.4byte	.LASF663
 4562 20d3 0960     		.2byte	0x6009
 4563 20d5 22       		.uleb128 0x22
 4564 20d6 B4490000 		.4byte	.LASF664
 4565 20da 0A60     		.2byte	0x600a
 4566 20dc 22       		.uleb128 0x22
 4567 20dd DC170000 		.4byte	.LASF665
 4568 20e1 FFFF     		.2byte	0xffff
 4569 20e3 00       		.byte	0
 4570 20e4 16       		.uleb128 0x16
 4571 20e5 00060000 		.4byte	.LASF666
 4572 20e9 09       		.byte	0x9
 4573 20ea B504     		.2byte	0x4b5
 4574 20ec AB1D0000 		.4byte	0x1dab
 4575 20f0 1C       		.uleb128 0x1c
 4576 20f1 04       		.byte	0x4
 4577 20f2 2C000000 		.4byte	0x2c
 4578 20f6 09       		.byte	0x9
 4579 20f7 BF04     		.2byte	0x4bf
 4580 20f9 09220000 		.4byte	0x2209
ARM GAS  C:\Users\kateb\AppData\Local\Temp\cciDLH78.s 			page 113


 4581 20fd 0A       		.uleb128 0xa
 4582 20fe ED230000 		.4byte	.LASF667
 4583 2102 00       		.byte	0
 4584 2103 1D       		.uleb128 0x1d
 4585 2104 67140000 		.4byte	.LASF668
 4586 2108 01001400 		.4byte	0x140001
 4587 210c 1D       		.uleb128 0x1d
 4588 210d 3A340000 		.4byte	.LASF669
 4589 2111 01001600 		.4byte	0x160001
 4590 2115 1D       		.uleb128 0x1d
 4591 2116 7B090000 		.4byte	.LASF670
 4592 211a 02001600 		.4byte	0x160002
 4593 211e 1D       		.uleb128 0x1d
 4594 211f AA260000 		.4byte	.LASF671
 4595 2123 03001600 		.4byte	0x160003
 4596 2127 1D       		.uleb128 0x1d
 4597 2128 31360000 		.4byte	.LASF672
 4598 212c 04001600 		.4byte	0x160004
 4599 2130 1D       		.uleb128 0x1d
 4600 2131 48140000 		.4byte	.LASF673
 4601 2135 05001600 		.4byte	0x160005
 4602 2139 1D       		.uleb128 0x1d
 4603 213a B33E0000 		.4byte	.LASF674
 4604 213e 06001600 		.4byte	0x160006
 4605 2142 1D       		.uleb128 0x1d
 4606 2143 B7300000 		.4byte	.LASF675
 4607 2147 07001600 		.4byte	0x160007
 4608 214b 1D       		.uleb128 0x1d
 4609 214c 903E0000 		.4byte	.LASF676
 4610 2150 08001600 		.4byte	0x160008
 4611 2154 1D       		.uleb128 0x1d
 4612 2155 12420000 		.4byte	.LASF677
 4613 2159 09001600 		.4byte	0x160009
 4614 215d 1D       		.uleb128 0x1d
 4615 215e 0A0E0000 		.4byte	.LASF678
 4616 2162 0A001600 		.4byte	0x16000a
 4617 2166 1D       		.uleb128 0x1d
 4618 2167 9D370000 		.4byte	.LASF679
 4619 216b 0B001600 		.4byte	0x16000b
 4620 216f 1D       		.uleb128 0x1d
 4621 2170 213F0000 		.4byte	.LASF680
 4622 2174 0C001600 		.4byte	0x16000c
 4623 2178 1D       		.uleb128 0x1d
 4624 2179 59200000 		.4byte	.LASF681
 4625 217d 0D001600 		.4byte	0x16000d
 4626 2181 1D       		.uleb128 0x1d
 4627 2182 F9240000 		.4byte	.LASF682
 4628 2186 0E001600 		.4byte	0x16000e
 4629 218a 1D       		.uleb128 0x1d
 4630 218b 4B040000 		.4byte	.LASF683
 4631 218f 0F001600 		.4byte	0x16000f
 4632 2193 1D       		.uleb128 0x1d
 4633 2194 20170000 		.4byte	.LASF684
 4634 2198 10001600 		.4byte	0x160010
 4635 219c 1D       		.uleb128 0x1d
 4636 219d 164A0000 		.4byte	.LASF685
 4637 21a1 11001600 		.4byte	0x160011
ARM GAS  C:\Users\kateb\AppData\Local\Temp\cciDLH78.s 			page 114


 4638 21a5 1D       		.uleb128 0x1d
 4639 21a6 373A0000 		.4byte	.LASF686
 4640 21aa 12001600 		.4byte	0x160012
 4641 21ae 1D       		.uleb128 0x1d
 4642 21af 59250000 		.4byte	.LASF687
 4643 21b3 13001600 		.4byte	0x160013
 4644 21b7 1D       		.uleb128 0x1d
 4645 21b8 8D2D0000 		.4byte	.LASF688
 4646 21bc 14001600 		.4byte	0x160014
 4647 21c0 1D       		.uleb128 0x1d
 4648 21c1 CF440000 		.4byte	.LASF689
 4649 21c5 15001600 		.4byte	0x160015
 4650 21c9 1D       		.uleb128 0x1d
 4651 21ca AE190000 		.4byte	.LASF690
 4652 21ce 16001600 		.4byte	0x160016
 4653 21d2 1D       		.uleb128 0x1d
 4654 21d3 90420000 		.4byte	.LASF691
 4655 21d7 17001600 		.4byte	0x160017
 4656 21db 1D       		.uleb128 0x1d
 4657 21dc 3F290000 		.4byte	.LASF692
 4658 21e0 18001600 		.4byte	0x160018
 4659 21e4 1D       		.uleb128 0x1d
 4660 21e5 4C0B0000 		.4byte	.LASF693
 4661 21e9 19001600 		.4byte	0x160019
 4662 21ed 1D       		.uleb128 0x1d
 4663 21ee F8520000 		.4byte	.LASF694
 4664 21f2 FE001600 		.4byte	0x1600fe
 4665 21f6 1D       		.uleb128 0x1d
 4666 21f7 773A0000 		.4byte	.LASF695
 4667 21fb FF001600 		.4byte	0x1600ff
 4668 21ff 1D       		.uleb128 0x1d
 4669 2200 9B350000 		.4byte	.LASF696
 4670 2204 FFFF1600 		.4byte	0x16ffff
 4671 2208 00       		.byte	0
 4672 2209 16       		.uleb128 0x16
 4673 220a 4B560000 		.4byte	.LASF697
 4674 220e 09       		.byte	0x9
 4675 220f 2205     		.2byte	0x522
 4676 2211 F0200000 		.4byte	0x20f0
 4677 2215 16       		.uleb128 0x16
 4678 2216 B1070000 		.4byte	.LASF698
 4679 221a 09       		.byte	0x9
 4680 221b 2A05     		.2byte	0x52a
 4681 221d 21220000 		.4byte	0x2221
 4682 2221 06       		.uleb128 0x6
 4683 2222 04       		.byte	0x4
 4684 2223 27220000 		.4byte	0x2227
 4685 2227 23       		.uleb128 0x23
 4686 2228 37220000 		.4byte	0x2237
 4687 222c 20       		.uleb128 0x20
 4688 222d E4200000 		.4byte	0x20e4
 4689 2231 20       		.uleb128 0x20
 4690 2232 B0000000 		.4byte	0xb0
 4691 2236 00       		.byte	0
 4692 2237 1E       		.uleb128 0x1e
 4693 2238 07       		.byte	0x7
 4694 2239 09       		.byte	0x9
ARM GAS  C:\Users\kateb\AppData\Local\Temp\cciDLH78.s 			page 115


 4695 223a 4005     		.2byte	0x540
 4696 223c 5B220000 		.4byte	0x225b
 4697 2240 18       		.uleb128 0x18
 4698 2241 3E1C0000 		.4byte	.LASF699
 4699 2245 09       		.byte	0x9
 4700 2246 4305     		.2byte	0x543
 4701 2248 5B220000 		.4byte	0x225b
 4702 224c 00       		.byte	0
 4703 224d 18       		.uleb128 0x18
 4704 224e 4D100000 		.4byte	.LASF544
 4705 2252 09       		.byte	0x9
 4706 2253 4605     		.2byte	0x546
 4707 2255 CB000000 		.4byte	0xcb
 4708 2259 06       		.byte	0x6
 4709 225a 00       		.byte	0
 4710 225b 0D       		.uleb128 0xd
 4711 225c CB000000 		.4byte	0xcb
 4712 2260 6B220000 		.4byte	0x226b
 4713 2264 0E       		.uleb128 0xe
 4714 2265 A9000000 		.4byte	0xa9
 4715 2269 05       		.byte	0x5
 4716 226a 00       		.byte	0
 4717 226b 16       		.uleb128 0x16
 4718 226c DB360000 		.4byte	.LASF700
 4719 2270 09       		.byte	0x9
 4720 2271 4805     		.2byte	0x548
 4721 2273 37220000 		.4byte	0x2237
 4722 2277 1E       		.uleb128 0x1e
 4723 2278 06       		.byte	0x6
 4724 2279 09       		.byte	0x9
 4725 227a 4F05     		.2byte	0x54f
 4726 227c B5220000 		.4byte	0x22b5
 4727 2280 18       		.uleb128 0x18
 4728 2281 4A4B0000 		.4byte	.LASF701
 4729 2285 09       		.byte	0x9
 4730 2286 5505     		.2byte	0x555
 4731 2288 D6000000 		.4byte	0xd6
 4732 228c 00       		.byte	0
 4733 228d 18       		.uleb128 0x18
 4734 228e CB410000 		.4byte	.LASF702
 4735 2292 09       		.byte	0x9
 4736 2293 5B05     		.2byte	0x55b
 4737 2295 D6000000 		.4byte	0xd6
 4738 2299 02       		.byte	0x2
 4739 229a 18       		.uleb128 0x18
 4740 229b 34550000 		.4byte	.LASF703
 4741 229f 09       		.byte	0x9
 4742 22a0 6105     		.2byte	0x561
 4743 22a2 CB000000 		.4byte	0xcb
 4744 22a6 04       		.byte	0x4
 4745 22a7 18       		.uleb128 0x18
 4746 22a8 3C510000 		.4byte	.LASF704
 4747 22ac 09       		.byte	0x9
 4748 22ad 6705     		.2byte	0x567
 4749 22af CB000000 		.4byte	0xcb
 4750 22b3 05       		.byte	0x5
 4751 22b4 00       		.byte	0
ARM GAS  C:\Users\kateb\AppData\Local\Temp\cciDLH78.s 			page 116


 4752 22b5 16       		.uleb128 0x16
 4753 22b6 16310000 		.4byte	.LASF705
 4754 22ba 09       		.byte	0x9
 4755 22bb 6905     		.2byte	0x569
 4756 22bd 77220000 		.4byte	0x2277
 4757 22c1 1E       		.uleb128 0x1e
 4758 22c2 01       		.byte	0x1
 4759 22c3 09       		.byte	0x9
 4760 22c4 6C05     		.2byte	0x56c
 4761 22c6 D8220000 		.4byte	0x22d8
 4762 22ca 18       		.uleb128 0x18
 4763 22cb 65530000 		.4byte	.LASF706
 4764 22cf 09       		.byte	0x9
 4765 22d0 7305     		.2byte	0x573
 4766 22d2 CB000000 		.4byte	0xcb
 4767 22d6 00       		.byte	0
 4768 22d7 00       		.byte	0
 4769 22d8 16       		.uleb128 0x16
 4770 22d9 52170000 		.4byte	.LASF707
 4771 22dd 09       		.byte	0x9
 4772 22de 7505     		.2byte	0x575
 4773 22e0 C1220000 		.4byte	0x22c1
 4774 22e4 1E       		.uleb128 0x1e
 4775 22e5 01       		.byte	0x1
 4776 22e6 09       		.byte	0x9
 4777 22e7 7905     		.2byte	0x579
 4778 22e9 FB220000 		.4byte	0x22fb
 4779 22ed 18       		.uleb128 0x18
 4780 22ee A5540000 		.4byte	.LASF708
 4781 22f2 09       		.byte	0x9
 4782 22f3 7C05     		.2byte	0x57c
 4783 22f5 CB000000 		.4byte	0xcb
 4784 22f9 00       		.byte	0
 4785 22fa 00       		.byte	0
 4786 22fb 16       		.uleb128 0x16
 4787 22fc 834A0000 		.4byte	.LASF709
 4788 2300 09       		.byte	0x9
 4789 2301 7E05     		.2byte	0x57e
 4790 2303 E4220000 		.4byte	0x22e4
 4791 2307 1E       		.uleb128 0x1e
 4792 2308 01       		.byte	0x1
 4793 2309 09       		.byte	0x9
 4794 230a 8105     		.2byte	0x581
 4795 230c 1E230000 		.4byte	0x231e
 4796 2310 18       		.uleb128 0x18
 4797 2311 B81A0000 		.4byte	.LASF710
 4798 2315 09       		.byte	0x9
 4799 2316 8505     		.2byte	0x585
 4800 2318 CB000000 		.4byte	0xcb
 4801 231c 00       		.byte	0
 4802 231d 00       		.byte	0
 4803 231e 16       		.uleb128 0x16
 4804 231f 151B0000 		.4byte	.LASF711
 4805 2323 09       		.byte	0x9
 4806 2324 8705     		.2byte	0x587
 4807 2326 07230000 		.4byte	0x2307
 4808 232a 1E       		.uleb128 0x1e
ARM GAS  C:\Users\kateb\AppData\Local\Temp\cciDLH78.s 			page 117


 4809 232b 01       		.byte	0x1
 4810 232c 09       		.byte	0x9
 4811 232d 8A05     		.2byte	0x58a
 4812 232f 41230000 		.4byte	0x2341
 4813 2333 18       		.uleb128 0x18
 4814 2334 C0150000 		.4byte	.LASF712
 4815 2338 09       		.byte	0x9
 4816 2339 8D05     		.2byte	0x58d
 4817 233b CB000000 		.4byte	0xcb
 4818 233f 00       		.byte	0
 4819 2340 00       		.byte	0
 4820 2341 16       		.uleb128 0x16
 4821 2342 A03B0000 		.4byte	.LASF713
 4822 2346 09       		.byte	0x9
 4823 2347 8F05     		.2byte	0x58f
 4824 2349 2A230000 		.4byte	0x232a
 4825 234d 1E       		.uleb128 0x1e
 4826 234e 10       		.byte	0x10
 4827 234f 09       		.byte	0x9
 4828 2350 9505     		.2byte	0x595
 4829 2352 BF230000 		.4byte	0x23bf
 4830 2356 18       		.uleb128 0x18
 4831 2357 213D0000 		.4byte	.LASF714
 4832 235b 09       		.byte	0x9
 4833 235c 9805     		.2byte	0x598
 4834 235e B5220000 		.4byte	0x22b5
 4835 2362 00       		.byte	0
 4836 2363 18       		.uleb128 0x18
 4837 2364 642F0000 		.4byte	.LASF715
 4838 2368 09       		.byte	0x9
 4839 2369 9B05     		.2byte	0x59b
 4840 236b D8220000 		.4byte	0x22d8
 4841 236f 06       		.byte	0x6
 4842 2370 18       		.uleb128 0x18
 4843 2371 AB1D0000 		.4byte	.LASF716
 4844 2375 09       		.byte	0x9
 4845 2376 9E05     		.2byte	0x59e
 4846 2378 FB220000 		.4byte	0x22fb
 4847 237c 07       		.byte	0x7
 4848 237d 18       		.uleb128 0x18
 4849 237e 8B030000 		.4byte	.LASF717
 4850 2382 09       		.byte	0x9
 4851 2383 A105     		.2byte	0x5a1
 4852 2385 1E230000 		.4byte	0x231e
 4853 2389 08       		.byte	0x8
 4854 238a 18       		.uleb128 0x18
 4855 238b A81A0000 		.4byte	.LASF718
 4856 238f 09       		.byte	0x9
 4857 2390 A405     		.2byte	0x5a4
 4858 2392 41230000 		.4byte	0x2341
 4859 2396 09       		.byte	0x9
 4860 2397 18       		.uleb128 0x18
 4861 2398 801B0000 		.4byte	.LASF719
 4862 239c 09       		.byte	0x9
 4863 239d B305     		.2byte	0x5b3
 4864 239f D6000000 		.4byte	0xd6
 4865 23a3 0A       		.byte	0xa
ARM GAS  C:\Users\kateb\AppData\Local\Temp\cciDLH78.s 			page 118


 4866 23a4 18       		.uleb128 0x18
 4867 23a5 20430000 		.4byte	.LASF720
 4868 23a9 09       		.byte	0x9
 4869 23aa B605     		.2byte	0x5b6
 4870 23ac D6000000 		.4byte	0xd6
 4871 23b0 0C       		.byte	0xc
 4872 23b1 18       		.uleb128 0x18
 4873 23b2 A54C0000 		.4byte	.LASF721
 4874 23b6 09       		.byte	0x9
 4875 23b7 BC05     		.2byte	0x5bc
 4876 23b9 CB000000 		.4byte	0xcb
 4877 23bd 0E       		.byte	0xe
 4878 23be 00       		.byte	0
 4879 23bf 16       		.uleb128 0x16
 4880 23c0 570A0000 		.4byte	.LASF722
 4881 23c4 09       		.byte	0x9
 4882 23c5 BE05     		.2byte	0x5be
 4883 23c7 4D230000 		.4byte	0x234d
 4884 23cb 1E       		.uleb128 0x1e
 4885 23cc 04       		.byte	0x4
 4886 23cd 09       		.byte	0x9
 4887 23ce C205     		.2byte	0x5c2
 4888 23d0 EF230000 		.4byte	0x23ef
 4889 23d4 18       		.uleb128 0x18
 4890 23d5 73500000 		.4byte	.LASF723
 4891 23d9 09       		.byte	0x9
 4892 23da C505     		.2byte	0x5c5
 4893 23dc D6000000 		.4byte	0xd6
 4894 23e0 00       		.byte	0
 4895 23e1 18       		.uleb128 0x18
 4896 23e2 3C140000 		.4byte	.LASF724
 4897 23e6 09       		.byte	0x9
 4898 23e7 C805     		.2byte	0x5c8
 4899 23e9 D6000000 		.4byte	0xd6
 4900 23ed 02       		.byte	0x2
 4901 23ee 00       		.byte	0
 4902 23ef 16       		.uleb128 0x16
 4903 23f0 FA4D0000 		.4byte	.LASF725
 4904 23f4 09       		.byte	0x9
 4905 23f5 CA05     		.2byte	0x5ca
 4906 23f7 CB230000 		.4byte	0x23cb
 4907 23fb 1E       		.uleb128 0x1e
 4908 23fc 14       		.byte	0x14
 4909 23fd 09       		.byte	0x9
 4910 23fe DC05     		.2byte	0x5dc
 4911 2400 53240000 		.4byte	0x2453
 4912 2404 18       		.uleb128 0x18
 4913 2405 521A0000 		.4byte	.LASF726
 4914 2409 09       		.byte	0x9
 4915 240a DF05     		.2byte	0x5df
 4916 240c 53240000 		.4byte	0x2453
 4917 2410 00       		.byte	0
 4918 2411 18       		.uleb128 0x18
 4919 2412 BE4E0000 		.4byte	.LASF727
 4920 2416 09       		.byte	0x9
 4921 2417 E205     		.2byte	0x5e2
 4922 2419 59240000 		.4byte	0x2459
ARM GAS  C:\Users\kateb\AppData\Local\Temp\cciDLH78.s 			page 119


 4923 241d 04       		.byte	0x4
 4924 241e 18       		.uleb128 0x18
 4925 241f BE2C0000 		.4byte	.LASF728
 4926 2423 09       		.byte	0x9
 4927 2424 E505     		.2byte	0x5e5
 4928 2426 D6000000 		.4byte	0xd6
 4929 242a 08       		.byte	0x8
 4930 242b 18       		.uleb128 0x18
 4931 242c 091D0000 		.4byte	.LASF729
 4932 2430 09       		.byte	0x9
 4933 2431 E805     		.2byte	0x5e8
 4934 2433 CB000000 		.4byte	0xcb
 4935 2437 0A       		.byte	0xa
 4936 2438 18       		.uleb128 0x18
 4937 2439 54450000 		.4byte	.LASF730
 4938 243d 09       		.byte	0x9
 4939 243e EC05     		.2byte	0x5ec
 4940 2440 5F240000 		.4byte	0x245f
 4941 2444 0C       		.byte	0xc
 4942 2445 18       		.uleb128 0x18
 4943 2446 210B0000 		.4byte	.LASF731
 4944 244a 09       		.byte	0x9
 4945 244b EF05     		.2byte	0x5ef
 4946 244d EC000000 		.4byte	0xec
 4947 2451 10       		.byte	0x10
 4948 2452 00       		.byte	0
 4949 2453 06       		.uleb128 0x6
 4950 2454 04       		.byte	0x4
 4951 2455 CB000000 		.4byte	0xcb
 4952 2459 06       		.uleb128 0x6
 4953 245a 04       		.byte	0x4
 4954 245b EF230000 		.4byte	0x23ef
 4955 245f 06       		.uleb128 0x6
 4956 2460 04       		.byte	0x4
 4957 2461 65240000 		.4byte	0x2465
 4958 2465 0C       		.uleb128 0xc
 4959 2466 CB000000 		.4byte	0xcb
 4960 246a 16       		.uleb128 0x16
 4961 246b E41F0000 		.4byte	.LASF732
 4962 246f 09       		.byte	0x9
 4963 2470 F105     		.2byte	0x5f1
 4964 2472 FB230000 		.4byte	0x23fb
 4965 2476 1E       		.uleb128 0x1e
 4966 2477 28       		.byte	0x28
 4967 2478 09       		.byte	0x9
 4968 2479 F505     		.2byte	0x5f5
 4969 247b A7240000 		.4byte	0x24a7
 4970 247f 18       		.uleb128 0x18
 4971 2480 9A380000 		.4byte	.LASF733
 4972 2484 09       		.byte	0x9
 4973 2485 F805     		.2byte	0x5f8
 4974 2487 15220000 		.4byte	0x2215
 4975 248b 00       		.byte	0
 4976 248c 18       		.uleb128 0x18
 4977 248d 504C0000 		.4byte	.LASF734
 4978 2491 09       		.byte	0x9
 4979 2492 FB05     		.2byte	0x5fb
ARM GAS  C:\Users\kateb\AppData\Local\Temp\cciDLH78.s 			page 120


 4980 2494 6A240000 		.4byte	0x246a
 4981 2498 04       		.byte	0x4
 4982 2499 18       		.uleb128 0x18
 4983 249a 7F410000 		.4byte	.LASF735
 4984 249e 09       		.byte	0x9
 4985 249f FE05     		.2byte	0x5fe
 4986 24a1 BF230000 		.4byte	0x23bf
 4987 24a5 18       		.byte	0x18
 4988 24a6 00       		.byte	0
 4989 24a7 16       		.uleb128 0x16
 4990 24a8 EF4F0000 		.4byte	.LASF736
 4991 24ac 09       		.byte	0x9
 4992 24ad 0006     		.2byte	0x600
 4993 24af 76240000 		.4byte	0x2476
 4994 24b3 1C       		.uleb128 0x1c
 4995 24b4 01       		.byte	0x1
 4996 24b5 4C000000 		.4byte	0x4c
 4997 24b9 09       		.byte	0x9
 4998 24ba 1606     		.2byte	0x616
 4999 24bc E5240000 		.4byte	0x24e5
 5000 24c0 09       		.uleb128 0x9
 5001 24c1 62560000 		.4byte	.LASF737
 5002 24c5 6C       		.sleb128 -20
 5003 24c6 09       		.uleb128 0x9
 5004 24c7 194D0000 		.4byte	.LASF738
 5005 24cb 70       		.sleb128 -16
 5006 24cc 09       		.uleb128 0x9
 5007 24cd DC370000 		.4byte	.LASF739
 5008 24d1 74       		.sleb128 -12
 5009 24d2 09       		.uleb128 0x9
 5010 24d3 283E0000 		.4byte	.LASF740
 5011 24d7 7A       		.sleb128 -6
 5012 24d8 0A       		.uleb128 0xa
 5013 24d9 2F430000 		.4byte	.LASF741
 5014 24dd 00       		.byte	0
 5015 24de 0A       		.uleb128 0xa
 5016 24df 81110000 		.4byte	.LASF742
 5017 24e3 04       		.byte	0x4
 5018 24e4 00       		.byte	0
 5019 24e5 16       		.uleb128 0x16
 5020 24e6 914F0000 		.4byte	.LASF743
 5021 24ea 09       		.byte	0x9
 5022 24eb 2906     		.2byte	0x629
 5023 24ed B3240000 		.4byte	0x24b3
 5024 24f1 1C       		.uleb128 0x1c
 5025 24f2 01       		.byte	0x1
 5026 24f3 5E000000 		.4byte	0x5e
 5027 24f7 09       		.byte	0x9
 5028 24f8 7B06     		.2byte	0x67b
 5029 24fa 11250000 		.4byte	0x2511
 5030 24fe 0A       		.uleb128 0xa
 5031 24ff 96130000 		.4byte	.LASF744
 5032 2503 01       		.byte	0x1
 5033 2504 0A       		.uleb128 0xa
 5034 2505 A20A0000 		.4byte	.LASF745
 5035 2509 02       		.byte	0x2
 5036 250a 0A       		.uleb128 0xa
ARM GAS  C:\Users\kateb\AppData\Local\Temp\cciDLH78.s 			page 121


 5037 250b 014B0000 		.4byte	.LASF746
 5038 250f FF       		.byte	0xff
 5039 2510 00       		.byte	0
 5040 2511 16       		.uleb128 0x16
 5041 2512 82130000 		.4byte	.LASF747
 5042 2516 09       		.byte	0x9
 5043 2517 8C06     		.2byte	0x68c
 5044 2519 F1240000 		.4byte	0x24f1
 5045 251d 1C       		.uleb128 0x1c
 5046 251e 01       		.byte	0x1
 5047 251f 5E000000 		.4byte	0x5e
 5048 2523 09       		.byte	0x9
 5049 2524 9206     		.2byte	0x692
 5050 2526 55250000 		.4byte	0x2555
 5051 252a 0A       		.uleb128 0xa
 5052 252b BE2B0000 		.4byte	.LASF748
 5053 252f 01       		.byte	0x1
 5054 2530 0A       		.uleb128 0xa
 5055 2531 F7490000 		.4byte	.LASF749
 5056 2535 02       		.byte	0x2
 5057 2536 0A       		.uleb128 0xa
 5058 2537 CF530000 		.4byte	.LASF750
 5059 253b 03       		.byte	0x3
 5060 253c 0A       		.uleb128 0xa
 5061 253d B1530000 		.4byte	.LASF751
 5062 2541 04       		.byte	0x4
 5063 2542 0A       		.uleb128 0xa
 5064 2543 2E330000 		.4byte	.LASF752
 5065 2547 05       		.byte	0x5
 5066 2548 0A       		.uleb128 0xa
 5067 2549 9C140000 		.4byte	.LASF753
 5068 254d 06       		.byte	0x6
 5069 254e 0A       		.uleb128 0xa
 5070 254f F6530000 		.4byte	.LASF754
 5071 2553 FF       		.byte	0xff
 5072 2554 00       		.byte	0
 5073 2555 16       		.uleb128 0x16
 5074 2556 B8350000 		.4byte	.LASF755
 5075 255a 09       		.byte	0x9
 5076 255b 9A06     		.2byte	0x69a
 5077 255d 1D250000 		.4byte	0x251d
 5078 2561 1E       		.uleb128 0x1e
 5079 2562 02       		.byte	0x2
 5080 2563 0A       		.byte	0xa
 5081 2564 5B01     		.2byte	0x15b
 5082 2566 85250000 		.4byte	0x2585
 5083 256a 18       		.uleb128 0x18
 5084 256b 5C1B0000 		.4byte	.LASF756
 5085 256f 0A       		.byte	0xa
 5086 2570 6501     		.2byte	0x165
 5087 2572 CB000000 		.4byte	0xcb
 5088 2576 00       		.byte	0
 5089 2577 18       		.uleb128 0x18
 5090 2578 A94A0000 		.4byte	.LASF757
 5091 257c 0A       		.byte	0xa
 5092 257d 6901     		.2byte	0x169
 5093 257f CB000000 		.4byte	0xcb
ARM GAS  C:\Users\kateb\AppData\Local\Temp\cciDLH78.s 			page 122


 5094 2583 01       		.byte	0x1
 5095 2584 00       		.byte	0
 5096 2585 16       		.uleb128 0x16
 5097 2586 3B1D0000 		.4byte	.LASF758
 5098 258a 0A       		.byte	0xa
 5099 258b 6B01     		.2byte	0x16b
 5100 258d 61250000 		.4byte	0x2561
 5101 2591 0D       		.uleb128 0xd
 5102 2592 CB000000 		.4byte	0xcb
 5103 2596 A1250000 		.4byte	0x25a1
 5104 259a 0E       		.uleb128 0xe
 5105 259b A9000000 		.4byte	0xa9
 5106 259f 0F       		.byte	0xf
 5107 25a0 00       		.byte	0
 5108 25a1 16       		.uleb128 0x16
 5109 25a2 42270000 		.4byte	.LASF759
 5110 25a6 0B       		.byte	0xb
 5111 25a7 6901     		.2byte	0x169
 5112 25a9 D6000000 		.4byte	0xd6
 5113 25ad 1E       		.uleb128 0x1e
 5114 25ae 10       		.byte	0x10
 5115 25af 0B       		.byte	0xb
 5116 25b0 6C01     		.2byte	0x16c
 5117 25b2 C4250000 		.4byte	0x25c4
 5118 25b6 18       		.uleb128 0x18
 5119 25b7 2F250000 		.4byte	.LASF760
 5120 25bb 0B       		.byte	0xb
 5121 25bc 6F01     		.2byte	0x16f
 5122 25be 91250000 		.4byte	0x2591
 5123 25c2 00       		.byte	0
 5124 25c3 00       		.byte	0
 5125 25c4 16       		.uleb128 0x16
 5126 25c5 770F0000 		.4byte	.LASF761
 5127 25c9 0B       		.byte	0xb
 5128 25ca 7001     		.2byte	0x170
 5129 25cc AD250000 		.4byte	0x25ad
 5130 25d0 24       		.uleb128 0x24
 5131 25d1 10       		.byte	0x10
 5132 25d2 0B       		.byte	0xb
 5133 25d3 7401     		.2byte	0x174
 5134 25d5 F2250000 		.4byte	0x25f2
 5135 25d9 25       		.uleb128 0x25
 5136 25da A3260000 		.4byte	.LASF762
 5137 25de 0B       		.byte	0xb
 5138 25df 7701     		.2byte	0x177
 5139 25e1 A1250000 		.4byte	0x25a1
 5140 25e5 25       		.uleb128 0x25
 5141 25e6 4A4D0000 		.4byte	.LASF763
 5142 25ea 0B       		.byte	0xb
 5143 25eb 7A01     		.2byte	0x17a
 5144 25ed C4250000 		.4byte	0x25c4
 5145 25f1 00       		.byte	0
 5146 25f2 16       		.uleb128 0x16
 5147 25f3 61320000 		.4byte	.LASF764
 5148 25f7 0B       		.byte	0xb
 5149 25f8 7C01     		.2byte	0x17c
 5150 25fa D0250000 		.4byte	0x25d0
ARM GAS  C:\Users\kateb\AppData\Local\Temp\cciDLH78.s 			page 123


 5151 25fe 16       		.uleb128 0x16
 5152 25ff 043D0000 		.4byte	.LASF765
 5153 2603 0B       		.byte	0xb
 5154 2604 7F01     		.2byte	0x17f
 5155 2606 D6000000 		.4byte	0xd6
 5156 260a 1E       		.uleb128 0x1e
 5157 260b 04       		.byte	0x4
 5158 260c 0B       		.byte	0xb
 5159 260d B101     		.2byte	0x1b1
 5160 260f 2E260000 		.4byte	0x262e
 5161 2613 18       		.uleb128 0x18
 5162 2614 B60C0000 		.4byte	.LASF766
 5163 2618 0B       		.byte	0xb
 5164 2619 B401     		.2byte	0x1b4
 5165 261b FE250000 		.4byte	0x25fe
 5166 261f 00       		.byte	0
 5167 2620 18       		.uleb128 0x18
 5168 2621 A5230000 		.4byte	.LASF767
 5169 2625 0B       		.byte	0xb
 5170 2626 B701     		.2byte	0x1b7
 5171 2628 FE250000 		.4byte	0x25fe
 5172 262c 02       		.byte	0x2
 5173 262d 00       		.byte	0
 5174 262e 16       		.uleb128 0x16
 5175 262f E6140000 		.4byte	.LASF768
 5176 2633 0B       		.byte	0xb
 5177 2634 B901     		.2byte	0x1b9
 5178 2636 0A260000 		.4byte	0x260a
 5179 263a 08       		.uleb128 0x8
 5180 263b 01       		.byte	0x1
 5181 263c 5E000000 		.4byte	0x5e
 5182 2640 0C       		.byte	0xc
 5183 2641 D0       		.byte	0xd0
 5184 2642 65260000 		.4byte	0x2665
 5185 2646 0A       		.uleb128 0xa
 5186 2647 443E0000 		.4byte	.LASF769
 5187 264b 00       		.byte	0
 5188 264c 0A       		.uleb128 0xa
 5189 264d 6F320000 		.4byte	.LASF770
 5190 2651 01       		.byte	0x1
 5191 2652 0A       		.uleb128 0xa
 5192 2653 9F4E0000 		.4byte	.LASF771
 5193 2657 02       		.byte	0x2
 5194 2658 0A       		.uleb128 0xa
 5195 2659 D7190000 		.4byte	.LASF772
 5196 265d 03       		.byte	0x3
 5197 265e 0A       		.uleb128 0xa
 5198 265f 4F2C0000 		.4byte	.LASF773
 5199 2663 04       		.byte	0x4
 5200 2664 00       		.byte	0
 5201 2665 04       		.uleb128 0x4
 5202 2666 EF0D0000 		.4byte	.LASF774
 5203 266a 0C       		.byte	0xc
 5204 266b E2       		.byte	0xe2
 5205 266c 3A260000 		.4byte	0x263a
 5206 2670 08       		.uleb128 0x8
 5207 2671 01       		.byte	0x1
ARM GAS  C:\Users\kateb\AppData\Local\Temp\cciDLH78.s 			page 124


 5208 2672 5E000000 		.4byte	0x5e
 5209 2676 0C       		.byte	0xc
 5210 2677 E6       		.byte	0xe6
 5211 2678 E3260000 		.4byte	0x26e3
 5212 267c 0A       		.uleb128 0xa
 5213 267d 8D240000 		.4byte	.LASF775
 5214 2681 00       		.byte	0
 5215 2682 0A       		.uleb128 0xa
 5216 2683 171F0000 		.4byte	.LASF776
 5217 2687 01       		.byte	0x1
 5218 2688 0A       		.uleb128 0xa
 5219 2689 49000000 		.4byte	.LASF777
 5220 268d 02       		.byte	0x2
 5221 268e 0A       		.uleb128 0xa
 5222 268f 9A030000 		.4byte	.LASF778
 5223 2693 03       		.byte	0x3
 5224 2694 0A       		.uleb128 0xa
 5225 2695 83440000 		.4byte	.LASF779
 5226 2699 04       		.byte	0x4
 5227 269a 0A       		.uleb128 0xa
 5228 269b 8D1C0000 		.4byte	.LASF780
 5229 269f 05       		.byte	0x5
 5230 26a0 0A       		.uleb128 0xa
 5231 26a1 591F0000 		.4byte	.LASF781
 5232 26a5 06       		.byte	0x6
 5233 26a6 0A       		.uleb128 0xa
 5234 26a7 FE540000 		.4byte	.LASF782
 5235 26ab 07       		.byte	0x7
 5236 26ac 0A       		.uleb128 0xa
 5237 26ad F80A0000 		.4byte	.LASF783
 5238 26b1 08       		.byte	0x8
 5239 26b2 0A       		.uleb128 0xa
 5240 26b3 E01B0000 		.4byte	.LASF784
 5241 26b7 09       		.byte	0x9
 5242 26b8 0A       		.uleb128 0xa
 5243 26b9 BD010000 		.4byte	.LASF785
 5244 26bd 0A       		.byte	0xa
 5245 26be 0A       		.uleb128 0xa
 5246 26bf 2A300000 		.4byte	.LASF786
 5247 26c3 0B       		.byte	0xb
 5248 26c4 0A       		.uleb128 0xa
 5249 26c5 14370000 		.4byte	.LASF787
 5250 26c9 0C       		.byte	0xc
 5251 26ca 0A       		.uleb128 0xa
 5252 26cb 47480000 		.4byte	.LASF788
 5253 26cf 0D       		.byte	0xd
 5254 26d0 0A       		.uleb128 0xa
 5255 26d1 2B380000 		.4byte	.LASF789
 5256 26d5 0E       		.byte	0xe
 5257 26d6 0A       		.uleb128 0xa
 5258 26d7 644F0000 		.4byte	.LASF790
 5259 26db 15       		.byte	0x15
 5260 26dc 0A       		.uleb128 0xa
 5261 26dd BB500000 		.4byte	.LASF791
 5262 26e1 18       		.byte	0x18
 5263 26e2 00       		.byte	0
 5264 26e3 16       		.uleb128 0x16
ARM GAS  C:\Users\kateb\AppData\Local\Temp\cciDLH78.s 			page 125


 5265 26e4 E13C0000 		.4byte	.LASF792
 5266 26e8 0C       		.byte	0xc
 5267 26e9 2301     		.2byte	0x123
 5268 26eb 70260000 		.4byte	0x2670
 5269 26ef 16       		.uleb128 0x16
 5270 26f0 5D440000 		.4byte	.LASF793
 5271 26f4 0C       		.byte	0xc
 5272 26f5 6101     		.2byte	0x161
 5273 26f7 6B220000 		.4byte	0x226b
 5274 26fb 1E       		.uleb128 0x1e
 5275 26fc 06       		.byte	0x6
 5276 26fd 0C       		.byte	0xc
 5277 26fe E501     		.2byte	0x1e5
 5278 2700 53270000 		.4byte	0x2753
 5279 2704 18       		.uleb128 0x18
 5280 2705 EB2D0000 		.4byte	.LASF794
 5281 2709 0C       		.byte	0xc
 5282 270a EE01     		.2byte	0x1ee
 5283 270c CB000000 		.4byte	0xcb
 5284 2710 00       		.byte	0
 5285 2711 18       		.uleb128 0x18
 5286 2712 7E500000 		.4byte	.LASF795
 5287 2716 0C       		.byte	0xc
 5288 2717 F401     		.2byte	0x1f4
 5289 2719 CB000000 		.4byte	0xcb
 5290 271d 01       		.byte	0x1
 5291 271e 18       		.uleb128 0x18
 5292 271f AF230000 		.4byte	.LASF796
 5293 2723 0C       		.byte	0xc
 5294 2724 FB01     		.2byte	0x1fb
 5295 2726 CB000000 		.4byte	0xcb
 5296 272a 02       		.byte	0x2
 5297 272b 18       		.uleb128 0x18
 5298 272c 424D0000 		.4byte	.LASF797
 5299 2730 0C       		.byte	0xc
 5300 2731 FF01     		.2byte	0x1ff
 5301 2733 E3260000 		.4byte	0x26e3
 5302 2737 03       		.byte	0x3
 5303 2738 18       		.uleb128 0x18
 5304 2739 DE040000 		.4byte	.LASF798
 5305 273d 0C       		.byte	0xc
 5306 273e 0902     		.2byte	0x209
 5307 2740 CB000000 		.4byte	0xcb
 5308 2744 04       		.byte	0x4
 5309 2745 18       		.uleb128 0x18
 5310 2746 5C1B0000 		.4byte	.LASF756
 5311 274a 0C       		.byte	0xc
 5312 274b 0C02     		.2byte	0x20c
 5313 274d CB000000 		.4byte	0xcb
 5314 2751 05       		.byte	0x5
 5315 2752 00       		.byte	0
 5316 2753 16       		.uleb128 0x16
 5317 2754 09200000 		.4byte	.LASF799
 5318 2758 0C       		.byte	0xc
 5319 2759 0E02     		.2byte	0x20e
 5320 275b FB260000 		.4byte	0x26fb
 5321 275f 1B       		.uleb128 0x1b
ARM GAS  C:\Users\kateb\AppData\Local\Temp\cciDLH78.s 			page 126


 5322 2760 0C       		.byte	0xc
 5323 2761 0D       		.byte	0xd
 5324 2762 6D       		.byte	0x6d
 5325 2763 C8270000 		.4byte	0x27c8
 5326 2767 11       		.uleb128 0x11
 5327 2768 DF200000 		.4byte	.LASF800
 5328 276c 0D       		.byte	0xd
 5329 276d 74       		.byte	0x74
 5330 276e CB000000 		.4byte	0xcb
 5331 2772 00       		.byte	0
 5332 2773 11       		.uleb128 0x11
 5333 2774 D8290000 		.4byte	.LASF801
 5334 2778 0D       		.byte	0xd
 5335 2779 7A       		.byte	0x7a
 5336 277a CB000000 		.4byte	0xcb
 5337 277e 01       		.byte	0x1
 5338 277f 11       		.uleb128 0x11
 5339 2780 39100000 		.4byte	.LASF802
 5340 2784 0D       		.byte	0xd
 5341 2785 81       		.byte	0x81
 5342 2786 D6000000 		.4byte	0xd6
 5343 278a 02       		.byte	0x2
 5344 278b 11       		.uleb128 0x11
 5345 278c ED380000 		.4byte	.LASF803
 5346 2790 0D       		.byte	0xd
 5347 2791 88       		.byte	0x88
 5348 2792 D6000000 		.4byte	0xd6
 5349 2796 04       		.byte	0x4
 5350 2797 11       		.uleb128 0x11
 5351 2798 0B1F0000 		.4byte	.LASF804
 5352 279c 0D       		.byte	0xd
 5353 279d 90       		.byte	0x90
 5354 279e CB000000 		.4byte	0xcb
 5355 27a2 06       		.byte	0x6
 5356 27a3 11       		.uleb128 0x11
 5357 27a4 AF460000 		.4byte	.LASF805
 5358 27a8 0D       		.byte	0xd
 5359 27a9 98       		.byte	0x98
 5360 27aa CB000000 		.4byte	0xcb
 5361 27ae 07       		.byte	0x7
 5362 27af 11       		.uleb128 0x11
 5363 27b0 DD080000 		.4byte	.LASF806
 5364 27b4 0D       		.byte	0xd
 5365 27b5 9C       		.byte	0x9c
 5366 27b6 D6000000 		.4byte	0xd6
 5367 27ba 08       		.byte	0x8
 5368 27bb 11       		.uleb128 0x11
 5369 27bc E83B0000 		.4byte	.LASF807
 5370 27c0 0D       		.byte	0xd
 5371 27c1 A6       		.byte	0xa6
 5372 27c2 CB000000 		.4byte	0xcb
 5373 27c6 0A       		.byte	0xa
 5374 27c7 00       		.byte	0
 5375 27c8 04       		.uleb128 0x4
 5376 27c9 C8340000 		.4byte	.LASF808
 5377 27cd 0D       		.byte	0xd
 5378 27ce A8       		.byte	0xa8
ARM GAS  C:\Users\kateb\AppData\Local\Temp\cciDLH78.s 			page 127


 5379 27cf 5F270000 		.4byte	0x275f
 5380 27d3 08       		.uleb128 0x8
 5381 27d4 01       		.byte	0x1
 5382 27d5 5E000000 		.4byte	0x5e
 5383 27d9 0E       		.byte	0xe
 5384 27da 39       		.byte	0x39
 5385 27db FE270000 		.4byte	0x27fe
 5386 27df 0A       		.uleb128 0xa
 5387 27e0 02210000 		.4byte	.LASF809
 5388 27e4 00       		.byte	0
 5389 27e5 0A       		.uleb128 0xa
 5390 27e6 D24C0000 		.4byte	.LASF810
 5391 27ea 01       		.byte	0x1
 5392 27eb 0A       		.uleb128 0xa
 5393 27ec 473F0000 		.4byte	.LASF811
 5394 27f0 02       		.byte	0x2
 5395 27f1 0A       		.uleb128 0xa
 5396 27f2 E0160000 		.4byte	.LASF812
 5397 27f6 03       		.byte	0x3
 5398 27f7 0A       		.uleb128 0xa
 5399 27f8 46260000 		.4byte	.LASF813
 5400 27fc 04       		.byte	0x4
 5401 27fd 00       		.byte	0
 5402 27fe 04       		.uleb128 0x4
 5403 27ff CA200000 		.4byte	.LASF814
 5404 2803 0E       		.byte	0xe
 5405 2804 49       		.byte	0x49
 5406 2805 D3270000 		.4byte	0x27d3
 5407 2809 1B       		.uleb128 0x1b
 5408 280a 10       		.byte	0x10
 5409 280b 0E       		.byte	0xe
 5410 280c 51       		.byte	0x51
 5411 280d 72280000 		.4byte	0x2872
 5412 2811 11       		.uleb128 0x11
 5413 2812 E0320000 		.4byte	.LASF815
 5414 2816 0E       		.byte	0xe
 5415 2817 59       		.byte	0x59
 5416 2818 D6000000 		.4byte	0xd6
 5417 281c 00       		.byte	0
 5418 281d 11       		.uleb128 0x11
 5419 281e 85260000 		.4byte	.LASF816
 5420 2822 0E       		.byte	0xe
 5421 2823 61       		.byte	0x61
 5422 2824 D6000000 		.4byte	0xd6
 5423 2828 02       		.byte	0x2
 5424 2829 11       		.uleb128 0x11
 5425 282a 62290000 		.4byte	.LASF817
 5426 282e 0E       		.byte	0xe
 5427 282f 6A       		.byte	0x6a
 5428 2830 FE270000 		.4byte	0x27fe
 5429 2834 04       		.byte	0x4
 5430 2835 11       		.uleb128 0x11
 5431 2836 0B1F0000 		.4byte	.LASF804
 5432 283a 0E       		.byte	0xe
 5433 283b 72       		.byte	0x72
 5434 283c CB000000 		.4byte	0xcb
 5435 2840 05       		.byte	0x5
ARM GAS  C:\Users\kateb\AppData\Local\Temp\cciDLH78.s 			page 128


 5436 2841 11       		.uleb128 0x11
 5437 2842 E50B0000 		.4byte	.LASF818
 5438 2846 0E       		.byte	0xe
 5439 2847 79       		.byte	0x79
 5440 2848 CB000000 		.4byte	0xcb
 5441 284c 06       		.byte	0x6
 5442 284d 11       		.uleb128 0x11
 5443 284e 0E4C0000 		.4byte	.LASF819
 5444 2852 0E       		.byte	0xe
 5445 2853 7F       		.byte	0x7f
 5446 2854 5B220000 		.4byte	0x225b
 5447 2858 07       		.byte	0x7
 5448 2859 11       		.uleb128 0x11
 5449 285a 0A4F0000 		.4byte	.LASF820
 5450 285e 0E       		.byte	0xe
 5451 285f 87       		.byte	0x87
 5452 2860 CB000000 		.4byte	0xcb
 5453 2864 0D       		.byte	0xd
 5454 2865 11       		.uleb128 0x11
 5455 2866 92490000 		.4byte	.LASF821
 5456 286a 0E       		.byte	0xe
 5457 286b 93       		.byte	0x93
 5458 286c CB000000 		.4byte	0xcb
 5459 2870 0E       		.byte	0xe
 5460 2871 00       		.byte	0
 5461 2872 04       		.uleb128 0x4
 5462 2873 B8050000 		.4byte	.LASF822
 5463 2877 0E       		.byte	0xe
 5464 2878 95       		.byte	0x95
 5465 2879 09280000 		.4byte	0x2809
 5466 287d 1B       		.uleb128 0x1b
 5467 287e 20       		.byte	0x20
 5468 287f 0E       		.byte	0xe
 5469 2880 98       		.byte	0x98
 5470 2881 9E280000 		.4byte	0x289e
 5471 2885 11       		.uleb128 0x11
 5472 2886 B62B0000 		.4byte	.LASF823
 5473 288a 0E       		.byte	0xe
 5474 288b 9B       		.byte	0x9b
 5475 288c 9E280000 		.4byte	0x289e
 5476 2890 00       		.byte	0
 5477 2891 11       		.uleb128 0x11
 5478 2892 113A0000 		.4byte	.LASF824
 5479 2896 0E       		.byte	0xe
 5480 2897 9E       		.byte	0x9e
 5481 2898 CB000000 		.4byte	0xcb
 5482 289c 1F       		.byte	0x1f
 5483 289d 00       		.byte	0
 5484 289e 0D       		.uleb128 0xd
 5485 289f CB000000 		.4byte	0xcb
 5486 28a3 AE280000 		.4byte	0x28ae
 5487 28a7 0E       		.uleb128 0xe
 5488 28a8 A9000000 		.4byte	0xa9
 5489 28ac 1E       		.byte	0x1e
 5490 28ad 00       		.byte	0
 5491 28ae 04       		.uleb128 0x4
 5492 28af E1300000 		.4byte	.LASF825
ARM GAS  C:\Users\kateb\AppData\Local\Temp\cciDLH78.s 			page 129


 5493 28b3 0E       		.byte	0xe
 5494 28b4 A0       		.byte	0xa0
 5495 28b5 7D280000 		.4byte	0x287d
 5496 28b9 1B       		.uleb128 0x1b
 5497 28ba 20       		.byte	0x20
 5498 28bb 0E       		.byte	0xe
 5499 28bc A3       		.byte	0xa3
 5500 28bd DA280000 		.4byte	0x28da
 5501 28c1 11       		.uleb128 0x11
 5502 28c2 9A080000 		.4byte	.LASF826
 5503 28c6 0E       		.byte	0xe
 5504 28c7 A7       		.byte	0xa7
 5505 28c8 9E280000 		.4byte	0x289e
 5506 28cc 00       		.byte	0
 5507 28cd 11       		.uleb128 0x11
 5508 28ce 883C0000 		.4byte	.LASF827
 5509 28d2 0E       		.byte	0xe
 5510 28d3 AA       		.byte	0xaa
 5511 28d4 CB000000 		.4byte	0xcb
 5512 28d8 1F       		.byte	0x1f
 5513 28d9 00       		.byte	0
 5514 28da 04       		.uleb128 0x4
 5515 28db 98050000 		.4byte	.LASF828
 5516 28df 0E       		.byte	0xe
 5517 28e0 AC       		.byte	0xac
 5518 28e1 B9280000 		.4byte	0x28b9
 5519 28e5 1B       		.uleb128 0x1b
 5520 28e6 14       		.byte	0x14
 5521 28e7 0E       		.byte	0xe
 5522 28e8 AF       		.byte	0xaf
 5523 28e9 2A290000 		.4byte	0x292a
 5524 28ed 11       		.uleb128 0x11
 5525 28ee 4F500000 		.4byte	.LASF829
 5526 28f2 0E       		.byte	0xe
 5527 28f3 B7       		.byte	0xb7
 5528 28f4 CB000000 		.4byte	0xcb
 5529 28f8 00       		.byte	0
 5530 28f9 11       		.uleb128 0x11
 5531 28fa CC3D0000 		.4byte	.LASF830
 5532 28fe 0E       		.byte	0xe
 5533 28ff BC       		.byte	0xbc
 5534 2900 2A290000 		.4byte	0x292a
 5535 2904 04       		.byte	0x4
 5536 2905 11       		.uleb128 0x11
 5537 2906 B62B0000 		.4byte	.LASF823
 5538 290a 0E       		.byte	0xe
 5539 290b BE       		.byte	0xbe
 5540 290c 30290000 		.4byte	0x2930
 5541 2910 08       		.byte	0x8
 5542 2911 11       		.uleb128 0x11
 5543 2912 9A080000 		.4byte	.LASF826
 5544 2916 0E       		.byte	0xe
 5545 2917 C0       		.byte	0xc0
 5546 2918 36290000 		.4byte	0x2936
 5547 291c 0C       		.byte	0xc
 5548 291d 11       		.uleb128 0x11
 5549 291e 13180000 		.4byte	.LASF831
ARM GAS  C:\Users\kateb\AppData\Local\Temp\cciDLH78.s 			page 130


 5550 2922 0E       		.byte	0xe
 5551 2923 CA       		.byte	0xca
 5552 2924 D6000000 		.4byte	0xd6
 5553 2928 10       		.byte	0x10
 5554 2929 00       		.byte	0
 5555 292a 06       		.uleb128 0x6
 5556 292b 04       		.byte	0x4
 5557 292c 72280000 		.4byte	0x2872
 5558 2930 06       		.uleb128 0x6
 5559 2931 04       		.byte	0x4
 5560 2932 AE280000 		.4byte	0x28ae
 5561 2936 06       		.uleb128 0x6
 5562 2937 04       		.byte	0x4
 5563 2938 DA280000 		.4byte	0x28da
 5564 293c 04       		.uleb128 0x4
 5565 293d E0270000 		.4byte	.LASF832
 5566 2941 0E       		.byte	0xe
 5567 2942 CC       		.byte	0xcc
 5568 2943 E5280000 		.4byte	0x28e5
 5569 2947 08       		.uleb128 0x8
 5570 2948 01       		.byte	0x1
 5571 2949 5E000000 		.4byte	0x5e
 5572 294d 02       		.byte	0x2
 5573 294e 69       		.byte	0x69
 5574 294f 66290000 		.4byte	0x2966
 5575 2953 0A       		.uleb128 0xa
 5576 2954 5B020000 		.4byte	.LASF833
 5577 2958 00       		.byte	0
 5578 2959 0A       		.uleb128 0xa
 5579 295a D41C0000 		.4byte	.LASF834
 5580 295e 01       		.byte	0x1
 5581 295f 0A       		.uleb128 0xa
 5582 2960 16160000 		.4byte	.LASF835
 5583 2964 02       		.byte	0x2
 5584 2965 00       		.byte	0
 5585 2966 04       		.uleb128 0x4
 5586 2967 A2490000 		.4byte	.LASF836
 5587 296b 02       		.byte	0x2
 5588 296c 70       		.byte	0x70
 5589 296d 47290000 		.4byte	0x2947
 5590 2971 08       		.uleb128 0x8
 5591 2972 01       		.byte	0x1
 5592 2973 5E000000 		.4byte	0x5e
 5593 2977 02       		.byte	0x2
 5594 2978 7E       		.byte	0x7e
 5595 2979 96290000 		.4byte	0x2996
 5596 297d 0A       		.uleb128 0xa
 5597 297e 32450000 		.4byte	.LASF837
 5598 2982 00       		.byte	0
 5599 2983 0A       		.uleb128 0xa
 5600 2984 62160000 		.4byte	.LASF838
 5601 2988 01       		.byte	0x1
 5602 2989 0A       		.uleb128 0xa
 5603 298a C3320000 		.4byte	.LASF839
 5604 298e 02       		.byte	0x2
 5605 298f 0A       		.uleb128 0xa
 5606 2990 E0120000 		.4byte	.LASF840
ARM GAS  C:\Users\kateb\AppData\Local\Temp\cciDLH78.s 			page 131


 5607 2994 03       		.byte	0x3
 5608 2995 00       		.byte	0
 5609 2996 04       		.uleb128 0x4
 5610 2997 48350000 		.4byte	.LASF841
 5611 299b 02       		.byte	0x2
 5612 299c 83       		.byte	0x83
 5613 299d 71290000 		.4byte	0x2971
 5614 29a1 08       		.uleb128 0x8
 5615 29a2 01       		.byte	0x1
 5616 29a3 5E000000 		.4byte	0x5e
 5617 29a7 02       		.byte	0x2
 5618 29a8 87       		.byte	0x87
 5619 29a9 DE290000 		.4byte	0x29de
 5620 29ad 0A       		.uleb128 0xa
 5621 29ae CE000000 		.4byte	.LASF842
 5622 29b2 00       		.byte	0
 5623 29b3 0A       		.uleb128 0xa
 5624 29b4 541D0000 		.4byte	.LASF843
 5625 29b8 01       		.byte	0x1
 5626 29b9 0A       		.uleb128 0xa
 5627 29ba D1230000 		.4byte	.LASF844
 5628 29be 02       		.byte	0x2
 5629 29bf 0A       		.uleb128 0xa
 5630 29c0 55360000 		.4byte	.LASF845
 5631 29c4 03       		.byte	0x3
 5632 29c5 0A       		.uleb128 0xa
 5633 29c6 B60F0000 		.4byte	.LASF846
 5634 29ca 04       		.byte	0x4
 5635 29cb 0A       		.uleb128 0xa
 5636 29cc E3500000 		.4byte	.LASF847
 5637 29d0 05       		.byte	0x5
 5638 29d1 0A       		.uleb128 0xa
 5639 29d2 5A190000 		.4byte	.LASF848
 5640 29d6 06       		.byte	0x6
 5641 29d7 0A       		.uleb128 0xa
 5642 29d8 9D470000 		.4byte	.LASF849
 5643 29dc 07       		.byte	0x7
 5644 29dd 00       		.byte	0
 5645 29de 04       		.uleb128 0x4
 5646 29df 15240000 		.4byte	.LASF850
 5647 29e3 02       		.byte	0x2
 5648 29e4 90       		.byte	0x90
 5649 29e5 A1290000 		.4byte	0x29a1
 5650 29e9 1B       		.uleb128 0x1b
 5651 29ea 0C       		.byte	0xc
 5652 29eb 02       		.byte	0x2
 5653 29ec 93       		.byte	0x93
 5654 29ed 3A2A0000 		.4byte	0x2a3a
 5655 29f1 11       		.uleb128 0x11
 5656 29f2 FB470000 		.4byte	.LASF851
 5657 29f6 02       		.byte	0x2
 5658 29f7 96       		.byte	0x96
 5659 29f8 FE250000 		.4byte	0x25fe
 5660 29fc 00       		.byte	0
 5661 29fd 11       		.uleb128 0x11
 5662 29fe 9B410000 		.4byte	.LASF852
 5663 2a02 02       		.byte	0x2
ARM GAS  C:\Users\kateb\AppData\Local\Temp\cciDLH78.s 			page 132


 5664 2a03 99       		.byte	0x99
 5665 2a04 FE250000 		.4byte	0x25fe
 5666 2a08 02       		.byte	0x2
 5667 2a09 11       		.uleb128 0x11
 5668 2a0a A9040000 		.4byte	.LASF853
 5669 2a0e 02       		.byte	0x2
 5670 2a0f 9C       		.byte	0x9c
 5671 2a10 FE250000 		.4byte	0x25fe
 5672 2a14 04       		.byte	0x4
 5673 2a15 11       		.uleb128 0x11
 5674 2a16 2E2B0000 		.4byte	.LASF854
 5675 2a1a 02       		.byte	0x2
 5676 2a1b 9F       		.byte	0x9f
 5677 2a1c FE250000 		.4byte	0x25fe
 5678 2a20 06       		.byte	0x6
 5679 2a21 11       		.uleb128 0x11
 5680 2a22 E8250000 		.4byte	.LASF855
 5681 2a26 02       		.byte	0x2
 5682 2a27 A2       		.byte	0xa2
 5683 2a28 FE250000 		.4byte	0x25fe
 5684 2a2c 08       		.byte	0x8
 5685 2a2d 11       		.uleb128 0x11
 5686 2a2e 8D0C0000 		.4byte	.LASF856
 5687 2a32 02       		.byte	0x2
 5688 2a33 A5       		.byte	0xa5
 5689 2a34 FE250000 		.4byte	0x25fe
 5690 2a38 0A       		.byte	0xa
 5691 2a39 00       		.byte	0
 5692 2a3a 04       		.uleb128 0x4
 5693 2a3b F3340000 		.4byte	.LASF857
 5694 2a3f 02       		.byte	0x2
 5695 2a40 A6       		.byte	0xa6
 5696 2a41 E9290000 		.4byte	0x29e9
 5697 2a45 1B       		.uleb128 0x1b
 5698 2a46 0E       		.byte	0xe
 5699 2a47 02       		.byte	0x2
 5700 2a48 A9       		.byte	0xa9
 5701 2a49 A22A0000 		.4byte	0x2aa2
 5702 2a4d 11       		.uleb128 0x11
 5703 2a4e 9B410000 		.4byte	.LASF852
 5704 2a52 02       		.byte	0x2
 5705 2a53 AC       		.byte	0xac
 5706 2a54 FE250000 		.4byte	0x25fe
 5707 2a58 00       		.byte	0
 5708 2a59 11       		.uleb128 0x11
 5709 2a5a A9040000 		.4byte	.LASF853
 5710 2a5e 02       		.byte	0x2
 5711 2a5f AF       		.byte	0xaf
 5712 2a60 FE250000 		.4byte	0x25fe
 5713 2a64 02       		.byte	0x2
 5714 2a65 11       		.uleb128 0x11
 5715 2a66 A2450000 		.4byte	.LASF858
 5716 2a6a 02       		.byte	0x2
 5717 2a6b B2       		.byte	0xb2
 5718 2a6c FE250000 		.4byte	0x25fe
 5719 2a70 04       		.byte	0x4
 5720 2a71 11       		.uleb128 0x11
ARM GAS  C:\Users\kateb\AppData\Local\Temp\cciDLH78.s 			page 133


 5721 2a72 2C220000 		.4byte	.LASF859
 5722 2a76 02       		.byte	0x2
 5723 2a77 B5       		.byte	0xb5
 5724 2a78 FE250000 		.4byte	0x25fe
 5725 2a7c 06       		.byte	0x6
 5726 2a7d 11       		.uleb128 0x11
 5727 2a7e 2E2B0000 		.4byte	.LASF854
 5728 2a82 02       		.byte	0x2
 5729 2a83 B8       		.byte	0xb8
 5730 2a84 FE250000 		.4byte	0x25fe
 5731 2a88 08       		.byte	0x8
 5732 2a89 11       		.uleb128 0x11
 5733 2a8a E8250000 		.4byte	.LASF855
 5734 2a8e 02       		.byte	0x2
 5735 2a8f BB       		.byte	0xbb
 5736 2a90 FE250000 		.4byte	0x25fe
 5737 2a94 0A       		.byte	0xa
 5738 2a95 11       		.uleb128 0x11
 5739 2a96 8D0C0000 		.4byte	.LASF856
 5740 2a9a 02       		.byte	0x2
 5741 2a9b BE       		.byte	0xbe
 5742 2a9c FE250000 		.4byte	0x25fe
 5743 2aa0 0C       		.byte	0xc
 5744 2aa1 00       		.byte	0
 5745 2aa2 04       		.uleb128 0x4
 5746 2aa3 86050000 		.4byte	.LASF860
 5747 2aa7 02       		.byte	0x2
 5748 2aa8 BF       		.byte	0xbf
 5749 2aa9 452A0000 		.4byte	0x2a45
 5750 2aad 1E       		.uleb128 0x1e
 5751 2aae 0E       		.byte	0xe
 5752 2aaf 02       		.byte	0x2
 5753 2ab0 2B01     		.2byte	0x12b
 5754 2ab2 122B0000 		.4byte	0x2b12
 5755 2ab6 18       		.uleb128 0x18
 5756 2ab7 9D320000 		.4byte	.LASF861
 5757 2abb 02       		.byte	0x2
 5758 2abc 2E01     		.2byte	0x12e
 5759 2abe D6000000 		.4byte	0xd6
 5760 2ac2 00       		.byte	0
 5761 2ac3 18       		.uleb128 0x18
 5762 2ac4 951A0000 		.4byte	.LASF862
 5763 2ac8 02       		.byte	0x2
 5764 2ac9 3101     		.2byte	0x131
 5765 2acb D6000000 		.4byte	0xd6
 5766 2acf 02       		.byte	0x2
 5767 2ad0 18       		.uleb128 0x18
 5768 2ad1 05440000 		.4byte	.LASF863
 5769 2ad5 02       		.byte	0x2
 5770 2ad6 3401     		.2byte	0x134
 5771 2ad8 D6000000 		.4byte	0xd6
 5772 2adc 04       		.byte	0x4
 5773 2add 18       		.uleb128 0x18
 5774 2ade 3F250000 		.4byte	.LASF864
 5775 2ae2 02       		.byte	0x2
 5776 2ae3 3701     		.2byte	0x137
 5777 2ae5 CB000000 		.4byte	0xcb
ARM GAS  C:\Users\kateb\AppData\Local\Temp\cciDLH78.s 			page 134


 5778 2ae9 06       		.byte	0x6
 5779 2aea 18       		.uleb128 0x18
 5780 2aeb B0320000 		.4byte	.LASF865
 5781 2aef 02       		.byte	0x2
 5782 2af0 3A01     		.2byte	0x13a
 5783 2af2 D6000000 		.4byte	0xd6
 5784 2af6 08       		.byte	0x8
 5785 2af7 18       		.uleb128 0x18
 5786 2af8 72260000 		.4byte	.LASF866
 5787 2afc 02       		.byte	0x2
 5788 2afd 3D01     		.2byte	0x13d
 5789 2aff D6000000 		.4byte	0xd6
 5790 2b03 0A       		.byte	0xa
 5791 2b04 18       		.uleb128 0x18
 5792 2b05 AF4A0000 		.4byte	.LASF867
 5793 2b09 02       		.byte	0x2
 5794 2b0a 4001     		.2byte	0x140
 5795 2b0c D6000000 		.4byte	0xd6
 5796 2b10 0C       		.byte	0xc
 5797 2b11 00       		.byte	0
 5798 2b12 16       		.uleb128 0x16
 5799 2b13 A8120000 		.4byte	.LASF868
 5800 2b17 02       		.byte	0x2
 5801 2b18 4101     		.2byte	0x141
 5802 2b1a AD2A0000 		.4byte	0x2aad
 5803 2b1e 1E       		.uleb128 0x1e
 5804 2b1f 16       		.byte	0x16
 5805 2b20 02       		.byte	0x2
 5806 2b21 4401     		.2byte	0x144
 5807 2b23 B72B0000 		.4byte	0x2bb7
 5808 2b27 18       		.uleb128 0x18
 5809 2b28 8B140000 		.4byte	.LASF869
 5810 2b2c 02       		.byte	0x2
 5811 2b2d 4701     		.2byte	0x147
 5812 2b2f D6000000 		.4byte	0xd6
 5813 2b33 00       		.byte	0
 5814 2b34 18       		.uleb128 0x18
 5815 2b35 AD4B0000 		.4byte	.LASF870
 5816 2b39 02       		.byte	0x2
 5817 2b3a 4A01     		.2byte	0x14a
 5818 2b3c D6000000 		.4byte	0xd6
 5819 2b40 02       		.byte	0x2
 5820 2b41 18       		.uleb128 0x18
 5821 2b42 21360000 		.4byte	.LASF871
 5822 2b46 02       		.byte	0x2
 5823 2b47 4D01     		.2byte	0x14d
 5824 2b49 D6000000 		.4byte	0xd6
 5825 2b4d 04       		.byte	0x4
 5826 2b4e 18       		.uleb128 0x18
 5827 2b4f 1F250000 		.4byte	.LASF872
 5828 2b53 02       		.byte	0x2
 5829 2b54 5001     		.2byte	0x150
 5830 2b56 CB000000 		.4byte	0xcb
 5831 2b5a 06       		.byte	0x6
 5832 2b5b 18       		.uleb128 0x18
 5833 2b5c 462B0000 		.4byte	.LASF873
 5834 2b60 02       		.byte	0x2
ARM GAS  C:\Users\kateb\AppData\Local\Temp\cciDLH78.s 			page 135


 5835 2b61 5301     		.2byte	0x153
 5836 2b63 D6000000 		.4byte	0xd6
 5837 2b67 08       		.byte	0x8
 5838 2b68 18       		.uleb128 0x18
 5839 2b69 AB520000 		.4byte	.LASF874
 5840 2b6d 02       		.byte	0x2
 5841 2b6e 5601     		.2byte	0x156
 5842 2b70 D6000000 		.4byte	0xd6
 5843 2b74 0A       		.byte	0xa
 5844 2b75 18       		.uleb128 0x18
 5845 2b76 C31E0000 		.4byte	.LASF875
 5846 2b7a 02       		.byte	0x2
 5847 2b7b 5901     		.2byte	0x159
 5848 2b7d D6000000 		.4byte	0xd6
 5849 2b81 0C       		.byte	0xc
 5850 2b82 18       		.uleb128 0x18
 5851 2b83 612E0000 		.4byte	.LASF876
 5852 2b87 02       		.byte	0x2
 5853 2b88 5C01     		.2byte	0x15c
 5854 2b8a D6000000 		.4byte	0xd6
 5855 2b8e 0E       		.byte	0xe
 5856 2b8f 18       		.uleb128 0x18
 5857 2b90 8B230000 		.4byte	.LASF877
 5858 2b94 02       		.byte	0x2
 5859 2b95 5F01     		.2byte	0x15f
 5860 2b97 D6000000 		.4byte	0xd6
 5861 2b9b 10       		.byte	0x10
 5862 2b9c 18       		.uleb128 0x18
 5863 2b9d AE510000 		.4byte	.LASF878
 5864 2ba1 02       		.byte	0x2
 5865 2ba2 6301     		.2byte	0x163
 5866 2ba4 D6000000 		.4byte	0xd6
 5867 2ba8 12       		.byte	0x12
 5868 2ba9 18       		.uleb128 0x18
 5869 2baa 38060000 		.4byte	.LASF879
 5870 2bae 02       		.byte	0x2
 5871 2baf 6601     		.2byte	0x166
 5872 2bb1 D6000000 		.4byte	0xd6
 5873 2bb5 14       		.byte	0x14
 5874 2bb6 00       		.byte	0
 5875 2bb7 16       		.uleb128 0x16
 5876 2bb8 9E250000 		.4byte	.LASF880
 5877 2bbc 02       		.byte	0x2
 5878 2bbd 6701     		.2byte	0x167
 5879 2bbf 1E2B0000 		.4byte	0x2b1e
 5880 2bc3 1B       		.uleb128 0x1b
 5881 2bc4 08       		.byte	0x8
 5882 2bc5 0F       		.byte	0xf
 5883 2bc6 D6       		.byte	0xd6
 5884 2bc7 E42B0000 		.4byte	0x2be4
 5885 2bcb 11       		.uleb128 0x11
 5886 2bcc 40530000 		.4byte	.LASF881
 5887 2bd0 0F       		.byte	0xf
 5888 2bd1 D9       		.byte	0xd9
 5889 2bd2 D6000000 		.4byte	0xd6
 5890 2bd6 00       		.byte	0
 5891 2bd7 11       		.uleb128 0x11
ARM GAS  C:\Users\kateb\AppData\Local\Temp\cciDLH78.s 			page 136


 5892 2bd8 B51E0000 		.4byte	.LASF882
 5893 2bdc 0F       		.byte	0xf
 5894 2bdd DE       		.byte	0xde
 5895 2bde B0000000 		.4byte	0xb0
 5896 2be2 04       		.byte	0x4
 5897 2be3 00       		.byte	0
 5898 2be4 04       		.uleb128 0x4
 5899 2be5 64270000 		.4byte	.LASF883
 5900 2be9 0F       		.byte	0xf
 5901 2bea E0       		.byte	0xe0
 5902 2beb C32B0000 		.4byte	0x2bc3
 5903 2bef 1B       		.uleb128 0x1b
 5904 2bf0 08       		.byte	0x8
 5905 2bf1 0F       		.byte	0xf
 5906 2bf2 E3       		.byte	0xe3
 5907 2bf3 102C0000 		.4byte	0x2c10
 5908 2bf7 11       		.uleb128 0x11
 5909 2bf8 26490000 		.4byte	.LASF884
 5910 2bfc 0F       		.byte	0xf
 5911 2bfd E6       		.byte	0xe6
 5912 2bfe D6000000 		.4byte	0xd6
 5913 2c02 00       		.byte	0
 5914 2c03 11       		.uleb128 0x11
 5915 2c04 A3220000 		.4byte	.LASF885
 5916 2c08 0F       		.byte	0xf
 5917 2c09 EB       		.byte	0xeb
 5918 2c0a 102C0000 		.4byte	0x2c10
 5919 2c0e 04       		.byte	0x4
 5920 2c0f 00       		.byte	0
 5921 2c10 06       		.uleb128 0x6
 5922 2c11 04       		.byte	0x4
 5923 2c12 E42B0000 		.4byte	0x2be4
 5924 2c16 04       		.uleb128 0x4
 5925 2c17 5C1C0000 		.4byte	.LASF886
 5926 2c1b 0F       		.byte	0xf
 5927 2c1c ED       		.byte	0xed
 5928 2c1d EF2B0000 		.4byte	0x2bef
 5929 2c21 26       		.uleb128 0x26
 5930 2c22 08       		.byte	0x8
 5931 2c23 0F       		.byte	0xf
 5932 2c24 F0       		.byte	0xf0
 5933 2c25 402C0000 		.4byte	0x2c40
 5934 2c29 27       		.uleb128 0x27
 5935 2c2a 44370000 		.4byte	.LASF887
 5936 2c2e 0F       		.byte	0xf
 5937 2c2f F6       		.byte	0xf6
 5938 2c30 162C0000 		.4byte	0x2c16
 5939 2c34 27       		.uleb128 0x27
 5940 2c35 7F430000 		.4byte	.LASF888
 5941 2c39 0F       		.byte	0xf
 5942 2c3a F9       		.byte	0xf9
 5943 2c3b D6000000 		.4byte	0xd6
 5944 2c3f 00       		.byte	0
 5945 2c40 04       		.uleb128 0x4
 5946 2c41 1B060000 		.4byte	.LASF889
 5947 2c45 0F       		.byte	0xf
 5948 2c46 FB       		.byte	0xfb
ARM GAS  C:\Users\kateb\AppData\Local\Temp\cciDLH78.s 			page 137


 5949 2c47 212C0000 		.4byte	0x2c21
 5950 2c4b 1B       		.uleb128 0x1b
 5951 2c4c 14       		.byte	0x14
 5952 2c4d 0F       		.byte	0xf
 5953 2c4e FE       		.byte	0xfe
 5954 2c4f 952C0000 		.4byte	0x2c95
 5955 2c53 18       		.uleb128 0x18
 5956 2c54 DD420000 		.4byte	.LASF890
 5957 2c58 0F       		.byte	0xf
 5958 2c59 0101     		.2byte	0x101
 5959 2c5b D6000000 		.4byte	0xd6
 5960 2c5f 00       		.byte	0
 5961 2c60 18       		.uleb128 0x18
 5962 2c61 6D460000 		.4byte	.LASF891
 5963 2c65 0F       		.byte	0xf
 5964 2c66 0701     		.2byte	0x107
 5965 2c68 D6000000 		.4byte	0xd6
 5966 2c6c 02       		.byte	0x2
 5967 2c6d 18       		.uleb128 0x18
 5968 2c6e 4E2F0000 		.4byte	.LASF892
 5969 2c72 0F       		.byte	0xf
 5970 2c73 1501     		.2byte	0x115
 5971 2c75 EC000000 		.4byte	0xec
 5972 2c79 04       		.byte	0x4
 5973 2c7a 18       		.uleb128 0x18
 5974 2c7b C0290000 		.4byte	.LASF893
 5975 2c7f 0F       		.byte	0xf
 5976 2c80 1801     		.2byte	0x118
 5977 2c82 D6000000 		.4byte	0xd6
 5978 2c86 08       		.byte	0x8
 5979 2c87 18       		.uleb128 0x18
 5980 2c88 A21D0000 		.4byte	.LASF894
 5981 2c8c 0F       		.byte	0xf
 5982 2c8d 2101     		.2byte	0x121
 5983 2c8f 402C0000 		.4byte	0x2c40
 5984 2c93 0C       		.byte	0xc
 5985 2c94 00       		.byte	0
 5986 2c95 16       		.uleb128 0x16
 5987 2c96 91390000 		.4byte	.LASF895
 5988 2c9a 0F       		.byte	0xf
 5989 2c9b 2301     		.2byte	0x123
 5990 2c9d 4B2C0000 		.4byte	0x2c4b
 5991 2ca1 1E       		.uleb128 0x1e
 5992 2ca2 08       		.byte	0x8
 5993 2ca3 0F       		.byte	0xf
 5994 2ca4 2601     		.2byte	0x126
 5995 2ca6 D22C0000 		.4byte	0x2cd2
 5996 2caa 18       		.uleb128 0x18
 5997 2cab 17190000 		.4byte	.LASF896
 5998 2caf 0F       		.byte	0xf
 5999 2cb0 2901     		.2byte	0x129
 6000 2cb2 D22C0000 		.4byte	0x2cd2
 6001 2cb6 00       		.byte	0
 6002 2cb7 18       		.uleb128 0x18
 6003 2cb8 12330000 		.4byte	.LASF897
 6004 2cbc 0F       		.byte	0xf
 6005 2cbd 2C01     		.2byte	0x12c
ARM GAS  C:\Users\kateb\AppData\Local\Temp\cciDLH78.s 			page 138


 6006 2cbf D6000000 		.4byte	0xd6
 6007 2cc3 04       		.byte	0x4
 6008 2cc4 18       		.uleb128 0x18
 6009 2cc5 D23C0000 		.4byte	.LASF898
 6010 2cc9 0F       		.byte	0xf
 6011 2cca 2F01     		.2byte	0x12f
 6012 2ccc D6000000 		.4byte	0xd6
 6013 2cd0 06       		.byte	0x6
 6014 2cd1 00       		.byte	0
 6015 2cd2 06       		.uleb128 0x6
 6016 2cd3 04       		.byte	0x4
 6017 2cd4 D82C0000 		.4byte	0x2cd8
 6018 2cd8 0C       		.uleb128 0xc
 6019 2cd9 952C0000 		.4byte	0x2c95
 6020 2cdd 16       		.uleb128 0x16
 6021 2cde B91D0000 		.4byte	.LASF899
 6022 2ce2 0F       		.byte	0xf
 6023 2ce3 3101     		.2byte	0x131
 6024 2ce5 A12C0000 		.4byte	0x2ca1
 6025 2ce9 1B       		.uleb128 0x1b
 6026 2cea 06       		.byte	0x6
 6027 2ceb 10       		.byte	0x10
 6028 2cec 49       		.byte	0x49
 6029 2ced 0A2D0000 		.4byte	0x2d0a
 6030 2cf1 11       		.uleb128 0x11
 6031 2cf2 8E0B0000 		.4byte	.LASF900
 6032 2cf6 10       		.byte	0x10
 6033 2cf7 4B       		.byte	0x4b
 6034 2cf8 2E260000 		.4byte	0x262e
 6035 2cfc 00       		.byte	0
 6036 2cfd 11       		.uleb128 0x11
 6037 2cfe 980E0000 		.4byte	.LASF901
 6038 2d02 10       		.byte	0x10
 6039 2d03 4C       		.byte	0x4c
 6040 2d04 D6000000 		.4byte	0xd6
 6041 2d08 04       		.byte	0x4
 6042 2d09 00       		.byte	0
 6043 2d0a 04       		.uleb128 0x4
 6044 2d0b 230F0000 		.4byte	.LASF902
 6045 2d0f 10       		.byte	0x10
 6046 2d10 4D       		.byte	0x4d
 6047 2d11 E92C0000 		.4byte	0x2ce9
 6048 2d15 1B       		.uleb128 0x1b
 6049 2d16 1A       		.byte	0x1a
 6050 2d17 10       		.byte	0x10
 6051 2d18 5F       		.byte	0x5f
 6052 2d19 5A2D0000 		.4byte	0x2d5a
 6053 2d1d 11       		.uleb128 0x11
 6054 2d1e D64B0000 		.4byte	.LASF903
 6055 2d22 10       		.byte	0x10
 6056 2d23 61       		.byte	0x61
 6057 2d24 85250000 		.4byte	0x2585
 6058 2d28 00       		.byte	0
 6059 2d29 11       		.uleb128 0x11
 6060 2d2a 8C3F0000 		.4byte	.LASF904
 6061 2d2e 10       		.byte	0x10
 6062 2d2f 62       		.byte	0x62
ARM GAS  C:\Users\kateb\AppData\Local\Temp\cciDLH78.s 			page 139


 6063 2d30 FE250000 		.4byte	0x25fe
 6064 2d34 02       		.byte	0x2
 6065 2d35 11       		.uleb128 0x11
 6066 2d36 39540000 		.4byte	.LASF905
 6067 2d3a 10       		.byte	0x10
 6068 2d3b 63       		.byte	0x63
 6069 2d3c 2E260000 		.4byte	0x262e
 6070 2d40 04       		.byte	0x4
 6071 2d41 11       		.uleb128 0x11
 6072 2d42 980E0000 		.4byte	.LASF901
 6073 2d46 10       		.byte	0x10
 6074 2d47 64       		.byte	0x64
 6075 2d48 F2250000 		.4byte	0x25f2
 6076 2d4c 08       		.byte	0x8
 6077 2d4d 11       		.uleb128 0x11
 6078 2d4e D0350000 		.4byte	.LASF906
 6079 2d52 10       		.byte	0x10
 6080 2d53 65       		.byte	0x65
 6081 2d54 CB000000 		.4byte	0xcb
 6082 2d58 18       		.byte	0x18
 6083 2d59 00       		.byte	0
 6084 2d5a 04       		.uleb128 0x4
 6085 2d5b 4F2A0000 		.4byte	.LASF907
 6086 2d5f 10       		.byte	0x10
 6087 2d60 66       		.byte	0x66
 6088 2d61 152D0000 		.4byte	0x2d15
 6089 2d65 1B       		.uleb128 0x1b
 6090 2d66 04       		.byte	0x4
 6091 2d67 10       		.byte	0x10
 6092 2d68 74       		.byte	0x74
 6093 2d69 862D0000 		.4byte	0x2d86
 6094 2d6d 11       		.uleb128 0x11
 6095 2d6e 8C430000 		.4byte	.LASF908
 6096 2d72 10       		.byte	0x10
 6097 2d73 77       		.byte	0x77
 6098 2d74 CB000000 		.4byte	0xcb
 6099 2d78 00       		.byte	0
 6100 2d79 11       		.uleb128 0x11
 6101 2d7a DC460000 		.4byte	.LASF909
 6102 2d7e 10       		.byte	0x10
 6103 2d7f 7A       		.byte	0x7a
 6104 2d80 FE250000 		.4byte	0x25fe
 6105 2d84 02       		.byte	0x2
 6106 2d85 00       		.byte	0
 6107 2d86 04       		.uleb128 0x4
 6108 2d87 55540000 		.4byte	.LASF910
 6109 2d8b 10       		.byte	0x10
 6110 2d8c 7B       		.byte	0x7b
 6111 2d8d 652D0000 		.4byte	0x2d65
 6112 2d91 1B       		.uleb128 0x1b
 6113 2d92 06       		.byte	0x6
 6114 2d93 10       		.byte	0x10
 6115 2d94 87       		.byte	0x87
 6116 2d95 BE2D0000 		.4byte	0x2dbe
 6117 2d99 11       		.uleb128 0x11
 6118 2d9a FB470000 		.4byte	.LASF851
 6119 2d9e 10       		.byte	0x10
ARM GAS  C:\Users\kateb\AppData\Local\Temp\cciDLH78.s 			page 140


 6120 2d9f 89       		.byte	0x89
 6121 2da0 FE250000 		.4byte	0x25fe
 6122 2da4 00       		.byte	0
 6123 2da5 11       		.uleb128 0x11
 6124 2da6 00000000 		.4byte	.LASF911
 6125 2daa 10       		.byte	0x10
 6126 2dab 8A       		.byte	0x8a
 6127 2dac FE250000 		.4byte	0x25fe
 6128 2db0 02       		.byte	0x2
 6129 2db1 11       		.uleb128 0x11
 6130 2db2 C4330000 		.4byte	.LASF912
 6131 2db6 10       		.byte	0x10
 6132 2db7 8B       		.byte	0x8b
 6133 2db8 FE250000 		.4byte	0x25fe
 6134 2dbc 04       		.byte	0x4
 6135 2dbd 00       		.byte	0
 6136 2dbe 04       		.uleb128 0x4
 6137 2dbf CD140000 		.4byte	.LASF913
 6138 2dc3 10       		.byte	0x10
 6139 2dc4 8C       		.byte	0x8c
 6140 2dc5 912D0000 		.4byte	0x2d91
 6141 2dc9 1B       		.uleb128 0x1b
 6142 2dca 06       		.byte	0x6
 6143 2dcb 10       		.byte	0x10
 6144 2dcc 9B       		.byte	0x9b
 6145 2dcd EA2D0000 		.4byte	0x2dea
 6146 2dd1 11       		.uleb128 0x11
 6147 2dd2 85190000 		.4byte	.LASF914
 6148 2dd6 10       		.byte	0x10
 6149 2dd7 9D       		.byte	0x9d
 6150 2dd8 862D0000 		.4byte	0x2d86
 6151 2ddc 00       		.byte	0
 6152 2ddd 11       		.uleb128 0x11
 6153 2dde C4330000 		.4byte	.LASF912
 6154 2de2 10       		.byte	0x10
 6155 2de3 9E       		.byte	0x9e
 6156 2de4 FE250000 		.4byte	0x25fe
 6157 2de8 04       		.byte	0x4
 6158 2de9 00       		.byte	0
 6159 2dea 04       		.uleb128 0x4
 6160 2deb F8420000 		.4byte	.LASF915
 6161 2def 10       		.byte	0x10
 6162 2df0 9F       		.byte	0x9f
 6163 2df1 C92D0000 		.4byte	0x2dc9
 6164 2df5 04       		.uleb128 0x4
 6165 2df6 524D0000 		.4byte	.LASF916
 6166 2dfa 11       		.byte	0x11
 6167 2dfb 40       		.byte	0x40
 6168 2dfc 002E0000 		.4byte	0x2e00
 6169 2e00 06       		.uleb128 0x6
 6170 2e01 04       		.byte	0x4
 6171 2e02 062E0000 		.4byte	0x2e06
 6172 2e06 23       		.uleb128 0x23
 6173 2e07 162E0000 		.4byte	0x2e16
 6174 2e0b 20       		.uleb128 0x20
 6175 2e0c EC000000 		.4byte	0xec
 6176 2e10 20       		.uleb128 0x20
ARM GAS  C:\Users\kateb\AppData\Local\Temp\cciDLH78.s 			page 141


 6177 2e11 B0000000 		.4byte	0xb0
 6178 2e15 00       		.byte	0
 6179 2e16 03       		.uleb128 0x3
 6180 2e17 01       		.byte	0x1
 6181 2e18 02       		.byte	0x2
 6182 2e19 A3040000 		.4byte	.LASF917
 6183 2e1d 17       		.uleb128 0x17
 6184 2e1e 7F0C     		.2byte	0xc7f
 6185 2e20 11       		.byte	0x11
 6186 2e21 D901     		.2byte	0x1d9
 6187 2e23 5F2E0000 		.4byte	0x2e5f
 6188 2e27 18       		.uleb128 0x18
 6189 2e28 250E0000 		.4byte	.LASF918
 6190 2e2c 11       		.byte	0x11
 6191 2e2d DC01     		.2byte	0x1dc
 6192 2e2f 5F2E0000 		.4byte	0x2e5f
 6193 2e33 00       		.byte	0
 6194 2e34 14       		.uleb128 0x14
 6195 2e35 17560000 		.4byte	.LASF919
 6196 2e39 11       		.byte	0x11
 6197 2e3a DF01     		.2byte	0x1df
 6198 2e3c 702E0000 		.4byte	0x2e70
 6199 2e40 4A0C     		.2byte	0xc4a
 6200 2e42 14       		.uleb128 0x14
 6201 2e43 FA410000 		.4byte	.LASF920
 6202 2e47 11       		.byte	0x11
 6203 2e48 E201     		.2byte	0x1e2
 6204 2e4a CB000000 		.4byte	0xcb
 6205 2e4e 7D0C     		.2byte	0xc7d
 6206 2e50 14       		.uleb128 0x14
 6207 2e51 BE4A0000 		.4byte	.LASF921
 6208 2e55 11       		.byte	0x11
 6209 2e56 E501     		.2byte	0x1e5
 6210 2e58 CB000000 		.4byte	0xcb
 6211 2e5c 7E0C     		.2byte	0xc7e
 6212 2e5e 00       		.byte	0
 6213 2e5f 0D       		.uleb128 0xd
 6214 2e60 CB000000 		.4byte	0xcb
 6215 2e64 702E0000 		.4byte	0x2e70
 6216 2e68 0F       		.uleb128 0xf
 6217 2e69 A9000000 		.4byte	0xa9
 6218 2e6d 490C     		.2byte	0xc49
 6219 2e6f 00       		.byte	0
 6220 2e70 0D       		.uleb128 0xd
 6221 2e71 CB000000 		.4byte	0xcb
 6222 2e75 862E0000 		.4byte	0x2e86
 6223 2e79 0E       		.uleb128 0xe
 6224 2e7a A9000000 		.4byte	0xa9
 6225 2e7e 10       		.byte	0x10
 6226 2e7f 0E       		.uleb128 0xe
 6227 2e80 A9000000 		.4byte	0xa9
 6228 2e84 02       		.byte	0x2
 6229 2e85 00       		.byte	0
 6230 2e86 16       		.uleb128 0x16
 6231 2e87 5E180000 		.4byte	.LASF922
 6232 2e8b 11       		.byte	0x11
 6233 2e8c E601     		.2byte	0x1e6
ARM GAS  C:\Users\kateb\AppData\Local\Temp\cciDLH78.s 			page 142


 6234 2e8e 1D2E0000 		.4byte	0x2e1d
 6235 2e92 1E       		.uleb128 0x1e
 6236 2e93 08       		.byte	0x8
 6237 2e94 11       		.byte	0x11
 6238 2e95 E901     		.2byte	0x1e9
 6239 2e97 EA2E0000 		.4byte	0x2eea
 6240 2e9b 18       		.uleb128 0x18
 6241 2e9c 5A1E0000 		.4byte	.LASF923
 6242 2ea0 11       		.byte	0x11
 6243 2ea1 EC01     		.2byte	0x1ec
 6244 2ea3 E5240000 		.4byte	0x24e5
 6245 2ea7 00       		.byte	0
 6246 2ea8 18       		.uleb128 0x18
 6247 2ea9 89080000 		.4byte	.LASF924
 6248 2ead 11       		.byte	0x11
 6249 2eae EF01     		.2byte	0x1ef
 6250 2eb0 E5240000 		.4byte	0x24e5
 6251 2eb4 01       		.byte	0x1
 6252 2eb5 18       		.uleb128 0x18
 6253 2eb6 5F410000 		.4byte	.LASF925
 6254 2eba 11       		.byte	0x11
 6255 2ebb F201     		.2byte	0x1f2
 6256 2ebd 65260000 		.4byte	0x2665
 6257 2ec1 02       		.byte	0x2
 6258 2ec2 18       		.uleb128 0x18
 6259 2ec3 79180000 		.4byte	.LASF926
 6260 2ec7 11       		.byte	0x11
 6261 2ec8 F501     		.2byte	0x1f5
 6262 2eca CB000000 		.4byte	0xcb
 6263 2ece 03       		.byte	0x3
 6264 2ecf 18       		.uleb128 0x18
 6265 2ed0 B90B0000 		.4byte	.LASF927
 6266 2ed4 11       		.byte	0x11
 6267 2ed5 F801     		.2byte	0x1f8
 6268 2ed7 CB000000 		.4byte	0xcb
 6269 2edb 04       		.byte	0x4
 6270 2edc 18       		.uleb128 0x18
 6271 2edd F7510000 		.4byte	.LASF928
 6272 2ee1 11       		.byte	0x11
 6273 2ee2 FB01     		.2byte	0x1fb
 6274 2ee4 D6000000 		.4byte	0xd6
 6275 2ee8 06       		.byte	0x6
 6276 2ee9 00       		.byte	0
 6277 2eea 16       		.uleb128 0x16
 6278 2eeb 85480000 		.4byte	.LASF929
 6279 2eef 11       		.byte	0x11
 6280 2ef0 FC01     		.2byte	0x1fc
 6281 2ef2 922E0000 		.4byte	0x2e92
 6282 2ef6 1E       		.uleb128 0x1e
 6283 2ef7 38       		.byte	0x38
 6284 2ef8 11       		.byte	0x11
 6285 2ef9 0002     		.2byte	0x200
 6286 2efb B62F0000 		.4byte	0x2fb6
 6287 2eff 18       		.uleb128 0x18
 6288 2f00 75010000 		.4byte	.LASF930
 6289 2f04 11       		.byte	0x11
 6290 2f05 0402     		.2byte	0x204
ARM GAS  C:\Users\kateb\AppData\Local\Temp\cciDLH78.s 			page 143


 6291 2f07 B62F0000 		.4byte	0x2fb6
 6292 2f0b 00       		.byte	0
 6293 2f0c 18       		.uleb128 0x18
 6294 2f0d 80220000 		.4byte	.LASF931
 6295 2f11 11       		.byte	0x11
 6296 2f12 0702     		.2byte	0x207
 6297 2f14 BC2F0000 		.4byte	0x2fbc
 6298 2f18 04       		.byte	0x4
 6299 2f19 18       		.uleb128 0x18
 6300 2f1a 04420000 		.4byte	.LASF932
 6301 2f1e 11       		.byte	0x11
 6302 2f1f 0A02     		.2byte	0x20a
 6303 2f21 C22F0000 		.4byte	0x2fc2
 6304 2f25 08       		.byte	0x8
 6305 2f26 18       		.uleb128 0x18
 6306 2f27 1E440000 		.4byte	.LASF933
 6307 2f2b 11       		.byte	0x11
 6308 2f2c 0D02     		.2byte	0x20d
 6309 2f2e C82F0000 		.4byte	0x2fc8
 6310 2f32 0C       		.byte	0xc
 6311 2f33 18       		.uleb128 0x18
 6312 2f34 194E0000 		.4byte	.LASF934
 6313 2f38 11       		.byte	0x11
 6314 2f39 1002     		.2byte	0x210
 6315 2f3b CE2F0000 		.4byte	0x2fce
 6316 2f3f 10       		.byte	0x10
 6317 2f40 18       		.uleb128 0x18
 6318 2f41 12050000 		.4byte	.LASF935
 6319 2f45 11       		.byte	0x11
 6320 2f46 1302     		.2byte	0x213
 6321 2f48 D92F0000 		.4byte	0x2fd9
 6322 2f4c 14       		.byte	0x14
 6323 2f4d 18       		.uleb128 0x18
 6324 2f4e 200E0000 		.4byte	.LASF936
 6325 2f52 11       		.byte	0x11
 6326 2f53 1602     		.2byte	0x216
 6327 2f55 E42F0000 		.4byte	0x2fe4
 6328 2f59 18       		.byte	0x18
 6329 2f5a 18       		.uleb128 0x18
 6330 2f5b 47430000 		.4byte	.LASF937
 6331 2f5f 11       		.byte	0x11
 6332 2f60 1902     		.2byte	0x219
 6333 2f62 53240000 		.4byte	0x2453
 6334 2f66 1C       		.byte	0x1c
 6335 2f67 18       		.uleb128 0x18
 6336 2f68 0E400000 		.4byte	.LASF938
 6337 2f6c 11       		.byte	0x11
 6338 2f6d 1C02     		.2byte	0x21c
 6339 2f6f D22C0000 		.4byte	0x2cd2
 6340 2f73 20       		.byte	0x20
 6341 2f74 18       		.uleb128 0x18
 6342 2f75 4B450000 		.4byte	.LASF939
 6343 2f79 11       		.byte	0x11
 6344 2f7a 1F02     		.2byte	0x21f
 6345 2f7c EF2F0000 		.4byte	0x2fef
 6346 2f80 24       		.byte	0x24
 6347 2f81 18       		.uleb128 0x18
ARM GAS  C:\Users\kateb\AppData\Local\Temp\cciDLH78.s 			page 144


 6348 2f82 97250000 		.4byte	.LASF940
 6349 2f86 11       		.byte	0x11
 6350 2f87 2202     		.2byte	0x222
 6351 2f89 F52F0000 		.4byte	0x2ff5
 6352 2f8d 28       		.byte	0x28
 6353 2f8e 18       		.uleb128 0x18
 6354 2f8f C4230000 		.4byte	.LASF941
 6355 2f93 11       		.byte	0x11
 6356 2f94 2602     		.2byte	0x226
 6357 2f96 F52D0000 		.4byte	0x2df5
 6358 2f9a 2C       		.byte	0x2c
 6359 2f9b 18       		.uleb128 0x18
 6360 2f9c D2120000 		.4byte	.LASF942
 6361 2fa0 11       		.byte	0x11
 6362 2fa1 2902     		.2byte	0x229
 6363 2fa3 00300000 		.4byte	0x3000
 6364 2fa7 30       		.byte	0x30
 6365 2fa8 18       		.uleb128 0x18
 6366 2fa9 623E0000 		.4byte	.LASF943
 6367 2fad 11       		.byte	0x11
 6368 2fae 2D02     		.2byte	0x22d
 6369 2fb0 06300000 		.4byte	0x3006
 6370 2fb4 34       		.byte	0x34
 6371 2fb5 00       		.byte	0
 6372 2fb6 06       		.uleb128 0x6
 6373 2fb7 04       		.byte	0x4
 6374 2fb8 3C290000 		.4byte	0x293c
 6375 2fbc 06       		.uleb128 0x6
 6376 2fbd 04       		.byte	0x4
 6377 2fbe 122B0000 		.4byte	0x2b12
 6378 2fc2 06       		.uleb128 0x6
 6379 2fc3 04       		.byte	0x4
 6380 2fc4 C8270000 		.4byte	0x27c8
 6381 2fc8 06       		.uleb128 0x6
 6382 2fc9 04       		.byte	0x4
 6383 2fca B72B0000 		.4byte	0x2bb7
 6384 2fce 06       		.uleb128 0x6
 6385 2fcf 04       		.byte	0x4
 6386 2fd0 D42F0000 		.4byte	0x2fd4
 6387 2fd4 0C       		.uleb128 0xc
 6388 2fd5 862E0000 		.4byte	0x2e86
 6389 2fd9 06       		.uleb128 0x6
 6390 2fda 04       		.byte	0x4
 6391 2fdb DF2F0000 		.4byte	0x2fdf
 6392 2fdf 0C       		.uleb128 0xc
 6393 2fe0 BE2D0000 		.4byte	0x2dbe
 6394 2fe4 06       		.uleb128 0x6
 6395 2fe5 04       		.byte	0x4
 6396 2fe6 EA2F0000 		.4byte	0x2fea
 6397 2fea 0C       		.uleb128 0xc
 6398 2feb 3A2A0000 		.4byte	0x2a3a
 6399 2fef 06       		.uleb128 0x6
 6400 2ff0 04       		.byte	0x4
 6401 2ff1 53270000 		.4byte	0x2753
 6402 2ff5 06       		.uleb128 0x6
 6403 2ff6 04       		.byte	0x4
 6404 2ff7 FB2F0000 		.4byte	0x2ffb
ARM GAS  C:\Users\kateb\AppData\Local\Temp\cciDLH78.s 			page 145


 6405 2ffb 0C       		.uleb128 0xc
 6406 2ffc EA2E0000 		.4byte	0x2eea
 6407 3000 06       		.uleb128 0x6
 6408 3001 04       		.byte	0x4
 6409 3002 EF260000 		.4byte	0x26ef
 6410 3006 06       		.uleb128 0x6
 6411 3007 04       		.byte	0x4
 6412 3008 0C300000 		.4byte	0x300c
 6413 300c 0C       		.uleb128 0xc
 6414 300d 171C0000 		.4byte	0x1c17
 6415 3011 16       		.uleb128 0x16
 6416 3012 18050000 		.4byte	.LASF944
 6417 3016 11       		.byte	0x11
 6418 3017 4402     		.2byte	0x244
 6419 3019 F62E0000 		.4byte	0x2ef6
 6420 301d 16       		.uleb128 0x16
 6421 301e 724B0000 		.4byte	.LASF945
 6422 3022 11       		.byte	0x11
 6423 3023 4702     		.2byte	0x247
 6424 3025 B9000000 		.4byte	0xb9
 6425 3029 08       		.uleb128 0x8
 6426 302a 01       		.byte	0x1
 6427 302b 5E000000 		.4byte	0x5e
 6428 302f 12       		.byte	0x12
 6429 3030 29       		.byte	0x29
 6430 3031 4E300000 		.4byte	0x304e
 6431 3035 0A       		.uleb128 0xa
 6432 3036 A2110000 		.4byte	.LASF946
 6433 303a 00       		.byte	0
 6434 303b 0A       		.uleb128 0xa
 6435 303c DD2A0000 		.4byte	.LASF947
 6436 3040 01       		.byte	0x1
 6437 3041 0A       		.uleb128 0xa
 6438 3042 76330000 		.4byte	.LASF948
 6439 3046 02       		.byte	0x2
 6440 3047 0A       		.uleb128 0xa
 6441 3048 C20C0000 		.4byte	.LASF949
 6442 304c 03       		.byte	0x3
 6443 304d 00       		.byte	0
 6444 304e 1C       		.uleb128 0x1c
 6445 304f 01       		.byte	0x1
 6446 3050 5E000000 		.4byte	0x5e
 6447 3054 13       		.byte	0x13
 6448 3055 B108     		.2byte	0x8b1
 6449 3057 74300000 		.4byte	0x3074
 6450 305b 0A       		.uleb128 0xa
 6451 305c D50B0000 		.4byte	.LASF950
 6452 3060 00       		.byte	0
 6453 3061 0A       		.uleb128 0xa
 6454 3062 A41E0000 		.4byte	.LASF951
 6455 3066 01       		.byte	0x1
 6456 3067 0A       		.uleb128 0xa
 6457 3068 75060000 		.4byte	.LASF952
 6458 306c 02       		.byte	0x2
 6459 306d 0A       		.uleb128 0xa
 6460 306e 52270000 		.4byte	.LASF953
 6461 3072 03       		.byte	0x3
ARM GAS  C:\Users\kateb\AppData\Local\Temp\cciDLH78.s 			page 146


 6462 3073 00       		.byte	0
 6463 3074 1E       		.uleb128 0x1e
 6464 3075 44       		.byte	0x44
 6465 3076 13       		.byte	0x13
 6466 3077 2209     		.2byte	0x922
 6467 3079 E6300000 		.4byte	0x30e6
 6468 307d 18       		.uleb128 0x18
 6469 307e 3F4E0000 		.4byte	.LASF954
 6470 3082 13       		.byte	0x13
 6471 3083 2509     		.2byte	0x925
 6472 3085 CB000000 		.4byte	0xcb
 6473 3089 00       		.byte	0
 6474 308a 18       		.uleb128 0x18
 6475 308b 81230000 		.4byte	.LASF955
 6476 308f 13       		.byte	0x13
 6477 3090 2809     		.2byte	0x928
 6478 3092 EC000000 		.4byte	0xec
 6479 3096 04       		.byte	0x4
 6480 3097 18       		.uleb128 0x18
 6481 3098 35250000 		.4byte	.LASF956
 6482 309c 13       		.byte	0x13
 6483 309d 2B09     		.2byte	0x92b
 6484 309f EC000000 		.4byte	0xec
 6485 30a3 08       		.byte	0x8
 6486 30a4 18       		.uleb128 0x18
 6487 30a5 72250000 		.4byte	.LASF957
 6488 30a9 13       		.byte	0x13
 6489 30aa 3009     		.2byte	0x930
 6490 30ac 5A2D0000 		.4byte	0x2d5a
 6491 30b0 0C       		.byte	0xc
 6492 30b1 18       		.uleb128 0x18
 6493 30b2 050E0000 		.4byte	.LASF958
 6494 30b6 13       		.byte	0x13
 6495 30b7 3309     		.2byte	0x933
 6496 30b9 A22A0000 		.4byte	0x2aa2
 6497 30bd 26       		.byte	0x26
 6498 30be 18       		.uleb128 0x18
 6499 30bf 444B0000 		.4byte	.LASF959
 6500 30c3 13       		.byte	0x13
 6501 30c4 3609     		.2byte	0x936
 6502 30c6 EA2D0000 		.4byte	0x2dea
 6503 30ca 34       		.byte	0x34
 6504 30cb 18       		.uleb128 0x18
 6505 30cc 90550000 		.4byte	.LASF960
 6506 30d0 13       		.byte	0x13
 6507 30d1 3909     		.2byte	0x939
 6508 30d3 2E260000 		.4byte	0x262e
 6509 30d7 3A       		.byte	0x3a
 6510 30d8 18       		.uleb128 0x18
 6511 30d9 B3010000 		.4byte	.LASF961
 6512 30dd 13       		.byte	0x13
 6513 30de 3C09     		.2byte	0x93c
 6514 30e0 EC000000 		.4byte	0xec
 6515 30e4 40       		.byte	0x40
 6516 30e5 00       		.byte	0
 6517 30e6 16       		.uleb128 0x16
 6518 30e7 4E0E0000 		.4byte	.LASF962
ARM GAS  C:\Users\kateb\AppData\Local\Temp\cciDLH78.s 			page 147


 6519 30eb 13       		.byte	0x13
 6520 30ec 3D09     		.2byte	0x93d
 6521 30ee 74300000 		.4byte	0x3074
 6522 30f2 08       		.uleb128 0x8
 6523 30f3 04       		.byte	0x4
 6524 30f4 2C000000 		.4byte	0x2c
 6525 30f8 14       		.byte	0x14
 6526 30f9 43       		.byte	0x43
 6527 30fa 4D310000 		.4byte	0x314d
 6528 30fe 0A       		.uleb128 0xa
 6529 30ff C70A0000 		.4byte	.LASF963
 6530 3103 00       		.byte	0
 6531 3104 1D       		.uleb128 0x1d
 6532 3105 BB080000 		.4byte	.LASF964
 6533 3109 01018A00 		.4byte	0x8a0101
 6534 310d 1D       		.uleb128 0x1d
 6535 310e AE1F0000 		.4byte	.LASF965
 6536 3112 02018A00 		.4byte	0x8a0102
 6537 3116 1D       		.uleb128 0x1d
 6538 3117 CA160000 		.4byte	.LASF966
 6539 311b 03018A00 		.4byte	0x8a0103
 6540 311f 1D       		.uleb128 0x1d
 6541 3120 5A070000 		.4byte	.LASF967
 6542 3124 04018A00 		.4byte	0x8a0104
 6543 3128 1D       		.uleb128 0x1d
 6544 3129 FD300000 		.4byte	.LASF968
 6545 312d 02018800 		.4byte	0x880102
 6546 3131 1D       		.uleb128 0x1d
 6547 3132 2D4F0000 		.4byte	.LASF969
 6548 3136 03018800 		.4byte	0x880103
 6549 313a 1D       		.uleb128 0x1d
 6550 313b 47050000 		.4byte	.LASF970
 6551 313f 01018800 		.4byte	0x880101
 6552 3143 1D       		.uleb128 0x1d
 6553 3144 30390000 		.4byte	.LASF971
 6554 3148 00018800 		.4byte	0x880100
 6555 314c 00       		.byte	0
 6556 314d 28       		.uleb128 0x28
 6557 314e 21470000 		.4byte	.LASF1030
 6558 3152 02       		.byte	0x2
 6559 3153 F902     		.2byte	0x2f9
 6560 3155 03       		.byte	0x3
 6561 3156 67310000 		.4byte	0x3167
 6562 315a 29       		.uleb128 0x29
 6563 315b 36320000 		.4byte	.LASF1031
 6564 315f 02       		.byte	0x2
 6565 3160 F902     		.2byte	0x2f9
 6566 3162 96290000 		.4byte	0x2996
 6567 3166 00       		.byte	0
 6568 3167 2A       		.uleb128 0x2a
 6569 3168 330B0000 		.4byte	.LASF976
 6570 316c 01       		.byte	0x1
 6571 316d FC02     		.2byte	0x2fc
 6572 316f 631C0000 		.4byte	0x1c63
 6573 3173 00000000 		.4byte	.LFB255
 6574 3177 8C000000 		.4byte	.LFE255-.LFB255
 6575 317b 01       		.uleb128 0x1
ARM GAS  C:\Users\kateb\AppData\Local\Temp\cciDLH78.s 			page 148


 6576 317c 9C       		.byte	0x9c
 6577 317d 1E320000 		.4byte	0x321e
 6578 3181 2B       		.uleb128 0x2b
 6579 3182 8E320000 		.4byte	.LASF546
 6580 3186 01       		.byte	0x1
 6581 3187 FC02     		.2byte	0x2fc
 6582 3189 371D0000 		.4byte	0x1d37
 6583 318d 00000000 		.4byte	.LLST0
 6584 3191 2C       		.uleb128 0x2c
 6585 3192 C8440000 		.4byte	.LASF972
 6586 3196 01       		.byte	0x1
 6587 3197 FE02     		.2byte	0x2fe
 6588 3199 631C0000 		.4byte	0x1c63
 6589 319d 53000000 		.4byte	.LLST1
 6590 31a1 2D       		.uleb128 0x2d
 6591 31a2 D02D0000 		.4byte	.LASF973
 6592 31a6 01       		.byte	0x1
 6593 31a7 FF02     		.2byte	0x2ff
 6594 31a9 EC000000 		.4byte	0xec
 6595 31ad 05       		.uleb128 0x5
 6596 31ae 03       		.byte	0x3
 6597 31af 00000000 		.4byte	interruptState.14228
 6598 31b3 2C       		.uleb128 0x2c
 6599 31b4 42100000 		.4byte	.LASF974
 6600 31b8 01       		.byte	0x1
 6601 31b9 0003     		.2byte	0x300
 6602 31bb 55250000 		.4byte	0x2555
 6603 31bf 88000000 		.4byte	.LLST2
 6604 31c3 2C       		.uleb128 0x2c
 6605 31c4 11450000 		.4byte	.LASF975
 6606 31c8 01       		.byte	0x1
 6607 31c9 0303     		.2byte	0x303
 6608 31cb 11250000 		.4byte	0x2511
 6609 31cf 9B000000 		.4byte	.LLST3
 6610 31d3 2E       		.uleb128 0x2e
 6611 31d4 1C000000 		.4byte	.LVL2
 6612 31d8 D1360000 		.4byte	0x36d1
 6613 31dc E6310000 		.4byte	0x31e6
 6614 31e0 2F       		.uleb128 0x2f
 6615 31e1 01       		.uleb128 0x1
 6616 31e2 50       		.byte	0x50
 6617 31e3 01       		.uleb128 0x1
 6618 31e4 33       		.byte	0x33
 6619 31e5 00       		.byte	0
 6620 31e6 30       		.uleb128 0x30
 6621 31e7 26000000 		.4byte	.LVL3
 6622 31eb DC360000 		.4byte	0x36dc
 6623 31ef 2E       		.uleb128 0x2e
 6624 31f0 30000000 		.4byte	.LVL4
 6625 31f4 E8360000 		.4byte	0x36e8
 6626 31f8 02320000 		.4byte	0x3202
 6627 31fc 2F       		.uleb128 0x2f
 6628 31fd 01       		.uleb128 0x1
 6629 31fe 50       		.byte	0x50
 6630 31ff 01       		.uleb128 0x1
 6631 3200 32       		.byte	0x32
 6632 3201 00       		.byte	0
ARM GAS  C:\Users\kateb\AppData\Local\Temp\cciDLH78.s 			page 149


 6633 3202 30       		.uleb128 0x30
 6634 3203 36000000 		.4byte	.LVL6
 6635 3207 F4360000 		.4byte	0x36f4
 6636 320b 30       		.uleb128 0x30
 6637 320c 5E000000 		.4byte	.LVL15
 6638 3210 00370000 		.4byte	0x3700
 6639 3214 30       		.uleb128 0x30
 6640 3215 68000000 		.4byte	.LVL18
 6641 3219 00370000 		.4byte	0x3700
 6642 321d 00       		.byte	0
 6643 321e 2A       		.uleb128 0x2a
 6644 321f E2490000 		.4byte	.LASF977
 6645 3223 01       		.byte	0x1
 6646 3224 8F03     		.2byte	0x38f
 6647 3226 631C0000 		.4byte	0x1c63
 6648 322a 00000000 		.4byte	.LFB256
 6649 322e 68000000 		.4byte	.LFE256-.LFB256
 6650 3232 01       		.uleb128 0x1
 6651 3233 9C       		.byte	0x9c
 6652 3234 B2320000 		.4byte	0x32b2
 6653 3238 2B       		.uleb128 0x2b
 6654 3239 8E320000 		.4byte	.LASF546
 6655 323d 01       		.byte	0x1
 6656 323e 8F03     		.2byte	0x38f
 6657 3240 371D0000 		.4byte	0x1d37
 6658 3244 CF000000 		.4byte	.LLST4
 6659 3248 2C       		.uleb128 0x2c
 6660 3249 C8440000 		.4byte	.LASF972
 6661 324d 01       		.byte	0x1
 6662 324e 9103     		.2byte	0x391
 6663 3250 631C0000 		.4byte	0x1c63
 6664 3254 54010000 		.4byte	.LLST5
 6665 3258 2D       		.uleb128 0x2d
 6666 3259 D02D0000 		.4byte	.LASF973
 6667 325d 01       		.byte	0x1
 6668 325e 9203     		.2byte	0x392
 6669 3260 EC000000 		.4byte	0xec
 6670 3264 05       		.uleb128 0x5
 6671 3265 03       		.byte	0x3
 6672 3266 04000000 		.4byte	interruptState.14239
 6673 326a 2C       		.uleb128 0x2c
 6674 326b 11450000 		.4byte	.LASF975
 6675 326f 01       		.byte	0x1
 6676 3270 9403     		.2byte	0x394
 6677 3272 11250000 		.4byte	0x2511
 6678 3276 93010000 		.4byte	.LLST6
 6679 327a 30       		.uleb128 0x30
 6680 327b 1C000000 		.4byte	.LVL24
 6681 327f DC360000 		.4byte	0x36dc
 6682 3283 2E       		.uleb128 0x2e
 6683 3284 26000000 		.4byte	.LVL25
 6684 3288 E8360000 		.4byte	0x36e8
 6685 328c 96320000 		.4byte	0x3296
 6686 3290 2F       		.uleb128 0x2f
 6687 3291 01       		.uleb128 0x1
 6688 3292 50       		.byte	0x50
 6689 3293 01       		.uleb128 0x1
ARM GAS  C:\Users\kateb\AppData\Local\Temp\cciDLH78.s 			page 150


 6690 3294 32       		.byte	0x32
 6691 3295 00       		.byte	0
 6692 3296 30       		.uleb128 0x30
 6693 3297 32000000 		.4byte	.LVL28
 6694 329b 00370000 		.4byte	0x3700
 6695 329f 30       		.uleb128 0x30
 6696 32a0 3E000000 		.4byte	.LVL31
 6697 32a4 00370000 		.4byte	0x3700
 6698 32a8 30       		.uleb128 0x30
 6699 32a9 4A000000 		.4byte	.LVL34
 6700 32ad 00370000 		.4byte	0x3700
 6701 32b1 00       		.byte	0
 6702 32b2 31       		.uleb128 0x31
 6703 32b3 21230000 		.4byte	.LASF986
 6704 32b7 01       		.byte	0x1
 6705 32b8 60       		.byte	0x60
 6706 32b9 00000000 		.4byte	.LFB248
 6707 32bd 18000000 		.4byte	.LFE248-.LFB248
 6708 32c1 01       		.uleb128 0x1
 6709 32c2 9C       		.byte	0x9c
 6710 32c3 EC320000 		.4byte	0x32ec
 6711 32c7 2E       		.uleb128 0x2e
 6712 32c8 0A000000 		.4byte	.LVL41
 6713 32cc 0C370000 		.4byte	0x370c
 6714 32d0 DB320000 		.4byte	0x32db
 6715 32d4 2F       		.uleb128 0x2f
 6716 32d5 01       		.uleb128 0x1
 6717 32d6 50       		.byte	0x50
 6718 32d7 02       		.uleb128 0x2
 6719 32d8 74       		.byte	0x74
 6720 32d9 00       		.sleb128 0
 6721 32da 00       		.byte	0
 6722 32db 32       		.uleb128 0x32
 6723 32dc 12000000 		.4byte	.LVL42
 6724 32e0 0C370000 		.4byte	0x370c
 6725 32e4 2F       		.uleb128 0x2f
 6726 32e5 01       		.uleb128 0x1
 6727 32e6 50       		.byte	0x50
 6728 32e7 02       		.uleb128 0x2
 6729 32e8 74       		.byte	0x74
 6730 32e9 18       		.sleb128 24
 6731 32ea 00       		.byte	0
 6732 32eb 00       		.byte	0
 6733 32ec 33       		.uleb128 0x33
 6734 32ed CE150000 		.4byte	.LASF978
 6735 32f1 01       		.byte	0x1
 6736 32f2 86       		.byte	0x86
 6737 32f3 09220000 		.4byte	0x2209
 6738 32f7 00000000 		.4byte	.LFB249
 6739 32fb 9C000000 		.4byte	.LFE249-.LFB249
 6740 32ff 01       		.uleb128 0x1
 6741 3300 9C       		.byte	0x9c
 6742 3301 69330000 		.4byte	0x3369
 6743 3305 34       		.uleb128 0x34
 6744 3306 264E0000 		.4byte	.LASF979
 6745 330a 01       		.byte	0x1
 6746 330b 86       		.byte	0x86
ARM GAS  C:\Users\kateb\AppData\Local\Temp\cciDLH78.s 			page 151


 6747 330c 69330000 		.4byte	0x3369
 6748 3310 B1010000 		.4byte	.LLST7
 6749 3314 35       		.uleb128 0x35
 6750 3315 37210000 		.4byte	.LASF980
 6751 3319 01       		.byte	0x1
 6752 331a 88       		.byte	0x88
 6753 331b 09220000 		.4byte	0x2209
 6754 331f FA010000 		.4byte	.LLST8
 6755 3323 36       		.uleb128 0x36
 6756 3324 1E000000 		.4byte	.LBB5
 6757 3328 34000000 		.4byte	.LBE5-.LBB5
 6758 332c 56330000 		.4byte	0x3356
 6759 3330 37       		.uleb128 0x37
 6760 3331 69647800 		.ascii	"idx\000"
 6761 3335 01       		.byte	0x1
 6762 3336 A0       		.byte	0xa0
 6763 3337 EC000000 		.4byte	0xec
 6764 333b 24020000 		.4byte	.LLST9
 6765 333f 32       		.uleb128 0x32
 6766 3340 3C000000 		.4byte	.LVL46
 6767 3344 18370000 		.4byte	0x3718
 6768 3348 2F       		.uleb128 0x2f
 6769 3349 01       		.uleb128 0x1
 6770 334a 51       		.byte	0x51
 6771 334b 02       		.uleb128 0x2
 6772 334c 74       		.byte	0x74
 6773 334d 00       		.sleb128 0
 6774 334e 2F       		.uleb128 0x2f
 6775 334f 01       		.uleb128 0x1
 6776 3350 52       		.byte	0x52
 6777 3351 02       		.uleb128 0x2
 6778 3352 08       		.byte	0x8
 6779 3353 44       		.byte	0x44
 6780 3354 00       		.byte	0
 6781 3355 00       		.byte	0
 6782 3356 30       		.uleb128 0x30
 6783 3357 5C000000 		.4byte	.LVL50
 6784 335b 21370000 		.4byte	0x3721
 6785 335f 30       		.uleb128 0x30
 6786 3360 6C000000 		.4byte	.LVL53
 6787 3364 2D370000 		.4byte	0x372d
 6788 3368 00       		.byte	0
 6789 3369 06       		.uleb128 0x6
 6790 336a 04       		.byte	0x4
 6791 336b 11300000 		.4byte	0x3011
 6792 336f 2A       		.uleb128 0x2a
 6793 3370 34310000 		.4byte	.LASF981
 6794 3374 01       		.byte	0x1
 6795 3375 0B01     		.2byte	0x10b
 6796 3377 09220000 		.4byte	0x2209
 6797 337b 00000000 		.4byte	.LFB250
 6798 337f FC000000 		.4byte	.LFE250-.LFB250
 6799 3383 01       		.uleb128 0x1
 6800 3384 9C       		.byte	0x9c
 6801 3385 78340000 		.4byte	0x3478
 6802 3389 2C       		.uleb128 0x2c
 6803 338a 37210000 		.4byte	.LASF980
ARM GAS  C:\Users\kateb\AppData\Local\Temp\cciDLH78.s 			page 152


 6804 338e 01       		.byte	0x1
 6805 338f 0D01     		.2byte	0x10d
 6806 3391 09220000 		.4byte	0x2209
 6807 3395 43020000 		.4byte	.LLST10
 6808 3399 2D       		.uleb128 0x2d
 6809 339a FD210000 		.4byte	.LASF982
 6810 339e 01       		.byte	0x1
 6811 339f 1001     		.2byte	0x110
 6812 33a1 78340000 		.4byte	0x3478
 6813 33a5 02       		.uleb128 0x2
 6814 33a6 91       		.byte	0x91
 6815 33a7 68       		.sleb128 -24
 6816 33a8 2D       		.uleb128 0x2d
 6817 33a9 370D0000 		.4byte	.LASF983
 6818 33ad 01       		.byte	0x1
 6819 33ae 1901     		.2byte	0x119
 6820 33b0 A7240000 		.4byte	0x24a7
 6821 33b4 02       		.uleb128 0x2
 6822 33b5 91       		.byte	0x91
 6823 33b6 40       		.sleb128 -64
 6824 33b7 38       		.uleb128 0x38
 6825 33b8 4D310000 		.4byte	0x314d
 6826 33bc A8000000 		.4byte	.LBB6
 6827 33c0 04000000 		.4byte	.LBE6-.LBB6
 6828 33c4 01       		.byte	0x1
 6829 33c5 8501     		.2byte	0x185
 6830 33c7 D5330000 		.4byte	0x33d5
 6831 33cb 39       		.uleb128 0x39
 6832 33cc 5A310000 		.4byte	0x315a
 6833 33d0 78020000 		.4byte	.LLST11
 6834 33d4 00       		.byte	0
 6835 33d5 36       		.uleb128 0x36
 6836 33d6 AC000000 		.4byte	.LBB8
 6837 33da 1E000000 		.4byte	.LBE8-.LBB8
 6838 33de 03340000 		.4byte	0x3403
 6839 33e2 2D       		.uleb128 0x2d
 6840 33e3 ED310000 		.4byte	.LASF984
 6841 33e7 01       		.byte	0x1
 6842 33e8 8E01     		.2byte	0x18e
 6843 33ea DD2C0000 		.4byte	0x2cdd
 6844 33ee 03       		.uleb128 0x3
 6845 33ef 91       		.byte	0x91
 6846 33f0 B87F     		.sleb128 -72
 6847 33f2 32       		.uleb128 0x32
 6848 33f3 C8000000 		.4byte	.LVL66
 6849 33f7 38370000 		.4byte	0x3738
 6850 33fb 2F       		.uleb128 0x2f
 6851 33fc 01       		.uleb128 0x1
 6852 33fd 50       		.byte	0x50
 6853 33fe 02       		.uleb128 0x2
 6854 33ff 7D       		.byte	0x7d
 6855 3400 00       		.sleb128 0
 6856 3401 00       		.byte	0
 6857 3402 00       		.byte	0
 6858 3403 2E       		.uleb128 0x2e
 6859 3404 1C000000 		.4byte	.LVL56
 6860 3408 18370000 		.4byte	0x3718
ARM GAS  C:\Users\kateb\AppData\Local\Temp\cciDLH78.s 			page 153


 6861 340c 22340000 		.4byte	0x3422
 6862 3410 2F       		.uleb128 0x2f
 6863 3411 01       		.uleb128 0x1
 6864 3412 50       		.byte	0x50
 6865 3413 02       		.uleb128 0x2
 6866 3414 91       		.byte	0x91
 6867 3415 40       		.sleb128 -64
 6868 3416 2F       		.uleb128 0x2f
 6869 3417 01       		.uleb128 0x1
 6870 3418 51       		.byte	0x51
 6871 3419 01       		.uleb128 0x1
 6872 341a 30       		.byte	0x30
 6873 341b 2F       		.uleb128 0x2f
 6874 341c 01       		.uleb128 0x1
 6875 341d 52       		.byte	0x52
 6876 341e 02       		.uleb128 0x2
 6877 341f 08       		.byte	0x8
 6878 3420 28       		.byte	0x28
 6879 3421 00       		.byte	0
 6880 3422 2E       		.uleb128 0x2e
 6881 3423 78000000 		.4byte	.LVL57
 6882 3427 44370000 		.4byte	0x3744
 6883 342b 36340000 		.4byte	0x3436
 6884 342f 2F       		.uleb128 0x2f
 6885 3430 01       		.uleb128 0x1
 6886 3431 50       		.byte	0x50
 6887 3432 02       		.uleb128 0x2
 6888 3433 74       		.byte	0x74
 6889 3434 00       		.sleb128 0
 6890 3435 00       		.byte	0
 6891 3436 2E       		.uleb128 0x2e
 6892 3437 80000000 		.4byte	.LVL58
 6893 343b 44370000 		.4byte	0x3744
 6894 343f 4A340000 		.4byte	0x344a
 6895 3443 2F       		.uleb128 0x2f
 6896 3444 01       		.uleb128 0x1
 6897 3445 50       		.byte	0x50
 6898 3446 02       		.uleb128 0x2
 6899 3447 74       		.byte	0x74
 6900 3448 18       		.sleb128 24
 6901 3449 00       		.byte	0
 6902 344a 30       		.uleb128 0x30
 6903 344b 84000000 		.4byte	.LVL59
 6904 344f 50370000 		.4byte	0x3750
 6905 3453 2E       		.uleb128 0x2e
 6906 3454 8A000000 		.4byte	.LVL60
 6907 3458 5C370000 		.4byte	0x375c
 6908 345c 67340000 		.4byte	0x3467
 6909 3460 2F       		.uleb128 0x2f
 6910 3461 01       		.uleb128 0x1
 6911 3462 50       		.byte	0x50
 6912 3463 02       		.uleb128 0x2
 6913 3464 91       		.byte	0x91
 6914 3465 58       		.sleb128 -40
 6915 3466 00       		.byte	0
 6916 3467 32       		.uleb128 0x32
 6917 3468 98000000 		.4byte	.LVL62
ARM GAS  C:\Users\kateb\AppData\Local\Temp\cciDLH78.s 			page 154


 6918 346c 68370000 		.4byte	0x3768
 6919 3470 2F       		.uleb128 0x2f
 6920 3471 01       		.uleb128 0x1
 6921 3472 50       		.byte	0x50
 6922 3473 02       		.uleb128 0x2
 6923 3474 91       		.byte	0x91
 6924 3475 40       		.sleb128 -64
 6925 3476 00       		.byte	0
 6926 3477 00       		.byte	0
 6927 3478 0D       		.uleb128 0xd
 6928 3479 EF230000 		.4byte	0x23ef
 6929 347d 88340000 		.4byte	0x3488
 6930 3481 0E       		.uleb128 0xe
 6931 3482 A9000000 		.4byte	0xa9
 6932 3486 03       		.byte	0x3
 6933 3487 00       		.byte	0
 6934 3488 2A       		.uleb128 0x2a
 6935 3489 32190000 		.4byte	.LASF985
 6936 348d 01       		.byte	0x1
 6937 348e C601     		.2byte	0x1c6
 6938 3490 09220000 		.4byte	0x2209
 6939 3494 00000000 		.4byte	.LFB251
 6940 3498 08000000 		.4byte	.LFE251-.LFB251
 6941 349c 01       		.uleb128 0x1
 6942 349d 9C       		.byte	0x9c
 6943 349e BA340000 		.4byte	0x34ba
 6944 34a2 2D       		.uleb128 0x2d
 6945 34a3 37210000 		.4byte	.LASF980
 6946 34a7 01       		.byte	0x1
 6947 34a8 C801     		.2byte	0x1c8
 6948 34aa 09220000 		.4byte	0x2209
 6949 34ae 01       		.uleb128 0x1
 6950 34af 50       		.byte	0x50
 6951 34b0 30       		.uleb128 0x30
 6952 34b1 06000000 		.4byte	.LVL68
 6953 34b5 74370000 		.4byte	0x3774
 6954 34b9 00       		.byte	0
 6955 34ba 3A       		.uleb128 0x3a
 6956 34bb A1300000 		.4byte	.LASF987
 6957 34bf 01       		.byte	0x1
 6958 34c0 FE01     		.2byte	0x1fe
 6959 34c2 00000000 		.4byte	.LFB252
 6960 34c6 0C000000 		.4byte	.LFE252-.LFB252
 6961 34ca 01       		.uleb128 0x1
 6962 34cb 9C       		.byte	0x9c
 6963 34cc DF340000 		.4byte	0x34df
 6964 34d0 3B       		.uleb128 0x3b
 6965 34d1 BA450000 		.4byte	.LASF988
 6966 34d5 01       		.byte	0x1
 6967 34d6 FE01     		.2byte	0x1fe
 6968 34d8 EC000000 		.4byte	0xec
 6969 34dc 01       		.uleb128 0x1
 6970 34dd 50       		.byte	0x50
 6971 34de 00       		.byte	0
 6972 34df 2A       		.uleb128 0x2a
 6973 34e0 CE310000 		.4byte	.LASF989
 6974 34e4 01       		.byte	0x1
ARM GAS  C:\Users\kateb\AppData\Local\Temp\cciDLH78.s 			page 155


 6975 34e5 BD02     		.2byte	0x2bd
 6976 34e7 09220000 		.4byte	0x2209
 6977 34eb 00000000 		.4byte	.LFB253
 6978 34ef 18000000 		.4byte	.LFE253-.LFB253
 6979 34f3 01       		.uleb128 0x1
 6980 34f4 9C       		.byte	0x9c
 6981 34f5 1A350000 		.4byte	0x351a
 6982 34f9 2B       		.uleb128 0x2b
 6983 34fa DF3B0000 		.4byte	.LASF990
 6984 34fe 01       		.byte	0x1
 6985 34ff BD02     		.2byte	0x2bd
 6986 3501 1D300000 		.4byte	0x301d
 6987 3505 8C020000 		.4byte	.LLST12
 6988 3509 2C       		.uleb128 0x2c
 6989 350a 37210000 		.4byte	.LASF980
 6990 350e 01       		.byte	0x1
 6991 350f BF02     		.2byte	0x2bf
 6992 3511 09220000 		.4byte	0x2209
 6993 3515 C7020000 		.4byte	.LLST13
 6994 3519 00       		.byte	0
 6995 351a 3C       		.uleb128 0x3c
 6996 351b BC3A0000 		.4byte	.LASF1032
 6997 351f 01       		.byte	0x1
 6998 3520 D302     		.2byte	0x2d3
 6999 3522 00000000 		.4byte	.LFB254
 7000 3526 0C000000 		.4byte	.LFE254-.LFB254
 7001 352a 01       		.uleb128 0x1
 7002 352b 9C       		.byte	0x9c
 7003 352c 3D       		.uleb128 0x3d
 7004 352d DE240000 		.4byte	.LASF991
 7005 3531 01       		.byte	0x1
 7006 3532 39       		.byte	0x39
 7007 3533 0A1D0000 		.4byte	0x1d0a
 7008 3537 05       		.uleb128 0x5
 7009 3538 03       		.byte	0x3
 7010 3539 20000000 		.4byte	bleDeepSleepCallbackParams
 7011 353d 3D       		.uleb128 0x3d
 7012 353e 86350000 		.4byte	.LASF992
 7013 3542 01       		.byte	0x1
 7014 3543 3A       		.byte	0x3a
 7015 3544 9F1D0000 		.4byte	0x1d9f
 7016 3548 05       		.uleb128 0x5
 7017 3549 03       		.byte	0x3
 7018 354a 00000000 		.4byte	bleDeepSleepCallback
 7019 354e 3D       		.uleb128 0x3d
 7020 354f F1020000 		.4byte	.LASF993
 7021 3553 01       		.byte	0x1
 7022 3554 44       		.byte	0x44
 7023 3555 0A1D0000 		.4byte	0x1d0a
 7024 3559 05       		.uleb128 0x5
 7025 355a 03       		.byte	0x3
 7026 355b 14000000 		.4byte	bleSleepCallbackParams
 7027 355f 3D       		.uleb128 0x3d
 7028 3560 B5130000 		.4byte	.LASF994
 7029 3564 01       		.byte	0x1
 7030 3565 45       		.byte	0x45
 7031 3566 9F1D0000 		.4byte	0x1d9f
ARM GAS  C:\Users\kateb\AppData\Local\Temp\cciDLH78.s 			page 156


 7032 356a 05       		.uleb128 0x5
 7033 356b 03       		.byte	0x3
 7034 356c 18000000 		.4byte	bleSleepCallback
 7035 3570 3E       		.uleb128 0x3e
 7036 3571 C1470000 		.4byte	.LASF995
 7037 3575 15       		.byte	0x15
 7038 3576 EA07     		.2byte	0x7ea
 7039 3578 7C350000 		.4byte	0x357c
 7040 357c 0B       		.uleb128 0xb
 7041 357d E1000000 		.4byte	0xe1
 7042 3581 3E       		.uleb128 0x3e
 7043 3582 170A0000 		.4byte	.LASF996
 7044 3586 02       		.byte	0x2
 7045 3587 1802     		.2byte	0x218
 7046 3589 C8040000 		.4byte	0x4c8
 7047 358d 3E       		.uleb128 0x3e
 7048 358e EB0A0000 		.4byte	.LASF997
 7049 3592 02       		.byte	0x2
 7050 3593 1B02     		.2byte	0x21b
 7051 3595 66290000 		.4byte	0x2966
 7052 3599 3E       		.uleb128 0x3e
 7053 359a DB0A0000 		.4byte	.LASF998
 7054 359e 02       		.byte	0x2
 7055 359f 2202     		.2byte	0x222
 7056 35a1 96290000 		.4byte	0x2996
 7057 35a5 0D       		.uleb128 0xd
 7058 35a6 85250000 		.4byte	0x2585
 7059 35aa B5350000 		.4byte	0x35b5
 7060 35ae 0E       		.uleb128 0xe
 7061 35af A9000000 		.4byte	0xa9
 7062 35b3 00       		.byte	0
 7063 35b4 00       		.byte	0
 7064 35b5 3E       		.uleb128 0x3e
 7065 35b6 9A090000 		.4byte	.LASF999
 7066 35ba 02       		.byte	0x2
 7067 35bb 2C02     		.2byte	0x22c
 7068 35bd A5350000 		.4byte	0x35a5
 7069 35c1 0D       		.uleb128 0xd
 7070 35c2 DE290000 		.4byte	0x29de
 7071 35c6 D1350000 		.4byte	0x35d1
 7072 35ca 0E       		.uleb128 0xe
 7073 35cb A9000000 		.4byte	0xa9
 7074 35cf 00       		.byte	0
 7075 35d0 00       		.byte	0
 7076 35d1 3E       		.uleb128 0x3e
 7077 35d2 AA500000 		.4byte	.LASF1000
 7078 35d6 02       		.byte	0x2
 7079 35d7 2D02     		.2byte	0x22d
 7080 35d9 C1350000 		.4byte	0x35c1
 7081 35dd 3E       		.uleb128 0x3e
 7082 35de 78530000 		.4byte	.LASF1001
 7083 35e2 02       		.byte	0x2
 7084 35e3 5202     		.2byte	0x252
 7085 35e5 CB000000 		.4byte	0xcb
 7086 35e9 0D       		.uleb128 0xd
 7087 35ea CB000000 		.4byte	0xcb
 7088 35ee F9350000 		.4byte	0x35f9
ARM GAS  C:\Users\kateb\AppData\Local\Temp\cciDLH78.s 			page 157


 7089 35f2 0E       		.uleb128 0xe
 7090 35f3 A9000000 		.4byte	0xa9
 7091 35f7 00       		.byte	0
 7092 35f8 00       		.byte	0
 7093 35f9 3E       		.uleb128 0x3e
 7094 35fa D2560000 		.4byte	.LASF1002
 7095 35fe 02       		.byte	0x2
 7096 35ff 5902     		.2byte	0x259
 7097 3601 E9350000 		.4byte	0x35e9
 7098 3605 3F       		.uleb128 0x3f
 7099 3606 8F4B0000 		.4byte	.LASF1003
 7100 360a 01       		.byte	0x1
 7101 360b 2F       		.byte	0x2f
 7102 360c 1D300000 		.4byte	0x301d
 7103 3610 05       		.uleb128 0x5
 7104 3611 03       		.byte	0x3
 7105 3612 00000000 		.4byte	Cy_BLE_HostRegisteredCallback
 7106 3616 3F       		.uleb128 0x3f
 7107 3617 CC540000 		.4byte	.LASF1004
 7108 361b 01       		.byte	0x1
 7109 361c 2C       		.byte	0x2c
 7110 361d F52D0000 		.4byte	0x2df5
 7111 3621 05       		.uleb128 0x5
 7112 3622 03       		.byte	0x3
 7113 3623 00000000 		.4byte	Cy_BLE_ApplCallback
 7114 3627 0D       		.uleb128 0xd
 7115 3628 CB000000 		.4byte	0xcb
 7116 362c 38360000 		.4byte	0x3638
 7117 3630 0F       		.uleb128 0xf
 7118 3631 A9000000 		.4byte	0xa9
 7119 3635 5F2A     		.2byte	0x2a5f
 7120 3637 00       		.byte	0
 7121 3638 3F       		.uleb128 0x3f
 7122 3639 5E350000 		.4byte	.LASF1005
 7123 363d 01       		.byte	0x1
 7124 363e 27       		.byte	0x27
 7125 363f 27360000 		.4byte	0x3627
 7126 3643 05       		.uleb128 0x5
 7127 3644 03       		.byte	0x3
 7128 3645 00000000 		.4byte	cy_ble_stackMemoryRam
 7129 3649 3F       		.uleb128 0x3f
 7130 364a 5C0C0000 		.4byte	.LASF1006
 7131 364e 01       		.byte	0x1
 7132 364f 34       		.byte	0x34
 7133 3650 69330000 		.4byte	0x3369
 7134 3654 05       		.uleb128 0x5
 7135 3655 03       		.byte	0x3
 7136 3656 00000000 		.4byte	cy_ble_configPtr
 7137 365a 0D       		.uleb128 0xd
 7138 365b C8040000 		.4byte	0x4c8
 7139 365f 6A360000 		.4byte	0x366a
 7140 3663 0E       		.uleb128 0xe
 7141 3664 A9000000 		.4byte	0xa9
 7142 3668 00       		.byte	0
 7143 3669 00       		.byte	0
 7144 366a 3E       		.uleb128 0x3e
 7145 366b ED000000 		.4byte	.LASF1007
ARM GAS  C:\Users\kateb\AppData\Local\Temp\cciDLH78.s 			page 158


 7146 366f 13       		.byte	0x13
 7147 3670 7409     		.2byte	0x974
 7148 3672 76360000 		.4byte	0x3676
 7149 3676 0B       		.uleb128 0xb
 7150 3677 5A360000 		.4byte	0x365a
 7151 367b 3E       		.uleb128 0x3e
 7152 367c C6130000 		.4byte	.LASF1008
 7153 3680 13       		.byte	0x13
 7154 3681 7509     		.2byte	0x975
 7155 3683 C3040000 		.4byte	0x4c3
 7156 3687 3E       		.uleb128 0x3e
 7157 3688 923A0000 		.4byte	.LASF1009
 7158 368c 13       		.byte	0x13
 7159 368d 7809     		.2byte	0x978
 7160 368f CB000000 		.4byte	0xcb
 7161 3693 0D       		.uleb128 0xd
 7162 3694 E6300000 		.4byte	0x30e6
 7163 3698 A3360000 		.4byte	0x36a3
 7164 369c 0E       		.uleb128 0xe
 7165 369d A9000000 		.4byte	0xa9
 7166 36a1 00       		.byte	0
 7167 36a2 00       		.byte	0
 7168 36a3 3E       		.uleb128 0x3e
 7169 36a4 FA1E0000 		.4byte	.LASF1010
 7170 36a8 13       		.byte	0x13
 7171 36a9 8009     		.2byte	0x980
 7172 36ab 93360000 		.4byte	0x3693
 7173 36af 0D       		.uleb128 0xd
 7174 36b0 0A2D0000 		.4byte	0x2d0a
 7175 36b4 C5360000 		.4byte	0x36c5
 7176 36b8 0E       		.uleb128 0xe
 7177 36b9 A9000000 		.4byte	0xa9
 7178 36bd 00       		.byte	0
 7179 36be 0E       		.uleb128 0xe
 7180 36bf A9000000 		.4byte	0xa9
 7181 36c3 02       		.byte	0x2
 7182 36c4 00       		.byte	0
 7183 36c5 3E       		.uleb128 0x3e
 7184 36c6 C2370000 		.4byte	.LASF1011
 7185 36ca 13       		.byte	0x13
 7186 36cb 8109     		.2byte	0x981
 7187 36cd AF360000 		.4byte	0x36af
 7188 36d1 40       		.uleb128 0x40
 7189 36d2 850E0000 		.4byte	.LASF1012
 7190 36d6 850E0000 		.4byte	.LASF1012
 7191 36da 14       		.byte	0x14
 7192 36db 68       		.byte	0x68
 7193 36dc 41       		.uleb128 0x41
 7194 36dd 2D400000 		.4byte	.LASF1013
 7195 36e1 2D400000 		.4byte	.LASF1013
 7196 36e5 16       		.byte	0x16
 7197 36e6 4D03     		.2byte	0x34d
 7198 36e8 41       		.uleb128 0x41
 7199 36e9 B7540000 		.4byte	.LASF1014
 7200 36ed B7540000 		.4byte	.LASF1014
 7201 36f1 09       		.byte	0x9
 7202 36f2 5008     		.2byte	0x850
ARM GAS  C:\Users\kateb\AppData\Local\Temp\cciDLH78.s 			page 159


 7203 36f4 41       		.uleb128 0x41
 7204 36f5 12220000 		.4byte	.LASF1015
 7205 36f9 12220000 		.4byte	.LASF1015
 7206 36fd 09       		.byte	0x9
 7207 36fe 6708     		.2byte	0x867
 7208 3700 41       		.uleb128 0x41
 7209 3701 882B0000 		.4byte	.LASF1016
 7210 3705 882B0000 		.4byte	.LASF1016
 7211 3709 16       		.byte	0x16
 7212 370a 5C03     		.2byte	0x35c
 7213 370c 41       		.uleb128 0x41
 7214 370d 53370000 		.4byte	.LASF1017
 7215 3711 53370000 		.4byte	.LASF1017
 7216 3715 08       		.byte	0x8
 7217 3716 4605     		.2byte	0x546
 7218 3718 42       		.uleb128 0x42
 7219 3719 8F290000 		.4byte	.LASF1033
 7220 371d 8F290000 		.4byte	.LASF1033
 7221 3721 41       		.uleb128 0x41
 7222 3722 68090000 		.4byte	.LASF1018
 7223 3726 68090000 		.4byte	.LASF1018
 7224 372a 02       		.byte	0x2
 7225 372b D801     		.2byte	0x1d8
 7226 372d 40       		.uleb128 0x40
 7227 372e 092D0000 		.4byte	.LASF1019
 7228 3732 092D0000 		.4byte	.LASF1019
 7229 3736 17       		.byte	0x17
 7230 3737 82       		.byte	0x82
 7231 3738 41       		.uleb128 0x41
 7232 3739 703C0000 		.4byte	.LASF1020
 7233 373d 703C0000 		.4byte	.LASF1020
 7234 3741 0F       		.byte	0xf
 7235 3742 A201     		.2byte	0x1a2
 7236 3744 41       		.uleb128 0x41
 7237 3745 DE520000 		.4byte	.LASF1021
 7238 3749 DE520000 		.4byte	.LASF1021
 7239 374d 08       		.byte	0x8
 7240 374e 4505     		.2byte	0x545
 7241 3750 41       		.uleb128 0x41
 7242 3751 CC480000 		.4byte	.LASF1022
 7243 3755 CC480000 		.4byte	.LASF1022
 7244 3759 09       		.byte	0x9
 7245 375a B008     		.2byte	0x8b0
 7246 375c 41       		.uleb128 0x41
 7247 375d 594C0000 		.4byte	.LASF1023
 7248 3761 594C0000 		.4byte	.LASF1023
 7249 3765 09       		.byte	0x9
 7250 3766 D807     		.2byte	0x7d8
 7251 3768 41       		.uleb128 0x41
 7252 3769 F1550000 		.4byte	.LASF1024
 7253 376d F1550000 		.4byte	.LASF1024
 7254 3771 09       		.byte	0x9
 7255 3772 4F07     		.2byte	0x74f
 7256 3774 41       		.uleb128 0x41
 7257 3775 D4390000 		.4byte	.LASF1025
 7258 3779 D4390000 		.4byte	.LASF1025
 7259 377d 09       		.byte	0x9
ARM GAS  C:\Users\kateb\AppData\Local\Temp\cciDLH78.s 			page 160


 7260 377e 7107     		.2byte	0x771
 7261 3780 00       		.byte	0
 7262              		.section	.debug_abbrev,"",%progbits
 7263              	.Ldebug_abbrev0:
 7264 0000 01       		.uleb128 0x1
 7265 0001 11       		.uleb128 0x11
 7266 0002 01       		.byte	0x1
 7267 0003 25       		.uleb128 0x25
 7268 0004 0E       		.uleb128 0xe
 7269 0005 13       		.uleb128 0x13
 7270 0006 0B       		.uleb128 0xb
 7271 0007 03       		.uleb128 0x3
 7272 0008 0E       		.uleb128 0xe
 7273 0009 1B       		.uleb128 0x1b
 7274 000a 0E       		.uleb128 0xe
 7275 000b 55       		.uleb128 0x55
 7276 000c 17       		.uleb128 0x17
 7277 000d 11       		.uleb128 0x11
 7278 000e 01       		.uleb128 0x1
 7279 000f 10       		.uleb128 0x10
 7280 0010 17       		.uleb128 0x17
 7281 0011 00       		.byte	0
 7282 0012 00       		.byte	0
 7283 0013 02       		.uleb128 0x2
 7284 0014 24       		.uleb128 0x24
 7285 0015 00       		.byte	0
 7286 0016 0B       		.uleb128 0xb
 7287 0017 0B       		.uleb128 0xb
 7288 0018 3E       		.uleb128 0x3e
 7289 0019 0B       		.uleb128 0xb
 7290 001a 03       		.uleb128 0x3
 7291 001b 08       		.uleb128 0x8
 7292 001c 00       		.byte	0
 7293 001d 00       		.byte	0
 7294 001e 03       		.uleb128 0x3
 7295 001f 24       		.uleb128 0x24
 7296 0020 00       		.byte	0
 7297 0021 0B       		.uleb128 0xb
 7298 0022 0B       		.uleb128 0xb
 7299 0023 3E       		.uleb128 0x3e
 7300 0024 0B       		.uleb128 0xb
 7301 0025 03       		.uleb128 0x3
 7302 0026 0E       		.uleb128 0xe
 7303 0027 00       		.byte	0
 7304 0028 00       		.byte	0
 7305 0029 04       		.uleb128 0x4
 7306 002a 16       		.uleb128 0x16
 7307 002b 00       		.byte	0
 7308 002c 03       		.uleb128 0x3
 7309 002d 0E       		.uleb128 0xe
 7310 002e 3A       		.uleb128 0x3a
 7311 002f 0B       		.uleb128 0xb
 7312 0030 3B       		.uleb128 0x3b
 7313 0031 0B       		.uleb128 0xb
 7314 0032 49       		.uleb128 0x49
 7315 0033 13       		.uleb128 0x13
 7316 0034 00       		.byte	0
ARM GAS  C:\Users\kateb\AppData\Local\Temp\cciDLH78.s 			page 161


 7317 0035 00       		.byte	0
 7318 0036 05       		.uleb128 0x5
 7319 0037 0F       		.uleb128 0xf
 7320 0038 00       		.byte	0
 7321 0039 0B       		.uleb128 0xb
 7322 003a 0B       		.uleb128 0xb
 7323 003b 00       		.byte	0
 7324 003c 00       		.byte	0
 7325 003d 06       		.uleb128 0x6
 7326 003e 0F       		.uleb128 0xf
 7327 003f 00       		.byte	0
 7328 0040 0B       		.uleb128 0xb
 7329 0041 0B       		.uleb128 0xb
 7330 0042 49       		.uleb128 0x49
 7331 0043 13       		.uleb128 0x13
 7332 0044 00       		.byte	0
 7333 0045 00       		.byte	0
 7334 0046 07       		.uleb128 0x7
 7335 0047 15       		.uleb128 0x15
 7336 0048 00       		.byte	0
 7337 0049 27       		.uleb128 0x27
 7338 004a 19       		.uleb128 0x19
 7339 004b 00       		.byte	0
 7340 004c 00       		.byte	0
 7341 004d 08       		.uleb128 0x8
 7342 004e 04       		.uleb128 0x4
 7343 004f 01       		.byte	0x1
 7344 0050 0B       		.uleb128 0xb
 7345 0051 0B       		.uleb128 0xb
 7346 0052 49       		.uleb128 0x49
 7347 0053 13       		.uleb128 0x13
 7348 0054 3A       		.uleb128 0x3a
 7349 0055 0B       		.uleb128 0xb
 7350 0056 3B       		.uleb128 0x3b
 7351 0057 0B       		.uleb128 0xb
 7352 0058 01       		.uleb128 0x1
 7353 0059 13       		.uleb128 0x13
 7354 005a 00       		.byte	0
 7355 005b 00       		.byte	0
 7356 005c 09       		.uleb128 0x9
 7357 005d 28       		.uleb128 0x28
 7358 005e 00       		.byte	0
 7359 005f 03       		.uleb128 0x3
 7360 0060 0E       		.uleb128 0xe
 7361 0061 1C       		.uleb128 0x1c
 7362 0062 0D       		.uleb128 0xd
 7363 0063 00       		.byte	0
 7364 0064 00       		.byte	0
 7365 0065 0A       		.uleb128 0xa
 7366 0066 28       		.uleb128 0x28
 7367 0067 00       		.byte	0
 7368 0068 03       		.uleb128 0x3
 7369 0069 0E       		.uleb128 0xe
 7370 006a 1C       		.uleb128 0x1c
 7371 006b 0B       		.uleb128 0xb
 7372 006c 00       		.byte	0
 7373 006d 00       		.byte	0
ARM GAS  C:\Users\kateb\AppData\Local\Temp\cciDLH78.s 			page 162


 7374 006e 0B       		.uleb128 0xb
 7375 006f 35       		.uleb128 0x35
 7376 0070 00       		.byte	0
 7377 0071 49       		.uleb128 0x49
 7378 0072 13       		.uleb128 0x13
 7379 0073 00       		.byte	0
 7380 0074 00       		.byte	0
 7381 0075 0C       		.uleb128 0xc
 7382 0076 26       		.uleb128 0x26
 7383 0077 00       		.byte	0
 7384 0078 49       		.uleb128 0x49
 7385 0079 13       		.uleb128 0x13
 7386 007a 00       		.byte	0
 7387 007b 00       		.byte	0
 7388 007c 0D       		.uleb128 0xd
 7389 007d 01       		.uleb128 0x1
 7390 007e 01       		.byte	0x1
 7391 007f 49       		.uleb128 0x49
 7392 0080 13       		.uleb128 0x13
 7393 0081 01       		.uleb128 0x1
 7394 0082 13       		.uleb128 0x13
 7395 0083 00       		.byte	0
 7396 0084 00       		.byte	0
 7397 0085 0E       		.uleb128 0xe
 7398 0086 21       		.uleb128 0x21
 7399 0087 00       		.byte	0
 7400 0088 49       		.uleb128 0x49
 7401 0089 13       		.uleb128 0x13
 7402 008a 2F       		.uleb128 0x2f
 7403 008b 0B       		.uleb128 0xb
 7404 008c 00       		.byte	0
 7405 008d 00       		.byte	0
 7406 008e 0F       		.uleb128 0xf
 7407 008f 21       		.uleb128 0x21
 7408 0090 00       		.byte	0
 7409 0091 49       		.uleb128 0x49
 7410 0092 13       		.uleb128 0x13
 7411 0093 2F       		.uleb128 0x2f
 7412 0094 05       		.uleb128 0x5
 7413 0095 00       		.byte	0
 7414 0096 00       		.byte	0
 7415 0097 10       		.uleb128 0x10
 7416 0098 13       		.uleb128 0x13
 7417 0099 01       		.byte	0x1
 7418 009a 0B       		.uleb128 0xb
 7419 009b 05       		.uleb128 0x5
 7420 009c 3A       		.uleb128 0x3a
 7421 009d 0B       		.uleb128 0xb
 7422 009e 3B       		.uleb128 0x3b
 7423 009f 0B       		.uleb128 0xb
 7424 00a0 01       		.uleb128 0x1
 7425 00a1 13       		.uleb128 0x13
 7426 00a2 00       		.byte	0
 7427 00a3 00       		.byte	0
 7428 00a4 11       		.uleb128 0x11
 7429 00a5 0D       		.uleb128 0xd
 7430 00a6 00       		.byte	0
ARM GAS  C:\Users\kateb\AppData\Local\Temp\cciDLH78.s 			page 163


 7431 00a7 03       		.uleb128 0x3
 7432 00a8 0E       		.uleb128 0xe
 7433 00a9 3A       		.uleb128 0x3a
 7434 00aa 0B       		.uleb128 0xb
 7435 00ab 3B       		.uleb128 0x3b
 7436 00ac 0B       		.uleb128 0xb
 7437 00ad 49       		.uleb128 0x49
 7438 00ae 13       		.uleb128 0x13
 7439 00af 38       		.uleb128 0x38
 7440 00b0 0B       		.uleb128 0xb
 7441 00b1 00       		.byte	0
 7442 00b2 00       		.byte	0
 7443 00b3 12       		.uleb128 0x12
 7444 00b4 0D       		.uleb128 0xd
 7445 00b5 00       		.byte	0
 7446 00b6 03       		.uleb128 0x3
 7447 00b7 0E       		.uleb128 0xe
 7448 00b8 3A       		.uleb128 0x3a
 7449 00b9 0B       		.uleb128 0xb
 7450 00ba 3B       		.uleb128 0x3b
 7451 00bb 0B       		.uleb128 0xb
 7452 00bc 49       		.uleb128 0x49
 7453 00bd 13       		.uleb128 0x13
 7454 00be 38       		.uleb128 0x38
 7455 00bf 05       		.uleb128 0x5
 7456 00c0 00       		.byte	0
 7457 00c1 00       		.byte	0
 7458 00c2 13       		.uleb128 0x13
 7459 00c3 13       		.uleb128 0x13
 7460 00c4 01       		.byte	0x1
 7461 00c5 0B       		.uleb128 0xb
 7462 00c6 06       		.uleb128 0x6
 7463 00c7 3A       		.uleb128 0x3a
 7464 00c8 0B       		.uleb128 0xb
 7465 00c9 3B       		.uleb128 0x3b
 7466 00ca 0B       		.uleb128 0xb
 7467 00cb 01       		.uleb128 0x1
 7468 00cc 13       		.uleb128 0x13
 7469 00cd 00       		.byte	0
 7470 00ce 00       		.byte	0
 7471 00cf 14       		.uleb128 0x14
 7472 00d0 0D       		.uleb128 0xd
 7473 00d1 00       		.byte	0
 7474 00d2 03       		.uleb128 0x3
 7475 00d3 0E       		.uleb128 0xe
 7476 00d4 3A       		.uleb128 0x3a
 7477 00d5 0B       		.uleb128 0xb
 7478 00d6 3B       		.uleb128 0x3b
 7479 00d7 05       		.uleb128 0x5
 7480 00d8 49       		.uleb128 0x49
 7481 00d9 13       		.uleb128 0x13
 7482 00da 38       		.uleb128 0x38
 7483 00db 05       		.uleb128 0x5
 7484 00dc 00       		.byte	0
 7485 00dd 00       		.byte	0
 7486 00de 15       		.uleb128 0x15
 7487 00df 0D       		.uleb128 0xd
ARM GAS  C:\Users\kateb\AppData\Local\Temp\cciDLH78.s 			page 164


 7488 00e0 00       		.byte	0
 7489 00e1 03       		.uleb128 0x3
 7490 00e2 0E       		.uleb128 0xe
 7491 00e3 3A       		.uleb128 0x3a
 7492 00e4 0B       		.uleb128 0xb
 7493 00e5 3B       		.uleb128 0x3b
 7494 00e6 05       		.uleb128 0x5
 7495 00e7 49       		.uleb128 0x49
 7496 00e8 13       		.uleb128 0x13
 7497 00e9 38       		.uleb128 0x38
 7498 00ea 06       		.uleb128 0x6
 7499 00eb 00       		.byte	0
 7500 00ec 00       		.byte	0
 7501 00ed 16       		.uleb128 0x16
 7502 00ee 16       		.uleb128 0x16
 7503 00ef 00       		.byte	0
 7504 00f0 03       		.uleb128 0x3
 7505 00f1 0E       		.uleb128 0xe
 7506 00f2 3A       		.uleb128 0x3a
 7507 00f3 0B       		.uleb128 0xb
 7508 00f4 3B       		.uleb128 0x3b
 7509 00f5 05       		.uleb128 0x5
 7510 00f6 49       		.uleb128 0x49
 7511 00f7 13       		.uleb128 0x13
 7512 00f8 00       		.byte	0
 7513 00f9 00       		.byte	0
 7514 00fa 17       		.uleb128 0x17
 7515 00fb 13       		.uleb128 0x13
 7516 00fc 01       		.byte	0x1
 7517 00fd 0B       		.uleb128 0xb
 7518 00fe 05       		.uleb128 0x5
 7519 00ff 3A       		.uleb128 0x3a
 7520 0100 0B       		.uleb128 0xb
 7521 0101 3B       		.uleb128 0x3b
 7522 0102 05       		.uleb128 0x5
 7523 0103 01       		.uleb128 0x1
 7524 0104 13       		.uleb128 0x13
 7525 0105 00       		.byte	0
 7526 0106 00       		.byte	0
 7527 0107 18       		.uleb128 0x18
 7528 0108 0D       		.uleb128 0xd
 7529 0109 00       		.byte	0
 7530 010a 03       		.uleb128 0x3
 7531 010b 0E       		.uleb128 0xe
 7532 010c 3A       		.uleb128 0x3a
 7533 010d 0B       		.uleb128 0xb
 7534 010e 3B       		.uleb128 0x3b
 7535 010f 05       		.uleb128 0x5
 7536 0110 49       		.uleb128 0x49
 7537 0111 13       		.uleb128 0x13
 7538 0112 38       		.uleb128 0x38
 7539 0113 0B       		.uleb128 0xb
 7540 0114 00       		.byte	0
 7541 0115 00       		.byte	0
 7542 0116 19       		.uleb128 0x19
 7543 0117 13       		.uleb128 0x13
 7544 0118 01       		.byte	0x1
ARM GAS  C:\Users\kateb\AppData\Local\Temp\cciDLH78.s 			page 165


 7545 0119 0B       		.uleb128 0xb
 7546 011a 06       		.uleb128 0x6
 7547 011b 3A       		.uleb128 0x3a
 7548 011c 0B       		.uleb128 0xb
 7549 011d 3B       		.uleb128 0x3b
 7550 011e 05       		.uleb128 0x5
 7551 011f 01       		.uleb128 0x1
 7552 0120 13       		.uleb128 0x13
 7553 0121 00       		.byte	0
 7554 0122 00       		.byte	0
 7555 0123 1A       		.uleb128 0x1a
 7556 0124 0D       		.uleb128 0xd
 7557 0125 00       		.byte	0
 7558 0126 03       		.uleb128 0x3
 7559 0127 08       		.uleb128 0x8
 7560 0128 3A       		.uleb128 0x3a
 7561 0129 0B       		.uleb128 0xb
 7562 012a 3B       		.uleb128 0x3b
 7563 012b 05       		.uleb128 0x5
 7564 012c 49       		.uleb128 0x49
 7565 012d 13       		.uleb128 0x13
 7566 012e 38       		.uleb128 0x38
 7567 012f 0B       		.uleb128 0xb
 7568 0130 00       		.byte	0
 7569 0131 00       		.byte	0
 7570 0132 1B       		.uleb128 0x1b
 7571 0133 13       		.uleb128 0x13
 7572 0134 01       		.byte	0x1
 7573 0135 0B       		.uleb128 0xb
 7574 0136 0B       		.uleb128 0xb
 7575 0137 3A       		.uleb128 0x3a
 7576 0138 0B       		.uleb128 0xb
 7577 0139 3B       		.uleb128 0x3b
 7578 013a 0B       		.uleb128 0xb
 7579 013b 01       		.uleb128 0x1
 7580 013c 13       		.uleb128 0x13
 7581 013d 00       		.byte	0
 7582 013e 00       		.byte	0
 7583 013f 1C       		.uleb128 0x1c
 7584 0140 04       		.uleb128 0x4
 7585 0141 01       		.byte	0x1
 7586 0142 0B       		.uleb128 0xb
 7587 0143 0B       		.uleb128 0xb
 7588 0144 49       		.uleb128 0x49
 7589 0145 13       		.uleb128 0x13
 7590 0146 3A       		.uleb128 0x3a
 7591 0147 0B       		.uleb128 0xb
 7592 0148 3B       		.uleb128 0x3b
 7593 0149 05       		.uleb128 0x5
 7594 014a 01       		.uleb128 0x1
 7595 014b 13       		.uleb128 0x13
 7596 014c 00       		.byte	0
 7597 014d 00       		.byte	0
 7598 014e 1D       		.uleb128 0x1d
 7599 014f 28       		.uleb128 0x28
 7600 0150 00       		.byte	0
 7601 0151 03       		.uleb128 0x3
ARM GAS  C:\Users\kateb\AppData\Local\Temp\cciDLH78.s 			page 166


 7602 0152 0E       		.uleb128 0xe
 7603 0153 1C       		.uleb128 0x1c
 7604 0154 06       		.uleb128 0x6
 7605 0155 00       		.byte	0
 7606 0156 00       		.byte	0
 7607 0157 1E       		.uleb128 0x1e
 7608 0158 13       		.uleb128 0x13
 7609 0159 01       		.byte	0x1
 7610 015a 0B       		.uleb128 0xb
 7611 015b 0B       		.uleb128 0xb
 7612 015c 3A       		.uleb128 0x3a
 7613 015d 0B       		.uleb128 0xb
 7614 015e 3B       		.uleb128 0x3b
 7615 015f 05       		.uleb128 0x5
 7616 0160 01       		.uleb128 0x1
 7617 0161 13       		.uleb128 0x13
 7618 0162 00       		.byte	0
 7619 0163 00       		.byte	0
 7620 0164 1F       		.uleb128 0x1f
 7621 0165 15       		.uleb128 0x15
 7622 0166 01       		.byte	0x1
 7623 0167 27       		.uleb128 0x27
 7624 0168 19       		.uleb128 0x19
 7625 0169 49       		.uleb128 0x49
 7626 016a 13       		.uleb128 0x13
 7627 016b 01       		.uleb128 0x1
 7628 016c 13       		.uleb128 0x13
 7629 016d 00       		.byte	0
 7630 016e 00       		.byte	0
 7631 016f 20       		.uleb128 0x20
 7632 0170 05       		.uleb128 0x5
 7633 0171 00       		.byte	0
 7634 0172 49       		.uleb128 0x49
 7635 0173 13       		.uleb128 0x13
 7636 0174 00       		.byte	0
 7637 0175 00       		.byte	0
 7638 0176 21       		.uleb128 0x21
 7639 0177 13       		.uleb128 0x13
 7640 0178 01       		.byte	0x1
 7641 0179 03       		.uleb128 0x3
 7642 017a 0E       		.uleb128 0xe
 7643 017b 0B       		.uleb128 0xb
 7644 017c 0B       		.uleb128 0xb
 7645 017d 3A       		.uleb128 0x3a
 7646 017e 0B       		.uleb128 0xb
 7647 017f 3B       		.uleb128 0x3b
 7648 0180 05       		.uleb128 0x5
 7649 0181 01       		.uleb128 0x1
 7650 0182 13       		.uleb128 0x13
 7651 0183 00       		.byte	0
 7652 0184 00       		.byte	0
 7653 0185 22       		.uleb128 0x22
 7654 0186 28       		.uleb128 0x28
 7655 0187 00       		.byte	0
 7656 0188 03       		.uleb128 0x3
 7657 0189 0E       		.uleb128 0xe
 7658 018a 1C       		.uleb128 0x1c
ARM GAS  C:\Users\kateb\AppData\Local\Temp\cciDLH78.s 			page 167


 7659 018b 05       		.uleb128 0x5
 7660 018c 00       		.byte	0
 7661 018d 00       		.byte	0
 7662 018e 23       		.uleb128 0x23
 7663 018f 15       		.uleb128 0x15
 7664 0190 01       		.byte	0x1
 7665 0191 27       		.uleb128 0x27
 7666 0192 19       		.uleb128 0x19
 7667 0193 01       		.uleb128 0x1
 7668 0194 13       		.uleb128 0x13
 7669 0195 00       		.byte	0
 7670 0196 00       		.byte	0
 7671 0197 24       		.uleb128 0x24
 7672 0198 17       		.uleb128 0x17
 7673 0199 01       		.byte	0x1
 7674 019a 0B       		.uleb128 0xb
 7675 019b 0B       		.uleb128 0xb
 7676 019c 3A       		.uleb128 0x3a
 7677 019d 0B       		.uleb128 0xb
 7678 019e 3B       		.uleb128 0x3b
 7679 019f 05       		.uleb128 0x5
 7680 01a0 01       		.uleb128 0x1
 7681 01a1 13       		.uleb128 0x13
 7682 01a2 00       		.byte	0
 7683 01a3 00       		.byte	0
 7684 01a4 25       		.uleb128 0x25
 7685 01a5 0D       		.uleb128 0xd
 7686 01a6 00       		.byte	0
 7687 01a7 03       		.uleb128 0x3
 7688 01a8 0E       		.uleb128 0xe
 7689 01a9 3A       		.uleb128 0x3a
 7690 01aa 0B       		.uleb128 0xb
 7691 01ab 3B       		.uleb128 0x3b
 7692 01ac 05       		.uleb128 0x5
 7693 01ad 49       		.uleb128 0x49
 7694 01ae 13       		.uleb128 0x13
 7695 01af 00       		.byte	0
 7696 01b0 00       		.byte	0
 7697 01b1 26       		.uleb128 0x26
 7698 01b2 17       		.uleb128 0x17
 7699 01b3 01       		.byte	0x1
 7700 01b4 0B       		.uleb128 0xb
 7701 01b5 0B       		.uleb128 0xb
 7702 01b6 3A       		.uleb128 0x3a
 7703 01b7 0B       		.uleb128 0xb
 7704 01b8 3B       		.uleb128 0x3b
 7705 01b9 0B       		.uleb128 0xb
 7706 01ba 01       		.uleb128 0x1
 7707 01bb 13       		.uleb128 0x13
 7708 01bc 00       		.byte	0
 7709 01bd 00       		.byte	0
 7710 01be 27       		.uleb128 0x27
 7711 01bf 0D       		.uleb128 0xd
 7712 01c0 00       		.byte	0
 7713 01c1 03       		.uleb128 0x3
 7714 01c2 0E       		.uleb128 0xe
 7715 01c3 3A       		.uleb128 0x3a
ARM GAS  C:\Users\kateb\AppData\Local\Temp\cciDLH78.s 			page 168


 7716 01c4 0B       		.uleb128 0xb
 7717 01c5 3B       		.uleb128 0x3b
 7718 01c6 0B       		.uleb128 0xb
 7719 01c7 49       		.uleb128 0x49
 7720 01c8 13       		.uleb128 0x13
 7721 01c9 00       		.byte	0
 7722 01ca 00       		.byte	0
 7723 01cb 28       		.uleb128 0x28
 7724 01cc 2E       		.uleb128 0x2e
 7725 01cd 01       		.byte	0x1
 7726 01ce 03       		.uleb128 0x3
 7727 01cf 0E       		.uleb128 0xe
 7728 01d0 3A       		.uleb128 0x3a
 7729 01d1 0B       		.uleb128 0xb
 7730 01d2 3B       		.uleb128 0x3b
 7731 01d3 05       		.uleb128 0x5
 7732 01d4 27       		.uleb128 0x27
 7733 01d5 19       		.uleb128 0x19
 7734 01d6 20       		.uleb128 0x20
 7735 01d7 0B       		.uleb128 0xb
 7736 01d8 01       		.uleb128 0x1
 7737 01d9 13       		.uleb128 0x13
 7738 01da 00       		.byte	0
 7739 01db 00       		.byte	0
 7740 01dc 29       		.uleb128 0x29
 7741 01dd 05       		.uleb128 0x5
 7742 01de 00       		.byte	0
 7743 01df 03       		.uleb128 0x3
 7744 01e0 0E       		.uleb128 0xe
 7745 01e1 3A       		.uleb128 0x3a
 7746 01e2 0B       		.uleb128 0xb
 7747 01e3 3B       		.uleb128 0x3b
 7748 01e4 05       		.uleb128 0x5
 7749 01e5 49       		.uleb128 0x49
 7750 01e6 13       		.uleb128 0x13
 7751 01e7 00       		.byte	0
 7752 01e8 00       		.byte	0
 7753 01e9 2A       		.uleb128 0x2a
 7754 01ea 2E       		.uleb128 0x2e
 7755 01eb 01       		.byte	0x1
 7756 01ec 3F       		.uleb128 0x3f
 7757 01ed 19       		.uleb128 0x19
 7758 01ee 03       		.uleb128 0x3
 7759 01ef 0E       		.uleb128 0xe
 7760 01f0 3A       		.uleb128 0x3a
 7761 01f1 0B       		.uleb128 0xb
 7762 01f2 3B       		.uleb128 0x3b
 7763 01f3 05       		.uleb128 0x5
 7764 01f4 27       		.uleb128 0x27
 7765 01f5 19       		.uleb128 0x19
 7766 01f6 49       		.uleb128 0x49
 7767 01f7 13       		.uleb128 0x13
 7768 01f8 11       		.uleb128 0x11
 7769 01f9 01       		.uleb128 0x1
 7770 01fa 12       		.uleb128 0x12
 7771 01fb 06       		.uleb128 0x6
 7772 01fc 40       		.uleb128 0x40
ARM GAS  C:\Users\kateb\AppData\Local\Temp\cciDLH78.s 			page 169


 7773 01fd 18       		.uleb128 0x18
 7774 01fe 9742     		.uleb128 0x2117
 7775 0200 19       		.uleb128 0x19
 7776 0201 01       		.uleb128 0x1
 7777 0202 13       		.uleb128 0x13
 7778 0203 00       		.byte	0
 7779 0204 00       		.byte	0
 7780 0205 2B       		.uleb128 0x2b
 7781 0206 05       		.uleb128 0x5
 7782 0207 00       		.byte	0
 7783 0208 03       		.uleb128 0x3
 7784 0209 0E       		.uleb128 0xe
 7785 020a 3A       		.uleb128 0x3a
 7786 020b 0B       		.uleb128 0xb
 7787 020c 3B       		.uleb128 0x3b
 7788 020d 05       		.uleb128 0x5
 7789 020e 49       		.uleb128 0x49
 7790 020f 13       		.uleb128 0x13
 7791 0210 02       		.uleb128 0x2
 7792 0211 17       		.uleb128 0x17
 7793 0212 00       		.byte	0
 7794 0213 00       		.byte	0
 7795 0214 2C       		.uleb128 0x2c
 7796 0215 34       		.uleb128 0x34
 7797 0216 00       		.byte	0
 7798 0217 03       		.uleb128 0x3
 7799 0218 0E       		.uleb128 0xe
 7800 0219 3A       		.uleb128 0x3a
 7801 021a 0B       		.uleb128 0xb
 7802 021b 3B       		.uleb128 0x3b
 7803 021c 05       		.uleb128 0x5
 7804 021d 49       		.uleb128 0x49
 7805 021e 13       		.uleb128 0x13
 7806 021f 02       		.uleb128 0x2
 7807 0220 17       		.uleb128 0x17
 7808 0221 00       		.byte	0
 7809 0222 00       		.byte	0
 7810 0223 2D       		.uleb128 0x2d
 7811 0224 34       		.uleb128 0x34
 7812 0225 00       		.byte	0
 7813 0226 03       		.uleb128 0x3
 7814 0227 0E       		.uleb128 0xe
 7815 0228 3A       		.uleb128 0x3a
 7816 0229 0B       		.uleb128 0xb
 7817 022a 3B       		.uleb128 0x3b
 7818 022b 05       		.uleb128 0x5
 7819 022c 49       		.uleb128 0x49
 7820 022d 13       		.uleb128 0x13
 7821 022e 02       		.uleb128 0x2
 7822 022f 18       		.uleb128 0x18
 7823 0230 00       		.byte	0
 7824 0231 00       		.byte	0
 7825 0232 2E       		.uleb128 0x2e
 7826 0233 898201   		.uleb128 0x4109
 7827 0236 01       		.byte	0x1
 7828 0237 11       		.uleb128 0x11
 7829 0238 01       		.uleb128 0x1
ARM GAS  C:\Users\kateb\AppData\Local\Temp\cciDLH78.s 			page 170


 7830 0239 31       		.uleb128 0x31
 7831 023a 13       		.uleb128 0x13
 7832 023b 01       		.uleb128 0x1
 7833 023c 13       		.uleb128 0x13
 7834 023d 00       		.byte	0
 7835 023e 00       		.byte	0
 7836 023f 2F       		.uleb128 0x2f
 7837 0240 8A8201   		.uleb128 0x410a
 7838 0243 00       		.byte	0
 7839 0244 02       		.uleb128 0x2
 7840 0245 18       		.uleb128 0x18
 7841 0246 9142     		.uleb128 0x2111
 7842 0248 18       		.uleb128 0x18
 7843 0249 00       		.byte	0
 7844 024a 00       		.byte	0
 7845 024b 30       		.uleb128 0x30
 7846 024c 898201   		.uleb128 0x4109
 7847 024f 00       		.byte	0
 7848 0250 11       		.uleb128 0x11
 7849 0251 01       		.uleb128 0x1
 7850 0252 31       		.uleb128 0x31
 7851 0253 13       		.uleb128 0x13
 7852 0254 00       		.byte	0
 7853 0255 00       		.byte	0
 7854 0256 31       		.uleb128 0x31
 7855 0257 2E       		.uleb128 0x2e
 7856 0258 01       		.byte	0x1
 7857 0259 3F       		.uleb128 0x3f
 7858 025a 19       		.uleb128 0x19
 7859 025b 03       		.uleb128 0x3
 7860 025c 0E       		.uleb128 0xe
 7861 025d 3A       		.uleb128 0x3a
 7862 025e 0B       		.uleb128 0xb
 7863 025f 3B       		.uleb128 0x3b
 7864 0260 0B       		.uleb128 0xb
 7865 0261 27       		.uleb128 0x27
 7866 0262 19       		.uleb128 0x19
 7867 0263 11       		.uleb128 0x11
 7868 0264 01       		.uleb128 0x1
 7869 0265 12       		.uleb128 0x12
 7870 0266 06       		.uleb128 0x6
 7871 0267 40       		.uleb128 0x40
 7872 0268 18       		.uleb128 0x18
 7873 0269 9742     		.uleb128 0x2117
 7874 026b 19       		.uleb128 0x19
 7875 026c 01       		.uleb128 0x1
 7876 026d 13       		.uleb128 0x13
 7877 026e 00       		.byte	0
 7878 026f 00       		.byte	0
 7879 0270 32       		.uleb128 0x32
 7880 0271 898201   		.uleb128 0x4109
 7881 0274 01       		.byte	0x1
 7882 0275 11       		.uleb128 0x11
 7883 0276 01       		.uleb128 0x1
 7884 0277 31       		.uleb128 0x31
 7885 0278 13       		.uleb128 0x13
 7886 0279 00       		.byte	0
ARM GAS  C:\Users\kateb\AppData\Local\Temp\cciDLH78.s 			page 171


 7887 027a 00       		.byte	0
 7888 027b 33       		.uleb128 0x33
 7889 027c 2E       		.uleb128 0x2e
 7890 027d 01       		.byte	0x1
 7891 027e 3F       		.uleb128 0x3f
 7892 027f 19       		.uleb128 0x19
 7893 0280 03       		.uleb128 0x3
 7894 0281 0E       		.uleb128 0xe
 7895 0282 3A       		.uleb128 0x3a
 7896 0283 0B       		.uleb128 0xb
 7897 0284 3B       		.uleb128 0x3b
 7898 0285 0B       		.uleb128 0xb
 7899 0286 27       		.uleb128 0x27
 7900 0287 19       		.uleb128 0x19
 7901 0288 49       		.uleb128 0x49
 7902 0289 13       		.uleb128 0x13
 7903 028a 11       		.uleb128 0x11
 7904 028b 01       		.uleb128 0x1
 7905 028c 12       		.uleb128 0x12
 7906 028d 06       		.uleb128 0x6
 7907 028e 40       		.uleb128 0x40
 7908 028f 18       		.uleb128 0x18
 7909 0290 9742     		.uleb128 0x2117
 7910 0292 19       		.uleb128 0x19
 7911 0293 01       		.uleb128 0x1
 7912 0294 13       		.uleb128 0x13
 7913 0295 00       		.byte	0
 7914 0296 00       		.byte	0
 7915 0297 34       		.uleb128 0x34
 7916 0298 05       		.uleb128 0x5
 7917 0299 00       		.byte	0
 7918 029a 03       		.uleb128 0x3
 7919 029b 0E       		.uleb128 0xe
 7920 029c 3A       		.uleb128 0x3a
 7921 029d 0B       		.uleb128 0xb
 7922 029e 3B       		.uleb128 0x3b
 7923 029f 0B       		.uleb128 0xb
 7924 02a0 49       		.uleb128 0x49
 7925 02a1 13       		.uleb128 0x13
 7926 02a2 02       		.uleb128 0x2
 7927 02a3 17       		.uleb128 0x17
 7928 02a4 00       		.byte	0
 7929 02a5 00       		.byte	0
 7930 02a6 35       		.uleb128 0x35
 7931 02a7 34       		.uleb128 0x34
 7932 02a8 00       		.byte	0
 7933 02a9 03       		.uleb128 0x3
 7934 02aa 0E       		.uleb128 0xe
 7935 02ab 3A       		.uleb128 0x3a
 7936 02ac 0B       		.uleb128 0xb
 7937 02ad 3B       		.uleb128 0x3b
 7938 02ae 0B       		.uleb128 0xb
 7939 02af 49       		.uleb128 0x49
 7940 02b0 13       		.uleb128 0x13
 7941 02b1 02       		.uleb128 0x2
 7942 02b2 17       		.uleb128 0x17
 7943 02b3 00       		.byte	0
ARM GAS  C:\Users\kateb\AppData\Local\Temp\cciDLH78.s 			page 172


 7944 02b4 00       		.byte	0
 7945 02b5 36       		.uleb128 0x36
 7946 02b6 0B       		.uleb128 0xb
 7947 02b7 01       		.byte	0x1
 7948 02b8 11       		.uleb128 0x11
 7949 02b9 01       		.uleb128 0x1
 7950 02ba 12       		.uleb128 0x12
 7951 02bb 06       		.uleb128 0x6
 7952 02bc 01       		.uleb128 0x1
 7953 02bd 13       		.uleb128 0x13
 7954 02be 00       		.byte	0
 7955 02bf 00       		.byte	0
 7956 02c0 37       		.uleb128 0x37
 7957 02c1 34       		.uleb128 0x34
 7958 02c2 00       		.byte	0
 7959 02c3 03       		.uleb128 0x3
 7960 02c4 08       		.uleb128 0x8
 7961 02c5 3A       		.uleb128 0x3a
 7962 02c6 0B       		.uleb128 0xb
 7963 02c7 3B       		.uleb128 0x3b
 7964 02c8 0B       		.uleb128 0xb
 7965 02c9 49       		.uleb128 0x49
 7966 02ca 13       		.uleb128 0x13
 7967 02cb 02       		.uleb128 0x2
 7968 02cc 17       		.uleb128 0x17
 7969 02cd 00       		.byte	0
 7970 02ce 00       		.byte	0
 7971 02cf 38       		.uleb128 0x38
 7972 02d0 1D       		.uleb128 0x1d
 7973 02d1 01       		.byte	0x1
 7974 02d2 31       		.uleb128 0x31
 7975 02d3 13       		.uleb128 0x13
 7976 02d4 11       		.uleb128 0x11
 7977 02d5 01       		.uleb128 0x1
 7978 02d6 12       		.uleb128 0x12
 7979 02d7 06       		.uleb128 0x6
 7980 02d8 58       		.uleb128 0x58
 7981 02d9 0B       		.uleb128 0xb
 7982 02da 59       		.uleb128 0x59
 7983 02db 05       		.uleb128 0x5
 7984 02dc 01       		.uleb128 0x1
 7985 02dd 13       		.uleb128 0x13
 7986 02de 00       		.byte	0
 7987 02df 00       		.byte	0
 7988 02e0 39       		.uleb128 0x39
 7989 02e1 05       		.uleb128 0x5
 7990 02e2 00       		.byte	0
 7991 02e3 31       		.uleb128 0x31
 7992 02e4 13       		.uleb128 0x13
 7993 02e5 02       		.uleb128 0x2
 7994 02e6 17       		.uleb128 0x17
 7995 02e7 00       		.byte	0
 7996 02e8 00       		.byte	0
 7997 02e9 3A       		.uleb128 0x3a
 7998 02ea 2E       		.uleb128 0x2e
 7999 02eb 01       		.byte	0x1
 8000 02ec 3F       		.uleb128 0x3f
ARM GAS  C:\Users\kateb\AppData\Local\Temp\cciDLH78.s 			page 173


 8001 02ed 19       		.uleb128 0x19
 8002 02ee 03       		.uleb128 0x3
 8003 02ef 0E       		.uleb128 0xe
 8004 02f0 3A       		.uleb128 0x3a
 8005 02f1 0B       		.uleb128 0xb
 8006 02f2 3B       		.uleb128 0x3b
 8007 02f3 05       		.uleb128 0x5
 8008 02f4 27       		.uleb128 0x27
 8009 02f5 19       		.uleb128 0x19
 8010 02f6 11       		.uleb128 0x11
 8011 02f7 01       		.uleb128 0x1
 8012 02f8 12       		.uleb128 0x12
 8013 02f9 06       		.uleb128 0x6
 8014 02fa 40       		.uleb128 0x40
 8015 02fb 18       		.uleb128 0x18
 8016 02fc 9742     		.uleb128 0x2117
 8017 02fe 19       		.uleb128 0x19
 8018 02ff 01       		.uleb128 0x1
 8019 0300 13       		.uleb128 0x13
 8020 0301 00       		.byte	0
 8021 0302 00       		.byte	0
 8022 0303 3B       		.uleb128 0x3b
 8023 0304 05       		.uleb128 0x5
 8024 0305 00       		.byte	0
 8025 0306 03       		.uleb128 0x3
 8026 0307 0E       		.uleb128 0xe
 8027 0308 3A       		.uleb128 0x3a
 8028 0309 0B       		.uleb128 0xb
 8029 030a 3B       		.uleb128 0x3b
 8030 030b 05       		.uleb128 0x5
 8031 030c 49       		.uleb128 0x49
 8032 030d 13       		.uleb128 0x13
 8033 030e 02       		.uleb128 0x2
 8034 030f 18       		.uleb128 0x18
 8035 0310 00       		.byte	0
 8036 0311 00       		.byte	0
 8037 0312 3C       		.uleb128 0x3c
 8038 0313 2E       		.uleb128 0x2e
 8039 0314 00       		.byte	0
 8040 0315 3F       		.uleb128 0x3f
 8041 0316 19       		.uleb128 0x19
 8042 0317 03       		.uleb128 0x3
 8043 0318 0E       		.uleb128 0xe
 8044 0319 3A       		.uleb128 0x3a
 8045 031a 0B       		.uleb128 0xb
 8046 031b 3B       		.uleb128 0x3b
 8047 031c 05       		.uleb128 0x5
 8048 031d 27       		.uleb128 0x27
 8049 031e 19       		.uleb128 0x19
 8050 031f 11       		.uleb128 0x11
 8051 0320 01       		.uleb128 0x1
 8052 0321 12       		.uleb128 0x12
 8053 0322 06       		.uleb128 0x6
 8054 0323 40       		.uleb128 0x40
 8055 0324 18       		.uleb128 0x18
 8056 0325 9742     		.uleb128 0x2117
 8057 0327 19       		.uleb128 0x19
ARM GAS  C:\Users\kateb\AppData\Local\Temp\cciDLH78.s 			page 174


 8058 0328 00       		.byte	0
 8059 0329 00       		.byte	0
 8060 032a 3D       		.uleb128 0x3d
 8061 032b 34       		.uleb128 0x34
 8062 032c 00       		.byte	0
 8063 032d 03       		.uleb128 0x3
 8064 032e 0E       		.uleb128 0xe
 8065 032f 3A       		.uleb128 0x3a
 8066 0330 0B       		.uleb128 0xb
 8067 0331 3B       		.uleb128 0x3b
 8068 0332 0B       		.uleb128 0xb
 8069 0333 49       		.uleb128 0x49
 8070 0334 13       		.uleb128 0x13
 8071 0335 02       		.uleb128 0x2
 8072 0336 18       		.uleb128 0x18
 8073 0337 00       		.byte	0
 8074 0338 00       		.byte	0
 8075 0339 3E       		.uleb128 0x3e
 8076 033a 34       		.uleb128 0x34
 8077 033b 00       		.byte	0
 8078 033c 03       		.uleb128 0x3
 8079 033d 0E       		.uleb128 0xe
 8080 033e 3A       		.uleb128 0x3a
 8081 033f 0B       		.uleb128 0xb
 8082 0340 3B       		.uleb128 0x3b
 8083 0341 05       		.uleb128 0x5
 8084 0342 49       		.uleb128 0x49
 8085 0343 13       		.uleb128 0x13
 8086 0344 3F       		.uleb128 0x3f
 8087 0345 19       		.uleb128 0x19
 8088 0346 3C       		.uleb128 0x3c
 8089 0347 19       		.uleb128 0x19
 8090 0348 00       		.byte	0
 8091 0349 00       		.byte	0
 8092 034a 3F       		.uleb128 0x3f
 8093 034b 34       		.uleb128 0x34
 8094 034c 00       		.byte	0
 8095 034d 03       		.uleb128 0x3
 8096 034e 0E       		.uleb128 0xe
 8097 034f 3A       		.uleb128 0x3a
 8098 0350 0B       		.uleb128 0xb
 8099 0351 3B       		.uleb128 0x3b
 8100 0352 0B       		.uleb128 0xb
 8101 0353 49       		.uleb128 0x49
 8102 0354 13       		.uleb128 0x13
 8103 0355 3F       		.uleb128 0x3f
 8104 0356 19       		.uleb128 0x19
 8105 0357 02       		.uleb128 0x2
 8106 0358 18       		.uleb128 0x18
 8107 0359 00       		.byte	0
 8108 035a 00       		.byte	0
 8109 035b 40       		.uleb128 0x40
 8110 035c 2E       		.uleb128 0x2e
 8111 035d 00       		.byte	0
 8112 035e 3F       		.uleb128 0x3f
 8113 035f 19       		.uleb128 0x19
 8114 0360 3C       		.uleb128 0x3c
ARM GAS  C:\Users\kateb\AppData\Local\Temp\cciDLH78.s 			page 175


 8115 0361 19       		.uleb128 0x19
 8116 0362 6E       		.uleb128 0x6e
 8117 0363 0E       		.uleb128 0xe
 8118 0364 03       		.uleb128 0x3
 8119 0365 0E       		.uleb128 0xe
 8120 0366 3A       		.uleb128 0x3a
 8121 0367 0B       		.uleb128 0xb
 8122 0368 3B       		.uleb128 0x3b
 8123 0369 0B       		.uleb128 0xb
 8124 036a 00       		.byte	0
 8125 036b 00       		.byte	0
 8126 036c 41       		.uleb128 0x41
 8127 036d 2E       		.uleb128 0x2e
 8128 036e 00       		.byte	0
 8129 036f 3F       		.uleb128 0x3f
 8130 0370 19       		.uleb128 0x19
 8131 0371 3C       		.uleb128 0x3c
 8132 0372 19       		.uleb128 0x19
 8133 0373 6E       		.uleb128 0x6e
 8134 0374 0E       		.uleb128 0xe
 8135 0375 03       		.uleb128 0x3
 8136 0376 0E       		.uleb128 0xe
 8137 0377 3A       		.uleb128 0x3a
 8138 0378 0B       		.uleb128 0xb
 8139 0379 3B       		.uleb128 0x3b
 8140 037a 05       		.uleb128 0x5
 8141 037b 00       		.byte	0
 8142 037c 00       		.byte	0
 8143 037d 42       		.uleb128 0x42
 8144 037e 2E       		.uleb128 0x2e
 8145 037f 00       		.byte	0
 8146 0380 3F       		.uleb128 0x3f
 8147 0381 19       		.uleb128 0x19
 8148 0382 3C       		.uleb128 0x3c
 8149 0383 19       		.uleb128 0x19
 8150 0384 6E       		.uleb128 0x6e
 8151 0385 0E       		.uleb128 0xe
 8152 0386 03       		.uleb128 0x3
 8153 0387 0E       		.uleb128 0xe
 8154 0388 00       		.byte	0
 8155 0389 00       		.byte	0
 8156 038a 00       		.byte	0
 8157              		.section	.debug_loc,"",%progbits
 8158              	.Ldebug_loc0:
 8159              	.LLST0:
 8160 0000 00000000 		.4byte	.LVL0
 8161 0004 18000000 		.4byte	.LVL1
 8162 0008 0100     		.2byte	0x1
 8163 000a 50       		.byte	0x50
 8164 000b 18000000 		.4byte	.LVL1
 8165 000f 60000000 		.4byte	.LVL16
 8166 0013 0400     		.2byte	0x4
 8167 0015 F3       		.byte	0xf3
 8168 0016 01       		.uleb128 0x1
 8169 0017 50       		.byte	0x50
 8170 0018 9F       		.byte	0x9f
 8171 0019 60000000 		.4byte	.LVL16
ARM GAS  C:\Users\kateb\AppData\Local\Temp\cciDLH78.s 			page 176


 8172 001d 64000000 		.4byte	.LVL17
 8173 0021 0100     		.2byte	0x1
 8174 0023 50       		.byte	0x50
 8175 0024 64000000 		.4byte	.LVL17
 8176 0028 6C000000 		.4byte	.LVL19
 8177 002c 0400     		.2byte	0x4
 8178 002e F3       		.byte	0xf3
 8179 002f 01       		.uleb128 0x1
 8180 0030 50       		.byte	0x50
 8181 0031 9F       		.byte	0x9f
 8182 0032 6C000000 		.4byte	.LVL19
 8183 0036 74000000 		.4byte	.LVL20
 8184 003a 0100     		.2byte	0x1
 8185 003c 50       		.byte	0x50
 8186 003d 74000000 		.4byte	.LVL20
 8187 0041 8C000000 		.4byte	.LFE255
 8188 0045 0400     		.2byte	0x4
 8189 0047 F3       		.byte	0xf3
 8190 0048 01       		.uleb128 0x1
 8191 0049 50       		.byte	0x50
 8192 004a 9F       		.byte	0x9f
 8193 004b 00000000 		.4byte	0
 8194 004f 00000000 		.4byte	0
 8195              	.LLST1:
 8196 0053 50000000 		.4byte	.LVL13
 8197 0057 60000000 		.4byte	.LVL16
 8198 005b 0100     		.2byte	0x1
 8199 005d 54       		.byte	0x54
 8200 005e 68000000 		.4byte	.LVL18
 8201 0062 6C000000 		.4byte	.LVL19
 8202 0066 0200     		.2byte	0x2
 8203 0068 30       		.byte	0x30
 8204 0069 9F       		.byte	0x9f
 8205 006a 76000000 		.4byte	.LVL21
 8206 006e 7A000000 		.4byte	.LVL22
 8207 0072 0100     		.2byte	0x1
 8208 0074 54       		.byte	0x54
 8209 0075 7A000000 		.4byte	.LVL22
 8210 0079 8C000000 		.4byte	.LFE255
 8211 007d 0100     		.2byte	0x1
 8212 007f 50       		.byte	0x50
 8213 0080 00000000 		.4byte	0
 8214 0084 00000000 		.4byte	0
 8215              	.LLST2:
 8216 0088 36000000 		.4byte	.LVL6
 8217 008c 5A000000 		.4byte	.LVL14
 8218 0090 0100     		.2byte	0x1
 8219 0092 50       		.byte	0x50
 8220 0093 00000000 		.4byte	0
 8221 0097 00000000 		.4byte	0
 8222              	.LLST3:
 8223 009b 32000000 		.4byte	.LVL5
 8224 009f 44000000 		.4byte	.LVL7
 8225 00a3 0100     		.2byte	0x1
 8226 00a5 54       		.byte	0x54
 8227 00a6 46000000 		.4byte	.LVL8
 8228 00aa 48000000 		.4byte	.LVL9
ARM GAS  C:\Users\kateb\AppData\Local\Temp\cciDLH78.s 			page 177


 8229 00ae 0100     		.2byte	0x1
 8230 00b0 54       		.byte	0x54
 8231 00b1 4A000000 		.4byte	.LVL10
 8232 00b5 4C000000 		.4byte	.LVL11
 8233 00b9 0100     		.2byte	0x1
 8234 00bb 54       		.byte	0x54
 8235 00bc 4E000000 		.4byte	.LVL12
 8236 00c0 50000000 		.4byte	.LVL13
 8237 00c4 0100     		.2byte	0x1
 8238 00c6 54       		.byte	0x54
 8239 00c7 00000000 		.4byte	0
 8240 00cb 00000000 		.4byte	0
 8241              	.LLST4:
 8242 00cf 00000000 		.4byte	.LVL23
 8243 00d3 1B000000 		.4byte	.LVL24-1
 8244 00d7 0100     		.2byte	0x1
 8245 00d9 50       		.byte	0x50
 8246 00da 1B000000 		.4byte	.LVL24-1
 8247 00de 36000000 		.4byte	.LVL29
 8248 00e2 0400     		.2byte	0x4
 8249 00e4 F3       		.byte	0xf3
 8250 00e5 01       		.uleb128 0x1
 8251 00e6 50       		.byte	0x50
 8252 00e7 9F       		.byte	0x9f
 8253 00e8 36000000 		.4byte	.LVL29
 8254 00ec 3A000000 		.4byte	.LVL30
 8255 00f0 0100     		.2byte	0x1
 8256 00f2 50       		.byte	0x50
 8257 00f3 3A000000 		.4byte	.LVL30
 8258 00f7 42000000 		.4byte	.LVL32
 8259 00fb 0400     		.2byte	0x4
 8260 00fd F3       		.byte	0xf3
 8261 00fe 01       		.uleb128 0x1
 8262 00ff 50       		.byte	0x50
 8263 0100 9F       		.byte	0x9f
 8264 0101 42000000 		.4byte	.LVL32
 8265 0105 46000000 		.4byte	.LVL33
 8266 0109 0100     		.2byte	0x1
 8267 010b 50       		.byte	0x50
 8268 010c 46000000 		.4byte	.LVL33
 8269 0110 4E000000 		.4byte	.LVL35
 8270 0114 0400     		.2byte	0x4
 8271 0116 F3       		.byte	0xf3
 8272 0117 01       		.uleb128 0x1
 8273 0118 50       		.byte	0x50
 8274 0119 9F       		.byte	0x9f
 8275 011a 4E000000 		.4byte	.LVL35
 8276 011e 50000000 		.4byte	.LVL36
 8277 0122 0100     		.2byte	0x1
 8278 0124 50       		.byte	0x50
 8279 0125 50000000 		.4byte	.LVL36
 8280 0129 52000000 		.4byte	.LVL37
 8281 012d 0400     		.2byte	0x4
 8282 012f F3       		.byte	0xf3
 8283 0130 01       		.uleb128 0x1
 8284 0131 50       		.byte	0x50
 8285 0132 9F       		.byte	0x9f
ARM GAS  C:\Users\kateb\AppData\Local\Temp\cciDLH78.s 			page 178


 8286 0133 52000000 		.4byte	.LVL37
 8287 0137 54000000 		.4byte	.LVL38
 8288 013b 0100     		.2byte	0x1
 8289 013d 50       		.byte	0x50
 8290 013e 54000000 		.4byte	.LVL38
 8291 0142 68000000 		.4byte	.LFE256
 8292 0146 0400     		.2byte	0x4
 8293 0148 F3       		.byte	0xf3
 8294 0149 01       		.uleb128 0x1
 8295 014a 50       		.byte	0x50
 8296 014b 9F       		.byte	0x9f
 8297 014c 00000000 		.4byte	0
 8298 0150 00000000 		.4byte	0
 8299              	.LLST5:
 8300 0154 2A000000 		.4byte	.LVL26
 8301 0158 36000000 		.4byte	.LVL29
 8302 015c 0600     		.2byte	0x6
 8303 015e 0C       		.byte	0xc
 8304 015f FF004200 		.4byte	0x4200ff
 8305 0163 9F       		.byte	0x9f
 8306 0164 3E000000 		.4byte	.LVL31
 8307 0168 42000000 		.4byte	.LVL32
 8308 016c 0200     		.2byte	0x2
 8309 016e 30       		.byte	0x30
 8310 016f 9F       		.byte	0x9f
 8311 0170 4A000000 		.4byte	.LVL34
 8312 0174 4E000000 		.4byte	.LVL35
 8313 0178 0600     		.2byte	0x6
 8314 017a 0C       		.byte	0xc
 8315 017b FF004200 		.4byte	0x4200ff
 8316 017f 9F       		.byte	0x9f
 8317 0180 58000000 		.4byte	.LVL40
 8318 0184 68000000 		.4byte	.LFE256
 8319 0188 0100     		.2byte	0x1
 8320 018a 50       		.byte	0x50
 8321 018b 00000000 		.4byte	0
 8322 018f 00000000 		.4byte	0
 8323              	.LLST6:
 8324 0193 26000000 		.4byte	.LVL25
 8325 0197 2E000000 		.4byte	.LVL27
 8326 019b 0100     		.2byte	0x1
 8327 019d 50       		.byte	0x50
 8328 019e 56000000 		.4byte	.LVL39
 8329 01a2 58000000 		.4byte	.LVL40
 8330 01a6 0100     		.2byte	0x1
 8331 01a8 50       		.byte	0x50
 8332 01a9 00000000 		.4byte	0
 8333 01ad 00000000 		.4byte	0
 8334              	.LLST7:
 8335 01b1 00000000 		.4byte	.LVL43
 8336 01b5 38000000 		.4byte	.LVL45
 8337 01b9 0100     		.2byte	0x1
 8338 01bb 50       		.byte	0x50
 8339 01bc 38000000 		.4byte	.LVL45
 8340 01c0 3B000000 		.4byte	.LVL46-1
 8341 01c4 0500     		.2byte	0x5
 8342 01c6 03       		.byte	0x3
ARM GAS  C:\Users\kateb\AppData\Local\Temp\cciDLH78.s 			page 179


 8343 01c7 00000000 		.4byte	cy_ble_configPtr
 8344 01cb 3B000000 		.4byte	.LVL46-1
 8345 01cf 66000000 		.4byte	.LVL51
 8346 01d3 0400     		.2byte	0x4
 8347 01d5 F3       		.byte	0xf3
 8348 01d6 01       		.uleb128 0x1
 8349 01d7 50       		.byte	0x50
 8350 01d8 9F       		.byte	0x9f
 8351 01d9 66000000 		.4byte	.LVL51
 8352 01dd 68000000 		.4byte	.LVL52
 8353 01e1 0100     		.2byte	0x1
 8354 01e3 50       		.byte	0x50
 8355 01e4 68000000 		.4byte	.LVL52
 8356 01e8 9C000000 		.4byte	.LFE249
 8357 01ec 0400     		.2byte	0x4
 8358 01ee F3       		.byte	0xf3
 8359 01ef 01       		.uleb128 0x1
 8360 01f0 50       		.byte	0x50
 8361 01f1 9F       		.byte	0x9f
 8362 01f2 00000000 		.4byte	0
 8363 01f6 00000000 		.4byte	0
 8364              	.LLST8:
 8365 01fa 02000000 		.4byte	.LVL44
 8366 01fe 68000000 		.4byte	.LVL52
 8367 0202 0200     		.2byte	0x2
 8368 0204 30       		.byte	0x30
 8369 0205 9F       		.byte	0x9f
 8370 0206 68000000 		.4byte	.LVL52
 8371 020a 70000000 		.4byte	.LVL54
 8372 020e 0100     		.2byte	0x1
 8373 0210 54       		.byte	0x54
 8374 0211 70000000 		.4byte	.LVL54
 8375 0215 9C000000 		.4byte	.LFE249
 8376 0219 0100     		.2byte	0x1
 8377 021b 50       		.byte	0x50
 8378 021c 00000000 		.4byte	0
 8379 0220 00000000 		.4byte	0
 8380              	.LLST9:
 8381 0224 3C000000 		.4byte	.LVL46
 8382 0228 3E000000 		.4byte	.LVL47
 8383 022c 0200     		.2byte	0x2
 8384 022e 30       		.byte	0x30
 8385 022f 9F       		.byte	0x9f
 8386 0230 3E000000 		.4byte	.LVL47
 8387 0234 54000000 		.4byte	.LVL49
 8388 0238 0100     		.2byte	0x1
 8389 023a 54       		.byte	0x54
 8390 023b 00000000 		.4byte	0
 8391 023f 00000000 		.4byte	0
 8392              	.LLST10:
 8393 0243 04000000 		.4byte	.LVL55
 8394 0247 8A000000 		.4byte	.LVL60
 8395 024b 0200     		.2byte	0x2
 8396 024d 30       		.byte	0x30
 8397 024e 9F       		.byte	0x9f
 8398 024f 8A000000 		.4byte	.LVL60
 8399 0253 94000000 		.4byte	.LVL61
ARM GAS  C:\Users\kateb\AppData\Local\Temp\cciDLH78.s 			page 180


 8400 0257 0100     		.2byte	0x1
 8401 0259 50       		.byte	0x50
 8402 025a 98000000 		.4byte	.LVL62
 8403 025e C4000000 		.4byte	.LVL65
 8404 0262 0100     		.2byte	0x1
 8405 0264 50       		.byte	0x50
 8406 0265 CA000000 		.4byte	.LVL67
 8407 0269 FC000000 		.4byte	.LFE250
 8408 026d 0100     		.2byte	0x1
 8409 026f 50       		.byte	0x50
 8410 0270 00000000 		.4byte	0
 8411 0274 00000000 		.4byte	0
 8412              	.LLST11:
 8413 0278 A8000000 		.4byte	.LVL63
 8414 027c AC000000 		.4byte	.LVL64
 8415 0280 0200     		.2byte	0x2
 8416 0282 30       		.byte	0x30
 8417 0283 9F       		.byte	0x9f
 8418 0284 00000000 		.4byte	0
 8419 0288 00000000 		.4byte	0
 8420              	.LLST12:
 8421 028c 00000000 		.4byte	.LVL70
 8422 0290 08000000 		.4byte	.LVL71
 8423 0294 0100     		.2byte	0x1
 8424 0296 50       		.byte	0x50
 8425 0297 08000000 		.4byte	.LVL71
 8426 029b 0A000000 		.4byte	.LVL72
 8427 029f 0500     		.2byte	0x5
 8428 02a1 03       		.byte	0x3
 8429 02a2 00000000 		.4byte	Cy_BLE_HostRegisteredCallback
 8430 02a6 0A000000 		.4byte	.LVL72
 8431 02aa 0C000000 		.4byte	.LVL73
 8432 02ae 0100     		.2byte	0x1
 8433 02b0 50       		.byte	0x50
 8434 02b1 0C000000 		.4byte	.LVL73
 8435 02b5 18000000 		.4byte	.LFE253
 8436 02b9 0400     		.2byte	0x4
 8437 02bb F3       		.byte	0xf3
 8438 02bc 01       		.uleb128 0x1
 8439 02bd 50       		.byte	0x50
 8440 02be 9F       		.byte	0x9f
 8441 02bf 00000000 		.4byte	0
 8442 02c3 00000000 		.4byte	0
 8443              	.LLST13:
 8444 02c7 00000000 		.4byte	.LVL70
 8445 02cb 0C000000 		.4byte	.LVL73
 8446 02cf 0200     		.2byte	0x2
 8447 02d1 30       		.byte	0x30
 8448 02d2 9F       		.byte	0x9f
 8449 02d3 0C000000 		.4byte	.LVL73
 8450 02d7 18000000 		.4byte	.LFE253
 8451 02db 0100     		.2byte	0x1
 8452 02dd 50       		.byte	0x50
 8453 02de 00000000 		.4byte	0
 8454 02e2 00000000 		.4byte	0
 8455              		.section	.debug_aranges,"",%progbits
 8456 0000 5C000000 		.4byte	0x5c
ARM GAS  C:\Users\kateb\AppData\Local\Temp\cciDLH78.s 			page 181


 8457 0004 0200     		.2byte	0x2
 8458 0006 00000000 		.4byte	.Ldebug_info0
 8459 000a 04       		.byte	0x4
 8460 000b 00       		.byte	0
 8461 000c 0000     		.2byte	0
 8462 000e 0000     		.2byte	0
 8463 0010 00000000 		.4byte	.LFB255
 8464 0014 8C000000 		.4byte	.LFE255-.LFB255
 8465 0018 00000000 		.4byte	.LFB256
 8466 001c 68000000 		.4byte	.LFE256-.LFB256
 8467 0020 00000000 		.4byte	.LFB248
 8468 0024 18000000 		.4byte	.LFE248-.LFB248
 8469 0028 00000000 		.4byte	.LFB249
 8470 002c 9C000000 		.4byte	.LFE249-.LFB249
 8471 0030 00000000 		.4byte	.LFB250
 8472 0034 FC000000 		.4byte	.LFE250-.LFB250
 8473 0038 00000000 		.4byte	.LFB251
 8474 003c 08000000 		.4byte	.LFE251-.LFB251
 8475 0040 00000000 		.4byte	.LFB252
 8476 0044 0C000000 		.4byte	.LFE252-.LFB252
 8477 0048 00000000 		.4byte	.LFB253
 8478 004c 18000000 		.4byte	.LFE253-.LFB253
 8479 0050 00000000 		.4byte	.LFB254
 8480 0054 0C000000 		.4byte	.LFE254-.LFB254
 8481 0058 00000000 		.4byte	0
 8482 005c 00000000 		.4byte	0
 8483              		.section	.debug_ranges,"",%progbits
 8484              	.Ldebug_ranges0:
 8485 0000 00000000 		.4byte	.LFB255
 8486 0004 8C000000 		.4byte	.LFE255
 8487 0008 00000000 		.4byte	.LFB256
 8488 000c 68000000 		.4byte	.LFE256
 8489 0010 00000000 		.4byte	.LFB248
 8490 0014 18000000 		.4byte	.LFE248
 8491 0018 00000000 		.4byte	.LFB249
 8492 001c 9C000000 		.4byte	.LFE249
 8493 0020 00000000 		.4byte	.LFB250
 8494 0024 FC000000 		.4byte	.LFE250
 8495 0028 00000000 		.4byte	.LFB251
 8496 002c 08000000 		.4byte	.LFE251
 8497 0030 00000000 		.4byte	.LFB252
 8498 0034 0C000000 		.4byte	.LFE252
 8499 0038 00000000 		.4byte	.LFB253
 8500 003c 18000000 		.4byte	.LFE253
 8501 0040 00000000 		.4byte	.LFB254
 8502 0044 0C000000 		.4byte	.LFE254
 8503 0048 00000000 		.4byte	0
 8504 004c 00000000 		.4byte	0
 8505              		.section	.debug_line,"",%progbits
 8506              	.Ldebug_line0:
 8507 0000 6F050000 		.section	.debug_str,"MS",%progbits,1
 8507      02003304 
 8507      00000201 
 8507      FB0E0D00 
 8507      01010101 
 8508              	.LASF911:
 8509 0000 73657276 		.ascii	"serviceChangedHandle\000"
ARM GAS  C:\Users\kateb\AppData\Local\Temp\cciDLH78.s 			page 182


 8509      69636543 
 8509      68616E67 
 8509      65644861 
 8509      6E646C65 
 8510              	.LASF86:
 8511 0015 63707573 		.ascii	"cpuss_interrupts_dw0_4_IRQn\000"
 8511      735F696E 
 8511      74657272 
 8511      75707473 
 8511      5F647730 
 8512              	.LASF434:
 8513 0031 434F4E4E 		.ascii	"CONN_3_CE_DATA_LIST_CFG\000"
 8513      5F335F43 
 8513      455F4441 
 8513      54415F4C 
 8513      4953545F 
 8514              	.LASF777:
 8515 0049 43595F42 		.ascii	"CY_BLE_GAP_AUTH_ERROR_OOB_DATA_NOT_AVAILABLE\000"
 8515      4C455F47 
 8515      41505F41 
 8515      5554485F 
 8515      4552524F 
 8516              	.LASF513:
 8517 0076 424C4553 		.ascii	"BLESS\000"
 8517      5300
 8518              	.LASF93:
 8519 007c 63707573 		.ascii	"cpuss_interrupts_dw0_11_IRQn\000"
 8519      735F696E 
 8519      74657272 
 8519      75707473 
 8519      5F647730 
 8520              	.LASF279:
 8521 0099 43455F43 		.ascii	"CE_CNFG_STS_REGISTER_EXT\000"
 8521      4E46475F 
 8521      5354535F 
 8521      52454749 
 8521      53544552 
 8522              	.LASF103:
 8523 00b2 63707573 		.ascii	"cpuss_interrupts_dw1_5_IRQn\000"
 8523      735F696E 
 8523      74657272 
 8523      75707473 
 8523      5F647731 
 8524              	.LASF842:
 8525 00ce 43595F42 		.ascii	"CY_BLE_CONN_STATE_DISCONNECTED\000"
 8525      4C455F43 
 8525      4F4E4E5F 
 8525      53544154 
 8525      455F4449 
 8526              	.LASF1007:
 8527 00ed 63795F62 		.ascii	"cy_ble_busyStatus\000"
 8527      6C655F62 
 8527      75737953 
 8527      74617475 
 8527      7300
 8528              	.LASF109:
 8529 00ff 63707573 		.ascii	"cpuss_interrupts_dw1_11_IRQn\000"
ARM GAS  C:\Users\kateb\AppData\Local\Temp\cciDLH78.s 			page 183


 8529      735F696E 
 8529      74657272 
 8529      75707473 
 8529      5F647731 
 8530              	.LASF523:
 8531 011c 43595F53 		.ascii	"CY_SYSPM_INVALID_STATE\000"
 8531      5953504D 
 8531      5F494E56 
 8531      414C4944 
 8531      5F535441 
 8532              	.LASF366:
 8533 0133 57494E5F 		.ascii	"WIN_MIN_STEP_SIZE\000"
 8533      4D494E5F 
 8533      53544550 
 8533      5F53495A 
 8533      4500
 8534              	.LASF482:
 8535 0145 45465553 		.ascii	"EFUSE_TIM_CTRL1\000"
 8535      455F5449 
 8535      4D5F4354 
 8535      524C3100 
 8536              	.LASF483:
 8537 0155 45465553 		.ascii	"EFUSE_TIM_CTRL2\000"
 8537      455F5449 
 8537      4D5F4354 
 8537      524C3200 
 8538              	.LASF484:
 8539 0165 45465553 		.ascii	"EFUSE_TIM_CTRL3\000"
 8539      455F5449 
 8539      4D5F4354 
 8539      524C3300 
 8540              	.LASF930:
 8541 0175 64697363 		.ascii	"discoveryModeInfo\000"
 8541      6F766572 
 8541      794D6F64 
 8541      65496E66 
 8541      6F00
 8542              	.LASF66:
 8543 0187 63707573 		.ascii	"cpuss_interrupts_ipc_9_IRQn\000"
 8543      735F696E 
 8543      74657272 
 8543      75707473 
 8543      5F697063 
 8544              	.LASF469:
 8545 01a3 4558545F 		.ascii	"EXT_PA_LNA_CTRL\000"
 8545      50415F4C 
 8545      4E415F43 
 8545      54524C00 
 8546              	.LASF961:
 8547 01b3 636F6E6E 		.ascii	"connIndex\000"
 8547      496E6465 
 8547      7800
 8548              	.LASF785:
 8549 01bd 43595F42 		.ascii	"CY_BLE_GAP_AUTH_ERROR_INVALID_PARAMETERS\000"
 8549      4C455F47 
 8549      41505F41 
 8549      5554485F 
ARM GAS  C:\Users\kateb\AppData\Local\Temp\cciDLH78.s 			page 184


 8549      4552524F 
 8550              	.LASF334:
 8551 01e6 50454552 		.ascii	"PEER_SEC_ADDR_ADV_H\000"
 8551      5F534543 
 8551      5F414444 
 8551      525F4144 
 8551      565F4800 
 8552              	.LASF332:
 8553 01fa 50454552 		.ascii	"PEER_SEC_ADDR_ADV_L\000"
 8553      5F534543 
 8553      5F414444 
 8553      525F4144 
 8553      565F4C00 
 8554              	.LASF333:
 8555 020e 50454552 		.ascii	"PEER_SEC_ADDR_ADV_M\000"
 8555      5F534543 
 8555      5F414444 
 8555      525F4144 
 8555      565F4D00 
 8556              	.LASF92:
 8557 0222 63707573 		.ascii	"cpuss_interrupts_dw0_10_IRQn\000"
 8557      735F696E 
 8557      74657272 
 8557      75707473 
 8557      5F647730 
 8558              	.LASF102:
 8559 023f 63707573 		.ascii	"cpuss_interrupts_dw1_4_IRQn\000"
 8559      735F696E 
 8559      74657272 
 8559      75707473 
 8559      5F647731 
 8560              	.LASF833:
 8561 025b 43595F42 		.ascii	"CY_BLE_STATE_STOPPED\000"
 8561      4C455F53 
 8561      54415445 
 8561      5F53544F 
 8561      50504544 
 8562              	.LASF108:
 8563 0270 63707573 		.ascii	"cpuss_interrupts_dw1_10_IRQn\000"
 8563      735F696E 
 8563      74657272 
 8563      75707473 
 8563      5F647731 
 8564              	.LASF5:
 8565 028d 5F5F7569 		.ascii	"__uint8_t\000"
 8565      6E74385F 
 8565      7400
 8566              	.LASF556:
 8567 0297 43595F42 		.ascii	"CY_BLE_EVT_FLASH_CORRUPT\000"
 8567      4C455F45 
 8567      56545F46 
 8567      4C415348 
 8567      5F434F52 
 8568              	.LASF622:
 8569 02b0 43595F42 		.ascii	"CY_BLE_EVT_GAP_KEYS_GEN_COMPLETE\000"
 8569      4C455F45 
 8569      56545F47 
ARM GAS  C:\Users\kateb\AppData\Local\Temp\cciDLH78.s 			page 185


 8569      41505F4B 
 8569      4559535F 
 8570              	.LASF29:
 8571 02d1 44656275 		.ascii	"DebugMonitor_IRQn\000"
 8571      674D6F6E 
 8571      69746F72 
 8571      5F495251 
 8571      6E00
 8572              	.LASF252:
 8573 02e3 57414B45 		.ascii	"WAKEUP_CONFIG\000"
 8573      55505F43 
 8573      4F4E4649 
 8573      4700
 8574              	.LASF993:
 8575 02f1 626C6553 		.ascii	"bleSleepCallbackParams\000"
 8575      6C656570 
 8575      43616C6C 
 8575      6261636B 
 8575      50617261 
 8576              	.LASF65:
 8577 0308 63707573 		.ascii	"cpuss_interrupts_ipc_8_IRQn\000"
 8577      735F696E 
 8577      74657272 
 8577      75707473 
 8577      5F697063 
 8578              	.LASF85:
 8579 0324 63707573 		.ascii	"cpuss_interrupts_dw0_3_IRQn\000"
 8579      735F696E 
 8579      74657272 
 8579      75707473 
 8579      5F647730 
 8580              	.LASF628:
 8581 0340 43595F42 		.ascii	"CY_BLE_EVT_GAP_ADV_TX\000"
 8581      4C455F45 
 8581      56545F47 
 8581      41505F41 
 8581      44565F54 
 8582              	.LASF280:
 8583 0356 434F4E4E 		.ascii	"CONN_EXT_INTR\000"
 8583      5F455854 
 8583      5F494E54 
 8583      5200
 8584              	.LASF426:
 8585 0364 434F4E4E 		.ascii	"CONN_1_CE_DATA_LIST_CFG\000"
 8585      5F315F43 
 8585      455F4441 
 8585      54415F4C 
 8585      4953545F 
 8586              	.LASF463:
 8587 037c 424C455F 		.ascii	"BLE_BLELL_Type\000"
 8587      424C454C 
 8587      4C5F5479 
 8587      706500
 8588              	.LASF717:
 8589 038b 626F6E64 		.ascii	"bondListConfig\000"
 8589      4C697374 
 8589      436F6E66 
ARM GAS  C:\Users\kateb\AppData\Local\Temp\cciDLH78.s 			page 186


 8589      696700
 8590              	.LASF778:
 8591 039a 43595F42 		.ascii	"CY_BLE_GAP_AUTH_ERROR_AUTHENTICATION_REQ_NOT_MET\000"
 8591      4C455F47 
 8591      41505F41 
 8591      5554485F 
 8591      4552524F 
 8592              	.LASF101:
 8593 03cb 63707573 		.ascii	"cpuss_interrupts_dw1_3_IRQn\000"
 8593      735F696E 
 8593      74657272 
 8593      75707473 
 8593      5F647731 
 8594              	.LASF177:
 8595 03e7 7573625F 		.ascii	"usb_interrupt_lo_IRQn\000"
 8595      696E7465 
 8595      72727570 
 8595      745F6C6F 
 8595      5F495251 
 8596              	.LASF433:
 8597 03fd 434F4E4E 		.ascii	"CONN_3_DATA_LIST_ACK\000"
 8597      5F335F44 
 8597      4154415F 
 8597      4C495354 
 8597      5F41434B 
 8598              	.LASF585:
 8599 0412 43595F42 		.ascii	"CY_BLE_EVT_GET_RSSI_COMPLETE\000"
 8599      4C455F45 
 8599      56545F47 
 8599      45545F52 
 8599      5353495F 
 8600              	.LASF64:
 8601 042f 63707573 		.ascii	"cpuss_interrupts_ipc_7_IRQn\000"
 8601      735F696E 
 8601      74657272 
 8601      75707473 
 8601      5F697063 
 8602              	.LASF683:
 8603 044b 43595F42 		.ascii	"CY_BLE_ERROR_L2CAP_CONNECTION_ENTITY_NOT_FOUND\000"
 8603      4C455F45 
 8603      52524F52 
 8603      5F4C3243 
 8603      41505F43 
 8604              	.LASF559:
 8605 047a 43595F42 		.ascii	"CY_BLE_EVT_READ_AUTH_PAYLOAD_TO_COMPLETE\000"
 8605      4C455F45 
 8605      56545F52 
 8605      4541445F 
 8605      41555448 
 8606              	.LASF917:
 8607 04a3 5F426F6F 		.ascii	"_Bool\000"
 8607      6C00
 8608              	.LASF853:
 8609 04a9 61707065 		.ascii	"appearanceCharHandle\000"
 8609      6172616E 
 8609      63654368 
 8609      61724861 
ARM GAS  C:\Users\kateb\AppData\Local\Temp\cciDLH78.s 			page 187


 8609      6E646C65 
 8610              	.LASF359:
 8611 04be 434F4E4E 		.ascii	"CONN_REQ_WORD10\000"
 8611      5F524551 
 8611      5F574F52 
 8611      44313000 
 8612              	.LASF360:
 8613 04ce 434F4E4E 		.ascii	"CONN_REQ_WORD11\000"
 8613      5F524551 
 8613      5F574F52 
 8613      44313100 
 8614              	.LASF798:
 8615 04de 70616972 		.ascii	"pairingProperties\000"
 8615      696E6750 
 8615      726F7065 
 8615      72746965 
 8615      7300
 8616              	.LASF568:
 8617 04f0 43595F42 		.ascii	"CY_BLE_EVT_GET_LOCAL_RPA_COMPLETE\000"
 8617      4C455F45 
 8617      56545F47 
 8617      45545F4C 
 8617      4F43414C 
 8618              	.LASF935:
 8619 0512 67617474 		.ascii	"gatts\000"
 8619      7300
 8620              	.LASF944:
 8621 0518 63795F73 		.ascii	"cy_stc_ble_config_t\000"
 8621      74635F62 
 8621      6C655F63 
 8621      6F6E6669 
 8621      675F7400 
 8622              	.LASF470:
 8623 052c 4C4C5F50 		.ascii	"LL_PKT_RSSI_CH_ENERGY\000"
 8623      4B545F52 
 8623      5353495F 
 8623      43485F45 
 8623      4E455247 
 8624              	.LASF181:
 8625 0542 4354524C 		.ascii	"CTRL\000"
 8625      00
 8626              	.LASF970:
 8627 0547 43595F49 		.ascii	"CY_IPC_SEMA_STATUS_LOCKED\000"
 8627      50435F53 
 8627      454D415F 
 8627      53544154 
 8627      55535F4C 
 8628              	.LASF39:
 8629 0561 696F7373 		.ascii	"ioss_interrupts_gpio_7_IRQn\000"
 8629      5F696E74 
 8629      65727275 
 8629      7074735F 
 8629      6770696F 
 8630              	.LASF214:
 8631 057d 4144565F 		.ascii	"ADV_INTR\000"
 8631      494E5452 
 8631      00
ARM GAS  C:\Users\kateb\AppData\Local\Temp\cciDLH78.s 			page 188


 8632              	.LASF860:
 8633 0586 63795F73 		.ascii	"cy_stc_ble_gapc_t\000"
 8633      74635F62 
 8633      6C655F67 
 8633      6170635F 
 8633      7400
 8634              	.LASF828:
 8635 0598 63795F73 		.ascii	"cy_stc_ble_gapp_scan_rsp_data_t\000"
 8635      74635F62 
 8635      6C655F67 
 8635      6170705F 
 8635      7363616E 
 8636              	.LASF822:
 8637 05b8 63795F73 		.ascii	"cy_stc_ble_gapp_disc_param_t\000"
 8637      74635F62 
 8637      6C655F67 
 8637      6170705F 
 8637      64697363 
 8638              	.LASF594:
 8639 05d5 43595F42 		.ascii	"CY_BLE_EVT_SET_SLAVE_LATENCY_MODE_COMPLETE\000"
 8639      4C455F45 
 8639      56545F53 
 8639      45545F53 
 8639      4C415645 
 8640              	.LASF666:
 8641 0600 63795F65 		.ascii	"cy_en_ble_event_t\000"
 8641      6E5F626C 
 8641      655F6576 
 8641      656E745F 
 8641      7400
 8642              	.LASF19:
 8643 0612 75696E74 		.ascii	"uint16_t\000"
 8643      31365F74 
 8643      00
 8644              	.LASF889:
 8645 061b 63795F73 		.ascii	"cy_stc_ble_gatts_att_value_t\000"
 8645      74635F62 
 8645      6C655F67 
 8645      61747473 
 8645      5F617474 
 8646              	.LASF879:
 8647 0638 67617063 		.ascii	"gapcConnectionTimeOut\000"
 8647      436F6E6E 
 8647      65637469 
 8647      6F6E5469 
 8647      6D654F75 
 8648              	.LASF171:
 8649 064e 61756469 		.ascii	"audioss_interrupt_i2s_IRQn\000"
 8649      6F73735F 
 8649      696E7465 
 8649      72727570 
 8649      745F6932 
 8650              	.LASF309:
 8651 0669 494E4954 		.ascii	"INIT_CONFIG\000"
 8651      5F434F4E 
 8651      46494700 
 8652              	.LASF952:
ARM GAS  C:\Users\kateb\AppData\Local\Temp\cciDLH78.s 			page 189


 8653 0675 43595F42 		.ascii	"CY_BLE_SRVI_CTS\000"
 8653      4C455F53 
 8653      5256495F 
 8653      43545300 
 8654              	.LASF38:
 8655 0685 696F7373 		.ascii	"ioss_interrupts_gpio_6_IRQn\000"
 8655      5F696E74 
 8655      65727275 
 8655      7074735F 
 8655      6770696F 
 8656              	.LASF270:
 8657 06a1 43455F4C 		.ascii	"CE_LENGTH\000"
 8657      454E4754 
 8657      4800
 8658              	.LASF447:
 8659 06ab 48575F4C 		.ascii	"HW_LOAD_OFFSET\000"
 8659      4F41445F 
 8659      4F464653 
 8659      455400
 8660              	.LASF20:
 8661 06ba 696E7433 		.ascii	"int32_t\000"
 8661      325F7400 
 8662              	.LASF604:
 8663 06c2 43595F42 		.ascii	"CY_BLE_EVT_GAP_PASSKEY_ENTRY_REQUEST\000"
 8663      4C455F45 
 8663      56545F47 
 8663      41505F50 
 8663      4153534B 
 8664              	.LASF401:
 8665 06e7 55535F4F 		.ascii	"US_OFFSET\000"
 8665      46465345 
 8665      5400
 8666              	.LASF558:
 8667 06f1 43595F42 		.ascii	"CY_BLE_EVT_WRITE_AUTH_PAYLOAD_TO_COMPLETE\000"
 8667      4C455F45 
 8667      56545F57 
 8667      52495445 
 8667      5F415554 
 8668              	.LASF273:
 8669 071b 434F4E4E 		.ascii	"CONN_CE_INSTANT\000"
 8669      5F43455F 
 8669      494E5354 
 8669      414E5400 
 8670              	.LASF413:
 8671 072b 4D4D4D53 		.ascii	"MMMS_CONFIG\000"
 8671      5F434F4E 
 8671      46494700 
 8672              	.LASF193:
 8673 0737 4350555F 		.ascii	"CPU_WRITE_REG\000"
 8673      57524954 
 8673      455F5245 
 8673      4700
 8674              	.LASF56:
 8675 0745 626C6573 		.ascii	"bless_interrupt_IRQn\000"
 8675      735F696E 
 8675      74657272 
 8675      7570745F 
ARM GAS  C:\Users\kateb\AppData\Local\Temp\cciDLH78.s 			page 190


 8675      4952516E 
 8676              	.LASF967:
 8677 075a 43595F49 		.ascii	"CY_IPC_SEMA_OUT_OF_RANGE\000"
 8677      50435F53 
 8677      454D415F 
 8677      4F55545F 
 8677      4F465F52 
 8678              	.LASF659:
 8679 0773 43595F42 		.ascii	"CY_BLE_EVT_L2CAP_CBFC_DISCONN_IND\000"
 8679      4C455F45 
 8679      56545F4C 
 8679      32434150 
 8679      5F434246 
 8680              	.LASF37:
 8681 0795 696F7373 		.ascii	"ioss_interrupts_gpio_5_IRQn\000"
 8681      5F696E74 
 8681      65727275 
 8681      7074735F 
 8681      6770696F 
 8682              	.LASF698:
 8683 07b1 63795F62 		.ascii	"cy_ble_app_ev_cb_t\000"
 8683      6C655F61 
 8683      70705F65 
 8683      765F6362 
 8683      5F7400
 8684              	.LASF74:
 8685 07c4 7363625F 		.ascii	"scb_1_interrupt_IRQn\000"
 8685      315F696E 
 8685      74657272 
 8685      7570745F 
 8685      4952516E 
 8686              	.LASF221:
 8687 07d9 5343414E 		.ascii	"SCAN_NEXT_INSTANT\000"
 8687      5F4E4558 
 8687      545F494E 
 8687      5354414E 
 8687      5400
 8688              	.LASF457:
 8689 07eb 52534C56 		.ascii	"RSLV_LIST_PEER_RPA_BASE_ADDR\000"
 8689      5F4C4953 
 8689      545F5045 
 8689      45525F52 
 8689      50415F42 
 8690              	.LASF380:
 8691 0808 4C4C5F43 		.ascii	"LL_CONTROL\000"
 8691      4F4E5452 
 8691      4F4C00
 8692              	.LASF390:
 8693 0813 434F4E4E 		.ascii	"CONN_TXMEM_BASE_ADDR_DLE\000"
 8693      5F54584D 
 8693      454D5F42 
 8693      4153455F 
 8693      41444452 
 8694              	.LASF609:
 8695 082c 43595F42 		.ascii	"CY_BLE_EVT_GAP_DEVICE_CONNECTED\000"
 8695      4C455F45 
 8695      56545F47 
ARM GAS  C:\Users\kateb\AppData\Local\Temp\cciDLH78.s 			page 191


 8695      41505F44 
 8695      45564943 
 8696              	.LASF409:
 8697 084c 55535F43 		.ascii	"US_CAPT_STATUS\000"
 8697      4150545F 
 8697      53544154 
 8697      555300
 8698              	.LASF524:
 8699 085b 43595F53 		.ascii	"CY_SYSPM_CANCELED\000"
 8699      5953504D 
 8699      5F43414E 
 8699      43454C45 
 8699      4400
 8700              	.LASF474:
 8701 086d 4D545F44 		.ascii	"MT_DELAY_CFG2\000"
 8701      454C4159 
 8701      5F434647 
 8701      3200
 8702              	.LASF475:
 8703 087b 4D545F44 		.ascii	"MT_DELAY_CFG3\000"
 8703      454C4159 
 8703      5F434647 
 8703      3300
 8704              	.LASF924:
 8705 0889 7478506F 		.ascii	"txPowerLevelConn\000"
 8705      7765724C 
 8705      6576656C 
 8705      436F6E6E 
 8705      00
 8706              	.LASF826:
 8707 089a 7363616E 		.ascii	"scanRspData\000"
 8707      52737044 
 8707      61746100 
 8708              	.LASF50:
 8709 08a6 7363625F 		.ascii	"scb_8_interrupt_IRQn\000"
 8709      385F696E 
 8709      74657272 
 8709      7570745F 
 8709      4952516E 
 8710              	.LASF964:
 8711 08bb 43595F49 		.ascii	"CY_IPC_SEMA_ERROR_LOCKED\000"
 8711      50435F53 
 8711      454D415F 
 8711      4552524F 
 8711      525F4C4F 
 8712              	.LASF21:
 8713 08d4 75696E74 		.ascii	"uint32_t\000"
 8713      33325F74 
 8713      00
 8714              	.LASF806:
 8715 08dd 7363616E 		.ascii	"scanTo\000"
 8715      546F00
 8716              	.LASF616:
 8717 08e4 43595F42 		.ascii	"CY_BLE_EVT_GAP_KEYPRESS_NOTIFICATION\000"
 8717      4C455F45 
 8717      56545F47 
 8717      41505F4B 
ARM GAS  C:\Users\kateb\AppData\Local\Temp\cciDLH78.s 			page 192


 8717      45595052 
 8718              	.LASF189:
 8719 0909 52414449 		.ascii	"RADIO_REG3_ADDR\000"
 8719      4F5F5245 
 8719      47335F41 
 8719      44445200 
 8720              	.LASF335:
 8721 0919 494E4954 		.ascii	"INIT_WINDOW_TIMER_CTRL\000"
 8721      5F57494E 
 8721      444F575F 
 8721      54494D45 
 8721      525F4354 
 8722              	.LASF658:
 8723 0930 43595F42 		.ascii	"CY_BLE_EVT_L2CAP_CBFC_CONN_CNF\000"
 8723      4C455F45 
 8723      56545F4C 
 8723      32434150 
 8723      5F434246 
 8724              	.LASF468:
 8725 094f 4C465F43 		.ascii	"LF_CLK_CTRL\000"
 8725      4C4B5F43 
 8725      54524C00 
 8726              	.LASF199:
 8727 095b 54585F46 		.ascii	"TX_FIFO_CTRL\000"
 8727      49464F5F 
 8727      4354524C 
 8727      00
 8728              	.LASF1018:
 8729 0968 43795F42 		.ascii	"Cy_BLE_ServiceInit\000"
 8729      4C455F53 
 8729      65727669 
 8729      6365496E 
 8729      697400
 8730              	.LASF670:
 8731 097b 43595F42 		.ascii	"CY_BLE_ERROR_INVALID_OPERATION\000"
 8731      4C455F45 
 8731      52524F52 
 8731      5F494E56 
 8731      414C4944 
 8732              	.LASF999:
 8733 099a 63795F62 		.ascii	"cy_ble_connHandle\000"
 8733      6C655F63 
 8733      6F6E6E48 
 8733      616E646C 
 8733      6500
 8734              	.LASF44:
 8735 09ac 696F7373 		.ascii	"ioss_interrupts_gpio_12_IRQn\000"
 8735      5F696E74 
 8735      65727275 
 8735      7074735F 
 8735      6770696F 
 8736              	.LASF344:
 8737 09c9 434F4E4E 		.ascii	"CONN_UPDATE_NEW_INTERVAL\000"
 8737      5F555044 
 8737      4154455F 
 8737      4E45575F 
 8737      494E5445 
ARM GAS  C:\Users\kateb\AppData\Local\Temp\cciDLH78.s 			page 193


 8738              	.LASF188:
 8739 09e2 52414449 		.ascii	"RADIO_REG2_ADDR\000"
 8739      4F5F5245 
 8739      47325F41 
 8739      44445200 
 8740              	.LASF453:
 8741 09f2 57484954 		.ascii	"WHITELIST_BASE_ADDR\000"
 8741      454C4953 
 8741      545F4241 
 8741      53455F41 
 8741      44445200 
 8742              	.LASF245:
 8743 0a06 44415441 		.ascii	"DATA_CHANNELS_M1\000"
 8743      5F434841 
 8743      4E4E454C 
 8743      535F4D31 
 8743      00
 8744              	.LASF996:
 8745 0a17 63795F62 		.ascii	"cy_ble_eventHandlerFlag\000"
 8745      6C655F65 
 8745      76656E74 
 8745      48616E64 
 8745      6C657246 
 8746              	.LASF512:
 8747 0a2f 424C454C 		.ascii	"BLELL\000"
 8747      4C00
 8748              	.LASF442:
 8749 0a35 4D4D4D53 		.ascii	"MMMS_ADVCH_NI_ABORT\000"
 8749      5F414456 
 8749      43485F4E 
 8749      495F4142 
 8749      4F525400 
 8750              	.LASF383:
 8751 0a49 4445565F 		.ascii	"DEV_PA_ADDR_H\000"
 8751      50415F41 
 8751      4444525F 
 8751      4800
 8752              	.LASF722:
 8753 0a57 63795F73 		.ascii	"cy_stc_ble_stack_config_param_t\000"
 8753      74635F62 
 8753      6C655F73 
 8753      7461636B 
 8753      5F636F6E 
 8754              	.LASF572:
 8755 0a77 43595F42 		.ascii	"CY_BLE_EVT_ADD_DEVICE_TO_RPA_LIST_COMPLETE\000"
 8755      4C455F45 
 8755      56545F41 
 8755      44445F44 
 8755      45564943 
 8756              	.LASF745:
 8757 0aa2 43595F42 		.ascii	"CY_BLE_BLESS_DEEPSLEEP\000"
 8757      4C455F42 
 8757      4C455353 
 8757      5F444545 
 8757      50534C45 
 8758              	.LASF382:
 8759 0ab9 4445565F 		.ascii	"DEV_PA_ADDR_M\000"
ARM GAS  C:\Users\kateb\AppData\Local\Temp\cciDLH78.s 			page 194


 8759      50415F41 
 8759      4444525F 
 8759      4D00
 8760              	.LASF963:
 8761 0ac7 43595F49 		.ascii	"CY_IPC_SEMA_SUCCESS\000"
 8761      50435F53 
 8761      454D415F 
 8761      53554343 
 8761      45535300 
 8762              	.LASF998:
 8763 0adb 63795F62 		.ascii	"cy_ble_advState\000"
 8763      6C655F61 
 8763      64765374 
 8763      61746500 
 8764              	.LASF997:
 8765 0aeb 63795F62 		.ascii	"cy_ble_state\000"
 8765      6C655F73 
 8765      74617465 
 8765      00
 8766              	.LASF783:
 8767 0af8 43595F42 		.ascii	"CY_BLE_GAP_AUTH_ERROR_UNSPECIFIED_REASON\000"
 8767      4C455F47 
 8767      41505F41 
 8767      5554485F 
 8767      4552524F 
 8768              	.LASF731:
 8769 0b21 626C6553 		.ascii	"bleStackFlashSize\000"
 8769      7461636B 
 8769      466C6173 
 8769      6853697A 
 8769      6500
 8770              	.LASF976:
 8771 0b33 43795F42 		.ascii	"Cy_BLE_DeepSleepCallback\000"
 8771      4C455F44 
 8771      65657053 
 8771      6C656570 
 8771      43616C6C 
 8772              	.LASF693:
 8773 0b4c 43595F42 		.ascii	"CY_BLE_ERROR_CHAR_IS_NOT_DISCOVERED\000"
 8773      4C455F45 
 8773      52524F52 
 8773      5F434841 
 8773      525F4953 
 8774              	.LASF187:
 8775 0b70 52414449 		.ascii	"RADIO_REG1_ADDR\000"
 8775      4F5F5245 
 8775      47315F41 
 8775      44445200 
 8776              	.LASF471:
 8777 0b80 42545F43 		.ascii	"BT_CLOCK_CAPT\000"
 8777      4C4F434B 
 8777      5F434150 
 8777      5400
 8778              	.LASF900:
 8779 0b8e 72616E67 		.ascii	"range\000"
 8779      6500
 8780              	.LASF614:
ARM GAS  C:\Users\kateb\AppData\Local\Temp\cciDLH78.s 			page 195


 8781 0b94 43595F42 		.ascii	"CY_BLE_EVT_GAP_KEYINFO_EXCHNGE_CMPLT\000"
 8781      4C455F45 
 8781      56545F47 
 8781      41505F4B 
 8781      4559494E 
 8782              	.LASF927:
 8783 0bb9 73696C69 		.ascii	"siliconDeviceAddressEnabled\000"
 8783      636F6E44 
 8783      65766963 
 8783      65416464 
 8783      72657373 
 8784              	.LASF950:
 8785 0bd5 43595F42 		.ascii	"CY_BLE_SRVI_GAP\000"
 8785      4C455F53 
 8785      5256495F 
 8785      47415000 
 8786              	.LASF818:
 8787 0be5 64697265 		.ascii	"directAddrType\000"
 8787      63744164 
 8787      64725479 
 8787      706500
 8788              	.LASF570:
 8789 0bf4 43595F42 		.ascii	"CY_BLE_EVT_SET_RPA_ENABLE_COMPLETE\000"
 8789      4C455F45 
 8789      56545F53 
 8789      45545F52 
 8789      50415F45 
 8790              	.LASF374:
 8791 0c17 54585F45 		.ascii	"TX_EN_EXT_DELAY\000"
 8791      4E5F4558 
 8791      545F4445 
 8791      4C415900 
 8792              	.LASF42:
 8793 0c27 696F7373 		.ascii	"ioss_interrupts_gpio_10_IRQn\000"
 8793      5F696E74 
 8793      65727275 
 8793      7074735F 
 8793      6770696F 
 8794              	.LASF170:
 8795 0c44 70617373 		.ascii	"pass_interrupt_sar_IRQn\000"
 8795      5F696E74 
 8795      65727275 
 8795      70745F73 
 8795      61725F49 
 8796              	.LASF1006:
 8797 0c5c 63795F62 		.ascii	"cy_ble_configPtr\000"
 8797      6C655F63 
 8797      6F6E6669 
 8797      67507472 
 8797      00
 8798              	.LASF121:
 8799 0c6d 63707573 		.ascii	"cpuss_interrupts_cm4_cti_1_IRQn\000"
 8799      735F696E 
 8799      74657272 
 8799      75707473 
 8799      5F636D34 
 8800              	.LASF856:
ARM GAS  C:\Users\kateb\AppData\Local\Temp\cciDLH78.s 			page 196


 8801 0c8d 7265736F 		.ascii	"resolvablePrivateAddressOnly\000"
 8801      6C766162 
 8801      6C655072 
 8801      69766174 
 8801      65416464 
 8802              	.LASF28:
 8803 0caa 53564361 		.ascii	"SVCall_IRQn\000"
 8803      6C6C5F49 
 8803      52516E00 
 8804              	.LASF766:
 8805 0cb6 73746172 		.ascii	"startHandle\000"
 8805      7448616E 
 8805      646C6500 
 8806              	.LASF949:
 8807 0cc2 43595F42 		.ascii	"CY_BLE_CTS_CHAR_COUNT\000"
 8807      4C455F43 
 8807      54535F43 
 8807      4841525F 
 8807      434F554E 
 8808              	.LASF647:
 8809 0cd8 43595F42 		.ascii	"CY_BLE_EVT_GATTC_HANDLE_VALUE_NTF\000"
 8809      4C455F45 
 8809      56545F47 
 8809      41545443 
 8809      5F48414E 
 8810              	.LASF632:
 8811 0cfa 43595F42 		.ascii	"CY_BLE_EVT_GATTS_XCNHG_MTU_REQ\000"
 8811      4C455F45 
 8811      56545F47 
 8811      41545453 
 8811      5F58434E 
 8812              	.LASF508:
 8813 0d19 5452494D 		.ascii	"TRIM_MXD\000"
 8813      5F4D5844 
 8813      00
 8814              	.LASF533:
 8815 0d22 43595F53 		.ascii	"CY_SYSPM_CHECK_READY\000"
 8815      5953504D 
 8815      5F434845 
 8815      434B5F52 
 8815      45414459 
 8816              	.LASF983:
 8817 0d37 73746163 		.ascii	"stackInitParam\000"
 8817      6B496E69 
 8817      74506172 
 8817      616D00
 8818              	.LASF381:
 8819 0d46 4445565F 		.ascii	"DEV_PA_ADDR_L\000"
 8819      50415F41 
 8819      4444525F 
 8819      4C00
 8820              	.LASF580:
 8821 0d54 43595F42 		.ascii	"CY_BLE_EVT_SET_PRIVACY_MODE_COMPLETE\000"
 8821      4C455F45 
 8821      56545F53 
 8821      45545F50 
 8821      52495641 
ARM GAS  C:\Users\kateb\AppData\Local\Temp\cciDLH78.s 			page 197


 8822              	.LASF79:
 8823 0d79 7363625F 		.ascii	"scb_6_interrupt_IRQn\000"
 8823      365F696E 
 8823      74657272 
 8823      7570745F 
 8823      4952516E 
 8824              	.LASF422:
 8825 0d8e 4D4D4D53 		.ascii	"MMMS_DATA_MEM_DESCRIPTOR\000"
 8825      5F444154 
 8825      415F4D45 
 8825      4D5F4445 
 8825      53435249 
 8826              	.LASF120:
 8827 0da7 63707573 		.ascii	"cpuss_interrupts_cm4_cti_0_IRQn\000"
 8827      735F696E 
 8827      74657272 
 8827      75707473 
 8827      5F636D34 
 8828              	.LASF531:
 8829 0dc7 43595F53 		.ascii	"CY_SYSPM_EXIT_LOWPOWER_MODE\000"
 8829      5953504D 
 8829      5F455849 
 8829      545F4C4F 
 8829      57504F57 
 8830              	.LASF310:
 8831 0de3 434F4E4E 		.ascii	"CONN_CONFIG\000"
 8831      5F434F4E 
 8831      46494700 
 8832              	.LASF774:
 8833 0def 63795F65 		.ascii	"cy_en_ble_gap_iocap_t\000"
 8833      6E5F626C 
 8833      655F6761 
 8833      705F696F 
 8833      6361705F 
 8834              	.LASF958:
 8835 0e05 67617063 		.ascii	"gapc\000"
 8835      00
 8836              	.LASF678:
 8837 0e0a 43595F42 		.ascii	"CY_BLE_ERROR_GAP_ROLE\000"
 8837      4C455F45 
 8837      52524F52 
 8837      5F474150 
 8837      5F524F4C 
 8838              	.LASF936:
 8839 0e20 67617073 		.ascii	"gaps\000"
 8839      00
 8840              	.LASF918:
 8841 0e25 73746163 		.ascii	"stackFlashptr\000"
 8841      6B466C61 
 8841      73687074 
 8841      7200
 8842              	.LASF153:
 8843 0e33 74637077 		.ascii	"tcpwm_1_interrupts_23_IRQn\000"
 8843      6D5F315F 
 8843      696E7465 
 8843      72727570 
 8843      74735F32 
ARM GAS  C:\Users\kateb\AppData\Local\Temp\cciDLH78.s 			page 198


 8844              	.LASF962:
 8845 0e4e 63795F73 		.ascii	"cy_stc_ble_discovery_t\000"
 8845      74635F62 
 8845      6C655F64 
 8845      6973636F 
 8845      76657279 
 8846              	.LASF591:
 8847 0e65 43595F42 		.ascii	"CY_BLE_EVT_AES_ENCRYPT_COMPLETE\000"
 8847      4C455F45 
 8847      56545F41 
 8847      45535F45 
 8847      4E435259 
 8848              	.LASF1012:
 8849 0e85 43795F49 		.ascii	"Cy_IPC_Sema_Status\000"
 8849      50435F53 
 8849      656D615F 
 8849      53746174 
 8849      757300
 8850              	.LASF901:
 8851 0e98 75756964 		.ascii	"uuid\000"
 8851      00
 8852              	.LASF288:
 8853 0e9d 4C455F52 		.ascii	"LE_RF_TEST_MODE\000"
 8853      465F5445 
 8853      53545F4D 
 8853      4F444500 
 8854              	.LASF115:
 8855 0ead 63707573 		.ascii	"cpuss_interrupts_fault_1_IRQn\000"
 8855      735F696E 
 8855      74657272 
 8855      75707473 
 8855      5F666175 
 8856              	.LASF126:
 8857 0ecb 74637077 		.ascii	"tcpwm_0_interrupts_4_IRQn\000"
 8857      6D5F305F 
 8857      696E7465 
 8857      72727570 
 8857      74735F34 
 8858              	.LASF94:
 8859 0ee5 63707573 		.ascii	"cpuss_interrupts_dw0_12_IRQn\000"
 8859      735F696E 
 8859      74657272 
 8859      75707473 
 8859      5F647730 
 8860              	.LASF598:
 8861 0f02 43595F42 		.ascii	"CY_BLE_EVT_AES_CMAC_GEN_COMPLETE\000"
 8861      4C455F45 
 8861      56545F41 
 8861      45535F43 
 8861      4D41435F 
 8862              	.LASF902:
 8863 0f23 63795F73 		.ascii	"cy_stc_ble_disc_srvc_info_t\000"
 8863      74635F62 
 8863      6C655F64 
 8863      6973635F 
 8863      73727663 
 8864              	.LASF480:
ARM GAS  C:\Users\kateb\AppData\Local\Temp\cciDLH78.s 			page 199


 8865 0f3f 4D495343 		.ascii	"MISC_EN_CTRL\000"
 8865      5F454E5F 
 8865      4354524C 
 8865      00
 8866              	.LASF169:
 8867 0f4c 7564625F 		.ascii	"udb_interrupts_15_IRQn\000"
 8867      696E7465 
 8867      72727570 
 8867      74735F31 
 8867      355F4952 
 8868              	.LASF408:
 8869 0f63 42545F53 		.ascii	"BT_SLOT_CAPT_STATUS\000"
 8869      4C4F545F 
 8869      43415054 
 8869      5F535441 
 8869      54555300 
 8870              	.LASF761:
 8871 0f77 63795F73 		.ascii	"cy_stc_ble_uuid128_t\000"
 8871      74635F62 
 8871      6C655F75 
 8871      75696431 
 8871      32385F74 
 8872              	.LASF54:
 8873 0f8c 73727373 		.ascii	"srss_interrupt_IRQn\000"
 8873      5F696E74 
 8873      65727275 
 8873      70745F49 
 8873      52516E00 
 8874              	.LASF160:
 8875 0fa0 7564625F 		.ascii	"udb_interrupts_6_IRQn\000"
 8875      696E7465 
 8875      72727570 
 8875      74735F36 
 8875      5F495251 
 8876              	.LASF846:
 8877 0fb6 43595F42 		.ascii	"CY_BLE_CONN_STATE_CLIENT_INCL_DISCOVERING\000"
 8877      4C455F43 
 8877      4F4E4E5F 
 8877      53544154 
 8877      455F434C 
 8878              	.LASF396:
 8879 0fe0 434F4E4E 		.ascii	"CONN_3_PARAM_MEM_BASE_ADDR\000"
 8879      5F335F50 
 8879      4152414D 
 8879      5F4D454D 
 8879      5F424153 
 8880              	.LASF119:
 8881 0ffb 63707573 		.ascii	"cpuss_interrupts_cm0_cti_1_IRQn\000"
 8881      735F696E 
 8881      74657272 
 8881      75707473 
 8881      5F636D30 
 8882              	.LASF114:
 8883 101b 63707573 		.ascii	"cpuss_interrupts_fault_0_IRQn\000"
 8883      735F696E 
 8883      74657272 
 8883      75707473 
ARM GAS  C:\Users\kateb\AppData\Local\Temp\cciDLH78.s 			page 200


 8883      5F666175 
 8884              	.LASF802:
 8885 1039 7363616E 		.ascii	"scanIntv\000"
 8885      496E7476 
 8885      00
 8886              	.LASF974:
 8887 1042 626C6573 		.ascii	"blessState\000"
 8887      73537461 
 8887      746500
 8888              	.LASF544:
 8889 104d 74797065 		.ascii	"type\000"
 8889      00
 8890              	.LASF254:
 8891 1052 57414B45 		.ascii	"WAKEUP_CONTROL\000"
 8891      55505F43 
 8891      4F4E5452 
 8891      4F4C00
 8892              	.LASF48:
 8893 1061 696F7373 		.ascii	"ioss_interrupt_vdd_IRQn\000"
 8893      5F696E74 
 8893      65727275 
 8893      70745F76 
 8893      64645F49 
 8894              	.LASF418:
 8895 1079 4D4D4D53 		.ascii	"MMMS_MASTER_CREATE_BT_CAPT\000"
 8895      5F4D4153 
 8895      5445525F 
 8895      43524541 
 8895      54455F42 
 8896              	.LASF578:
 8897 1094 43595F42 		.ascii	"CY_BLE_EVT_SET_PHY_COMPLETE\000"
 8897      4C455F45 
 8897      56545F53 
 8897      45545F50 
 8897      48595F43 
 8898              	.LASF242:
 8899 10b0 44415441 		.ascii	"DATA_CHANNELS_H0\000"
 8899      5F434841 
 8899      4E4E454C 
 8899      535F4830 
 8899      00
 8900              	.LASF246:
 8901 10c1 44415441 		.ascii	"DATA_CHANNELS_H1\000"
 8901      5F434841 
 8901      4E4E454C 
 8901      535F4831 
 8901      00
 8902              	.LASF276:
 8903 10d2 434F4E4E 		.ascii	"CONN_CE_COUNTER\000"
 8903      5F43455F 
 8903      434F554E 
 8903      54455200 
 8904              	.LASF514:
 8905 10e2 424C455F 		.ascii	"BLE_Type\000"
 8905      54797065 
 8905      00
 8906              	.LASF8:
ARM GAS  C:\Users\kateb\AppData\Local\Temp\cciDLH78.s 			page 201


 8907 10eb 5F5F7569 		.ascii	"__uint16_t\000"
 8907      6E743136 
 8907      5F7400
 8908              	.LASF226:
 8909 10f6 494E4954 		.ascii	"INIT_INTR\000"
 8909      5F494E54 
 8909      5200
 8910              	.LASF532:
 8911 1100 63795F65 		.ascii	"cy_en_syspm_callback_type_t\000"
 8911      6E5F7379 
 8911      73706D5F 
 8911      63616C6C 
 8911      6261636B 
 8912              	.LASF560:
 8913 111c 43595F42 		.ascii	"CY_BLE_EVT_GET_CHANNEL_MAP_COMPLETE\000"
 8913      4C455F45 
 8913      56545F47 
 8913      45545F43 
 8913      48414E4E 
 8914              	.LASF476:
 8915 1140 4D545F56 		.ascii	"MT_VIO_CTRL\000"
 8915      494F5F43 
 8915      54524C00 
 8916              	.LASF597:
 8917 114c 43595F42 		.ascii	"CY_BLE_EVT_RADIO_VOLTAGE_LEVEL\000"
 8917      4C455F45 
 8917      56545F52 
 8917      4144494F 
 8917      5F564F4C 
 8918              	.LASF159:
 8919 116b 7564625F 		.ascii	"udb_interrupts_5_IRQn\000"
 8919      696E7465 
 8919      72727570 
 8919      74735F35 
 8919      5F495251 
 8920              	.LASF742:
 8921 1181 43595F42 		.ascii	"CY_BLE_LL_PWR_LVL_MAX\000"
 8921      4C455F4C 
 8921      4C5F5057 
 8921      525F4C56 
 8921      4C5F4D41 
 8922              	.LASF250:
 8923 1197 434F4E4E 		.ascii	"CONN_INDEX\000"
 8923      5F494E44 
 8923      455800
 8924              	.LASF946:
 8925 11a2 43595F42 		.ascii	"CY_BLE_CTS_CURRENT_TIME\000"
 8925      4C455F43 
 8925      54535F43 
 8925      55525245 
 8925      4E545F54 
 8926              	.LASF491:
 8927 11ba 5041434B 		.ascii	"PACKET_COUNTER0\000"
 8927      45545F43 
 8927      4F554E54 
 8927      45523000 
 8928              	.LASF492:
ARM GAS  C:\Users\kateb\AppData\Local\Temp\cciDLH78.s 			page 202


 8929 11ca 5041434B 		.ascii	"PACKET_COUNTER2\000"
 8929      45545F43 
 8929      4F554E54 
 8929      45523200 
 8930              	.LASF158:
 8931 11da 7564625F 		.ascii	"udb_interrupts_4_IRQn\000"
 8931      696E7465 
 8931      72727570 
 8931      74735F34 
 8931      5F495251 
 8932              	.LASF1026:
 8933 11f0 474E5520 		.ascii	"GNU C11 5.4.1 20160609 (release) [ARM/embedded-5-br"
 8933      43313120 
 8933      352E342E 
 8933      31203230 
 8933      31363036 
 8934 1223 616E6368 		.ascii	"anch revision 237715] -mcpu=cortex-m4 -mfloat-abi=s"
 8934      20726576 
 8934      6973696F 
 8934      6E203233 
 8934      37373135 
 8935 1256 6F667466 		.ascii	"oftfp -mfpu=fpv4-sp-d16 -mthumb -g -Og -ffunction-s"
 8935      70202D6D 
 8935      6670753D 
 8935      66707634 
 8935      2D73702D 
 8936 1289 65637469 		.ascii	"ections -ffat-lto-objects\000"
 8936      6F6E7320 
 8936      2D666661 
 8936      742D6C74 
 8936      6F2D6F62 
 8937              	.LASF538:
 8938 12a3 6D6F6465 		.ascii	"mode\000"
 8938      00
 8939              	.LASF868:
 8940 12a8 63795F73 		.ascii	"cy_stc_ble_gapp_adv_params_t\000"
 8940      74635F62 
 8940      6C655F67 
 8940      6170705F 
 8940      6164765F 
 8941              	.LASF481:
 8942 12c5 45465553 		.ascii	"EFUSE_CONFIG\000"
 8942      455F434F 
 8942      4E464947 
 8942      00
 8943              	.LASF942:
 8944 12d2 64657669 		.ascii	"deviceAddress\000"
 8944      63654164 
 8944      64726573 
 8944      7300
 8945              	.LASF840:
 8946 12e0 43595F42 		.ascii	"CY_BLE_ADV_STATE_STOP_INITIATED\000"
 8946      4C455F41 
 8946      44565F53 
 8946      54415445 
 8946      5F53544F 
 8947              	.LASF60:
ARM GAS  C:\Users\kateb\AppData\Local\Temp\cciDLH78.s 			page 203


 8948 1300 63707573 		.ascii	"cpuss_interrupts_ipc_3_IRQn\000"
 8948      735F696E 
 8948      74657272 
 8948      75707473 
 8948      5F697063 
 8949              	.LASF172:
 8950 131c 61756469 		.ascii	"audioss_interrupt_pdm_IRQn\000"
 8950      6F73735F 
 8950      696E7465 
 8950      72727570 
 8950      745F7064 
 8951              	.LASF612:
 8952 1337 43595F42 		.ascii	"CY_BLE_EVT_GAP_CONNECTION_UPDATE_COMPLETE\000"
 8952      4C455F45 
 8952      56545F47 
 8952      41505F43 
 8952      4F4E4E45 
 8953              	.LASF526:
 8954 1361 63795F65 		.ascii	"cy_en_syspm_status_t\000"
 8954      6E5F7379 
 8954      73706D5F 
 8954      73746174 
 8954      75735F74 
 8955              	.LASF232:
 8956 1376 50454552 		.ascii	"PEER_ADDR_L\000"
 8956      5F414444 
 8956      525F4C00 
 8957              	.LASF747:
 8958 1382 63795F65 		.ascii	"cy_en_ble_lp_mode_t\000"
 8958      6E5F626C 
 8958      655F6C70 
 8958      5F6D6F64 
 8958      655F7400 
 8959              	.LASF744:
 8960 1396 43595F42 		.ascii	"CY_BLE_BLESS_ACTIVE\000"
 8960      4C455F42 
 8960      4C455353 
 8960      5F414354 
 8960      49564500 
 8961              	.LASF212:
 8962 13aa 4144565F 		.ascii	"ADV_PARAMS\000"
 8962      50415241 
 8962      4D5300
 8963              	.LASF994:
 8964 13b5 626C6553 		.ascii	"bleSleepCallback\000"
 8964      6C656570 
 8964      43616C6C 
 8964      6261636B 
 8964      00
 8965              	.LASF1008:
 8966 13c6 63795F62 		.ascii	"cy_ble_cmdStatus\000"
 8966      6C655F63 
 8966      6D645374 
 8966      61747573 
 8966      00
 8967              	.LASF202:
 8968 13d7 52585F43 		.ascii	"RX_CTRL\000"
ARM GAS  C:\Users\kateb\AppData\Local\Temp\cciDLH78.s 			page 204


 8968      54524C00 
 8969              	.LASF6:
 8970 13df 756E7369 		.ascii	"unsigned char\000"
 8970      676E6564 
 8970      20636861 
 8970      7200
 8971              	.LASF637:
 8972 13ed 43595F42 		.ascii	"CY_BLE_EVT_GATTC_FIND_BY_TYPE_VALUE_RSP\000"
 8972      4C455F45 
 8972      56545F47 
 8972      41545443 
 8972      5F46494E 
 8973              	.LASF59:
 8974 1415 63707573 		.ascii	"cpuss_interrupts_ipc_2_IRQn\000"
 8974      735F696E 
 8974      74657272 
 8974      75707473 
 8974      5F697063 
 8975              	.LASF498:
 8976 1431 454E435F 		.ascii	"ENC_PARAMS\000"
 8976      50415241 
 8976      4D5300
 8977              	.LASF724:
 8978 143c 62756666 		.ascii	"bufferUnits\000"
 8978      6572556E 
 8978      69747300 
 8979              	.LASF673:
 8980 1448 43595F42 		.ascii	"CY_BLE_ERROR_OOB_NOT_AVAILABLE\000"
 8980      4C455F45 
 8980      52524F52 
 8980      5F4F4F42 
 8980      5F4E4F54 
 8981              	.LASF668:
 8982 1467 43595F42 		.ascii	"CY_BLE_INFO_FLASH_WRITE_IN_PROGRESS\000"
 8982      4C455F49 
 8982      4E464F5F 
 8982      464C4153 
 8982      485F5752 
 8983              	.LASF869:
 8984 148b 66617374 		.ascii	"fastScanInterval\000"
 8984      5363616E 
 8984      496E7465 
 8984      7276616C 
 8984      00
 8985              	.LASF753:
 8986 149c 43595F42 		.ascii	"CY_BLE_BLESS_STATE_STOPPED\000"
 8986      4C455F42 
 8986      4C455353 
 8986      5F535441 
 8986      54455F53 
 8987              	.LASF49:
 8988 14b7 6C70636F 		.ascii	"lpcomp_interrupt_IRQn\000"
 8988      6D705F69 
 8988      6E746572 
 8988      72757074 
 8988      5F495251 
 8989              	.LASF913:
ARM GAS  C:\Users\kateb\AppData\Local\Temp\cciDLH78.s 			page 205


 8990 14cd 63795F73 		.ascii	"cy_stc_ble_gatts_t\000"
 8990      74635F62 
 8990      6C655F67 
 8990      61747473 
 8990      5F7400
 8991              	.LASF515:
 8992 14e0 666C6F61 		.ascii	"float\000"
 8992      7400
 8993              	.LASF768:
 8994 14e6 63795F73 		.ascii	"cy_stc_ble_gatt_attr_handle_range_t\000"
 8994      74635F62 
 8994      6C655F67 
 8994      6174745F 
 8994      61747472 
 8995              	.LASF603:
 8996 150a 43595F42 		.ascii	"CY_BLE_EVT_GAP_AUTH_REQ\000"
 8996      4C455F45 
 8996      56545F47 
 8996      41505F41 
 8996      5554485F 
 8997              	.LASF571:
 8998 1522 43595F42 		.ascii	"CY_BLE_EVT_SET_HOST_CHANNEL_COMPLETE\000"
 8998      4C455F45 
 8998      56545F53 
 8998      45545F48 
 8998      4F53545F 
 8999              	.LASF128:
 9000 1547 74637077 		.ascii	"tcpwm_0_interrupts_6_IRQn\000"
 9000      6D5F305F 
 9000      696E7465 
 9000      72727570 
 9000      74735F36 
 9001              	.LASF416:
 9002 1561 4541524C 		.ascii	"EARLY_INTR_NI\000"
 9002      595F494E 
 9002      54525F4E 
 9002      4900
 9003              	.LASF656:
 9004 156f 43595F42 		.ascii	"CY_BLE_EVT_L2CAP_COMMAND_REJ\000"
 9004      4C455F45 
 9004      56545F4C 
 9004      32434150 
 9004      5F434F4D 
 9005              	.LASF549:
 9006 158c 63795F73 		.ascii	"cy_stc_syspm_callback_t\000"
 9006      74635F73 
 9006      7973706D 
 9006      5F63616C 
 9006      6C626163 
 9007              	.LASF58:
 9008 15a4 63707573 		.ascii	"cpuss_interrupts_ipc_1_IRQn\000"
 9008      735F696E 
 9008      74657272 
 9008      75707473 
 9008      5F697063 
 9009              	.LASF712:
 9010 15c0 77686974 		.ascii	"whiteListSize\000"
ARM GAS  C:\Users\kateb\AppData\Local\Temp\cciDLH78.s 			page 206


 9010      654C6973 
 9010      7453697A 
 9010      6500
 9011              	.LASF978:
 9012 15ce 43795F42 		.ascii	"Cy_BLE_Init\000"
 9012      4C455F49 
 9012      6E697400 
 9013              	.LASF24:
 9014 15da 48617264 		.ascii	"HardFault_IRQn\000"
 9014      4661756C 
 9014      745F4952 
 9014      516E00
 9015              	.LASF1029:
 9016 15e9 63795F73 		.ascii	"cy_stc_syspm_callback\000"
 9016      74635F73 
 9016      7973706D 
 9016      5F63616C 
 9016      6C626163 
 9017              	.LASF444:
 9018 15ff 434F4E4E 		.ascii	"CONN_PARAM_NEXT_SUP_TO\000"
 9018      5F504152 
 9018      414D5F4E 
 9018      4558545F 
 9018      5355505F 
 9019              	.LASF835:
 9020 1616 43595F42 		.ascii	"CY_BLE_STATE_ON\000"
 9020      4C455F53 
 9020      54415445 
 9020      5F4F4E00 
 9021              	.LASF127:
 9022 1626 74637077 		.ascii	"tcpwm_0_interrupts_5_IRQn\000"
 9022      6D5F305F 
 9022      696E7465 
 9022      72727570 
 9022      74735F35 
 9023              	.LASF240:
 9024 1640 44415441 		.ascii	"DATA_CHANNELS_L0\000"
 9024      5F434841 
 9024      4E4E454C 
 9024      535F4C30 
 9024      00
 9025              	.LASF244:
 9026 1651 44415441 		.ascii	"DATA_CHANNELS_L1\000"
 9026      5F434841 
 9026      4E4E454C 
 9026      535F4C31 
 9026      00
 9027              	.LASF838:
 9028 1662 43595F42 		.ascii	"CY_BLE_ADV_STATE_ADV_INITIATED\000"
 9028      4C455F41 
 9028      44565F53 
 9028      54415445 
 9028      5F414456 
 9029              	.LASF440:
 9030 1681 4D4D4D53 		.ascii	"MMMS_ADVCH_NI_ENABLE\000"
 9030      5F414456 
 9030      43485F4E 
ARM GAS  C:\Users\kateb\AppData\Local\Temp\cciDLH78.s 			page 207


 9030      495F454E 
 9030      41424C45 
 9031              	.LASF590:
 9032 1696 43595F42 		.ascii	"CY_BLE_EVT_RANDOM_NUM_GEN_COMPLETE\000"
 9032      4C455F45 
 9032      56545F52 
 9032      414E444F 
 9032      4D5F4E55 
 9033              	.LASF542:
 9034 16b9 43795F53 		.ascii	"Cy_SysPmCallback\000"
 9034      7973506D 
 9034      43616C6C 
 9034      6261636B 
 9034      00
 9035              	.LASF966:
 9036 16ca 43595F49 		.ascii	"CY_IPC_SEMA_BAD_PARAM\000"
 9036      50435F53 
 9036      454D415F 
 9036      4241445F 
 9036      50415241 
 9037              	.LASF812:
 9038 16e0 43595F42 		.ascii	"CY_BLE_GAPP_NON_CONNECTABLE_UNDIRECTED_ADV\000"
 9038      4C455F47 
 9038      4150505F 
 9038      4E4F4E5F 
 9038      434F4E4E 
 9039              	.LASF75:
 9040 170b 7363625F 		.ascii	"scb_2_interrupt_IRQn\000"
 9040      325F696E 
 9040      74657272 
 9040      7570745F 
 9040      4952516E 
 9041              	.LASF684:
 9042 1720 43595F42 		.ascii	"CY_BLE_ERROR_L2CAP_PSM_NOT_IN_RANGE\000"
 9042      4C455F45 
 9042      52524F52 
 9042      5F4C3243 
 9042      41505F50 
 9043              	.LASF297:
 9044 1744 4144565F 		.ascii	"ADV_ACCADDR_H\000"
 9044      41434341 
 9044      4444525F 
 9044      4800
 9045              	.LASF707:
 9046 1752 63795F73 		.ascii	"cy_stc_ble_l2cap_config_param_t\000"
 9046      74635F62 
 9046      6C655F6C 
 9046      32636170 
 9046      5F636F6E 
 9047              	.LASF211:
 9048 1772 4556454E 		.ascii	"EVENT_ENABLE\000"
 9048      545F454E 
 9048      41424C45 
 9048      00
 9049              	.LASF241:
 9050 177f 44415441 		.ascii	"DATA_CHANNELS_M0\000"
 9050      5F434841 
ARM GAS  C:\Users\kateb\AppData\Local\Temp\cciDLH78.s 			page 208


 9050      4E4E454C 
 9050      535F4D30 
 9050      00
 9051              	.LASF151:
 9052 1790 74637077 		.ascii	"tcpwm_1_interrupts_21_IRQn\000"
 9052      6D5F315F 
 9052      696E7465 
 9052      72727570 
 9052      74735F32 
 9053              	.LASF644:
 9054 17ab 43595F42 		.ascii	"CY_BLE_EVT_GATTS_PREP_WRITE_REQ\000"
 9054      4C455F45 
 9054      56545F47 
 9054      41545453 
 9054      5F505245 
 9055              	.LASF261:
 9056 17cb 4144565F 		.ascii	"ADV_TX_DATA_FIFO\000"
 9056      54585F44 
 9056      4154415F 
 9056      4649464F 
 9056      00
 9057              	.LASF665:
 9058 17dc 43595F42 		.ascii	"CY_BLE_EVT_MAX\000"
 9058      4C455F45 
 9058      56545F4D 
 9058      415800
 9059              	.LASF620:
 9060 17eb 43595F42 		.ascii	"CY_BLE_EVT_GAP_SMP_NEGOTIATED_AUTH_INFO\000"
 9060      4C455F45 
 9060      56545F47 
 9060      41505F53 
 9060      4D505F4E 
 9061              	.LASF831:
 9062 1813 61647654 		.ascii	"advTo\000"
 9062      6F00
 9063              	.LASF389:
 9064 1819 52455345 		.ascii	"RESERVED36\000"
 9064      52564544 
 9064      333600
 9065              	.LASF634:
 9066 1824 43595F42 		.ascii	"CY_BLE_EVT_GATTC_READ_BY_GROUP_TYPE_RSP\000"
 9066      4C455F45 
 9066      56545F47 
 9066      41545443 
 9066      5F524541 
 9067              	.LASF227:
 9068 184c 494E4954 		.ascii	"INIT_NEXT_INSTANT\000"
 9068      5F4E4558 
 9068      545F494E 
 9068      5354414E 
 9068      5400
 9069              	.LASF922:
 9070 185e 63795F73 		.ascii	"cy_stc_ble_flash_storage_t\000"
 9070      74635F62 
 9070      6C655F66 
 9070      6C617368 
 9070      5F73746F 
ARM GAS  C:\Users\kateb\AppData\Local\Temp\cciDLH78.s 			page 209


 9071              	.LASF926:
 9072 1879 73656375 		.ascii	"securityPairingMethod\000"
 9072      72697479 
 9072      50616972 
 9072      696E674D 
 9072      6574686F 
 9073              	.LASF395:
 9074 188f 52455345 		.ascii	"RESERVED39\000"
 9074      52564544 
 9074      333900
 9075              	.LASF629:
 9076 189a 43595F42 		.ascii	"CY_BLE_EVT_GATTC_ERROR_RSP\000"
 9076      4C455F45 
 9076      56545F47 
 9076      41545443 
 9076      5F455252 
 9077              	.LASF346:
 9078 18b5 434F4E4E 		.ascii	"CONN_UPDATE_NEW_SUP_TO\000"
 9078      5F555044 
 9078      4154455F 
 9078      4E45575F 
 9078      5355505F 
 9079              	.LASF91:
 9080 18cc 63707573 		.ascii	"cpuss_interrupts_dw0_9_IRQn\000"
 9080      735F696E 
 9080      74657272 
 9080      75707473 
 9080      5F647730 
 9081              	.LASF315:
 9082 18e8 534C4156 		.ascii	"SLAVE_TIMING_CONTROL\000"
 9082      455F5449 
 9082      4D494E47 
 9082      5F434F4E 
 9082      54524F4C 
 9083              	.LASF137:
 9084 18fd 74637077 		.ascii	"tcpwm_1_interrupts_7_IRQn\000"
 9084      6D5F315F 
 9084      696E7465 
 9084      72727570 
 9084      74735F37 
 9085              	.LASF896:
 9086 1917 67617474 		.ascii	"gattDbPtr\000"
 9086      44625074 
 9086      7200
 9087              	.LASF522:
 9088 1921 43595F53 		.ascii	"CY_SYSPM_TIMEOUT\000"
 9088      5953504D 
 9088      5F54494D 
 9088      454F5554 
 9088      00
 9089              	.LASF985:
 9090 1932 43795F42 		.ascii	"Cy_BLE_Disable\000"
 9090      4C455F44 
 9090      69736162 
 9090      6C6500
 9091              	.LASF47:
 9092 1941 696F7373 		.ascii	"ioss_interrupt_gpio_IRQn\000"
ARM GAS  C:\Users\kateb\AppData\Local\Temp\cciDLH78.s 			page 210


 9092      5F696E74 
 9092      65727275 
 9092      70745F67 
 9092      70696F5F 
 9093              	.LASF848:
 9094 195a 43595F42 		.ascii	"CY_BLE_CONN_STATE_CLIENT_DESCR_DISCOVERING\000"
 9094      4C455F43 
 9094      4F4E4E5F 
 9094      53544154 
 9094      455F434C 
 9095              	.LASF914:
 9096 1985 73657276 		.ascii	"serviceChanged\000"
 9096      69636543 
 9096      68616E67 
 9096      656400
 9097              	.LASF129:
 9098 1994 74637077 		.ascii	"tcpwm_0_interrupts_7_IRQn\000"
 9098      6D5F305F 
 9098      696E7465 
 9098      72727570 
 9098      74735F37 
 9099              	.LASF690:
 9100 19ae 43595F42 		.ascii	"CY_BLE_ERROR_GATT_DB_INVALID_ATTR_HANDLE\000"
 9100      4C455F45 
 9100      52524F52 
 9100      5F474154 
 9100      545F4442 
 9101              	.LASF772:
 9102 19d7 43595F42 		.ascii	"CY_BLE_GAP_IOCAP_NOINPUT_NOOUTPUT\000"
 9102      4C455F47 
 9102      41505F49 
 9102      4F434150 
 9102      5F4E4F49 
 9103              	.LASF265:
 9104 19f9 494E4954 		.ascii	"INIT_SCN_ADV_RX_FIFO\000"
 9104      5F53434E 
 9104      5F414456 
 9104      5F52585F 
 9104      4649464F 
 9105              	.LASF617:
 9106 1a0e 43595F42 		.ascii	"CY_BLE_EVT_GAP_OOB_GENERATED_NOTIFICATION\000"
 9106      4C455F45 
 9106      56545F47 
 9106      41505F4F 
 9106      4F425F47 
 9107              	.LASF136:
 9108 1a38 74637077 		.ascii	"tcpwm_1_interrupts_6_IRQn\000"
 9108      6D5F315F 
 9108      696E7465 
 9108      72727570 
 9108      74735F36 
 9109              	.LASF726:
 9110 1a52 6D656D6F 		.ascii	"memoryHeapPtr\000"
 9110      72794865 
 9110      61705074 
 9110      7200
 9111              	.LASF149:
ARM GAS  C:\Users\kateb\AppData\Local\Temp\cciDLH78.s 			page 211


 9112 1a60 74637077 		.ascii	"tcpwm_1_interrupts_19_IRQn\000"
 9112      6D5F315F 
 9112      696E7465 
 9112      72727570 
 9112      74735F31 
 9113              	.LASF419:
 9114 1a7b 4D4D4D53 		.ascii	"MMMS_SLAVE_CREATE_BT_CAPT\000"
 9114      5F534C41 
 9114      56455F43 
 9114      52454154 
 9114      455F4254 
 9115              	.LASF862:
 9116 1a95 66617374 		.ascii	"fastAdvIntervalMax\000"
 9116      41647649 
 9116      6E746572 
 9116      76616C4D 
 9116      617800
 9117              	.LASF718:
 9118 1aa8 77686974 		.ascii	"whiteListConfig\000"
 9118      654C6973 
 9118      74436F6E 
 9118      66696700 
 9119              	.LASF710:
 9120 1ab8 626F6E64 		.ascii	"bondListSize\000"
 9120      4C697374 
 9120      53697A65 
 9120      00
 9121              	.LASF605:
 9122 1ac5 43595F42 		.ascii	"CY_BLE_EVT_GAP_PASSKEY_DISPLAY_REQUEST\000"
 9122      4C455F45 
 9122      56545F47 
 9122      41505F50 
 9122      4153534B 
 9123              	.LASF529:
 9124 1aec 43595F53 		.ascii	"CY_SYSPM_HIBERNATE\000"
 9124      5953504D 
 9124      5F484942 
 9124      45524E41 
 9124      544500
 9125              	.LASF435:
 9126 1aff 52455345 		.ascii	"RESERVED48\000"
 9126      52564544 
 9126      343800
 9127              	.LASF439:
 9128 1b0a 52455345 		.ascii	"RESERVED49\000"
 9128      52564544 
 9128      343900
 9129              	.LASF711:
 9130 1b15 63795F73 		.ascii	"cy_stc_ble_bonded_device_list_config_param_t\000"
 9130      74635F62 
 9130      6C655F62 
 9130      6F6E6465 
 9130      645F6465 
 9131              	.LASF135:
 9132 1b42 74637077 		.ascii	"tcpwm_1_interrupts_5_IRQn\000"
 9132      6D5F315F 
 9132      696E7465 
ARM GAS  C:\Users\kateb\AppData\Local\Temp\cciDLH78.s 			page 212


 9132      72727570 
 9132      74735F35 
 9133              	.LASF756:
 9134 1b5c 62644861 		.ascii	"bdHandle\000"
 9134      6E646C65 
 9134      00
 9135              	.LASF148:
 9136 1b65 74637077 		.ascii	"tcpwm_1_interrupts_18_IRQn\000"
 9136      6D5F315F 
 9136      696E7465 
 9136      72727570 
 9136      74735F31 
 9137              	.LASF719:
 9138 1b80 66656174 		.ascii	"featureMask\000"
 9138      7572654D 
 9138      61736B00 
 9139              	.LASF375:
 9140 1b8c 54585F52 		.ascii	"TX_RX_SYNTH_DELAY\000"
 9140      585F5359 
 9140      4E54485F 
 9140      44454C41 
 9140      5900
 9141              	.LASF467:
 9142 1b9e 4C4C5F43 		.ascii	"LL_CLK_EN\000"
 9142      4C4B5F45 
 9142      4E00
 9143              	.LASF588:
 9144 1ba8 43595F42 		.ascii	"CY_BLE_EVT_GET_CLK_CONFIG_COMPLETE\000"
 9144      4C455F45 
 9144      56545F47 
 9144      45545F43 
 9144      4C4B5F43 
 9145              	.LASF73:
 9146 1bcb 7363625F 		.ascii	"scb_0_interrupt_IRQn\000"
 9146      305F696E 
 9146      74657272 
 9146      7570745F 
 9146      4952516E 
 9147              	.LASF784:
 9148 1be0 43595F42 		.ascii	"CY_BLE_GAP_AUTH_ERROR_REPEATED_ATTEMPTS\000"
 9148      4C455F47 
 9148      41505F41 
 9148      5554485F 
 9148      4552524F 
 9149              	.LASF595:
 9150 1c08 43595F42 		.ascii	"CY_BLE_EVT_STACK_SHUTDOWN_COMPLETE\000"
 9150      4C455F45 
 9150      56545F53 
 9150      5441434B 
 9150      5F534855 
 9151              	.LASF196:
 9152 1c2b 424C455F 		.ascii	"BLE_RCB_RCBLL_Type\000"
 9152      5243425F 
 9152      5243424C 
 9152      4C5F5479 
 9152      706500
 9153              	.LASF699:
ARM GAS  C:\Users\kateb\AppData\Local\Temp\cciDLH78.s 			page 213


 9154 1c3e 62644164 		.ascii	"bdAddr\000"
 9154      647200
 9155              	.LASF176:
 9156 1c45 7573625F 		.ascii	"usb_interrupt_med_IRQn\000"
 9156      696E7465 
 9156      72727570 
 9156      745F6D65 
 9156      645F4952 
 9157              	.LASF886:
 9158 1c5c 63795F73 		.ascii	"cy_stc_ble_gatts_att_pack_val_len_t\000"
 9158      74635F62 
 9158      6C655F67 
 9158      61747473 
 9158      5F617474 
 9159              	.LASF473:
 9160 1c80 4D545F44 		.ascii	"MT_DELAY_CFG\000"
 9160      454C4159 
 9160      5F434647 
 9160      00
 9161              	.LASF780:
 9162 1c8d 43595F42 		.ascii	"CY_BLE_GAP_AUTH_ERROR_PAIRING_NOT_SUPPORTED\000"
 9162      4C455F47 
 9162      41505F41 
 9162      5554485F 
 9162      4552524F 
 9163              	.LASF147:
 9164 1cb9 74637077 		.ascii	"tcpwm_1_interrupts_17_IRQn\000"
 9164      6D5F315F 
 9164      696E7465 
 9164      72727570 
 9164      74735F31 
 9165              	.LASF834:
 9166 1cd4 43595F42 		.ascii	"CY_BLE_STATE_INITIALIZING\000"
 9166      4C455F53 
 9166      54415445 
 9166      5F494E49 
 9166      5449414C 
 9167              	.LASF472:
 9168 1cee 4D545F43 		.ascii	"MT_CFG\000"
 9168      464700
 9169              	.LASF465:
 9170 1cf5 5854414C 		.ascii	"XTAL_CLK_DIV_CONFIG\000"
 9170      5F434C4B 
 9170      5F444956 
 9170      5F434F4E 
 9170      46494700 
 9171              	.LASF729:
 9172 1d09 746F7461 		.ascii	"totalDataBufferPools\000"
 9172      6C446174 
 9172      61427566 
 9172      66657250 
 9172      6F6F6C73 
 9173              	.LASF72:
 9174 1d1e 63707573 		.ascii	"cpuss_interrupts_ipc_15_IRQn\000"
 9174      735F696E 
 9174      74657272 
 9174      75707473 
ARM GAS  C:\Users\kateb\AppData\Local\Temp\cciDLH78.s 			page 214


 9174      5F697063 
 9175              	.LASF758:
 9176 1d3b 63795F73 		.ascii	"cy_stc_ble_conn_handle_t\000"
 9176      74635F62 
 9176      6C655F63 
 9176      6F6E6E5F 
 9176      68616E64 
 9177              	.LASF843:
 9178 1d54 43595F42 		.ascii	"CY_BLE_CONN_STATE_CLIENT_DISCONNECTED_DISCOVERED\000"
 9178      4C455F43 
 9178      4F4E4E5F 
 9178      53544154 
 9178      455F434C 
 9179              	.LASF553:
 9180 1d85 43595F42 		.ascii	"CY_BLE_EVT_STACK_BUSY_STATUS\000"
 9180      4C455F45 
 9180      56545F53 
 9180      5441434B 
 9180      5F425553 
 9181              	.LASF894:
 9182 1da2 61747456 		.ascii	"attValue\000"
 9182      616C7565 
 9182      00
 9183              	.LASF716:
 9184 1dab 70726976 		.ascii	"privacyConfig\000"
 9184      61637943 
 9184      6F6E6669 
 9184      6700
 9185              	.LASF899:
 9186 1db9 63795F73 		.ascii	"cy_stc_ble_gatts_db_info_t\000"
 9186      74635F62 
 9186      6C655F67 
 9186      61747473 
 9186      5F64625F 
 9187              	.LASF1028:
 9188 1dd4 433A5C55 		.ascii	"C:\\Users\\kateb\\Documents\\PSoC Creator\\CE218136"
 9188      73657273 
 9188      5C6B6174 
 9188      65625C44 
 9188      6F63756D 
 9189 1e02 5F45494E 		.ascii	"_EINK_CapSense_RTOS02\\CE222604_RTC_CTS_RTOS01.cyds"
 9189      4B5F4361 
 9189      7053656E 
 9189      73655F52 
 9189      544F5330 
 9190 1e34 6E00     		.ascii	"n\000"
 9191              	.LASF347:
 9192 1e36 434F4E4E 		.ascii	"CONN_UPDATE_NEW_SL_INTERVAL\000"
 9192      5F555044 
 9192      4154455F 
 9192      4E45575F 
 9192      534C5F49 
 9193              	.LASF18:
 9194 1e52 75696E74 		.ascii	"uint8_t\000"
 9194      385F7400 
 9195              	.LASF923:
 9196 1e5a 7478506F 		.ascii	"txPowerLevelAdv\000"
ARM GAS  C:\Users\kateb\AppData\Local\Temp\cciDLH78.s 			page 215


 9196      7765724C 
 9196      6576656C 
 9196      41647600 
 9197              	.LASF327:
 9198 1e6a 4C4C5F44 		.ascii	"LL_DBG_10\000"
 9198      42475F31 
 9198      3000
 9199              	.LASF77:
 9200 1e74 7363625F 		.ascii	"scb_4_interrupt_IRQn\000"
 9200      345F696E 
 9200      74657272 
 9200      7570745F 
 9200      4952516E 
 9201              	.LASF535:
 9202 1e89 43595F53 		.ascii	"CY_SYSPM_BEFORE_TRANSITION\000"
 9202      5953504D 
 9202      5F424546 
 9202      4F52455F 
 9202      5452414E 
 9203              	.LASF951:
 9204 1ea4 43595F42 		.ascii	"CY_BLE_SRVI_GATT\000"
 9204      4C455F53 
 9204      5256495F 
 9204      47415454 
 9204      00
 9205              	.LASF882:
 9206 1eb5 61747447 		.ascii	"attGenericVal\000"
 9206      656E6572 
 9206      69635661 
 9206      6C00
 9207              	.LASF875:
 9208 1ec3 736C6F77 		.ascii	"slowScanTimeOut\000"
 9208      5363616E 
 9208      54696D65 
 9208      4F757400 
 9209              	.LASF71:
 9210 1ed3 63707573 		.ascii	"cpuss_interrupts_ipc_14_IRQn\000"
 9210      735F696E 
 9210      74657272 
 9210      75707473 
 9210      5F697063 
 9211              	.LASF378:
 9212 1ef0 4C4C5F43 		.ascii	"LL_CONFIG\000"
 9212      4F4E4649 
 9212      4700
 9213              	.LASF1010:
 9214 1efa 63795F62 		.ascii	"cy_ble_discovery\000"
 9214      6C655F64 
 9214      6973636F 
 9214      76657279 
 9214      00
 9215              	.LASF804:
 9216 1f0b 6F776E41 		.ascii	"ownAddrType\000"
 9216      64647254 
 9216      79706500 
 9217              	.LASF776:
 9218 1f17 43595F42 		.ascii	"CY_BLE_GAP_AUTH_ERROR_PASSKEY_ENTRY_FAILED\000"
ARM GAS  C:\Users\kateb\AppData\Local\Temp\cciDLH78.s 			page 216


 9218      4C455F47 
 9218      41505F41 
 9218      5554485F 
 9218      4552524F 
 9219              	.LASF496:
 9220 1f42 4D49435F 		.ascii	"MIC_IN0\000"
 9220      494E3000 
 9221              	.LASF304:
 9222 1f4a 4445565F 		.ascii	"DEV_PUB_ADDR_H\000"
 9222      5055425F 
 9222      41444452 
 9222      5F4800
 9223              	.LASF781:
 9224 1f59 43595F42 		.ascii	"CY_BLE_GAP_AUTH_ERROR_INSUFFICIENT_ENCRYPTION_KEY_S"
 9224      4C455F47 
 9224      41505F41 
 9224      5554485F 
 9224      4552524F 
 9225 1f8c 495A4500 		.ascii	"IZE\000"
 9226              	.LASF302:
 9227 1f90 4445565F 		.ascii	"DEV_PUB_ADDR_L\000"
 9227      5055425F 
 9227      41444452 
 9227      5F4C00
 9228              	.LASF303:
 9229 1f9f 4445565F 		.ascii	"DEV_PUB_ADDR_M\000"
 9229      5055425F 
 9229      41444452 
 9229      5F4D00
 9230              	.LASF965:
 9231 1fae 43595F49 		.ascii	"CY_IPC_SEMA_ERROR_UNLOCKED\000"
 9231      50435F53 
 9231      454D415F 
 9231      4552524F 
 9231      525F554E 
 9232              	.LASF272:
 9233 1fc9 5044555F 		.ascii	"PDU_ACCESS_ADDR_H_REGISTER\000"
 9233      41434345 
 9233      53535F41 
 9233      4444525F 
 9233      485F5245 
 9234              	.LASF732:
 9235 1fe4 63795F73 		.ascii	"cy_stc_ble_stack_mgr_mem_cfg_param_t\000"
 9235      74635F62 
 9235      6C655F73 
 9235      7461636B 
 9235      5F6D6772 
 9236              	.LASF799:
 9237 2009 63795F73 		.ascii	"cy_stc_ble_gap_auth_info_t\000"
 9237      74635F62 
 9237      6C655F67 
 9237      61705F61 
 9237      7574685F 
 9238              	.LASF238:
 9239 2024 5452414E 		.ascii	"TRANSMIT_WINDOW_OFFSET\000"
 9239      534D4954 
 9239      5F57494E 
ARM GAS  C:\Users\kateb\AppData\Local\Temp\cciDLH78.s 			page 217


 9239      444F575F 
 9239      4F464653 
 9240              	.LASF611:
 9241 203b 43595F42 		.ascii	"CY_BLE_EVT_GAP_ENCRYPT_CHANGE\000"
 9241      4C455F45 
 9241      56545F47 
 9241      41505F45 
 9241      4E435259 
 9242              	.LASF681:
 9243 2059 43595F42 		.ascii	"CY_BLE_ERROR_L2CAP_PSM_ALREADY_REGISTERED\000"
 9243      4C455F45 
 9243      52524F52 
 9243      5F4C3243 
 9243      41505F50 
 9244              	.LASF228:
 9245 2083 44455649 		.ascii	"DEVICE_RAND_ADDR_L\000"
 9245      43455F52 
 9245      414E445F 
 9245      41444452 
 9245      5F4C00
 9246              	.LASF165:
 9247 2096 7564625F 		.ascii	"udb_interrupts_11_IRQn\000"
 9247      696E7465 
 9247      72727570 
 9247      74735F31 
 9247      315F4952 
 9248              	.LASF70:
 9249 20ad 63707573 		.ascii	"cpuss_interrupts_ipc_13_IRQn\000"
 9249      735F696E 
 9249      74657272 
 9249      75707473 
 9249      5F697063 
 9250              	.LASF814:
 9251 20ca 63795F65 		.ascii	"cy_en_ble_gapp_adv_t\000"
 9251      6E5F626C 
 9251      655F6761 
 9251      70705F61 
 9251      64765F74 
 9252              	.LASF800:
 9253 20df 64697363 		.ascii	"discProcedure\000"
 9253      50726F63 
 9253      65647572 
 9253      6500
 9254              	.LASF437:
 9255 20ed 434F4E4E 		.ascii	"CONN_4_DATA_LIST_ACK\000"
 9255      5F345F44 
 9255      4154415F 
 9255      4C495354 
 9255      5F41434B 
 9256              	.LASF809:
 9257 2102 43595F42 		.ascii	"CY_BLE_GAPP_CONNECTABLE_UNDIRECTED_ADV\000"
 9257      4C455F47 
 9257      4150505F 
 9257      434F4E4E 
 9257      45435441 
 9258              	.LASF256:
 9259 2129 54494D5F 		.ascii	"TIM_COUNTER_L\000"
ARM GAS  C:\Users\kateb\AppData\Local\Temp\cciDLH78.s 			page 218


 9259      434F554E 
 9259      5445525F 
 9259      4C00
 9260              	.LASF980:
 9261 2137 61706952 		.ascii	"apiResult\000"
 9261      6573756C 
 9261      7400
 9262              	.LASF90:
 9263 2141 63707573 		.ascii	"cpuss_interrupts_dw0_8_IRQn\000"
 9263      735F696E 
 9263      74657272 
 9263      75707473 
 9263      5F647730 
 9264              	.LASF581:
 9265 215d 43595F42 		.ascii	"CY_BLE_EVT_LL_CNTRL_PROC_PENDING_COMPLETE\000"
 9265      4C455F45 
 9265      56545F4C 
 9265      4C5F434E 
 9265      54524C5F 
 9266              	.LASF602:
 9267 2187 43595F42 		.ascii	"CY_BLE_EVT_GAPC_SCAN_PROGRESS_RESULT\000"
 9267      4C455F45 
 9267      56545F47 
 9267      4150435F 
 9267      5343414E 
 9268              	.LASF97:
 9269 21ac 63707573 		.ascii	"cpuss_interrupts_dw0_15_IRQn\000"
 9269      735F696E 
 9269      74657272 
 9269      75707473 
 9269      5F647730 
 9270              	.LASF164:
 9271 21c9 7564625F 		.ascii	"udb_interrupts_10_IRQn\000"
 9271      696E7465 
 9271      72727570 
 9271      74735F31 
 9271      305F4952 
 9272              	.LASF113:
 9273 21e0 63707573 		.ascii	"cpuss_interrupts_dw1_15_IRQn\000"
 9273      735F696E 
 9273      74657272 
 9273      75707473 
 9273      5F647731 
 9274              	.LASF982:
 9275 21fd 63795F62 		.ascii	"cy_ble_stackDataBuff\000"
 9275      6C655F73 
 9275      7461636B 
 9275      44617461 
 9275      42756666 
 9276              	.LASF1015:
 9277 2212 43795F42 		.ascii	"Cy_BLE_StackGetBleSsState\000"
 9277      4C455F53 
 9277      7461636B 
 9277      47657442 
 9277      6C655373 
 9278              	.LASF859:
 9279 222c 7265636F 		.ascii	"reconnAddrCharHandle\000"
ARM GAS  C:\Users\kateb\AppData\Local\Temp\cciDLH78.s 			page 219


 9279      6E6E4164 
 9279      64724368 
 9279      61724861 
 9279      6E646C65 
 9280              	.LASF589:
 9281 2241 43595F42 		.ascii	"CY_BLE_EVT_SET_CLK_CONFIG_COMPLETE\000"
 9281      4C455F45 
 9281      56545F53 
 9281      45545F43 
 9281      4C4B5F43 
 9282              	.LASF89:
 9283 2264 63707573 		.ascii	"cpuss_interrupts_dw0_7_IRQn\000"
 9283      735F696E 
 9283      74657272 
 9283      75707473 
 9283      5F647730 
 9284              	.LASF931:
 9285 2280 67617070 		.ascii	"gappAdvParams\000"
 9285      41647650 
 9285      6172616D 
 9285      7300
 9286              	.LASF370:
 9287 228e 4C455F50 		.ascii	"LE_PING_TIMER_OFFSET\000"
 9287      494E475F 
 9287      54494D45 
 9287      525F4F46 
 9287      46534554 
 9288              	.LASF885:
 9289 22a3 61747447 		.ascii	"attGenericValLen\000"
 9289      656E6572 
 9289      69635661 
 9289      6C4C656E 
 9289      00
 9290              	.LASF398:
 9291 22b4 434F4E4E 		.ascii	"CONN_4_PARAM_MEM_BASE_ADDR\000"
 9291      5F345F50 
 9291      4152414D 
 9291      5F4D454D 
 9291      5F424153 
 9292              	.LASF96:
 9293 22cf 63707573 		.ascii	"cpuss_interrupts_dw0_14_IRQn\000"
 9293      735F696E 
 9293      74657272 
 9293      75707473 
 9293      5F647730 
 9294              	.LASF183:
 9295 22ec 494E5452 		.ascii	"INTR\000"
 9295      00
 9296              	.LASF263:
 9297 22f1 4144565F 		.ascii	"ADV_SCN_RSP_TX_FIFO\000"
 9297      53434E5F 
 9297      5253505F 
 9297      54585F46 
 9297      49464F00 
 9298              	.LASF106:
 9299 2305 63707573 		.ascii	"cpuss_interrupts_dw1_8_IRQn\000"
 9299      735F696E 
ARM GAS  C:\Users\kateb\AppData\Local\Temp\cciDLH78.s 			page 220


 9299      74657272 
 9299      75707473 
 9299      5F647731 
 9300              	.LASF986:
 9301 2321 43795F42 		.ascii	"Cy_BLE_UnregisterHostPMCallbacks\000"
 9301      4C455F55 
 9301      6E726567 
 9301      69737465 
 9301      72486F73 
 9302              	.LASF112:
 9303 2342 63707573 		.ascii	"cpuss_interrupts_dw1_14_IRQn\000"
 9303      735F696E 
 9303      74657272 
 9303      75707473 
 9303      5F647731 
 9304              	.LASF459:
 9305 235f 52534C56 		.ascii	"RSLV_LIST_RCVD_INIT_RPA_BASE_ADDR\000"
 9305      5F4C4953 
 9305      545F5243 
 9305      56445F49 
 9305      4E49545F 
 9306              	.LASF955:
 9307 2381 73657276 		.ascii	"servCount\000"
 9307      436F756E 
 9307      7400
 9308              	.LASF877:
 9309 238b 67617063 		.ascii	"gapcConnectionIntervalMax\000"
 9309      436F6E6E 
 9309      65637469 
 9309      6F6E496E 
 9309      74657276 
 9310              	.LASF767:
 9311 23a5 656E6448 		.ascii	"endHandle\000"
 9311      616E646C 
 9311      6500
 9312              	.LASF796:
 9313 23af 656B6579 		.ascii	"ekeySize\000"
 9313      53697A65 
 9313      00
 9314              	.LASF500:
 9315 23b8 454E435F 		.ascii	"ENC_INTR_EN\000"
 9315      494E5452 
 9315      5F454E00 
 9316              	.LASF941:
 9317 23c4 63616C6C 		.ascii	"callbackFunc\000"
 9317      6261636B 
 9317      46756E63 
 9317      00
 9318              	.LASF844:
 9319 23d1 43595F42 		.ascii	"CY_BLE_CONN_STATE_CONNECTED\000"
 9319      4C455F43 
 9319      4F4E4E5F 
 9319      53544154 
 9319      455F434F 
 9320              	.LASF667:
 9321 23ed 43595F42 		.ascii	"CY_BLE_SUCCESS\000"
 9321      4C455F53 
ARM GAS  C:\Users\kateb\AppData\Local\Temp\cciDLH78.s 			page 221


 9321      55434345 
 9321      535300
 9322              	.LASF388:
 9323 23fc 434F4E4E 		.ascii	"CONN_RXMEM_BASE_ADDR_DLE\000"
 9323      5F52584D 
 9323      454D5F42 
 9323      4153455F 
 9323      41444452 
 9324              	.LASF850:
 9325 2415 63795F65 		.ascii	"cy_en_ble_conn_state_t\000"
 9325      6E5F626C 
 9325      655F636F 
 9325      6E6E5F73 
 9325      74617465 
 9326              	.LASF621:
 9327 242c 43595F42 		.ascii	"CY_BLE_EVT_GAP_DEVICE_ADDR_GEN_COMPLETE\000"
 9327      4C455F45 
 9327      56545F47 
 9327      41505F44 
 9327      45564943 
 9328              	.LASF95:
 9329 2454 63707573 		.ascii	"cpuss_interrupts_dw0_13_IRQn\000"
 9329      735F696E 
 9329      74657272 
 9329      75707473 
 9329      5F647730 
 9330              	.LASF105:
 9331 2471 63707573 		.ascii	"cpuss_interrupts_dw1_7_IRQn\000"
 9331      735F696E 
 9331      74657272 
 9331      75707473 
 9331      5F647731 
 9332              	.LASF775:
 9333 248d 43595F42 		.ascii	"CY_BLE_GAP_AUTH_ERROR_NONE\000"
 9333      4C455F47 
 9333      41505F41 
 9333      5554485F 
 9333      4552524F 
 9334              	.LASF111:
 9335 24a8 63707573 		.ascii	"cpuss_interrupts_dw1_13_IRQn\000"
 9335      735F696E 
 9335      74657272 
 9335      75707473 
 9335      5F647731 
 9336              	.LASF372:
 9337 24c5 4C455F50 		.ascii	"LE_PING_TIMER_WRAP_COUNT\000"
 9337      494E475F 
 9337      54494D45 
 9337      525F5752 
 9337      41505F43 
 9338              	.LASF991:
 9339 24de 626C6544 		.ascii	"bleDeepSleepCallbackParams\000"
 9339      65657053 
 9339      6C656570 
 9339      43616C6C 
 9339      6261636B 
 9340              	.LASF682:
ARM GAS  C:\Users\kateb\AppData\Local\Temp\cciDLH78.s 			page 222


 9341 24f9 43595F42 		.ascii	"CY_BLE_ERROR_L2CAP_PSM_NOT_REGISTERED\000"
 9341      4C455F45 
 9341      52524F52 
 9341      5F4C3243 
 9341      41505F50 
 9342              	.LASF872:
 9343 251f 736C6F77 		.ascii	"slowScanEnabled\000"
 9343      5363616E 
 9343      456E6162 
 9343      6C656400 
 9344              	.LASF760:
 9345 252f 76616C75 		.ascii	"value\000"
 9345      6500
 9346              	.LASF956:
 9347 2535 63686172 		.ascii	"charCount\000"
 9347      436F756E 
 9347      7400
 9348              	.LASF864:
 9349 253f 736C6F77 		.ascii	"slowAdvEnable\000"
 9349      41647645 
 9349      6E61626C 
 9349      6500
 9350              	.LASF223:
 9351 254d 494E4954 		.ascii	"INIT_WINDOW\000"
 9351      5F57494E 
 9351      444F5700 
 9352              	.LASF687:
 9353 2559 43595F42 		.ascii	"CY_BLE_ERROR_FLASH_WRITE\000"
 9353      4C455F45 
 9353      52524F52 
 9353      5F464C41 
 9353      53485F57 
 9354              	.LASF957:
 9355 2572 696E636C 		.ascii	"inclInfo\000"
 9355      496E666F 
 9355      00
 9356              	.LASF104:
 9357 257b 63707573 		.ascii	"cpuss_interrupts_dw1_6_IRQn\000"
 9357      735F696E 
 9357      74657272 
 9357      75707473 
 9357      5F647731 
 9358              	.LASF940:
 9359 2597 70617261 		.ascii	"params\000"
 9359      6D7300
 9360              	.LASF880:
 9361 259e 63795F73 		.ascii	"cy_stc_ble_gapc_scan_params_t\000"
 9361      74635F62 
 9361      6C655F67 
 9361      6170635F 
 9361      7363616E 
 9362              	.LASF236:
 9363 25bc 574C5F41 		.ascii	"WL_ADDR_TYPE\000"
 9363      4444525F 
 9363      54595045 
 9363      00
 9364              	.LASF586:
ARM GAS  C:\Users\kateb\AppData\Local\Temp\cciDLH78.s 			page 223


 9365 25c9 43595F42 		.ascii	"CY_BLE_EVT_GET_TX_PWR_COMPLETE\000"
 9365      4C455F45 
 9365      56545F47 
 9365      45545F54 
 9365      585F5057 
 9366              	.LASF855:
 9367 25e8 63656E74 		.ascii	"centralAddrResolutionCharHandle\000"
 9367      72616C41 
 9367      64647252 
 9367      65736F6C 
 9367      7574696F 
 9368              	.LASF600:
 9369 2608 43595F42 		.ascii	"CY_BLE_EVT_SET_CE_LENGTH_COMPLETE\000"
 9369      4C455F45 
 9369      56545F53 
 9369      45545F43 
 9369      455F4C45 
 9370              	.LASF52:
 9371 262a 73727373 		.ascii	"srss_interrupt_mcwdt_1_IRQn\000"
 9371      5F696E74 
 9371      65727275 
 9371      70745F6D 
 9371      63776474 
 9372              	.LASF813:
 9373 2646 43595F42 		.ascii	"CY_BLE_GAPP_CONNECTABLE_LOW_DC_DIRECTED_ADV\000"
 9373      4C455F47 
 9373      4150505F 
 9373      434F4E4E 
 9373      45435441 
 9374              	.LASF866:
 9375 2672 736C6F77 		.ascii	"slowAdvIntervalMax\000"
 9375      41647649 
 9375      6E746572 
 9375      76616C4D 
 9375      617800
 9376              	.LASF816:
 9377 2685 61647649 		.ascii	"advIntvMax\000"
 9377      6E74764D 
 9377      617800
 9378              	.LASF406:
 9379 2690 4E455854 		.ascii	"NEXT_SUP_TO_STATUS\000"
 9379      5F535550 
 9379      5F544F5F 
 9379      53544154 
 9379      555300
 9380              	.LASF762:
 9381 26a3 75756964 		.ascii	"uuid16\000"
 9381      313600
 9382              	.LASF671:
 9383 26aa 43595F42 		.ascii	"CY_BLE_ERROR_MEMORY_ALLOCATION_FAILED\000"
 9383      4C455F45 
 9383      52524F52 
 9383      5F4D454D 
 9383      4F52595F 
 9384              	.LASF582:
 9385 26d0 43595F42 		.ascii	"CY_BLE_EVT_SOFT_RESET_COMPLETE\000"
 9385      4C455F45 
ARM GAS  C:\Users\kateb\AppData\Local\Temp\cciDLH78.s 			page 224


 9385      56545F53 
 9385      4F46545F 
 9385      52455345 
 9386              	.LASF217:
 9387 26ef 5343414E 		.ascii	"SCAN_WINDOW\000"
 9387      5F57494E 
 9387      444F5700 
 9388              	.LASF107:
 9389 26fb 63707573 		.ascii	"cpuss_interrupts_dw1_9_IRQn\000"
 9389      735F696E 
 9389      74657272 
 9389      75707473 
 9389      5F647731 
 9390              	.LASF362:
 9391 2717 5044555F 		.ascii	"PDU_RESP_TIMER\000"
 9391      52455350 
 9391      5F54494D 
 9391      455200
 9392              	.LASF51:
 9393 2726 73727373 		.ascii	"srss_interrupt_mcwdt_0_IRQn\000"
 9393      5F696E74 
 9393      65727275 
 9393      70745F6D 
 9393      63776474 
 9394              	.LASF759:
 9395 2742 63795F62 		.ascii	"cy_ble_uuid16_t\000"
 9395      6C655F75 
 9395      75696431 
 9395      365F7400 
 9396              	.LASF953:
 9397 2752 43595F42 		.ascii	"CY_BLE_SRVI_COUNT\000"
 9397      4C455F53 
 9397      5256495F 
 9397      434F554E 
 9397      5400
 9398              	.LASF883:
 9399 2764 63795F73 		.ascii	"cy_stc_ble_gatts_att_gen_val_len_t\000"
 9399      74635F62 
 9399      6C655F67 
 9399      61747473 
 9399      5F617474 
 9400              	.LASF41:
 9401 2787 696F7373 		.ascii	"ioss_interrupts_gpio_9_IRQn\000"
 9401      5F696E74 
 9401      65727275 
 9401      7074735F 
 9401      6770696F 
 9402              	.LASF368:
 9403 27a3 534C5F43 		.ascii	"SL_CONN_INTERVAL\000"
 9403      4F4E4E5F 
 9403      494E5445 
 9403      5256414C 
 9403      00
 9404              	.LASF503:
 9405 27b4 454E435F 		.ascii	"ENC_MEM_BASE_ADDR\000"
 9405      4D454D5F 
 9405      42415345 
ARM GAS  C:\Users\kateb\AppData\Local\Temp\cciDLH78.s 			page 225


 9405      5F414444 
 9405      5200
 9406              	.LASF122:
 9407 27c6 74637077 		.ascii	"tcpwm_0_interrupts_0_IRQn\000"
 9407      6D5F305F 
 9407      696E7465 
 9407      72727570 
 9407      74735F30 
 9408              	.LASF832:
 9409 27e0 63795F73 		.ascii	"cy_stc_ble_gapp_disc_mode_info_t\000"
 9409      74635F62 
 9409      6C655F67 
 9409      6170705F 
 9409      64697363 
 9410              	.LASF43:
 9411 2801 696F7373 		.ascii	"ioss_interrupts_gpio_11_IRQn\000"
 9411      5F696E74 
 9411      65727275 
 9411      7074735F 
 9411      6770696F 
 9412              	.LASF27:
 9413 281e 55736167 		.ascii	"UsageFault_IRQn\000"
 9413      65466175 
 9413      6C745F49 
 9413      52516E00 
 9414              	.LASF646:
 9415 282e 43595F42 		.ascii	"CY_BLE_EVT_GATTC_EXEC_WRITE_RSP\000"
 9415      4C455F45 
 9415      56545F47 
 9415      41545443 
 9415      5F455845 
 9416              	.LASF274:
 9417 284e 43455F43 		.ascii	"CE_CNFG_STS_REGISTER\000"
 9417      4E46475F 
 9417      5354535F 
 9417      52454749 
 9417      53544552 
 9418              	.LASF551:
 9419 2863 43595F42 		.ascii	"CY_BLE_EVT_STACK_ON\000"
 9419      4C455F45 
 9419      56545F53 
 9419      5441434B 
 9419      5F4F4E00 
 9420              	.LASF451:
 9421 2877 434F4E4E 		.ascii	"CONN_RX_PKT_CNTR\000"
 9421      5F52585F 
 9421      504B545F 
 9421      434E5452 
 9421      00
 9422              	.LASF222:
 9423 2888 494E4954 		.ascii	"INIT_INTERVAL\000"
 9423      5F494E54 
 9423      45525641 
 9423      4C00
 9424              	.LASF497:
 9425 2896 4D49435F 		.ascii	"MIC_OUT0\000"
 9425      4F555430 
ARM GAS  C:\Users\kateb\AppData\Local\Temp\cciDLH78.s 			page 226


 9425      00
 9426              	.LASF386:
 9427 289f 574C5F43 		.ascii	"WL_CONNECTION_STATUS\000"
 9427      4F4E4E45 
 9427      4354494F 
 9427      4E5F5354 
 9427      41545553 
 9428              	.LASF455:
 9429 28b4 52534C56 		.ascii	"RSLV_LIST_PEER_IDNTT_BASE_ADDR\000"
 9429      5F4C4953 
 9429      545F5045 
 9429      45525F49 
 9429      444E5454 
 9430              	.LASF253:
 9431 28d3 52455345 		.ascii	"RESERVED10\000"
 9431      52564544 
 9431      313000
 9432              	.LASF258:
 9433 28de 52455345 		.ascii	"RESERVED11\000"
 9433      52564544 
 9433      313100
 9434              	.LASF260:
 9435 28e9 52455345 		.ascii	"RESERVED12\000"
 9435      52564544 
 9435      313200
 9436              	.LASF262:
 9437 28f4 52455345 		.ascii	"RESERVED13\000"
 9437      52564544 
 9437      313300
 9438              	.LASF264:
 9439 28ff 52455345 		.ascii	"RESERVED14\000"
 9439      52564544 
 9439      313400
 9440              	.LASF266:
 9441 290a 52455345 		.ascii	"RESERVED15\000"
 9441      52564544 
 9441      313500
 9442              	.LASF282:
 9443 2915 52455345 		.ascii	"RESERVED16\000"
 9443      52564544 
 9443      313600
 9444              	.LASF545:
 9445 2920 736B6970 		.ascii	"skipMode\000"
 9445      4D6F6465 
 9445      00
 9446              	.LASF287:
 9447 2929 52455345 		.ascii	"RESERVED18\000"
 9447      52564544 
 9447      313800
 9448              	.LASF291:
 9449 2934 52455345 		.ascii	"RESERVED19\000"
 9449      52564544 
 9449      313900
 9450              	.LASF692:
 9451 293f 43595F42 		.ascii	"CY_BLE_ERROR_IND_DISABLED\000"
 9451      4C455F45 
 9451      52524F52 
ARM GAS  C:\Users\kateb\AppData\Local\Temp\cciDLH78.s 			page 227


 9451      5F494E44 
 9451      5F444953 
 9452              	.LASF448:
 9453 2959 4144565F 		.ascii	"ADV_RAND\000"
 9453      52414E44 
 9453      00
 9454              	.LASF817:
 9455 2962 61647654 		.ascii	"advType\000"
 9455      79706500 
 9456              	.LASF410:
 9457 296a 55535F4F 		.ascii	"US_OFFSET_STATUS\000"
 9457      46465345 
 9457      545F5354 
 9457      41545553 
 9457      00
 9458              	.LASF180:
 9459 297b 4952516E 		.ascii	"IRQn_Type\000"
 9459      5F547970 
 9459      6500
 9460              	.LASF185:
 9461 2985 494E5452 		.ascii	"INTR_MASK\000"
 9461      5F4D4153 
 9461      4B00
 9462              	.LASF1033:
 9463 298f 6D656D73 		.ascii	"memset\000"
 9463      657400
 9464              	.LASF248:
 9465 2996 434F4E4E 		.ascii	"CONN_INTR\000"
 9465      5F494E54 
 9465      5200
 9466              	.LASF613:
 9467 29a0 43595F42 		.ascii	"CY_BLE_EVT_GAPC_SCAN_START_STOP\000"
 9467      4C455F45 
 9467      56545F47 
 9467      4150435F 
 9467      5343414E 
 9468              	.LASF893:
 9469 29c0 61747445 		.ascii	"attEndHandle\000"
 9469      6E644861 
 9469      6E646C65 
 9469      00
 9470              	.LASF210:
 9471 29cd 4556454E 		.ascii	"EVENT_INTR\000"
 9471      545F494E 
 9471      545200
 9472              	.LASF801:
 9473 29d8 7363616E 		.ascii	"scanType\000"
 9473      54797065 
 9473      00
 9474              	.LASF293:
 9475 29e1 52455345 		.ascii	"RESERVED20\000"
 9475      52564544 
 9475      323000
 9476              	.LASF295:
 9477 29ec 52455345 		.ascii	"RESERVED21\000"
 9477      52564544 
 9477      323100
ARM GAS  C:\Users\kateb\AppData\Local\Temp\cciDLH78.s 			page 228


 9478              	.LASF305:
 9479 29f7 52455345 		.ascii	"RESERVED22\000"
 9479      52564544 
 9479      323200
 9480              	.LASF311:
 9481 2a02 52455345 		.ascii	"RESERVED23\000"
 9481      52564544 
 9481      323300
 9482              	.LASF317:
 9483 2a0d 52455345 		.ascii	"RESERVED24\000"
 9483      52564544 
 9483      323400
 9484              	.LASF328:
 9485 2a18 52455345 		.ascii	"RESERVED25\000"
 9485      52564544 
 9485      323500
 9486              	.LASF337:
 9487 2a23 52455345 		.ascii	"RESERVED26\000"
 9487      52564544 
 9487      323600
 9488              	.LASF339:
 9489 2a2e 52455345 		.ascii	"RESERVED27\000"
 9489      52564544 
 9489      323700
 9490              	.LASF343:
 9491 2a39 52455345 		.ascii	"RESERVED28\000"
 9491      52564544 
 9491      323800
 9492              	.LASF348:
 9493 2a44 52455345 		.ascii	"RESERVED29\000"
 9493      52564544 
 9493      323900
 9494              	.LASF907:
 9495 2a4f 63795F73 		.ascii	"cy_stc_ble_disc_incl_info_t\000"
 9495      74635F62 
 9495      6C655F64 
 9495      6973635F 
 9495      696E636C 
 9496              	.LASF601:
 9497 2a6b 43595F42 		.ascii	"CY_BLE_EVT_SET_CONN_PRIORITY_COMPLETE\000"
 9497      4C455F45 
 9497      56545F53 
 9497      45545F43 
 9497      4F4E4E5F 
 9498              	.LASF286:
 9499 2a91 57494E44 		.ascii	"WINDOW_WIDEN_WINOFF\000"
 9499      4F575F57 
 9499      4944454E 
 9499      5F57494E 
 9499      4F464600 
 9500              	.LASF660:
 9501 2aa5 43595F42 		.ascii	"CY_BLE_EVT_L2CAP_CBFC_DISCONN_CNF\000"
 9501      4C455F45 
 9501      56545F4C 
 9501      32434150 
 9501      5F434246 
 9502              	.LASF336:
ARM GAS  C:\Users\kateb\AppData\Local\Temp\cciDLH78.s 			page 229


 9503 2ac7 434F4E4E 		.ascii	"CONN_CONFIG_EXT\000"
 9503      5F434F4E 
 9503      4649475F 
 9503      45585400 
 9504              	.LASF207:
 9505 2ad7 5243424C 		.ascii	"RCBLL\000"
 9505      4C00
 9506              	.LASF947:
 9507 2add 43595F42 		.ascii	"CY_BLE_CTS_LOCAL_TIME_INFO\000"
 9507      4C455F43 
 9507      54535F4C 
 9507      4F43414C 
 9507      5F54494D 
 9508              	.LASF610:
 9509 2af8 43595F42 		.ascii	"CY_BLE_EVT_GAP_DEVICE_DISCONNECTED\000"
 9509      4C455F45 
 9509      56545F47 
 9509      41505F44 
 9509      45564943 
 9510              	.LASF528:
 9511 2b1b 43595F53 		.ascii	"CY_SYSPM_DEEPSLEEP\000"
 9511      5953504D 
 9511      5F444545 
 9511      50534C45 
 9511      455000
 9512              	.LASF854:
 9513 2b2e 70726566 		.ascii	"prefConnParamCharHandle\000"
 9513      436F6E6E 
 9513      50617261 
 9513      6D436861 
 9513      7248616E 
 9514              	.LASF873:
 9515 2b46 736C6F77 		.ascii	"slowScanInterval\000"
 9515      5363616E 
 9515      496E7465 
 9515      7276616C 
 9515      00
 9516              	.LASF490:
 9517 2b57 4449565F 		.ascii	"DIV_BY_625_STS\000"
 9517      42595F36 
 9517      32355F53 
 9517      545300
 9518              	.LASF619:
 9519 2b66 43595F42 		.ascii	"CY_BLE_EVT_GAPC_DIRECT_ADV_REPORT\000"
 9519      4C455F45 
 9519      56545F47 
 9519      4150435F 
 9519      44495245 
 9520              	.LASF1016:
 9521 2b88 43795F53 		.ascii	"Cy_SysLib_ExitCriticalSection\000"
 9521      79734C69 
 9521      625F4578 
 9521      69744372 
 9521      69746963 
 9522              	.LASF191:
 9523 2ba6 52414449 		.ascii	"RADIO_REG5_ADDR\000"
 9523      4F5F5245 
ARM GAS  C:\Users\kateb\AppData\Local\Temp\cciDLH78.s 			page 230


 9523      47355F41 
 9523      44445200 
 9524              	.LASF823:
 9525 2bb6 61647644 		.ascii	"advData\000"
 9525      61746100 
 9526              	.LASF748:
 9527 2bbe 43595F42 		.ascii	"CY_BLE_BLESS_STATE_ACTIVE\000"
 9527      4C455F42 
 9527      4C455353 
 9527      5F535441 
 9527      54455F41 
 9528              	.LASF361:
 9529 2bd8 52455345 		.ascii	"RESERVED30\000"
 9529      52564544 
 9529      333000
 9530              	.LASF373:
 9531 2be3 52455345 		.ascii	"RESERVED31\000"
 9531      52564544 
 9531      333100
 9532              	.LASF377:
 9533 2bee 52455345 		.ascii	"RESERVED32\000"
 9533      52564544 
 9533      333200
 9534              	.LASF379:
 9535 2bf9 52455345 		.ascii	"RESERVED33\000"
 9535      52564544 
 9535      333300
 9536              	.LASF385:
 9537 2c04 52455345 		.ascii	"RESERVED34\000"
 9537      52564544 
 9537      333400
 9538              	.LASF387:
 9539 2c0f 52455345 		.ascii	"RESERVED35\000"
 9539      52564544 
 9539      333500
 9540              	.LASF633:
 9541 2c1a 43595F42 		.ascii	"CY_BLE_EVT_GATTC_XCHNG_MTU_RSP\000"
 9541      4C455F45 
 9541      56545F47 
 9541      41545443 
 9541      5F584348 
 9542              	.LASF391:
 9543 2c39 52455345 		.ascii	"RESERVED37\000"
 9543      52564544 
 9543      333700
 9544              	.LASF393:
 9545 2c44 52455345 		.ascii	"RESERVED38\000"
 9545      52564544 
 9545      333800
 9546              	.LASF773:
 9547 2c4f 43595F42 		.ascii	"CY_BLE_GAP_IOCAP_KEYBOARD_DISPLAY\000"
 9547      4C455F47 
 9547      41505F49 
 9547      4F434150 
 9547      5F4B4559 
 9548              	.LASF495:
 9549 2c71 454E435F 		.ascii	"ENC_KEY\000"
ARM GAS  C:\Users\kateb\AppData\Local\Temp\cciDLH78.s 			page 231


 9549      4B455900 
 9550              	.LASF567:
 9551 2c79 43595F42 		.ascii	"CY_BLE_EVT_GET_PEER_RPA_COMPLETE\000"
 9551      4C455F45 
 9551      56545F47 
 9551      45545F50 
 9551      4545525F 
 9552              	.LASF592:
 9553 2c9a 43595F42 		.ascii	"CY_BLE_EVT_AES_CCM_ENCRYPT_COMPLETE\000"
 9553      4C455F45 
 9553      56545F41 
 9553      45535F43 
 9553      434D5F45 
 9554              	.LASF728:
 9555 2cbe 746F7461 		.ascii	"totalHeapSz\000"
 9555      6C486561 
 9555      70537A00 
 9556              	.LASF651:
 9557 2cca 43595F42 		.ascii	"CY_BLE_EVT_GATTC_STOP_CMD_COMPLETE\000"
 9557      4C455F45 
 9557      56545F47 
 9557      41545443 
 9557      5F53544F 
 9558              	.LASF32:
 9559 2ced 696F7373 		.ascii	"ioss_interrupts_gpio_0_IRQn\000"
 9559      5F696E74 
 9559      65727275 
 9559      7074735F 
 9559      6770696F 
 9560              	.LASF1019:
 9561 2d09 43795F49 		.ascii	"Cy_IPC_SystemPipeInit\000"
 9561      50435F53 
 9561      79737465 
 9561      6D506970 
 9561      65496E69 
 9562              	.LASF130:
 9563 2d1f 74637077 		.ascii	"tcpwm_1_interrupts_0_IRQn\000"
 9563      6D5F315F 
 9563      696E7465 
 9563      72727570 
 9563      74735F30 
 9564              	.LASF46:
 9565 2d39 696F7373 		.ascii	"ioss_interrupts_gpio_14_IRQn\000"
 9565      5F696E74 
 9565      65727275 
 9565      7074735F 
 9565      6770696F 
 9566              	.LASF552:
 9567 2d56 43595F42 		.ascii	"CY_BLE_EVT_TIMEOUT\000"
 9567      4C455F45 
 9567      56545F54 
 9567      494D454F 
 9567      555400
 9568              	.LASF143:
 9569 2d69 74637077 		.ascii	"tcpwm_1_interrupts_13_IRQn\000"
 9569      6D5F315F 
 9569      696E7465 
ARM GAS  C:\Users\kateb\AppData\Local\Temp\cciDLH78.s 			page 232


 9569      72727570 
 9569      74735F31 
 9570              	.LASF15:
 9571 2d84 73697A65 		.ascii	"sizetype\000"
 9571      74797065 
 9571      00
 9572              	.LASF688:
 9573 2d8d 43595F42 		.ascii	"CY_BLE_ERROR_MIC_AUTH_FAILED\000"
 9573      4C455F45 
 9573      52524F52 
 9573      5F4D4943 
 9573      5F415554 
 9574              	.LASF25:
 9575 2daa 4D656D6F 		.ascii	"MemoryManagement_IRQn\000"
 9575      72794D61 
 9575      6E616765 
 9575      6D656E74 
 9575      5F495251 
 9576              	.LASF190:
 9577 2dc0 52414449 		.ascii	"RADIO_REG4_ADDR\000"
 9577      4F5F5245 
 9577      47345F41 
 9577      44445200 
 9578              	.LASF973:
 9579 2dd0 696E7465 		.ascii	"interruptState\000"
 9579      72727570 
 9579      74537461 
 9579      746500
 9580              	.LASF249:
 9581 2ddf 434F4E4E 		.ascii	"CONN_STATUS\000"
 9581      5F535441 
 9581      54555300 
 9582              	.LASF794:
 9583 2deb 73656375 		.ascii	"security\000"
 9583      72697479 
 9583      00
 9584              	.LASF397:
 9585 2df4 52455345 		.ascii	"RESERVED40\000"
 9585      52564544 
 9585      343000
 9586              	.LASF399:
 9587 2dff 52455345 		.ascii	"RESERVED41\000"
 9587      52564544 
 9587      343100
 9588              	.LASF404:
 9589 2e0a 52455345 		.ascii	"RESERVED42\000"
 9589      52564544 
 9589      343200
 9590              	.LASF417:
 9591 2e15 52455345 		.ascii	"RESERVED43\000"
 9591      52564544 
 9591      343300
 9592              	.LASF421:
 9593 2e20 52455345 		.ascii	"RESERVED44\000"
 9593      52564544 
 9593      343400
 9594              	.LASF423:
ARM GAS  C:\Users\kateb\AppData\Local\Temp\cciDLH78.s 			page 233


 9595 2e2b 52455345 		.ascii	"RESERVED45\000"
 9595      52564544 
 9595      343500
 9596              	.LASF427:
 9597 2e36 52455345 		.ascii	"RESERVED46\000"
 9597      52564544 
 9597      343600
 9598              	.LASF431:
 9599 2e41 52455345 		.ascii	"RESERVED47\000"
 9599      52564544 
 9599      343700
 9600              	.LASF76:
 9601 2e4c 7363625F 		.ascii	"scb_3_interrupt_IRQn\000"
 9601      335F696E 
 9601      74657272 
 9601      7570745F 
 9601      4952516E 
 9602              	.LASF876:
 9603 2e61 67617063 		.ascii	"gapcConnectionIntervalMin\000"
 9603      436F6E6E 
 9603      65637469 
 9603      6F6E496E 
 9603      74657276 
 9604              	.LASF415:
 9605 2e7b 55535F43 		.ascii	"US_CAPT_PREV\000"
 9605      4150545F 
 9605      50524556 
 9605      00
 9606              	.LASF9:
 9607 2e88 73686F72 		.ascii	"short unsigned int\000"
 9607      7420756E 
 9607      7369676E 
 9607      65642069 
 9607      6E7400
 9608              	.LASF3:
 9609 2e9b 7369676E 		.ascii	"signed char\000"
 9609      65642063 
 9609      68617200 
 9610              	.LASF40:
 9611 2ea7 696F7373 		.ascii	"ioss_interrupts_gpio_8_IRQn\000"
 9611      5F696E74 
 9611      65727275 
 9611      7074735F 
 9611      6770696F 
 9612              	.LASF298:
 9613 2ec3 4144565F 		.ascii	"ADV_CH_TX_POWER_LVL_LS\000"
 9613      43485F54 
 9613      585F504F 
 9613      5745525F 
 9613      4C564C5F 
 9614              	.LASF45:
 9615 2eda 696F7373 		.ascii	"ioss_interrupts_gpio_13_IRQn\000"
 9615      5F696E74 
 9615      65727275 
 9615      7074735F 
 9615      6770696F 
 9616              	.LASF117:
ARM GAS  C:\Users\kateb\AppData\Local\Temp\cciDLH78.s 			page 234


 9617 2ef7 63707573 		.ascii	"cpuss_interrupt_fm_IRQn\000"
 9617      735F696E 
 9617      74657272 
 9617      7570745F 
 9617      666D5F49 
 9618              	.LASF142:
 9619 2f0f 74637077 		.ascii	"tcpwm_1_interrupts_12_IRQn\000"
 9619      6D5F315F 
 9619      696E7465 
 9619      72727570 
 9619      74735F31 
 9620              	.LASF289:
 9621 2f2a 44544D5F 		.ascii	"DTM_RX_PKT_COUNT\000"
 9621      52585F50 
 9621      4B545F43 
 9621      4F554E54 
 9621      00
 9622              	.LASF369:
 9623 2f3b 4C455F50 		.ascii	"LE_PING_TIMER_ADDR\000"
 9623      494E475F 
 9623      54494D45 
 9623      525F4144 
 9623      445200
 9624              	.LASF892:
 9625 2f4e 7065726D 		.ascii	"permission\000"
 9625      69737369 
 9625      6F6E00
 9626              	.LASF307:
 9627 2f59 4144565F 		.ascii	"ADV_CONFIG\000"
 9627      434F4E46 
 9627      494700
 9628              	.LASF715:
 9629 2f64 6C326361 		.ascii	"l2capConfig\000"
 9629      70436F6E 
 9629      66696700 
 9630              	.LASF331:
 9631 2f70 50454552 		.ascii	"PEER_ADDR_INIT_H\000"
 9631      5F414444 
 9631      525F494E 
 9631      49545F48 
 9631      00
 9632              	.LASF329:
 9633 2f81 50454552 		.ascii	"PEER_ADDR_INIT_L\000"
 9633      5F414444 
 9633      525F494E 
 9633      49545F4C 
 9633      00
 9634              	.LASF330:
 9635 2f92 50454552 		.ascii	"PEER_ADDR_INIT_M\000"
 9635      5F414444 
 9635      525F494E 
 9635      49545F4D 
 9635      00
 9636              	.LASF443:
 9637 2fa3 52455345 		.ascii	"RESERVED50\000"
 9637      52564544 
 9637      353000
ARM GAS  C:\Users\kateb\AppData\Local\Temp\cciDLH78.s 			page 235


 9638              	.LASF446:
 9639 2fae 52455345 		.ascii	"RESERVED51\000"
 9639      52564544 
 9639      353100
 9640              	.LASF450:
 9641 2fb9 52455345 		.ascii	"RESERVED52\000"
 9641      52564544 
 9641      353200
 9642              	.LASF452:
 9643 2fc4 52455345 		.ascii	"RESERVED53\000"
 9643      52564544 
 9643      353300
 9644              	.LASF454:
 9645 2fcf 52455345 		.ascii	"RESERVED54\000"
 9645      52564544 
 9645      353400
 9646              	.LASF456:
 9647 2fda 52455345 		.ascii	"RESERVED55\000"
 9647      52564544 
 9647      353500
 9648              	.LASF458:
 9649 2fe5 52455345 		.ascii	"RESERVED56\000"
 9649      52564544 
 9649      353600
 9650              	.LASF460:
 9651 2ff0 52455345 		.ascii	"RESERVED57\000"
 9651      52564544 
 9651      353700
 9652              	.LASF462:
 9653 2ffb 52455345 		.ascii	"RESERVED58\000"
 9653      52564544 
 9653      353800
 9654              	.LASF178:
 9655 3006 70617373 		.ascii	"pass_interrupt_dacs_IRQn\000"
 9655      5F696E74 
 9655      65727275 
 9655      70745F64 
 9655      6163735F 
 9656              	.LASF499:
 9657 301f 454E435F 		.ascii	"ENC_CONFIG\000"
 9657      434F4E46 
 9657      494700
 9658              	.LASF786:
 9659 302a 43595F42 		.ascii	"CY_BLE_GAP_AUTH_ERROR_DHKEY_CHECK_FAILED\000"
 9659      4C455F47 
 9659      41505F41 
 9659      5554485F 
 9659      4552524F 
 9660              	.LASF141:
 9661 3053 74637077 		.ascii	"tcpwm_1_interrupts_11_IRQn\000"
 9661      6D5F315F 
 9661      696E7465 
 9661      72727570 
 9661      74735F31 
 9662              	.LASF299:
 9663 306e 4144565F 		.ascii	"ADV_CH_TX_POWER_LVL_MS\000"
 9663      43485F54 
ARM GAS  C:\Users\kateb\AppData\Local\Temp\cciDLH78.s 			page 236


 9663      585F504F 
 9663      5745525F 
 9663      4C564C5F 
 9664              	.LASF576:
 9665 3085 43595F42 		.ascii	"CY_BLE_EVT_GET_PHY_COMPLETE\000"
 9665      4C455F45 
 9665      56545F47 
 9665      45545F50 
 9665      48595F43 
 9666              	.LASF987:
 9667 30a1 43795F42 		.ascii	"Cy_BLE_ConfigureExtPA\000"
 9667      4C455F43 
 9667      6F6E6669 
 9667      67757265 
 9667      45787450 
 9668              	.LASF675:
 9669 30b7 43595F42 		.ascii	"CY_BLE_ERROR_NO_DEVICE_ENTITY\000"
 9669      4C455F45 
 9669      52524F52 
 9669      5F4E4F5F 
 9669      44455649 
 9670              	.LASF367:
 9671 30d5 534C565F 		.ascii	"SLV_WIN_ADJ\000"
 9671      57494E5F 
 9671      41444A00 
 9672              	.LASF825:
 9673 30e1 63795F73 		.ascii	"cy_stc_ble_gapp_disc_data_t\000"
 9673      74635F62 
 9673      6C655F67 
 9673      6170705F 
 9673      64697363 
 9674              	.LASF968:
 9675 30fd 43595F49 		.ascii	"CY_IPC_SEMA_NOT_ACQUIRED\000"
 9675      50435F53 
 9675      454D415F 
 9675      4E4F545F 
 9675      41435155 
 9676              	.LASF705:
 9677 3116 63795F73 		.ascii	"cy_stc_ble_dle_config_param_t\000"
 9677      74635F62 
 9677      6C655F64 
 9677      6C655F63 
 9677      6F6E6669 
 9678              	.LASF981:
 9679 3134 43795F42 		.ascii	"Cy_BLE_Enable\000"
 9679      4C455F45 
 9679      6E61626C 
 9679      6500
 9680              	.LASF203:
 9681 3142 52585F46 		.ascii	"RX_FIFO_CTRL\000"
 9681      49464F5F 
 9681      4354524C 
 9681      00
 9682              	.LASF200:
 9683 314f 54585F46 		.ascii	"TX_FIFO_STATUS\000"
 9683      49464F5F 
 9683      53544154 
ARM GAS  C:\Users\kateb\AppData\Local\Temp\cciDLH78.s 			page 237


 9683      555300
 9684              	.LASF627:
 9685 315e 43595F42 		.ascii	"CY_BLE_EVT_GAPP_UPDATE_ADV_SCAN_DATA_COMPLETE\000"
 9685      4C455F45 
 9685      56545F47 
 9685      4150505F 
 9685      55504441 
 9686              	.LASF371:
 9687 318c 4C455F50 		.ascii	"LE_PING_TIMER_NEXT_EXP\000"
 9687      494E475F 
 9687      54494D45 
 9687      525F4E45 
 9687      58545F45 
 9688              	.LASF638:
 9689 31a3 43595F42 		.ascii	"CY_BLE_EVT_GATTC_READ_RSP\000"
 9689      4C455F45 
 9689      56545F47 
 9689      41545443 
 9689      5F524541 
 9690              	.LASF520:
 9691 31bd 43595F53 		.ascii	"CY_SYSPM_SUCCESS\000"
 9691      5953504D 
 9691      5F535543 
 9691      43455353 
 9691      00
 9692              	.LASF989:
 9693 31ce 43795F42 		.ascii	"Cy_BLE_RegisterAppHostCallback\000"
 9693      4C455F52 
 9693      65676973 
 9693      74657241 
 9693      7070486F 
 9694              	.LASF984:
 9695 31ed 6462496E 		.ascii	"dbInfoParam\000"
 9695      666F5061 
 9695      72616D00 
 9696              	.LASF648:
 9697 31f9 43595F42 		.ascii	"CY_BLE_EVT_GATTC_HANDLE_VALUE_IND\000"
 9697      4C455F45 
 9697      56545F47 
 9697      41545443 
 9697      5F48414E 
 9698              	.LASF140:
 9699 321b 74637077 		.ascii	"tcpwm_1_interrupts_10_IRQn\000"
 9699      6D5F315F 
 9699      696E7465 
 9699      72727570 
 9699      74735F31 
 9700              	.LASF1031:
 9701 3236 73746174 		.ascii	"state\000"
 9701      6500
 9702              	.LASF650:
 9703 323c 43595F42 		.ascii	"CY_BLE_EVT_GATTS_DATA_SIGNED_CMD_REQ\000"
 9703      4C455F45 
 9703      56545F47 
 9703      41545453 
 9703      5F444154 
 9704              	.LASF764:
ARM GAS  C:\Users\kateb\AppData\Local\Temp\cciDLH78.s 			page 238


 9705 3261 63795F62 		.ascii	"cy_ble_uuid_t\000"
 9705      6C655F75 
 9705      7569645F 
 9705      7400
 9706              	.LASF770:
 9707 326f 43595F42 		.ascii	"CY_BLE_GAP_IOCAP_DISPLAY_YESNO\000"
 9707      4C455F47 
 9707      41505F49 
 9707      4F434150 
 9707      5F444953 
 9708              	.LASF546:
 9709 328e 63616C6C 		.ascii	"callbackParams\000"
 9709      6261636B 
 9709      50617261 
 9709      6D7300
 9710              	.LASF861:
 9711 329d 66617374 		.ascii	"fastAdvIntervalMin\000"
 9711      41647649 
 9711      6E746572 
 9711      76616C4D 
 9711      696E00
 9712              	.LASF865:
 9713 32b0 736C6F77 		.ascii	"slowAdvIntervalMin\000"
 9713      41647649 
 9713      6E746572 
 9713      76616C4D 
 9713      696E00
 9714              	.LASF839:
 9715 32c3 43595F42 		.ascii	"CY_BLE_ADV_STATE_ADVERTISING\000"
 9715      4C455F41 
 9715      44565F53 
 9715      54415445 
 9715      5F414456 
 9716              	.LASF815:
 9717 32e0 61647649 		.ascii	"advIntvMin\000"
 9717      6E74764D 
 9717      696E00
 9718              	.LASF623:
 9719 32eb 43595F42 		.ascii	"CY_BLE_EVT_GAP_RESOLVE_DEVICE_COMPLETE\000"
 9719      4C455F45 
 9719      56545F47 
 9719      41505F52 
 9719      45534F4C 
 9720              	.LASF897:
 9721 3312 67617474 		.ascii	"gattDbTotalEntries\000"
 9721      4462546F 
 9721      74616C45 
 9721      6E747269 
 9721      657300
 9722              	.LASF543:
 9723 3325 63616C6C 		.ascii	"callback\000"
 9723      6261636B 
 9723      00
 9724              	.LASF752:
 9725 332e 43595F42 		.ascii	"CY_BLE_BLESS_STATE_DEEPSLEEP\000"
 9725      4C455F42 
 9725      4C455353 
ARM GAS  C:\Users\kateb\AppData\Local\Temp\cciDLH78.s 			page 239


 9725      5F535441 
 9725      54455F44 
 9726              	.LASF625:
 9727 334b 43595F42 		.ascii	"CY_BLE_EVT_GAP_CREATE_CONN_CANCEL_COMPLETE\000"
 9727      4C455F45 
 9727      56545F47 
 9727      41505F43 
 9727      52454154 
 9728              	.LASF948:
 9729 3376 43595F42 		.ascii	"CY_BLE_CTS_REFERENCE_TIME_INFO\000"
 9729      4C455F43 
 9729      54535F52 
 9729      45464552 
 9729      454E4345 
 9730              	.LASF163:
 9731 3395 7564625F 		.ascii	"udb_interrupts_9_IRQn\000"
 9731      696E7465 
 9731      72727570 
 9731      74735F39 
 9731      5F495251 
 9732              	.LASF342:
 9733 33ab 494E4954 		.ascii	"INIT_WINDOW_NI_ANCHOR_PT\000"
 9733      5F57494E 
 9733      444F575F 
 9733      4E495F41 
 9733      4E43484F 
 9734              	.LASF912:
 9735 33c4 63636364 		.ascii	"cccdHandle\000"
 9735      48616E64 
 9735      6C6500
 9736              	.LASF84:
 9737 33cf 63707573 		.ascii	"cpuss_interrupts_dw0_2_IRQn\000"
 9737      735F696E 
 9737      74657272 
 9737      75707473 
 9737      5F647730 
 9738              	.LASF306:
 9739 33eb 4F464653 		.ascii	"OFFSET_TO_FIRST_INSTANT\000"
 9739      45545F54 
 9739      4F5F4649 
 9739      5253545F 
 9739      494E5354 
 9740              	.LASF449:
 9741 3403 4D4D4D53 		.ascii	"MMMS_RX_PKT_CNTR\000"
 9741      5F52585F 
 9741      504B545F 
 9741      434E5452 
 9741      00
 9742              	.LASF257:
 9743 3414 57414B45 		.ascii	"WAKEUP_CONFIG_EXTD\000"
 9743      55505F43 
 9743      4F4E4649 
 9743      475F4558 
 9743      544400
 9744              	.LASF281:
 9745 3427 434F4E4E 		.ascii	"CONN_EXT_INTR_MASK\000"
 9745      5F455854 
ARM GAS  C:\Users\kateb\AppData\Local\Temp\cciDLH78.s 			page 240


 9745      5F494E54 
 9745      525F4D41 
 9745      534B00
 9746              	.LASF669:
 9747 343a 43595F42 		.ascii	"CY_BLE_ERROR_INVALID_PARAMETER\000"
 9747      4C455F45 
 9747      52524F52 
 9747      5F494E56 
 9747      414C4944 
 9748              	.LASF88:
 9749 3459 63707573 		.ascii	"cpuss_interrupts_dw0_6_IRQn\000"
 9749      735F696E 
 9749      74657272 
 9749      75707473 
 9749      5F647730 
 9750              	.LASF502:
 9751 3475 42315F44 		.ascii	"B1_DATA_REG\000"
 9751      4154415F 
 9751      52454700 
 9752              	.LASF548:
 9753 3481 6E657874 		.ascii	"nextItm\000"
 9753      49746D00 
 9754              	.LASF162:
 9755 3489 7564625F 		.ascii	"udb_interrupts_8_IRQn\000"
 9755      696E7465 
 9755      72727570 
 9755      74735F38 
 9755      5F495251 
 9756              	.LASF547:
 9757 349f 70726576 		.ascii	"prevItm\000"
 9757      49746D00 
 9758              	.LASF518:
 9759 34a7 696E7472 		.ascii	"intrPriority\000"
 9759      5072696F 
 9759      72697479 
 9759      00
 9760              	.LASF363:
 9761 34b4 4E455854 		.ascii	"NEXT_RESP_TIMER_EXP\000"
 9761      5F524553 
 9761      505F5449 
 9761      4D45525F 
 9761      45585000 
 9762              	.LASF808:
 9763 34c8 63795F73 		.ascii	"cy_stc_ble_gapc_disc_info_t\000"
 9763      74635F62 
 9763      6C655F67 
 9763      6170635F 
 9763      64697363 
 9764              	.LASF405:
 9765 34e4 434F4E4E 		.ascii	"CONN_NI_STATUS\000"
 9765      5F4E495F 
 9765      53544154 
 9765      555300
 9766              	.LASF857:
 9767 34f3 63795F73 		.ascii	"cy_stc_ble_gaps_t\000"
 9767      74635F62 
 9767      6C655F67 
ARM GAS  C:\Users\kateb\AppData\Local\Temp\cciDLH78.s 			page 241


 9767      6170735F 
 9767      7400
 9768              	.LASF83:
 9769 3505 63707573 		.ascii	"cpuss_interrupts_dw0_1_IRQn\000"
 9769      735F696E 
 9769      74657272 
 9769      75707473 
 9769      5F647730 
 9770              	.LASF654:
 9771 3521 43595F42 		.ascii	"CY_BLE_EVT_L2CAP_CONN_PARAM_UPDATE_REQ\000"
 9771      4C455F45 
 9771      56545F4C 
 9771      32434150 
 9771      5F434F4E 
 9772              	.LASF841:
 9773 3548 63795F65 		.ascii	"cy_en_ble_adv_state_t\000"
 9773      6E5F626C 
 9773      655F6164 
 9773      765F7374 
 9773      6174655F 
 9774              	.LASF1005:
 9775 355e 63795F62 		.ascii	"cy_ble_stackMemoryRam\000"
 9775      6C655F73 
 9775      7461636B 
 9775      4D656D6F 
 9775      72795261 
 9776              	.LASF11:
 9777 3574 6C6F6E67 		.ascii	"long int\000"
 9777      20696E74 
 9777      00
 9778              	.LASF184:
 9779 357d 494E5452 		.ascii	"INTR_SET\000"
 9779      5F534554 
 9779      00
 9780              	.LASF992:
 9781 3586 626C6544 		.ascii	"bleDeepSleepCallback\000"
 9781      65657053 
 9781      6C656570 
 9781      43616C6C 
 9781      6261636B 
 9782              	.LASF696:
 9783 359b 43595F42 		.ascii	"CY_BLE_ERROR_MAX\000"
 9783      4C455F45 
 9783      52524F52 
 9783      5F4D4158 
 9783      00
 9784              	.LASF464:
 9785 35ac 44444654 		.ascii	"DDFT_CONFIG\000"
 9785      5F434F4E 
 9785      46494700 
 9786              	.LASF755:
 9787 35b8 63795F65 		.ascii	"cy_en_ble_bless_state_t\000"
 9787      6E5F626C 
 9787      655F626C 
 9787      6573735F 
 9787      73746174 
 9788              	.LASF906:
ARM GAS  C:\Users\kateb\AppData\Local\Temp\cciDLH78.s 			page 242


 9789 35d0 75756964 		.ascii	"uuidFormat\000"
 9789      466F726D 
 9789      617400
 9790              	.LASF100:
 9791 35db 63707573 		.ascii	"cpuss_interrupts_dw1_2_IRQn\000"
 9791      735F696E 
 9791      74657272 
 9791      75707473 
 9791      5F647731 
 9792              	.LASF534:
 9793 35f7 43595F53 		.ascii	"CY_SYSPM_CHECK_FAIL\000"
 9793      5953504D 
 9793      5F434845 
 9793      434B5F46 
 9793      41494C00 
 9794              	.LASF161:
 9795 360b 7564625F 		.ascii	"udb_interrupts_7_IRQn\000"
 9795      696E7465 
 9795      72727570 
 9795      74735F37 
 9795      5F495251 
 9796              	.LASF871:
 9797 3621 66617374 		.ascii	"fastScanTimeOut\000"
 9797      5363616E 
 9797      54696D65 
 9797      4F757400 
 9798              	.LASF672:
 9799 3631 43595F42 		.ascii	"CY_BLE_ERROR_INSUFFICIENT_RESOURCES\000"
 9799      4C455F45 
 9799      52524F52 
 9799      5F494E53 
 9799      55464649 
 9800              	.LASF845:
 9801 3655 43595F42 		.ascii	"CY_BLE_CONN_STATE_CLIENT_SRVC_DISCOVERING\000"
 9801      4C455F43 
 9801      4F4E4E5F 
 9801      53544154 
 9801      455F434C 
 9802              	.LASF565:
 9803 367f 43595F42 		.ascii	"CY_BLE_EVT_GET_DATA_LENGTH_COMPLETE\000"
 9803      4C455F45 
 9803      56545F47 
 9803      45545F44 
 9803      4154415F 
 9804              	.LASF82:
 9805 36a3 63707573 		.ascii	"cpuss_interrupts_dw0_0_IRQn\000"
 9805      735F696E 
 9805      74657272 
 9805      75707473 
 9805      5F647730 
 9806              	.LASF63:
 9807 36bf 63707573 		.ascii	"cpuss_interrupts_ipc_6_IRQn\000"
 9807      735F696E 
 9807      74657272 
 9807      75707473 
 9807      5F697063 
 9808              	.LASF700:
ARM GAS  C:\Users\kateb\AppData\Local\Temp\cciDLH78.s 			page 243


 9809 36db 63795F73 		.ascii	"cy_stc_ble_bd_addr_t\000"
 9809      74635F62 
 9809      6C655F62 
 9809      645F6164 
 9809      64725F74 
 9810              	.LASF220:
 9811 36f0 5343414E 		.ascii	"SCAN_INTR\000"
 9811      5F494E54 
 9811      5200
 9812              	.LASF557:
 9813 36fa 43595F42 		.ascii	"CY_BLE_EVT_HARDWARE_ERROR\000"
 9813      4C455F45 
 9813      56545F48 
 9813      41524457 
 9813      4152455F 
 9814              	.LASF787:
 9815 3714 43595F42 		.ascii	"CY_BLE_GAP_AUTH_ERROR_NUMERIC_COMPARISON_FAILED\000"
 9815      4C455F47 
 9815      41505F41 
 9815      5554485F 
 9815      4552524F 
 9816              	.LASF887:
 9817 3744 61747446 		.ascii	"attFormatValue\000"
 9817      6F726D61 
 9817      7456616C 
 9817      756500
 9818              	.LASF1017:
 9819 3753 43795F53 		.ascii	"Cy_SysPm_UnregisterCallback\000"
 9819      7973506D 
 9819      5F556E72 
 9819      65676973 
 9819      74657243 
 9820              	.LASF324:
 9821 376f 4C4C5F44 		.ascii	"LL_DBG_7\000"
 9821      42475F37 
 9821      00
 9822              	.LASF325:
 9823 3778 4C4C5F44 		.ascii	"LL_DBG_8\000"
 9823      42475F38 
 9823      00
 9824              	.LASF99:
 9825 3781 63707573 		.ascii	"cpuss_interrupts_dw1_1_IRQn\000"
 9825      735F696E 
 9825      74657272 
 9825      75707473 
 9825      5F647731 
 9826              	.LASF679:
 9827 379d 43595F42 		.ascii	"CY_BLE_ERROR_SEC_FAILED\000"
 9827      4C455F45 
 9827      52524F52 
 9827      5F534543 
 9827      5F464149 
 9828              	.LASF194:
 9829 37b5 4350555F 		.ascii	"CPU_READ_REG\000"
 9829      52454144 
 9829      5F524547 
 9829      00
ARM GAS  C:\Users\kateb\AppData\Local\Temp\cciDLH78.s 			page 244


 9830              	.LASF1011:
 9831 37c2 63795F62 		.ascii	"cy_ble_serverInfo\000"
 9831      6C655F73 
 9831      65727665 
 9831      72496E66 
 9831      6F00
 9832              	.LASF540:
 9833 37d4 636F6E74 		.ascii	"context\000"
 9833      65787400 
 9834              	.LASF739:
 9835 37dc 43595F42 		.ascii	"CY_BLE_LL_PWR_LVL_NEG_12_DBM\000"
 9835      4C455F4C 
 9835      4C5F5057 
 9835      525F4C56 
 9835      4C5F4E45 
 9836              	.LASF436:
 9837 37f9 434F4E4E 		.ascii	"CONN_4_DATA_LIST_SENT\000"
 9837      5F345F44 
 9837      4154415F 
 9837      4C495354 
 9837      5F53454E 
 9838              	.LASF62:
 9839 380f 63707573 		.ascii	"cpuss_interrupts_ipc_5_IRQn\000"
 9839      735F696E 
 9839      74657272 
 9839      75707473 
 9839      5F697063 
 9840              	.LASF789:
 9841 382b 43595F42 		.ascii	"CY_BLE_GAP_AUTH_ERROR_CROSS_TRANSPORT_KEY_GEN_DER_N"
 9841      4C455F47 
 9841      41505F41 
 9841      5554485F 
 9841      4552524F 
 9842 385e 4F545F41 		.ascii	"OT_ALLOWED\000"
 9842      4C4C4F57 
 9842      454400
 9843              	.LASF234:
 9844 3869 50454552 		.ascii	"PEER_ADDR_H\000"
 9844      5F414444 
 9844      525F4800 
 9845              	.LASF55:
 9846 3875 70617373 		.ascii	"pass_interrupt_ctbs_IRQn\000"
 9846      5F696E74 
 9846      65727275 
 9846      70745F63 
 9846      7462735F 
 9847              	.LASF233:
 9848 388e 50454552 		.ascii	"PEER_ADDR_M\000"
 9848      5F414444 
 9848      525F4D00 
 9849              	.LASF733:
 9850 389a 4379426C 		.ascii	"CyBleAppCbFunc\000"
 9850      65417070 
 9850      43624675 
 9850      6E6300
 9851              	.LASF204:
 9852 38a9 52585F46 		.ascii	"RX_FIFO_STATUS\000"
ARM GAS  C:\Users\kateb\AppData\Local\Temp\cciDLH78.s 			page 245


 9852      49464F5F 
 9852      53544154 
 9852      555300
 9853              	.LASF156:
 9854 38b8 7564625F 		.ascii	"udb_interrupts_2_IRQn\000"
 9854      696E7465 
 9854      72727570 
 9854      74735F32 
 9854      5F495251 
 9855              	.LASF643:
 9856 38ce 43595F42 		.ascii	"CY_BLE_EVT_GATTS_WRITE_CMD_REQ\000"
 9856      4C455F45 
 9856      56545F47 
 9856      41545453 
 9856      5F575249 
 9857              	.LASF803:
 9858 38ed 7363616E 		.ascii	"scanWindow\000"
 9858      57696E64 
 9858      6F7700
 9859              	.LASF255:
 9860 38f8 434C4F43 		.ascii	"CLOCK_CONFIG\000"
 9860      4B5F434F 
 9860      4E464947 
 9860      00
 9861              	.LASF569:
 9862 3905 43595F42 		.ascii	"CY_BLE_EVT_SET_RPA_TO_COMPLETE\000"
 9862      4C455F45 
 9862      56545F53 
 9862      45545F52 
 9862      50415F54 
 9863              	.LASF2:
 9864 3924 6C6F6E67 		.ascii	"long double\000"
 9864      20646F75 
 9864      626C6500 
 9865              	.LASF971:
 9866 3930 43595F49 		.ascii	"CY_IPC_SEMA_STATUS_UNLOCKED\000"
 9866      50435F53 
 9866      454D415F 
 9866      53544154 
 9866      55535F55 
 9867              	.LASF61:
 9868 394c 63707573 		.ascii	"cpuss_interrupts_ipc_4_IRQn\000"
 9868      735F696E 
 9868      74657272 
 9868      75707473 
 9868      5F697063 
 9869              	.LASF271:
 9870 3968 5044555F 		.ascii	"PDU_ACCESS_ADDR_L_REGISTER\000"
 9870      41434345 
 9870      53535F41 
 9870      4444525F 
 9870      4C5F5245 
 9871              	.LASF267:
 9872 3983 434F4E4E 		.ascii	"CONN_INTERVAL\000"
 9872      5F494E54 
 9872      45525641 
 9872      4C00
ARM GAS  C:\Users\kateb\AppData\Local\Temp\cciDLH78.s 			page 246


 9873              	.LASF895:
 9874 3991 63795F73 		.ascii	"cy_stc_ble_gatts_db_t\000"
 9874      74635F62 
 9874      6C655F67 
 9874      61747473 
 9874      5F64625F 
 9875              	.LASF308:
 9876 39a7 5343414E 		.ascii	"SCAN_CONFIG\000"
 9876      5F434F4E 
 9876      46494700 
 9877              	.LASF13:
 9878 39b3 6C6F6E67 		.ascii	"long unsigned int\000"
 9878      20756E73 
 9878      69676E65 
 9878      6420696E 
 9878      7400
 9879              	.LASF478:
 9880 39c5 5057525F 		.ascii	"PWR_CTRL_SM_ST\000"
 9880      4354524C 
 9880      5F534D5F 
 9880      535400
 9881              	.LASF1025:
 9882 39d4 43795F42 		.ascii	"Cy_BLE_StackShutdown\000"
 9882      4C455F53 
 9882      7461636B 
 9882      53687574 
 9882      646F776E 
 9883              	.LASF36:
 9884 39e9 696F7373 		.ascii	"ioss_interrupts_gpio_4_IRQn\000"
 9884      5F696E74 
 9884      65727275 
 9884      7074735F 
 9884      6770696F 
 9885              	.LASF186:
 9886 3a05 494E5452 		.ascii	"INTR_MASKED\000"
 9886      5F4D4153 
 9886      4B454400 
 9887              	.LASF824:
 9888 3a11 61647644 		.ascii	"advDataLen\000"
 9888      6174614C 
 9888      656E00
 9889              	.LASF53:
 9890 3a1c 73727373 		.ascii	"srss_interrupt_backup_IRQn\000"
 9890      5F696E74 
 9890      65727275 
 9890      70745F62 
 9890      61636B75 
 9891              	.LASF686:
 9892 3a37 43595F42 		.ascii	"CY_BLE_ERROR_FLASH_WRITE_NOT_PERMITED\000"
 9892      4C455F45 
 9892      52524F52 
 9892      5F464C41 
 9892      53485F57 
 9893              	.LASF198:
 9894 3a5d 54585F43 		.ascii	"TX_CTRL\000"
 9894      54524C00 
 9895              	.LASF316:
ARM GAS  C:\Users\kateb\AppData\Local\Temp\cciDLH78.s 			page 247


 9896 3a65 52454345 		.ascii	"RECEIVE_TRIG_CTRL\000"
 9896      4956455F 
 9896      54524947 
 9896      5F435452 
 9896      4C00
 9897              	.LASF695:
 9898 3a77 43595F42 		.ascii	"CY_BLE_ERROR_INVALID_STATE\000"
 9898      4C455F45 
 9898      52524F52 
 9898      5F494E56 
 9898      414C4944 
 9899              	.LASF1009:
 9900 3a92 63795F62 		.ascii	"cy_ble_advertisingIntervalType\000"
 9900      6C655F61 
 9900      64766572 
 9900      74697369 
 9900      6E67496E 
 9901              	.LASF224:
 9902 3ab1 494E4954 		.ascii	"INIT_PARAM\000"
 9902      5F504152 
 9902      414D00
 9903              	.LASF1032:
 9904 3abc 43795F42 		.ascii	"Cy_BLE_UnRegisterAppHostCallback\000"
 9904      4C455F55 
 9904      6E526567 
 9904      69737465 
 9904      72417070 
 9905              	.LASF218:
 9906 3add 5343414E 		.ascii	"SCAN_PARAM\000"
 9906      5F504152 
 9906      414D00
 9907              	.LASF466:
 9908 3ae8 494E5452 		.ascii	"INTR_STAT\000"
 9908      5F535441 
 9908      5400
 9909              	.LASF318:
 9910 3af2 4C4C5F44 		.ascii	"LL_DBG_1\000"
 9910      42475F31 
 9910      00
 9911              	.LASF230:
 9912 3afb 44455649 		.ascii	"DEVICE_RAND_ADDR_H\000"
 9912      43455F52 
 9912      414E445F 
 9912      41444452 
 9912      5F4800
 9913              	.LASF494:
 9914 3b0e 49565F53 		.ascii	"IV_SLAVE0\000"
 9914      4C415645 
 9914      3000
 9915              	.LASF35:
 9916 3b18 696F7373 		.ascii	"ioss_interrupts_gpio_3_IRQn\000"
 9916      5F696E74 
 9916      65727275 
 9916      7074735F 
 9916      6770696F 
 9917              	.LASF321:
 9918 3b34 4C4C5F44 		.ascii	"LL_DBG_4\000"
ARM GAS  C:\Users\kateb\AppData\Local\Temp\cciDLH78.s 			page 248


 9918      42475F34 
 9918      00
 9919              	.LASF16:
 9920 3b3d 63686172 		.ascii	"char\000"
 9920      00
 9921              	.LASF229:
 9922 3b42 44455649 		.ascii	"DEVICE_RAND_ADDR_M\000"
 9922      43455F52 
 9922      414E445F 
 9922      41444452 
 9922      5F4D00
 9923              	.LASF521:
 9924 3b55 43595F53 		.ascii	"CY_SYSPM_BAD_PARAM\000"
 9924      5953504D 
 9924      5F424144 
 9924      5F504152 
 9924      414D00
 9925              	.LASF205:
 9926 3b68 52585F46 		.ascii	"RX_FIFO_RD\000"
 9926      49464F5F 
 9926      524400
 9927              	.LASF574:
 9928 3b73 43595F42 		.ascii	"CY_BLE_EVT_ADD_DEVICE_TO_WHITE_LIST_COMPLETE\000"
 9928      4C455F45 
 9928      56545F41 
 9928      44445F44 
 9928      45564943 
 9929              	.LASF713:
 9930 3ba0 63795F73 		.ascii	"cy_stc_ble_white_list_config_param_t\000"
 9930      74635F62 
 9930      6C655F77 
 9930      68697465 
 9930      5F6C6973 
 9931              	.LASF179:
 9932 3bc5 756E636F 		.ascii	"unconnected_IRQn\000"
 9932      6E6E6563 
 9932      7465645F 
 9932      4952516E 
 9932      00
 9933              	.LASF400:
 9934 3bd6 4E495F54 		.ascii	"NI_TIMER\000"
 9934      494D4552 
 9934      00
 9935              	.LASF990:
 9936 3bdf 43616C6C 		.ascii	"CallBack\000"
 9936      4261636B 
 9936      00
 9937              	.LASF807:
 9938 3be8 66696C74 		.ascii	"filterDuplicates\000"
 9938      65724475 
 9938      706C6963 
 9938      61746573 
 9938      00
 9939              	.LASF504:
 9940 3bf9 5452494D 		.ascii	"TRIM_LDO_0\000"
 9940      5F4C444F 
 9940      5F3000
ARM GAS  C:\Users\kateb\AppData\Local\Temp\cciDLH78.s 			page 249


 9941              	.LASF505:
 9942 3c04 5452494D 		.ascii	"TRIM_LDO_1\000"
 9942      5F4C444F 
 9942      5F3100
 9943              	.LASF506:
 9944 3c0f 5452494D 		.ascii	"TRIM_LDO_2\000"
 9944      5F4C444F 
 9944      5F3200
 9945              	.LASF507:
 9946 3c1a 5452494D 		.ascii	"TRIM_LDO_3\000"
 9946      5F4C444F 
 9946      5F3300
 9947              	.LASF509:
 9948 3c25 5452494D 		.ascii	"TRIM_LDO_4\000"
 9948      5F4C444F 
 9948      5F3400
 9949              	.LASF510:
 9950 3c30 5452494D 		.ascii	"TRIM_LDO_5\000"
 9950      5F4C444F 
 9950      5F3500
 9951              	.LASF201:
 9952 3c3b 54585F46 		.ascii	"TX_FIFO_WR\000"
 9952      49464F5F 
 9952      575200
 9953              	.LASF22:
 9954 3c46 52657365 		.ascii	"Reset_IRQn\000"
 9954      745F4952 
 9954      516E00
 9955              	.LASF636:
 9956 3c51 43595F42 		.ascii	"CY_BLE_EVT_GATTC_FIND_INFO_RSP\000"
 9956      4C455F45 
 9956      56545F47 
 9956      41545443 
 9956      5F46494E 
 9957              	.LASF1020:
 9958 3c70 43795F42 		.ascii	"Cy_BLE_GATTS_DbRegister\000"
 9958      4C455F47 
 9958      41545453 
 9958      5F446252 
 9958      65676973 
 9959              	.LASF827:
 9960 3c88 7363616E 		.ascii	"scanRspDataLen\000"
 9960      52737044 
 9960      6174614C 
 9960      656E00
 9961              	.LASF34:
 9962 3c97 696F7373 		.ascii	"ioss_interrupts_gpio_2_IRQn\000"
 9962      5F696E74 
 9962      65727275 
 9962      7074735F 
 9962      6770696F 
 9963              	.LASF657:
 9964 3cb3 43595F42 		.ascii	"CY_BLE_EVT_L2CAP_CBFC_CONN_IND\000"
 9964      4C455F45 
 9964      56545F4C 
 9964      32434150 
 9964      5F434246 
ARM GAS  C:\Users\kateb\AppData\Local\Temp\cciDLH78.s 			page 250


 9965              	.LASF898:
 9966 3cd2 67617474 		.ascii	"gattDbMaxValue\000"
 9966      44624D61 
 9966      7856616C 
 9966      756500
 9967              	.LASF792:
 9968 3ce1 63795F65 		.ascii	"cy_en_ble_gap_auth_failed_reason_t\000"
 9968      6E5F626C 
 9968      655F6761 
 9968      705F6175 
 9968      74685F66 
 9969              	.LASF765:
 9970 3d04 63795F62 		.ascii	"cy_ble_gatt_db_attr_handle_t\000"
 9970      6C655F67 
 9970      6174745F 
 9970      64625F61 
 9970      7474725F 
 9971              	.LASF714:
 9972 3d21 646C6543 		.ascii	"dleConfig\000"
 9972      6F6E6669 
 9972      6700
 9973              	.LASF428:
 9974 3d2b 434F4E4E 		.ascii	"CONN_2_DATA_LIST_SENT\000"
 9974      5F325F44 
 9974      4154415F 
 9974      4C495354 
 9974      5F53454E 
 9975              	.LASF345:
 9976 3d41 434F4E4E 		.ascii	"CONN_UPDATE_NEW_LATENCY\000"
 9976      5F555044 
 9976      4154455F 
 9976      4E45575F 
 9976      4C415445 
 9977              	.LASF564:
 9978 3d59 43595F42 		.ascii	"CY_BLE_EVT_SET_SUGGESTED_DATA_LENGTH_COMPLETE\000"
 9978      4C455F45 
 9978      56545F53 
 9978      45545F53 
 9978      55474745 
 9979              	.LASF81:
 9980 3d87 6373645F 		.ascii	"csd_interrupt_IRQn\000"
 9980      696E7465 
 9980      72727570 
 9980      745F4952 
 9980      516E00
 9981              	.LASF365:
 9982 3d9a 4C4C485F 		.ascii	"LLH_FEATURE_CONFIG\000"
 9982      46454154 
 9982      5552455F 
 9982      434F4E46 
 9982      494700
 9983              	.LASF579:
 9984 3dad 43595F42 		.ascii	"CY_BLE_EVT_PHY_UPDATE_COMPLETE\000"
 9984      4C455F45 
 9984      56545F50 
 9984      48595F55 
 9984      50444154 
ARM GAS  C:\Users\kateb\AppData\Local\Temp\cciDLH78.s 			page 251


 9985              	.LASF830:
 9986 3dcc 61647650 		.ascii	"advParam\000"
 9986      6172616D 
 9986      00
 9987              	.LASF618:
 9988 3dd5 43595F42 		.ascii	"CY_BLE_EVT_GAP_ENHANCE_CONN_COMPLETE\000"
 9988      4C455F45 
 9988      56545F47 
 9988      41505F45 
 9988      4E48414E 
 9989              	.LASF139:
 9990 3dfa 74637077 		.ascii	"tcpwm_1_interrupts_9_IRQn\000"
 9990      6D5F315F 
 9990      696E7465 
 9990      72727570 
 9990      74735F39 
 9991              	.LASF290:
 9992 3e14 4C455F52 		.ascii	"LE_RF_TEST_MODE_EXT\000"
 9992      465F5445 
 9992      53545F4D 
 9992      4F44455F 
 9992      45585400 
 9993              	.LASF740:
 9994 3e28 43595F42 		.ascii	"CY_BLE_LL_PWR_LVL_NEG_6_DBM\000"
 9994      4C455F4C 
 9994      4C5F5057 
 9994      525F4C56 
 9994      4C5F4E45 
 9995              	.LASF769:
 9996 3e44 43595F42 		.ascii	"CY_BLE_GAP_IOCAP_DISPLAY_ONLY\000"
 9996      4C455F47 
 9996      41505F49 
 9996      4F434150 
 9996      5F444953 
 9997              	.LASF943:
 9998 3e62 626C6573 		.ascii	"blessIsrConfig\000"
 9998      73497372 
 9998      436F6E66 
 9998      696700
 9999              	.LASF587:
 10000 3e71 43595F42 		.ascii	"CY_BLE_EVT_SET_TX_PWR_COMPLETE\000"
 10000      4C455F45 
 10000      56545F53 
 10000      45545F54 
 10000      585F5057 
 10001              	.LASF676:
 10002 3e90 43595F42 		.ascii	"CY_BLE_ERROR_DEVICE_ALREADY_EXISTS\000"
 10002      4C455F45 
 10002      52524F52 
 10002      5F444556 
 10002      4943455F 
 10003              	.LASF674:
 10004 3eb3 43595F42 		.ascii	"CY_BLE_ERROR_NO_CONNECTION\000"
 10004      4C455F45 
 10004      52524F52 
 10004      5F4E4F5F 
 10004      434F4E4E 
ARM GAS  C:\Users\kateb\AppData\Local\Temp\cciDLH78.s 			page 252


 10005              	.LASF296:
 10006 3ece 4144565F 		.ascii	"ADV_ACCADDR_L\000"
 10006      41434341 
 10006      4444525F 
 10006      4C00
 10007              	.LASF563:
 10008 3edc 43595F42 		.ascii	"CY_BLE_EVT_SET_DATA_LENGTH_COMPLETE\000"
 10008      4C455F45 
 10008      56545F53 
 10008      45545F44 
 10008      4154415F 
 10009              	.LASF197:
 10010 3f00 53544154 		.ascii	"STATUS\000"
 10010      555300
 10011              	.LASF138:
 10012 3f07 74637077 		.ascii	"tcpwm_1_interrupts_8_IRQn\000"
 10012      6D5F315F 
 10012      696E7465 
 10012      72727570 
 10012      74735F38 
 10013              	.LASF680:
 10014 3f21 43595F42 		.ascii	"CY_BLE_ERROR_L2CAP_PSM_WRONG_ENCODING\000"
 10014      4C455F45 
 10014      52524F52 
 10014      5F4C3243 
 10014      41505F50 
 10015              	.LASF811:
 10016 3f47 43595F42 		.ascii	"CY_BLE_GAPP_SCANNABLE_UNDIRECTED_ADV\000"
 10016      4C455F47 
 10016      4150505F 
 10016      5343414E 
 10016      4E41424C 
 10017              	.LASF661:
 10018 3f6c 43595F42 		.ascii	"CY_BLE_EVT_L2CAP_CBFC_DATA_READ\000"
 10018      4C455F45 
 10018      56545F4C 
 10018      32434150 
 10018      5F434246 
 10019              	.LASF904:
 10020 3f8c 696E636C 		.ascii	"inclDefHandle\000"
 10020      44656648 
 10020      616E646C 
 10020      6500
 10021              	.LASF269:
 10022 3f9a 534C4156 		.ascii	"SLAVE_LATENCY\000"
 10022      455F4C41 
 10022      54454E43 
 10022      5900
 10023              	.LASF319:
 10024 3fa8 4C4C5F44 		.ascii	"LL_DBG_2\000"
 10024      42475F32 
 10024      00
 10025              	.LASF320:
 10026 3fb1 4C4C5F44 		.ascii	"LL_DBG_3\000"
 10026      42475F33 
 10026      00
 10027              	.LASF461:
ARM GAS  C:\Users\kateb\AppData\Local\Temp\cciDLH78.s 			page 253


 10028 3fba 52534C56 		.ascii	"RSLV_LIST_TX_INIT_RPA_BASE_ADDR\000"
 10028      5F4C4953 
 10028      545F5458 
 10028      5F494E49 
 10028      545F5250 
 10029              	.LASF322:
 10030 3fda 4C4C5F44 		.ascii	"LL_DBG_5\000"
 10030      42475F35 
 10030      00
 10031              	.LASF323:
 10032 3fe3 4C4C5F44 		.ascii	"LL_DBG_6\000"
 10032      42475F36 
 10032      00
 10033              	.LASF649:
 10034 3fec 43595F42 		.ascii	"CY_BLE_EVT_GATTS_HANDLE_VALUE_CNF\000"
 10034      4C455F45 
 10034      56545F47 
 10034      41545453 
 10034      5F48414E 
 10035              	.LASF938:
 10036 400e 67617474 		.ascii	"gattDB\000"
 10036      444200
 10037              	.LASF326:
 10038 4015 4C4C5F44 		.ascii	"LL_DBG_9\000"
 10038      42475F39 
 10038      00
 10039              	.LASF489:
 10040 401e 4449565F 		.ascii	"DIV_BY_625_CFG\000"
 10040      42595F36 
 10040      32355F43 
 10040      464700
 10041              	.LASF1013:
 10042 402d 43795F53 		.ascii	"Cy_SysLib_EnterCriticalSection\000"
 10042      79734C69 
 10042      625F456E 
 10042      74657243 
 10042      72697469 
 10043              	.LASF314:
 10044 404c 434F4E4E 		.ascii	"CONN_INTR_MASK\000"
 10044      5F494E54 
 10044      525F4D41 
 10044      534B00
 10045              	.LASF338:
 10046 405b 44504C4C 		.ascii	"DPLL_CONFIG\000"
 10046      5F434F4E 
 10046      46494700 
 10047              	.LASF511:
 10048 4067 424C455F 		.ascii	"BLE_BLESS_Type\000"
 10048      424C4553 
 10048      535F5479 
 10048      706500
 10049              	.LASF430:
 10050 4076 434F4E4E 		.ascii	"CONN_2_CE_DATA_LIST_CFG\000"
 10050      5F325F43 
 10050      455F4441 
 10050      54415F4C 
 10050      4953545F 
ARM GAS  C:\Users\kateb\AppData\Local\Temp\cciDLH78.s 			page 254


 10051              	.LASF606:
 10052 408e 43595F42 		.ascii	"CY_BLE_EVT_GAP_AUTH_COMPLETE\000"
 10052      4C455F45 
 10052      56545F47 
 10052      41505F41 
 10052      5554485F 
 10053              	.LASF285:
 10054 40ab 57494E44 		.ascii	"WINDOW_WIDEN_INTVL\000"
 10054      4F575F57 
 10054      4944454E 
 10054      5F494E54 
 10054      564C00
 10055              	.LASF577:
 10056 40be 43595F42 		.ascii	"CY_BLE_EVT_SET_DEFAULT_PHY_COMPLETE\000"
 10056      4C455F45 
 10056      56545F53 
 10056      45545F44 
 10056      45464155 
 10057              	.LASF98:
 10058 40e2 63707573 		.ascii	"cpuss_interrupts_dw1_0_IRQn\000"
 10058      735F696E 
 10058      74657272 
 10058      75707473 
 10058      5F647731 
 10059              	.LASF641:
 10060 40fe 43595F42 		.ascii	"CY_BLE_EVT_GATTS_WRITE_REQ\000"
 10060      4C455F45 
 10060      56545F47 
 10060      41545453 
 10060      5F575249 
 10061              	.LASF635:
 10062 4119 43595F42 		.ascii	"CY_BLE_EVT_GATTC_READ_BY_TYPE_RSP\000"
 10062      4C455F45 
 10062      56545F47 
 10062      41545443 
 10062      5F524541 
 10063              	.LASF593:
 10064 413b 43595F42 		.ascii	"CY_BLE_EVT_AES_CCM_DECRYPT_COMPLETE\000"
 10064      4C455F45 
 10064      56545F41 
 10064      45535F43 
 10064      434D5F44 
 10065              	.LASF925:
 10066 415f 73656375 		.ascii	"securityIoCapability\000"
 10066      72697479 
 10066      496F4361 
 10066      70616269 
 10066      6C697479 
 10067              	.LASF493:
 10068 4174 49565F4D 		.ascii	"IV_MASTER0\000"
 10068      41535445 
 10068      523000
 10069              	.LASF735:
 10070 417f 73746163 		.ascii	"stackConfig\000"
 10070      6B436F6E 
 10070      66696700 
 10071              	.LASF275:
ARM GAS  C:\Users\kateb\AppData\Local\Temp\cciDLH78.s 			page 255


 10072 418b 4E455854 		.ascii	"NEXT_CE_INSTANT\000"
 10072      5F43455F 
 10072      494E5354 
 10072      414E5400 
 10073              	.LASF852:
 10074 419b 64657669 		.ascii	"deviceNameCharHandle\000"
 10074      63654E61 
 10074      6D654368 
 10074      61724861 
 10074      6E646C65 
 10075              	.LASF152:
 10076 41b0 74637077 		.ascii	"tcpwm_1_interrupts_22_IRQn\000"
 10076      6D5F315F 
 10076      696E7465 
 10076      72727570 
 10076      74735F32 
 10077              	.LASF702:
 10078 41cb 646C654D 		.ascii	"dleMaxRxCapability\000"
 10078      61785278 
 10078      43617061 
 10078      62696C69 
 10078      747900
 10079              	.LASF33:
 10080 41de 696F7373 		.ascii	"ioss_interrupts_gpio_1_IRQn\000"
 10080      5F696E74 
 10080      65727275 
 10080      7074735F 
 10080      6770696F 
 10081              	.LASF920:
 10082 41fa 63636364 		.ascii	"cccdCount\000"
 10082      436F756E 
 10082      7400
 10083              	.LASF932:
 10084 4204 64697363 		.ascii	"discoveryInfo\000"
 10084      6F766572 
 10084      79496E66 
 10084      6F00
 10085              	.LASF677:
 10086 4212 43595F42 		.ascii	"CY_BLE_ERROR_REPEATED_ATTEMPTS\000"
 10086      4C455F45 
 10086      52524F52 
 10086      5F524550 
 10086      45415445 
 10087              	.LASF278:
 10088 4231 44415441 		.ascii	"DATA_LIST_ACK_UPDATE__STATUS\000"
 10088      5F4C4953 
 10088      545F4143 
 10088      4B5F5550 
 10088      44415445 
 10089              	.LASF403:
 10090 424e 4E495F41 		.ascii	"NI_ABORT\000"
 10090      424F5254 
 10090      00
 10091              	.LASF294:
 10092 4257 54585F52 		.ascii	"TX_RX_ON_DELAY\000"
 10092      585F4F4E 
 10092      5F44454C 
ARM GAS  C:\Users\kateb\AppData\Local\Temp\cciDLH78.s 			page 256


 10092      415900
 10093              	.LASF519:
 10094 4266 63795F73 		.ascii	"cy_stc_sysint_t\000"
 10094      74635F73 
 10094      7973696E 
 10094      745F7400 
 10095              	.LASF341:
 10096 4276 494E4954 		.ascii	"INIT_WINDOW_OFFSET\000"
 10096      5F57494E 
 10096      444F575F 
 10096      4F464653 
 10096      455400
 10097              	.LASF17:
 10098 4289 696E7438 		.ascii	"int8_t\000"
 10098      5F7400
 10099              	.LASF691:
 10100 4290 43595F42 		.ascii	"CY_BLE_ERROR_NTF_DISABLED\000"
 10100      4C455F45 
 10100      52524F52 
 10100      5F4E5446 
 10100      5F444953 
 10101              	.LASF516:
 10102 42aa 646F7562 		.ascii	"double\000"
 10102      6C6500
 10103              	.LASF168:
 10104 42b1 7564625F 		.ascii	"udb_interrupts_14_IRQn\000"
 10104      696E7465 
 10104      72727570 
 10104      74735F31 
 10104      345F4952 
 10105              	.LASF429:
 10106 42c8 434F4E4E 		.ascii	"CONN_2_DATA_LIST_ACK\000"
 10106      5F325F44 
 10106      4154415F 
 10106      4C495354 
 10106      5F41434B 
 10107              	.LASF890:
 10108 42dd 61747448 		.ascii	"attHandle\000"
 10108      616E646C 
 10108      6500
 10109              	.LASF209:
 10110 42e7 434F4D4D 		.ascii	"COMMAND_REGISTER\000"
 10110      414E445F 
 10110      52454749 
 10110      53544552 
 10110      00
 10111              	.LASF915:
 10112 42f8 63795F73 		.ascii	"cy_stc_ble_gattc_t\000"
 10112      74635F62 
 10112      6C655F67 
 10112      61747463 
 10112      5F7400
 10113              	.LASF213:
 10114 430b 4144565F 		.ascii	"ADV_INTERVAL_TIMEOUT\000"
 10114      494E5445 
 10114      5256414C 
 10114      5F54494D 
ARM GAS  C:\Users\kateb\AppData\Local\Temp\cciDLH78.s 			page 257


 10114      454F5554 
 10115              	.LASF720:
 10116 4320 66656174 		.ascii	"featureHeapReq\000"
 10116      75726548 
 10116      65617052 
 10116      657100
 10117              	.LASF741:
 10118 432f 43595F42 		.ascii	"CY_BLE_LL_PWR_LVL_0_DBM\000"
 10118      4C455F4C 
 10118      4C5F5057 
 10118      525F4C56 
 10118      4C5F305F 
 10119              	.LASF937:
 10120 4347 61747456 		.ascii	"attValuesCCCD\000"
 10120      616C7565 
 10120      73434343 
 10120      4400
 10121              	.LASF615:
 10122 4355 43595F42 		.ascii	"CY_BLE_EVT_GAP_NUMERIC_COMPARISON_REQUEST\000"
 10122      4C455F45 
 10122      56545F47 
 10122      41505F4E 
 10122      554D4552 
 10123              	.LASF888:
 10124 437f 61747456 		.ascii	"attValueUuid\000"
 10124      616C7565 
 10124      55756964 
 10124      00
 10125              	.LASF908:
 10126 438c 70726F70 		.ascii	"properties\000"
 10126      65727469 
 10126      657300
 10127              	.LASF277:
 10128 4397 44415441 		.ascii	"DATA_LIST_SENT_UPDATE__STATUS\000"
 10128      5F4C4953 
 10128      545F5345 
 10128      4E545F55 
 10128      50444154 
 10129              	.LASF441:
 10130 43b5 4D4D4D53 		.ascii	"MMMS_ADVCH_NI_VALID\000"
 10130      5F414456 
 10130      43485F4E 
 10130      495F5641 
 10130      4C494400 
 10131              	.LASF402:
 10132 43c9 4E455854 		.ascii	"NEXT_CONN\000"
 10132      5F434F4E 
 10132      4E00
 10133              	.LASF167:
 10134 43d3 7564625F 		.ascii	"udb_interrupts_13_IRQn\000"
 10134      696E7465 
 10134      72727570 
 10134      74735F31 
 10134      335F4952 
 10135              	.LASF150:
 10136 43ea 74637077 		.ascii	"tcpwm_1_interrupts_20_IRQn\000"
 10136      6D5F315F 
ARM GAS  C:\Users\kateb\AppData\Local\Temp\cciDLH78.s 			page 258


 10136      696E7465 
 10136      72727570 
 10136      74735F32 
 10137              	.LASF863:
 10138 4405 66617374 		.ascii	"fastAdvTimeOut\000"
 10138      41647654 
 10138      696D654F 
 10138      757400
 10139              	.LASF10:
 10140 4414 5F5F696E 		.ascii	"__int32_t\000"
 10140      7433325F 
 10140      7400
 10141              	.LASF933:
 10142 441e 67617063 		.ascii	"gapcScanParams\000"
 10142      5363616E 
 10142      50617261 
 10142      6D7300
 10143              	.LASF12:
 10144 442d 5F5F7569 		.ascii	"__uint32_t\000"
 10144      6E743332 
 10144      5F7400
 10145              	.LASF477:
 10146 4438 4D545F53 		.ascii	"MT_STATUS\000"
 10146      54415455 
 10146      5300
 10147              	.LASF392:
 10148 4442 434F4E4E 		.ascii	"CONN_1_PARAM_MEM_BASE_ADDR\000"
 10148      5F315F50 
 10148      4152414D 
 10148      5F4D454D 
 10148      5F424153 
 10149              	.LASF793:
 10150 445d 63795F73 		.ascii	"cy_stc_ble_gap_bd_addr_t\000"
 10150      74635F62 
 10150      6C655F67 
 10150      61705F62 
 10150      645F6164 
 10151              	.LASF31:
 10152 4476 53797354 		.ascii	"SysTick_IRQn\000"
 10152      69636B5F 
 10152      4952516E 
 10152      00
 10153              	.LASF779:
 10154 4483 43595F42 		.ascii	"CY_BLE_GAP_AUTH_ERROR_CONFIRM_VALUE_NOT_MATCH\000"
 10154      4C455F47 
 10154      41505F41 
 10154      5554485F 
 10154      4552524F 
 10155              	.LASF166:
 10156 44b1 7564625F 		.ascii	"udb_interrupts_12_IRQn\000"
 10156      696E7465 
 10156      72727570 
 10156      74735F31 
 10156      325F4952 
 10157              	.LASF972:
 10158 44c8 72657456 		.ascii	"retVal\000"
 10158      616C00
ARM GAS  C:\Users\kateb\AppData\Local\Temp\cciDLH78.s 			page 259


 10159              	.LASF689:
 10160 44cf 43595F42 		.ascii	"CY_BLE_ERROR_HARDWARE_FAILURE\000"
 10160      4C455F45 
 10160      52524F52 
 10160      5F484152 
 10160      44574152 
 10161              	.LASF157:
 10162 44ed 7564625F 		.ascii	"udb_interrupts_3_IRQn\000"
 10162      696E7465 
 10162      72727570 
 10162      74735F33 
 10162      5F495251 
 10163              	.LASF486:
 10164 4503 45465553 		.ascii	"EFUSE_RDATA_H\000"
 10164      455F5244 
 10164      4154415F 
 10164      4800
 10165              	.LASF975:
 10166 4511 736C6565 		.ascii	"sleepMode\000"
 10166      704D6F64 
 10166      6500
 10167              	.LASF485:
 10168 451b 45465553 		.ascii	"EFUSE_RDATA_L\000"
 10168      455F5244 
 10168      4154415F 
 10168      4C00
 10169              	.LASF501:
 10170 4529 454E435F 		.ascii	"ENC_INTR\000"
 10170      494E5452 
 10170      00
 10171              	.LASF837:
 10172 4532 43595F42 		.ascii	"CY_BLE_ADV_STATE_STOPPED\000"
 10172      4C455F41 
 10172      44565F53 
 10172      54415445 
 10172      5F53544F 
 10173              	.LASF939:
 10174 454b 61757468 		.ascii	"authInfo\000"
 10174      496E666F 
 10174      00
 10175              	.LASF730:
 10176 4554 626C6553 		.ascii	"bleStackFlashPointer\000"
 10176      7461636B 
 10176      466C6173 
 10176      68506F69 
 10176      6E746572 
 10177              	.LASF23:
 10178 4569 4E6F6E4D 		.ascii	"NonMaskableInt_IRQn\000"
 10178      61736B61 
 10178      626C6549 
 10178      6E745F49 
 10178      52516E00 
 10179              	.LASF539:
 10180 457d 62617365 		.ascii	"base\000"
 10180      00
 10181              	.LASF640:
 10182 4582 43595F42 		.ascii	"CY_BLE_EVT_GATTC_READ_MULTI_RSP\000"
ARM GAS  C:\Users\kateb\AppData\Local\Temp\cciDLH78.s 			page 260


 10182      4C455F45 
 10182      56545F47 
 10182      41545443 
 10182      5F524541 
 10183              	.LASF858:
 10184 45a2 70657269 		.ascii	"periphPrivacyCharHandle\000"
 10184      70685072 
 10184      69766163 
 10184      79436861 
 10184      7248616E 
 10185              	.LASF988:
 10186 45ba 636F6E74 		.ascii	"controlValue\000"
 10186      726F6C56 
 10186      616C7565 
 10186      00
 10187              	.LASF192:
 10188 45c7 52455345 		.ascii	"RESERVED1\000"
 10188      52564544 
 10188      3100
 10189              	.LASF195:
 10190 45d1 52455345 		.ascii	"RESERVED2\000"
 10190      52564544 
 10190      3200
 10191              	.LASF219:
 10192 45db 52455345 		.ascii	"RESERVED3\000"
 10192      52564544 
 10192      3300
 10193              	.LASF225:
 10194 45e5 52455345 		.ascii	"RESERVED4\000"
 10194      52564544 
 10194      3400
 10195              	.LASF231:
 10196 45ef 52455345 		.ascii	"RESERVED5\000"
 10196      52564544 
 10196      3500
 10197              	.LASF235:
 10198 45f9 52455345 		.ascii	"RESERVED6\000"
 10198      52564544 
 10198      3600
 10199              	.LASF243:
 10200 4603 52455345 		.ascii	"RESERVED7\000"
 10200      52564544 
 10200      3700
 10201              	.LASF247:
 10202 460d 52455345 		.ascii	"RESERVED8\000"
 10202      52564544 
 10202      3800
 10203              	.LASF251:
 10204 4617 52455345 		.ascii	"RESERVED9\000"
 10204      52564544 
 10204      3900
 10205              	.LASF575:
 10206 4621 43595F42 		.ascii	"CY_BLE_EVT_REMOVE_DEVICE_FROM_WHITE_LIST_COMPLETE\000"
 10206      4C455F45 
 10206      56545F52 
 10206      454D4F56 
 10206      455F4445 
ARM GAS  C:\Users\kateb\AppData\Local\Temp\cciDLH78.s 			page 261


 10207              	.LASF420:
 10208 4653 4D4D4D53 		.ascii	"MMMS_SLAVE_CREATE_US_CAPT\000"
 10208      5F534C41 
 10208      56455F43 
 10208      52454154 
 10208      455F5553 
 10209              	.LASF891:
 10210 466d 61747454 		.ascii	"attType\000"
 10210      79706500 
 10211              	.LASF376:
 10212 4675 4558545F 		.ascii	"EXT_PA_LNA_DLY_CNFG\000"
 10212      50415F4C 
 10212      4E415F44 
 10212      4C595F43 
 10212      4E464700 
 10213              	.LASF561:
 10214 4689 43595F42 		.ascii	"CY_BLE_EVT_LE_SET_EVENT_MASK_COMPLETE\000"
 10214      4C455F45 
 10214      56545F4C 
 10214      455F5345 
 10214      545F4556 
 10215              	.LASF805:
 10216 46af 7363616E 		.ascii	"scanFilterPolicy\000"
 10216      46696C74 
 10216      6572506F 
 10216      6C696379 
 10216      00
 10217              	.LASF537:
 10218 46c0 63795F65 		.ascii	"cy_en_syspm_callback_mode_t\000"
 10218      6E5F7379 
 10218      73706D5F 
 10218      63616C6C 
 10218      6261636B 
 10219              	.LASF909:
 10220 46dc 76616C75 		.ascii	"valueHandle\000"
 10220      6548616E 
 10220      646C6500 
 10221              	.LASF155:
 10222 46e8 7564625F 		.ascii	"udb_interrupts_1_IRQn\000"
 10222      696E7465 
 10222      72727570 
 10222      74735F31 
 10222      5F495251 
 10223              	.LASF599:
 10224 46fe 43595F42 		.ascii	"CY_BLE_EVT_SET_EVENT_MASK_COMPLETE\000"
 10224      4C455F45 
 10224      56545F53 
 10224      45545F45 
 10224      56454E54 
 10225              	.LASF1030:
 10226 4721 43795F42 		.ascii	"Cy_BLE_SetAdvertisementState\000"
 10226      4C455F53 
 10226      65744164 
 10226      76657274 
 10226      6973656D 
 10227              	.LASF639:
 10228 473e 43595F42 		.ascii	"CY_BLE_EVT_GATTC_READ_BLOB_RSP\000"
ARM GAS  C:\Users\kateb\AppData\Local\Temp\cciDLH78.s 			page 262


 10228      4C455F45 
 10228      56545F47 
 10228      41545443 
 10228      5F524541 
 10229              	.LASF584:
 10230 475d 43595F42 		.ascii	"CY_BLE_EVT_GET_DEVICE_ADDR_COMPLETE\000"
 10230      4C455F45 
 10230      56545F47 
 10230      45545F44 
 10230      45564943 
 10231              	.LASF630:
 10232 4781 43595F42 		.ascii	"CY_BLE_EVT_GATT_CONNECT_IND\000"
 10232      4C455F45 
 10232      56545F47 
 10232      4154545F 
 10232      434F4E4E 
 10233              	.LASF849:
 10234 479d 43595F42 		.ascii	"CY_BLE_CONN_STATE_CLIENT_DISCOVERED\000"
 10234      4C455F43 
 10234      4F4E4E5F 
 10234      53544154 
 10234      455F434C 
 10235              	.LASF995:
 10236 47c1 49544D5F 		.ascii	"ITM_RxBuffer\000"
 10236      52784275 
 10236      66666572 
 10236      00
 10237              	.LASF57:
 10238 47ce 63707573 		.ascii	"cpuss_interrupts_ipc_0_IRQn\000"
 10238      735F696E 
 10238      74657272 
 10238      75707473 
 10238      5F697063 
 10239              	.LASF215:
 10240 47ea 4144565F 		.ascii	"ADV_NEXT_INSTANT\000"
 10240      4E455854 
 10240      5F494E53 
 10240      54414E54 
 10240      00
 10241              	.LASF851:
 10242 47fb 73657276 		.ascii	"serviceHandle\000"
 10242      69636548 
 10242      616E646C 
 10242      6500
 10243              	.LASF655:
 10244 4809 43595F42 		.ascii	"CY_BLE_EVT_L2CAP_CONN_PARAM_UPDATE_RSP\000"
 10244      4C455F45 
 10244      56545F4C 
 10244      32434150 
 10244      5F434F4E 
 10245              	.LASF14:
 10246 4830 6C6F6E67 		.ascii	"long long unsigned int\000"
 10246      206C6F6E 
 10246      6720756E 
 10246      7369676E 
 10246      65642069 
 10247              	.LASF788:
ARM GAS  C:\Users\kateb\AppData\Local\Temp\cciDLH78.s 			page 263


 10248 4847 43595F42 		.ascii	"CY_BLE_GAP_AUTH_ERROR_BR_EDR_PAIRING_IN_PROGRESS\000"
 10248      4C455F47 
 10248      41505F41 
 10248      5554485F 
 10248      4552524F 
 10249              	.LASF208:
 10250 4878 424C455F 		.ascii	"BLE_RCB_Type\000"
 10250      5243425F 
 10250      54797065 
 10250      00
 10251              	.LASF929:
 10252 4885 63795F73 		.ascii	"cy_stc_ble_params_t\000"
 10252      74635F62 
 10252      6C655F70 
 10252      6172616D 
 10252      735F7400 
 10253              	.LASF596:
 10254 4899 43595F42 		.ascii	"CY_BLE_EVT_RADIO_TEMPERATURE\000"
 10254      4C455F45 
 10254      56545F52 
 10254      4144494F 
 10254      5F54454D 
 10255              	.LASF154:
 10256 48b6 7564625F 		.ascii	"udb_interrupts_0_IRQn\000"
 10256      696E7465 
 10256      72727570 
 10256      74735F30 
 10256      5F495251 
 10257              	.LASF1022:
 10258 48cc 43795F42 		.ascii	"Cy_BLE_EnableDleFeature\000"
 10258      4C455F45 
 10258      6E61626C 
 10258      65446C65 
 10258      46656174 
 10259              	.LASF312:
 10260 48e4 434F4E4E 		.ascii	"CONN_PARAM1\000"
 10260      5F504152 
 10260      414D3100 
 10261              	.LASF313:
 10262 48f0 434F4E4E 		.ascii	"CONN_PARAM2\000"
 10262      5F504152 
 10262      414D3200 
 10263              	.LASF652:
 10264 48fc 43595F42 		.ascii	"CY_BLE_EVT_GATTS_READ_CHAR_VAL_ACCESS_REQ\000"
 10264      4C455F45 
 10264      56545F47 
 10264      41545453 
 10264      5F524541 
 10265              	.LASF884:
 10266 4926 6D617841 		.ascii	"maxAttrLength\000"
 10266      7474724C 
 10266      656E6774 
 10266      6800
 10267              	.LASF1027:
 10268 4934 47656E65 		.ascii	"Generated_Source\\PSoC6\\pdl\\middleware\\ble\\cy_b"
 10268      72617465 
 10268      645F536F 
ARM GAS  C:\Users\kateb\AppData\Local\Temp\cciDLH78.s 			page 264


 10268      75726365 
 10268      5C50536F 
 10269 4962 6C652E63 		.ascii	"le.c\000"
 10269      00
 10270              	.LASF116:
 10271 4967 63707573 		.ascii	"cpuss_interrupt_crypto_IRQn\000"
 10271      735F696E 
 10271      74657272 
 10271      7570745F 
 10271      63727970 
 10272              	.LASF527:
 10273 4983 43595F53 		.ascii	"CY_SYSPM_SLEEP\000"
 10273      5953504D 
 10273      5F534C45 
 10273      455000
 10274              	.LASF821:
 10275 4992 61647646 		.ascii	"advFilterPolicy\000"
 10275      696C7465 
 10275      72506F6C 
 10275      69637900 
 10276              	.LASF836:
 10277 49a2 63795F65 		.ascii	"cy_en_ble_state_t\000"
 10277      6E5F626C 
 10277      655F7374 
 10277      6174655F 
 10277      7400
 10278              	.LASF664:
 10279 49b4 43595F42 		.ascii	"CY_BLE_EVT_L2CAP_CBFC_DATA_WRITE_IND\000"
 10279      4C455F45 
 10279      56545F4C 
 10279      32434150 
 10279      5F434246 
 10280              	.LASF182:
 10281 49d9 52455345 		.ascii	"RESERVED\000"
 10281      52564544 
 10281      00
 10282              	.LASF977:
 10283 49e2 43795F42 		.ascii	"Cy_BLE_SleepCallback\000"
 10283      4C455F53 
 10283      6C656570 
 10283      43616C6C 
 10283      6261636B 
 10284              	.LASF749:
 10285 49f7 43595F42 		.ascii	"CY_BLE_BLESS_STATE_EVENT_CLOSE\000"
 10285      4C455F42 
 10285      4C455353 
 10285      5F535441 
 10285      54455F45 
 10286              	.LASF685:
 10287 4a16 43595F42 		.ascii	"CY_BLE_ERROR_UNSUPPORTED_FEATURE_OR_PARAMETER_VALUE"
 10287      4C455F45 
 10287      52524F52 
 10287      5F554E53 
 10287      5550504F 
 10288 4a49 00       		.ascii	"\000"
 10289              	.LASF283:
 10290 4a4a 44415441 		.ascii	"DATA_MEM_DESCRIPTOR\000"
ARM GAS  C:\Users\kateb\AppData\Local\Temp\cciDLH78.s 			page 265


 10290      5F4D454D 
 10290      5F444553 
 10290      43524950 
 10290      544F5200 
 10291              	.LASF414:
 10292 4a5e 55535F43 		.ascii	"US_COUNTER\000"
 10292      4F554E54 
 10292      455200
 10293              	.LASF125:
 10294 4a69 74637077 		.ascii	"tcpwm_0_interrupts_3_IRQn\000"
 10294      6D5F305F 
 10294      696E7465 
 10294      72727570 
 10294      74735F33 
 10295              	.LASF709:
 10296 4a83 63795F73 		.ascii	"cy_stc_ble_privacy_1_2_config_param_t\000"
 10296      74635F62 
 10296      6C655F70 
 10296      72697661 
 10296      63795F31 
 10297              	.LASF757:
 10298 4aa9 61747449 		.ascii	"attId\000"
 10298      6400
 10299              	.LASF867:
 10300 4aaf 736C6F77 		.ascii	"slowAdvTimeOut\000"
 10300      41647654 
 10300      696D654F 
 10300      757400
 10301              	.LASF921:
 10302 4abe 626F756E 		.ascii	"boundedDevCount\000"
 10302      64656444 
 10302      6576436F 
 10302      756E7400 
 10303              	.LASF445:
 10304 4ace 434F4E4E 		.ascii	"CONN_PARAM_ACC_WIN_WIDEN\000"
 10304      5F504152 
 10304      414D5F41 
 10304      43435F57 
 10304      494E5F57 
 10305              	.LASF554:
 10306 4ae7 43595F42 		.ascii	"CY_BLE_EVT_MEMORY_REQUEST\000"
 10306      4C455F45 
 10306      56545F4D 
 10306      454D4F52 
 10306      595F5245 
 10307              	.LASF746:
 10308 4b01 43595F42 		.ascii	"CY_BLE_BLESS_INVALID\000"
 10308      4C455F42 
 10308      4C455353 
 10308      5F494E56 
 10308      414C4944 
 10309              	.LASF488:
 10310 4b16 45465553 		.ascii	"EFUSE_WDATA_H\000"
 10310      455F5744 
 10310      4154415F 
 10310      4800
 10311              	.LASF487:
ARM GAS  C:\Users\kateb\AppData\Local\Temp\cciDLH78.s 			page 266


 10312 4b24 45465553 		.ascii	"EFUSE_WDATA_L\000"
 10312      455F5744 
 10312      4154415F 
 10312      4C00
 10313              	.LASF412:
 10314 4b32 4541524C 		.ascii	"EARLY_INTR_STATUS\000"
 10314      595F494E 
 10314      54525F53 
 10314      54415455 
 10314      5300
 10315              	.LASF959:
 10316 4b44 67617474 		.ascii	"gattc\000"
 10316      6300
 10317              	.LASF701:
 10318 4b4a 646C654D 		.ascii	"dleMaxTxCapability\000"
 10318      61785478 
 10318      43617061 
 10318      62696C69 
 10318      747900
 10319              	.LASF292:
 10320 4b5d 54585258 		.ascii	"TXRX_HOP\000"
 10320      5F484F50 
 10320      00
 10321              	.LASF268:
 10322 4b66 5355505F 		.ascii	"SUP_TIMEOUT\000"
 10322      54494D45 
 10322      4F555400 
 10323              	.LASF945:
 10324 4b72 63795F62 		.ascii	"cy_ble_app_notify_callback_t\000"
 10324      6C655F61 
 10324      70705F6E 
 10324      6F746966 
 10324      795F6361 
 10325              	.LASF1003:
 10326 4b8f 43795F42 		.ascii	"Cy_BLE_HostRegisteredCallback\000"
 10326      4C455F48 
 10326      6F737452 
 10326      65676973 
 10326      74657265 
 10327              	.LASF870:
 10328 4bad 66617374 		.ascii	"fastScanWindow\000"
 10328      5363616E 
 10328      57696E64 
 10328      6F7700
 10329              	.LASF124:
 10330 4bbc 74637077 		.ascii	"tcpwm_0_interrupts_2_IRQn\000"
 10330      6D5F305F 
 10330      696E7465 
 10330      72727570 
 10330      74735F32 
 10331              	.LASF903:
 10332 4bd6 636F6E6E 		.ascii	"connHandle\000"
 10332      48616E64 
 10332      6C6500
 10333              	.LASF631:
 10334 4be1 43595F42 		.ascii	"CY_BLE_EVT_GATT_DISCONNECT_IND\000"
 10334      4C455F45 
ARM GAS  C:\Users\kateb\AppData\Local\Temp\cciDLH78.s 			page 267


 10334      56545F47 
 10334      4154545F 
 10334      44495343 
 10335              	.LASF525:
 10336 4c00 43595F53 		.ascii	"CY_SYSPM_FAIL\000"
 10336      5953504D 
 10336      5F464149 
 10336      4C00
 10337              	.LASF819:
 10338 4c0e 64697265 		.ascii	"directAddr\000"
 10338      63744164 
 10338      647200
 10339              	.LASF173:
 10340 4c19 70726F66 		.ascii	"profile_interrupt_IRQn\000"
 10340      696C655F 
 10340      696E7465 
 10340      72727570 
 10340      745F4952 
 10341              	.LASF175:
 10342 4c30 7573625F 		.ascii	"usb_interrupt_hi_IRQn\000"
 10342      696E7465 
 10342      72727570 
 10342      745F6869 
 10342      5F495251 
 10343              	.LASF237:
 10344 4c46 574C5F45 		.ascii	"WL_ENABLE\000"
 10344      4E41424C 
 10344      4500
 10345              	.LASF734:
 10346 4c50 6D656D50 		.ascii	"memParam\000"
 10346      6172616D 
 10346      00
 10347              	.LASF1023:
 10348 4c59 43795F42 		.ascii	"Cy_BLE_StackSetFeatureConfig\000"
 10348      4C455F53 
 10348      7461636B 
 10348      53657446 
 10348      65617475 
 10349              	.LASF432:
 10350 4c76 434F4E4E 		.ascii	"CONN_3_DATA_LIST_SENT\000"
 10350      5F335F44 
 10350      4154415F 
 10350      4C495354 
 10350      5F53454E 
 10351              	.LASF411:
 10352 4c8c 41434355 		.ascii	"ACCU_WINDOW_WIDEN_STATUS\000"
 10352      5F57494E 
 10352      444F575F 
 10352      57494445 
 10352      4E5F5354 
 10353              	.LASF721:
 10354 4ca5 6D617842 		.ascii	"maxBleConnections\000"
 10354      6C65436F 
 10354      6E6E6563 
 10354      74696F6E 
 10354      7300
 10355              	.LASF607:
ARM GAS  C:\Users\kateb\AppData\Local\Temp\cciDLH78.s 			page 268


 10356 4cb7 43595F42 		.ascii	"CY_BLE_EVT_GAP_AUTH_FAILED\000"
 10356      4C455F45 
 10356      56545F47 
 10356      41505F41 
 10356      5554485F 
 10357              	.LASF810:
 10358 4cd2 43595F42 		.ascii	"CY_BLE_GAPP_CONNECTABLE_HIGH_DC_DIRECTED_ADV\000"
 10358      4C455F47 
 10358      4150505F 
 10358      434F4E4E 
 10358      45435441 
 10359              	.LASF123:
 10360 4cff 74637077 		.ascii	"tcpwm_0_interrupts_1_IRQn\000"
 10360      6D5F305F 
 10360      696E7465 
 10360      72727570 
 10360      74735F31 
 10361              	.LASF738:
 10362 4d19 43595F42 		.ascii	"CY_BLE_LL_PWR_LVL_NEG_16_DBM\000"
 10362      4C455F4C 
 10362      4C5F5057 
 10362      525F4C56 
 10362      4C5F4E45 
 10363              	.LASF30:
 10364 4d36 50656E64 		.ascii	"PendSV_IRQn\000"
 10364      53565F49 
 10364      52516E00 
 10365              	.LASF797:
 10366 4d42 61757468 		.ascii	"authErr\000"
 10366      45727200 
 10367              	.LASF763:
 10368 4d4a 75756964 		.ascii	"uuid128\000"
 10368      31323800 
 10369              	.LASF916:
 10370 4d52 63795F62 		.ascii	"cy_ble_callback_t\000"
 10370      6C655F63 
 10370      616C6C62 
 10370      61636B5F 
 10370      7400
 10371              	.LASF349:
 10372 4d64 434F4E4E 		.ascii	"CONN_REQ_WORD0\000"
 10372      5F524551 
 10372      5F574F52 
 10372      443000
 10373              	.LASF350:
 10374 4d73 434F4E4E 		.ascii	"CONN_REQ_WORD1\000"
 10374      5F524551 
 10374      5F574F52 
 10374      443100
 10375              	.LASF351:
 10376 4d82 434F4E4E 		.ascii	"CONN_REQ_WORD2\000"
 10376      5F524551 
 10376      5F574F52 
 10376      443200
 10377              	.LASF352:
 10378 4d91 434F4E4E 		.ascii	"CONN_REQ_WORD3\000"
 10378      5F524551 
ARM GAS  C:\Users\kateb\AppData\Local\Temp\cciDLH78.s 			page 269


 10378      5F574F52 
 10378      443300
 10379              	.LASF353:
 10380 4da0 434F4E4E 		.ascii	"CONN_REQ_WORD4\000"
 10380      5F524551 
 10380      5F574F52 
 10380      443400
 10381              	.LASF354:
 10382 4daf 434F4E4E 		.ascii	"CONN_REQ_WORD5\000"
 10382      5F524551 
 10382      5F574F52 
 10382      443500
 10383              	.LASF355:
 10384 4dbe 434F4E4E 		.ascii	"CONN_REQ_WORD6\000"
 10384      5F524551 
 10384      5F574F52 
 10384      443600
 10385              	.LASF356:
 10386 4dcd 434F4E4E 		.ascii	"CONN_REQ_WORD7\000"
 10386      5F524551 
 10386      5F574F52 
 10386      443700
 10387              	.LASF357:
 10388 4ddc 434F4E4E 		.ascii	"CONN_REQ_WORD8\000"
 10388      5F524551 
 10388      5F574F52 
 10388      443800
 10389              	.LASF358:
 10390 4deb 434F4E4E 		.ascii	"CONN_REQ_WORD9\000"
 10390      5F524551 
 10390      5F574F52 
 10390      443900
 10391              	.LASF725:
 10392 4dfa 63795F73 		.ascii	"cy_stc_ble_stk_app_data_buff_t\000"
 10392      74635F62 
 10392      6C655F73 
 10392      746B5F61 
 10392      70705F64 
 10393              	.LASF934:
 10394 4e19 666C6173 		.ascii	"flashStorage\000"
 10394      6853746F 
 10394      72616765 
 10394      00
 10395              	.LASF979:
 10396 4e26 636F6E66 		.ascii	"config\000"
 10396      696700
 10397              	.LASF206:
 10398 4e2d 52585F46 		.ascii	"RX_FIFO_RD_SILENT\000"
 10398      49464F5F 
 10398      52445F53 
 10398      494C454E 
 10398      5400
 10399              	.LASF954:
 10400 4e3f 6175746F 		.ascii	"autoDiscoveryFlag\000"
 10400      44697363 
 10400      6F766572 
 10400      79466C61 
ARM GAS  C:\Users\kateb\AppData\Local\Temp\cciDLH78.s 			page 270


 10400      6700
 10401              	.LASF1:
 10402 4e51 6C6F6E67 		.ascii	"long long int\000"
 10402      206C6F6E 
 10402      6720696E 
 10402      7400
 10403              	.LASF259:
 10404 4e5f 504F435F 		.ascii	"POC_REG__TIM_CONTROL\000"
 10404      5245475F 
 10404      5F54494D 
 10404      5F434F4E 
 10404      54524F4C 
 10405              	.LASF134:
 10406 4e74 74637077 		.ascii	"tcpwm_1_interrupts_4_IRQn\000"
 10406      6D5F315F 
 10406      696E7465 
 10406      72727570 
 10406      74735F34 
 10407              	.LASF384:
 10408 4e8e 52534C56 		.ascii	"RSLV_LIST_ENABLE\000"
 10408      5F4C4953 
 10408      545F454E 
 10408      41424C45 
 10408      00
 10409              	.LASF771:
 10410 4e9f 43595F42 		.ascii	"CY_BLE_GAP_IOCAP_KEYBOARD_ONLY\000"
 10410      4C455F47 
 10410      41505F49 
 10410      4F434150 
 10410      5F4B4559 
 10411              	.LASF727:
 10412 4ebe 64617461 		.ascii	"dataBuff\000"
 10412      42756666 
 10412      00
 10413              	.LASF653:
 10414 4ec7 43595F42 		.ascii	"CY_BLE_EVT_GATTC_LONG_PROCEDURE_END\000"
 10414      4C455F45 
 10414      56545F47 
 10414      41545443 
 10414      5F4C4F4E 
 10415              	.LASF541:
 10416 4eeb 63795F73 		.ascii	"cy_stc_syspm_callback_params_t\000"
 10416      74635F73 
 10416      7973706D 
 10416      5F63616C 
 10416      6C626163 
 10417              	.LASF820:
 10418 4f0a 61647643 		.ascii	"advChannelMap\000"
 10418      68616E6E 
 10418      656C4D61 
 10418      7000
 10419              	.LASF80:
 10420 4f18 7363625F 		.ascii	"scb_7_interrupt_IRQn\000"
 10420      375F696E 
 10420      74657272 
 10420      7570745F 
 10420      4952516E 
ARM GAS  C:\Users\kateb\AppData\Local\Temp\cciDLH78.s 			page 271


 10421              	.LASF969:
 10422 4f2d 43595F49 		.ascii	"CY_IPC_SEMA_LOCKED\000"
 10422      50435F53 
 10422      454D415F 
 10422      4C4F434B 
 10422      454400
 10423              	.LASF662:
 10424 4f40 43595F42 		.ascii	"CY_BLE_EVT_L2CAP_CBFC_RX_CREDIT_IND\000"
 10424      4C455F45 
 10424      56545F4C 
 10424      32434150 
 10424      5F434246 
 10425              	.LASF790:
 10426 4f64 43595F42 		.ascii	"CY_BLE_GAP_AUTH_ERROR_AUTHENTICATION_TIMEOUT\000"
 10426      4C455F47 
 10426      41505F41 
 10426      5554485F 
 10426      4552524F 
 10427              	.LASF743:
 10428 4f91 63795F65 		.ascii	"cy_en_ble_bless_pwr_lvl_t\000"
 10428      6E5F626C 
 10428      655F626C 
 10428      6573735F 
 10428      7077725F 
 10429              	.LASF479:
 10430 4fab 48564C44 		.ascii	"HVLDO_CTRL\000"
 10430      4F5F4354 
 10430      524C00
 10431              	.LASF626:
 10432 4fb6 43595F42 		.ascii	"CY_BLE_EVT_GAP_CONN_ESTB\000"
 10432      4C455F45 
 10432      56545F47 
 10432      41505F43 
 10432      4F4E4E5F 
 10433              	.LASF562:
 10434 4fcf 43595F42 		.ascii	"CY_BLE_EVT_LE_PING_AUTH_TIMEOUT\000"
 10434      4C455F45 
 10434      56545F4C 
 10434      455F5049 
 10434      4E475F41 
 10435              	.LASF736:
 10436 4fef 63795F73 		.ascii	"cy_stc_ble_stack_init_info_t\000"
 10436      74635F62 
 10436      6C655F73 
 10436      7461636B 
 10436      5F696E69 
 10437              	.LASF133:
 10438 500c 74637077 		.ascii	"tcpwm_1_interrupts_3_IRQn\000"
 10438      6D5F315F 
 10438      696E7465 
 10438      72727570 
 10438      74735F33 
 10439              	.LASF608:
 10440 5026 43595F42 		.ascii	"CY_BLE_EVT_GAPP_ADVERTISEMENT_START_STOP\000"
 10440      4C455F45 
 10440      56545F47 
 10440      4150505F 
ARM GAS  C:\Users\kateb\AppData\Local\Temp\cciDLH78.s 			page 272


 10440      41445645 
 10441              	.LASF829:
 10442 504f 64697363 		.ascii	"discMode\000"
 10442      4D6F6465 
 10442      00
 10443              	.LASF146:
 10444 5058 74637077 		.ascii	"tcpwm_1_interrupts_16_IRQn\000"
 10444      6D5F315F 
 10444      696E7465 
 10444      72727570 
 10444      74735F31 
 10445              	.LASF723:
 10446 5073 62756666 		.ascii	"bufferSize\000"
 10446      65725369 
 10446      7A6500
 10447              	.LASF795:
 10448 507e 626F6E64 		.ascii	"bonding\000"
 10448      696E6700 
 10449              	.LASF663:
 10450 5086 43595F42 		.ascii	"CY_BLE_EVT_L2CAP_CBFC_TX_CREDIT_IND\000"
 10450      4C455F45 
 10450      56545F4C 
 10450      32434150 
 10450      5F434246 
 10451              	.LASF1000:
 10452 50aa 63795F62 		.ascii	"cy_ble_connState\000"
 10452      6C655F63 
 10452      6F6E6E53 
 10452      74617465 
 10452      00
 10453              	.LASF791:
 10454 50bb 43595F42 		.ascii	"CY_BLE_GAP_AUTH_ERROR_LINK_DISCONNECTED\000"
 10454      4C455F47 
 10454      41505F41 
 10454      5554485F 
 10454      4552524F 
 10455              	.LASF847:
 10456 50e3 43595F42 		.ascii	"CY_BLE_CONN_STATE_CLIENT_CHAR_DISCOVERING\000"
 10456      4C455F43 
 10456      4F4E4E5F 
 10456      53544154 
 10456      455F434C 
 10457              	.LASF132:
 10458 510d 74637077 		.ascii	"tcpwm_1_interrupts_2_IRQn\000"
 10458      6D5F315F 
 10458      696E7465 
 10458      72727570 
 10458      74735F32 
 10459              	.LASF425:
 10460 5127 434F4E4E 		.ascii	"CONN_1_DATA_LIST_ACK\000"
 10460      5F315F44 
 10460      4154415F 
 10460      4C495354 
 10460      5F41434B 
 10461              	.LASF704:
 10462 513c 646C654E 		.ascii	"dleNumRxBuffer\000"
 10462      756D5278 
ARM GAS  C:\Users\kateb\AppData\Local\Temp\cciDLH78.s 			page 273


 10462      42756666 
 10462      657200
 10463              	.LASF145:
 10464 514b 74637077 		.ascii	"tcpwm_1_interrupts_15_IRQn\000"
 10464      6D5F315F 
 10464      696E7465 
 10464      72727570 
 10464      74735F31 
 10465              	.LASF438:
 10466 5166 434F4E4E 		.ascii	"CONN_4_CE_DATA_LIST_CFG\000"
 10466      5F345F43 
 10466      455F4441 
 10466      54415F4C 
 10466      4953545F 
 10467              	.LASF624:
 10468 517e 43595F42 		.ascii	"CY_BLE_EVT_GAP_GEN_SET_LOCAL_P256_KEYS_COMPLETE\000"
 10468      4C455F45 
 10468      56545F47 
 10468      41505F47 
 10468      454E5F53 
 10469              	.LASF878:
 10470 51ae 67617063 		.ascii	"gapcConnectionSlaveLatency\000"
 10470      436F6E6E 
 10470      65637469 
 10470      6F6E536C 
 10470      6176654C 
 10471              	.LASF424:
 10472 51c9 434F4E4E 		.ascii	"CONN_1_DATA_LIST_SENT\000"
 10472      5F315F44 
 10472      4154415F 
 10472      4C495354 
 10472      5F53454E 
 10473              	.LASF300:
 10474 51df 434F4E4E 		.ascii	"CONN_CH_TX_POWER_LVL_LS\000"
 10474      5F43485F 
 10474      54585F50 
 10474      4F574552 
 10474      5F4C564C 
 10475              	.LASF928:
 10476 51f7 67617474 		.ascii	"gattDbIndexCount\000"
 10476      4462496E 
 10476      64657843 
 10476      6F756E74 
 10476      00
 10477              	.LASF642:
 10478 5208 43595F42 		.ascii	"CY_BLE_EVT_GATTC_WRITE_RSP\000"
 10478      4C455F45 
 10478      56545F47 
 10478      41545443 
 10478      5F575249 
 10479              	.LASF550:
 10480 5223 43595F42 		.ascii	"CY_BLE_EVT_INVALID\000"
 10480      4C455F45 
 10480      56545F49 
 10480      4E56414C 
 10480      494400
 10481              	.LASF131:
ARM GAS  C:\Users\kateb\AppData\Local\Temp\cciDLH78.s 			page 274


 10482 5236 74637077 		.ascii	"tcpwm_1_interrupts_1_IRQn\000"
 10482      6D5F315F 
 10482      696E7465 
 10482      72727570 
 10482      74735F31 
 10483              	.LASF536:
 10484 5250 43595F53 		.ascii	"CY_SYSPM_AFTER_TRANSITION\000"
 10484      5953504D 
 10484      5F414654 
 10484      45525F54 
 10484      52414E53 
 10485              	.LASF144:
 10486 526a 74637077 		.ascii	"tcpwm_1_interrupts_14_IRQn\000"
 10486      6D5F315F 
 10486      696E7465 
 10486      72727570 
 10486      74735F31 
 10487              	.LASF4:
 10488 5285 5F5F696E 		.ascii	"__int8_t\000"
 10488      74385F74 
 10488      00
 10489              	.LASF69:
 10490 528e 63707573 		.ascii	"cpuss_interrupts_ipc_12_IRQn\000"
 10490      735F696E 
 10490      74657272 
 10490      75707473 
 10490      5F697063 
 10491              	.LASF874:
 10492 52ab 736C6F77 		.ascii	"slowScanWindow\000"
 10492      5363616E 
 10492      57696E64 
 10492      6F7700
 10493              	.LASF583:
 10494 52ba 43595F42 		.ascii	"CY_BLE_EVT_SET_DEVICE_ADDR_COMPLETE\000"
 10494      4C455F45 
 10494      56545F53 
 10494      45545F44 
 10494      45564943 
 10495              	.LASF1021:
 10496 52de 43795F53 		.ascii	"Cy_SysPm_RegisterCallback\000"
 10496      7973506D 
 10496      5F526567 
 10496      69737465 
 10496      7243616C 
 10497              	.LASF694:
 10498 52f8 43595F42 		.ascii	"CY_BLE_ERROR_CONTROLLER_BUSY\000"
 10498      4C455F45 
 10498      52524F52 
 10498      5F434F4E 
 10498      54524F4C 
 10499              	.LASF340:
 10500 5315 494E4954 		.ascii	"INIT_NI_VAL\000"
 10500      5F4E495F 
 10500      56414C00 
 10501              	.LASF555:
 10502 5321 43595F42 		.ascii	"CY_BLE_EVT_PENDING_FLASH_WRITE\000"
 10502      4C455F45 
ARM GAS  C:\Users\kateb\AppData\Local\Temp\cciDLH78.s 			page 275


 10502      56545F50 
 10502      454E4449 
 10502      4E475F46 
 10503              	.LASF881:
 10504 5340 61637475 		.ascii	"actualLength\000"
 10504      616C4C65 
 10504      6E677468 
 10504      00
 10505              	.LASF301:
 10506 534d 434F4E4E 		.ascii	"CONN_CH_TX_POWER_LVL_MS\000"
 10506      5F43485F 
 10506      54585F50 
 10506      4F574552 
 10506      5F4C564C 
 10507              	.LASF706:
 10508 5365 6C326361 		.ascii	"l2capBufferPerConn\000"
 10508      70427566 
 10508      66657250 
 10508      6572436F 
 10508      6E6E00
 10509              	.LASF1001:
 10510 5378 63795F62 		.ascii	"cy_ble_pendingFlashWrite\000"
 10510      6C655F70 
 10510      656E6469 
 10510      6E67466C 
 10510      61736857 
 10511              	.LASF118:
 10512 5391 63707573 		.ascii	"cpuss_interrupts_cm0_cti_0_IRQn\000"
 10512      735F696E 
 10512      74657272 
 10512      75707473 
 10512      5F636D30 
 10513              	.LASF751:
 10514 53b1 43595F42 		.ascii	"CY_BLE_BLESS_STATE_ECO_STABLE\000"
 10514      4C455F42 
 10514      4C455353 
 10514      5F535441 
 10514      54455F45 
 10515              	.LASF750:
 10516 53cf 43595F42 		.ascii	"CY_BLE_BLESS_STATE_ECO_ON\000"
 10516      4C455F42 
 10516      4C455353 
 10516      5F535441 
 10516      54455F45 
 10517              	.LASF0:
 10518 53e9 756E7369 		.ascii	"unsigned int\000"
 10518      676E6564 
 10518      20696E74 
 10518      00
 10519              	.LASF754:
 10520 53f6 43595F42 		.ascii	"CY_BLE_BLESS_STATE_INVALID\000"
 10520      4C455F42 
 10520      4C455353 
 10520      5F535441 
 10520      54455F49 
 10521              	.LASF284:
 10522 5411 52455345 		.ascii	"RESERVED17\000"
ARM GAS  C:\Users\kateb\AppData\Local\Temp\cciDLH78.s 			page 276


 10522      52564544 
 10522      313700
 10523              	.LASF68:
 10524 541c 63707573 		.ascii	"cpuss_interrupts_ipc_11_IRQn\000"
 10524      735F696E 
 10524      74657272 
 10524      75707473 
 10524      5F697063 
 10525              	.LASF905:
 10526 5439 696E636C 		.ascii	"inclHandleRange\000"
 10526      48616E64 
 10526      6C655261 
 10526      6E676500 
 10527              	.LASF364:
 10528 5449 4E455854 		.ascii	"NEXT_SUP_TO\000"
 10528      5F535550 
 10528      5F544F00 
 10529              	.LASF910:
 10530 5455 63795F73 		.ascii	"cy_stc_ble_srvr_char_info_t\000"
 10530      74635F62 
 10530      6C655F73 
 10530      7276725F 
 10530      63686172 
 10531              	.LASF78:
 10532 5471 7363625F 		.ascii	"scb_5_interrupt_IRQn\000"
 10532      355F696E 
 10532      74657272 
 10532      7570745F 
 10532      4952516E 
 10533              	.LASF407:
 10534 5486 4D4D4D53 		.ascii	"MMMS_CONN_STATUS\000"
 10534      5F434F4E 
 10534      4E5F5354 
 10534      41545553 
 10534      00
 10535              	.LASF216:
 10536 5497 5343414E 		.ascii	"SCAN_INTERVAL\000"
 10536      5F494E54 
 10536      45525641 
 10536      4C00
 10537              	.LASF708:
 10538 54a5 7265736F 		.ascii	"resolvingListSize\000"
 10538      6C76696E 
 10538      674C6973 
 10538      7453697A 
 10538      6500
 10539              	.LASF1014:
 10540 54b7 43795F42 		.ascii	"Cy_BLE_StackEnterLPM\000"
 10540      4C455F53 
 10540      7461636B 
 10540      456E7465 
 10540      724C504D 
 10541              	.LASF1004:
 10542 54cc 43795F42 		.ascii	"Cy_BLE_ApplCallback\000"
 10542      4C455F41 
 10542      70706C43 
 10542      616C6C62 
ARM GAS  C:\Users\kateb\AppData\Local\Temp\cciDLH78.s 			page 277


 10542      61636B00 
 10543              	.LASF566:
 10544 54e0 43595F42 		.ascii	"CY_BLE_EVT_DATA_LENGTH_CHANGE\000"
 10544      4C455F45 
 10544      56545F44 
 10544      4154415F 
 10544      4C454E47 
 10545              	.LASF782:
 10546 54fe 43595F42 		.ascii	"CY_BLE_GAP_AUTH_ERROR_COMMAND_NOT_SUPPORTED\000"
 10546      4C455F47 
 10546      41505F41 
 10546      5554485F 
 10546      4552524F 
 10547              	.LASF7:
 10548 552a 73686F72 		.ascii	"short int\000"
 10548      7420696E 
 10548      7400
 10549              	.LASF703:
 10550 5534 646C654E 		.ascii	"dleNumTxBuffer\000"
 10550      756D5478 
 10550      42756666 
 10550      657200
 10551              	.LASF67:
 10552 5543 63707573 		.ascii	"cpuss_interrupts_ipc_10_IRQn\000"
 10552      735F696E 
 10552      74657272 
 10552      75707473 
 10552      5F697063 
 10553              	.LASF573:
 10554 5560 43595F42 		.ascii	"CY_BLE_EVT_REMOVE_DEVICE_FROM_RPA_LIST_COMPLETE\000"
 10554      4C455F45 
 10554      56545F52 
 10554      454D4F56 
 10554      455F4445 
 10555              	.LASF960:
 10556 5590 67617474 		.ascii	"gattcDiscoveryRange\000"
 10556      63446973 
 10556      636F7665 
 10556      72795261 
 10556      6E676500 
 10557              	.LASF174:
 10558 55a4 736D6966 		.ascii	"smif_interrupt_IRQn\000"
 10558      5F696E74 
 10558      65727275 
 10558      70745F49 
 10558      52516E00 
 10559              	.LASF87:
 10560 55b8 63707573 		.ascii	"cpuss_interrupts_dw0_5_IRQn\000"
 10560      735F696E 
 10560      74657272 
 10560      75707473 
 10560      5F647730 
 10561              	.LASF530:
 10562 55d4 43595F53 		.ascii	"CY_SYSPM_ENTER_LOWPOWER_MODE\000"
 10562      5953504D 
 10562      5F454E54 
 10562      45525F4C 
ARM GAS  C:\Users\kateb\AppData\Local\Temp\cciDLH78.s 			page 278


 10562      4F57504F 
 10563              	.LASF1024:
 10564 55f1 43795F42 		.ascii	"Cy_BLE_StackInit\000"
 10564      4C455F53 
 10564      7461636B 
 10564      496E6974 
 10564      00
 10565              	.LASF239:
 10566 5602 5452414E 		.ascii	"TRANSMIT_WINDOW_SIZE\000"
 10566      534D4954 
 10566      5F57494E 
 10566      444F575F 
 10566      53495A45 
 10567              	.LASF919:
 10568 5617 61747456 		.ascii	"attValuesCCCDFlashMemory\000"
 10568      616C7565 
 10568      73434343 
 10568      44466C61 
 10568      73684D65 
 10569              	.LASF394:
 10570 5630 434F4E4E 		.ascii	"CONN_2_PARAM_MEM_BASE_ADDR\000"
 10570      5F325F50 
 10570      4152414D 
 10570      5F4D454D 
 10570      5F424153 
 10571              	.LASF697:
 10572 564b 63795F65 		.ascii	"cy_en_ble_api_result_t\000"
 10572      6E5F626C 
 10572      655F6170 
 10572      695F7265 
 10572      73756C74 
 10573              	.LASF737:
 10574 5662 43595F42 		.ascii	"CY_BLE_LL_PWR_LVL_NEG_20_DBM\000"
 10574      4C455F4C 
 10574      4C5F5057 
 10574      525F4C56 
 10574      4C5F4E45 
 10575              	.LASF110:
 10576 567f 63707573 		.ascii	"cpuss_interrupts_dw1_12_IRQn\000"
 10576      735F696E 
 10576      74657272 
 10576      75707473 
 10576      5F647731 
 10577              	.LASF517:
 10578 569c 696E7472 		.ascii	"intrSrc\000"
 10578      53726300 
 10579              	.LASF26:
 10580 56a4 42757346 		.ascii	"BusFault_IRQn\000"
 10580      61756C74 
 10580      5F495251 
 10580      6E00
 10581              	.LASF645:
 10582 56b2 43595F42 		.ascii	"CY_BLE_EVT_GATTS_EXEC_WRITE_REQ\000"
 10582      4C455F45 
 10582      56545F47 
 10582      41545453 
 10582      5F455845 
ARM GAS  C:\Users\kateb\AppData\Local\Temp\cciDLH78.s 			page 279


 10583              	.LASF1002:
 10584 56d2 63795F62 		.ascii	"cy_ble_peerBonding\000"
 10584      6C655F70 
 10584      65657242 
 10584      6F6E6469 
 10584      6E6700
 10585              		.ident	"GCC: (GNU Tools for ARM Embedded Processors) 5.4.1 20160609 (release) [ARM/embedded-5-bran
