ARM GAS  C:\Users\kateb\AppData\Local\Temp\ccPuoZtr.s 			page 1


   1              		.syntax unified
   2              		.cpu cortex-m4
   3              		.eabi_attribute 27, 1
   4              		.fpu fpv4-sp-d16
   5              		.eabi_attribute 20, 1
   6              		.eabi_attribute 21, 1
   7              		.eabi_attribute 23, 3
   8              		.eabi_attribute 24, 1
   9              		.eabi_attribute 25, 1
  10              		.eabi_attribute 26, 1
  11              		.eabi_attribute 30, 1
  12              		.eabi_attribute 34, 1
  13              		.eabi_attribute 18, 4
  14              		.thumb
  15              		.syntax unified
  16              		.file	"cy_eink_library.c"
  17              		.text
  18              	.Ltext0:
  19              		.cfi_sections	.debug_frame
  20              		.section	.text.Cy_EINK_Start,"ax",%progbits
  21              		.align	2
  22              		.global	Cy_EINK_Start
  23              		.thumb
  24              		.thumb_func
  25              		.type	Cy_EINK_Start, %function
  26              	Cy_EINK_Start:
  27              	.LFB592:
  28              		.file 1 "cy_eink_library\\cy_eink_library.c"
   1:cy_eink_library/cy_eink_library.c **** /******************************************************************************
   2:cy_eink_library/cy_eink_library.c **** * File Name: cy_eink_library.c
   3:cy_eink_library/cy_eink_library.c **** *
   4:cy_eink_library/cy_eink_library.c **** * Version: 1.00
   5:cy_eink_library/cy_eink_library.c **** *
   6:cy_eink_library/cy_eink_library.c **** * Description: This file contains the library functions for controlling
   7:cy_eink_library/cy_eink_library.c **** *              the E-INK display.
   8:cy_eink_library/cy_eink_library.c **** *
   9:cy_eink_library/cy_eink_library.c **** * Hardware Dependency: CY8CKIT-028-EPD E-INK Display Shield
  10:cy_eink_library/cy_eink_library.c **** *
  11:cy_eink_library/cy_eink_library.c **** *******************************************************************************
  12:cy_eink_library/cy_eink_library.c **** * Copyright (2018), Cypress Semiconductor Corporation. All rights reserved.
  13:cy_eink_library/cy_eink_library.c **** *******************************************************************************
  14:cy_eink_library/cy_eink_library.c **** * This software, including source code, documentation and related materials
  15:cy_eink_library/cy_eink_library.c **** * (“Software”), is owned by Cypress Semiconductor Corporation or one of its
  16:cy_eink_library/cy_eink_library.c **** * subsidiaries (“Cypress”) and is protected by and subject to worldwide patent
  17:cy_eink_library/cy_eink_library.c **** * protection (United States and foreign), United States copyright laws and
  18:cy_eink_library/cy_eink_library.c **** * international treaty provisions. Therefore, you may use this Software only
  19:cy_eink_library/cy_eink_library.c **** * as provided in the license agreement accompanying the software package from
  20:cy_eink_library/cy_eink_library.c **** * which you obtained this Software (“EULA”).
  21:cy_eink_library/cy_eink_library.c **** *
  22:cy_eink_library/cy_eink_library.c **** * If no EULA applies, Cypress hereby grants you a personal, nonexclusive,
  23:cy_eink_library/cy_eink_library.c **** * non-transferable license to copy, modify, and compile the Software source
  24:cy_eink_library/cy_eink_library.c **** * code solely for use in connection with Cypress’s integrated circuit products.
  25:cy_eink_library/cy_eink_library.c **** * Any reproduction, modification, translation, compilation, or representation
  26:cy_eink_library/cy_eink_library.c **** * of this Software except as specified above is prohibited without the express
  27:cy_eink_library/cy_eink_library.c **** * written permission of Cypress.
  28:cy_eink_library/cy_eink_library.c **** *
  29:cy_eink_library/cy_eink_library.c **** * Disclaimer: THIS SOFTWARE IS PROVIDED AS-IS, WITH NO WARRANTY OF ANY KIND, 
ARM GAS  C:\Users\kateb\AppData\Local\Temp\ccPuoZtr.s 			page 2


  30:cy_eink_library/cy_eink_library.c **** * EXPRESS OR IMPLIED, INCLUDING, BUT NOT LIMITED TO, NONINFRINGEMENT, IMPLIED 
  31:cy_eink_library/cy_eink_library.c **** * WARRANTIES OF MERCHANTABILITY AND FITNESS FOR A PARTICULAR PURPOSE. Cypress 
  32:cy_eink_library/cy_eink_library.c **** * reserves the right to make changes to the Software without notice. Cypress 
  33:cy_eink_library/cy_eink_library.c **** * does not assume any liability arising out of the application or use of the 
  34:cy_eink_library/cy_eink_library.c **** * Software or any product or circuit described in the Software. Cypress does 
  35:cy_eink_library/cy_eink_library.c **** * not authorize its products for use in any products where a malfunction or 
  36:cy_eink_library/cy_eink_library.c **** * failure of the Cypress product may reasonably be expected to result in 
  37:cy_eink_library/cy_eink_library.c **** * significant property damage, injury or death (“High Risk Product”). By 
  38:cy_eink_library/cy_eink_library.c **** * including Cypress’s product in a High Risk Product, the manufacturer of such 
  39:cy_eink_library/cy_eink_library.c **** * system or application assumes all risk of such use and in doing so agrees to 
  40:cy_eink_library/cy_eink_library.c **** * indemnify Cypress against all liability.
  41:cy_eink_library/cy_eink_library.c **** *******************************************************************************/
  42:cy_eink_library/cy_eink_library.c **** /******************************************************************************
  43:cy_eink_library/cy_eink_library.c **** * This file contains the library functions for controlling the E-INK display.
  44:cy_eink_library/cy_eink_library.c **** *
  45:cy_eink_library/cy_eink_library.c **** * For the details of the E-INK display and library functions, see the code  
  46:cy_eink_library/cy_eink_library.c **** * example document of CE218133 - PSoC 6 MCU E-INK Display with CapSense
  47:cy_eink_library/cy_eink_library.c **** *
  48:cy_eink_library/cy_eink_library.c **** * For the details of E-INK display hardware and driver interface, see the 
  49:cy_eink_library/cy_eink_library.c **** * documents available at the following website:
  50:cy_eink_library/cy_eink_library.c **** * http://www.pervasivedisplays.com/products/271
  51:cy_eink_library/cy_eink_library.c ****  *******************************************************************************/
  52:cy_eink_library/cy_eink_library.c **** 
  53:cy_eink_library/cy_eink_library.c **** /* Header file includes */
  54:cy_eink_library/cy_eink_library.c **** #include "cy_eink_library.h"
  55:cy_eink_library/cy_eink_library.c **** 
  56:cy_eink_library/cy_eink_library.c **** /* Range of ASCII printable characters: "!" to "~" */
  57:cy_eink_library/cy_eink_library.c **** #define CY_EINK_ASCII_MIN   (uint8_t) (0x21)
  58:cy_eink_library/cy_eink_library.c **** #define CY_EINK_ASCII_MAX   (uint8_t) (0x7E)
  59:cy_eink_library/cy_eink_library.c **** 
  60:cy_eink_library/cy_eink_library.c **** /* Range of image byte coordinates */
  61:cy_eink_library/cy_eink_library.c **** #define CY_EINK_IMAGE_X_MAX (uint8_t) (33u)
  62:cy_eink_library/cy_eink_library.c **** #define CY_EINK_IMAGE_Y_MAX (uint8_t) (175u)
  63:cy_eink_library/cy_eink_library.c **** 
  64:cy_eink_library/cy_eink_library.c **** /*******************************************************************************
  65:cy_eink_library/cy_eink_library.c **** * Function Name: cy_eink_api_result Cy_EINK_Start(int8_t temperature,
  66:cy_eink_library/cy_eink_library.c **** *                                       cy_eink_delay_function_t delayFunction)
  67:cy_eink_library/cy_eink_library.c **** ********************************************************************************
  68:cy_eink_library/cy_eink_library.c **** *
  69:cy_eink_library/cy_eink_library.c **** * Summary: Initialize the E-INK display hardware, starts the required PSoC 
  70:cy_eink_library/cy_eink_library.c **** *  components, and also performs temperature compensation of E-INK parameters.
  71:cy_eink_library/cy_eink_library.c **** *
  72:cy_eink_library/cy_eink_library.c **** *  Note: This function does not turn on the E-INK display.
  73:cy_eink_library/cy_eink_library.c **** *
  74:cy_eink_library/cy_eink_library.c **** * Parameters:
  75:cy_eink_library/cy_eink_library.c **** *  int8_t temperature       : Ambient temperature in degree Celsius
  76:cy_eink_library/cy_eink_library.c **** *  cy_eink_delay_function_t : Pointer to a delay function that accepts
  77:cy_eink_library/cy_eink_library.c **** *                             delay in milliseconds (uint32_t type)                         
  78:cy_eink_library/cy_eink_library.c **** *
  79:cy_eink_library/cy_eink_library.c **** * Return:
  80:cy_eink_library/cy_eink_library.c **** *  None
  81:cy_eink_library/cy_eink_library.c **** *
  82:cy_eink_library/cy_eink_library.c **** * Side Effects:
  83:cy_eink_library/cy_eink_library.c **** *  Lower ambient temperature results in higher refresh times
  84:cy_eink_library/cy_eink_library.c **** *
  85:cy_eink_library/cy_eink_library.c **** *******************************************************************************/
  86:cy_eink_library/cy_eink_library.c **** cy_eink_api_result Cy_EINK_Start(int8_t temperature,
ARM GAS  C:\Users\kateb\AppData\Local\Temp\ccPuoZtr.s 			page 3


  87:cy_eink_library/cy_eink_library.c ****                                  cy_eink_delay_function_t delayFunction)
  88:cy_eink_library/cy_eink_library.c **** {
  29              		.loc 1 88 0
  30              		.cfi_startproc
  31              		@ args = 0, pretend = 0, frame = 0
  32              		@ frame_needed = 0, uses_anonymous_args = 0
  33              	.LVL0:
  89:cy_eink_library/cy_eink_library.c ****     /* Variable to store the return value */
  90:cy_eink_library/cy_eink_library.c ****     cy_eink_api_result returnValue;
  91:cy_eink_library/cy_eink_library.c ****     
  92:cy_eink_library/cy_eink_library.c ****     /* Make sure that the function pointer parameter is not NULL */
  93:cy_eink_library/cy_eink_library.c ****     if(delayFunction != NULL)
  34              		.loc 1 93 0
  35 0000 59B1     		cbz	r1, .L3
  88:cy_eink_library/cy_eink_library.c ****     /* Variable to store the return value */
  36              		.loc 1 88 0
  37 0002 10B5     		push	{r4, lr}
  38              		.cfi_def_cfa_offset 8
  39              		.cfi_offset 4, -8
  40              		.cfi_offset 14, -4
  41 0004 0446     		mov	r4, r0
  94:cy_eink_library/cy_eink_library.c ****     {
  95:cy_eink_library/cy_eink_library.c ****         /* Register the callback function for EINK delay in milliseconds */
  96:cy_eink_library/cy_eink_library.c ****         Cy_EINK_RegisterDelayFunction(delayFunction);
  42              		.loc 1 96 0
  43 0006 0846     		mov	r0, r1
  44              	.LVL1:
  45 0008 FFF7FEFF 		bl	Cy_EINK_RegisterDelayFunction
  46              	.LVL2:
  97:cy_eink_library/cy_eink_library.c ****         
  98:cy_eink_library/cy_eink_library.c ****         /* Initialize the E-INK display hardware and associated PSoC
  99:cy_eink_library/cy_eink_library.c ****            components */
 100:cy_eink_library/cy_eink_library.c ****         Pv_EINK_Init();
  47              		.loc 1 100 0
  48 000c FFF7FEFF 		bl	Pv_EINK_Init
  49              	.LVL3:
 101:cy_eink_library/cy_eink_library.c ****         /* Perform temperature compensation of E-INK parameters */
 102:cy_eink_library/cy_eink_library.c ****         Pv_EINK_SetTempFactor(temperature);
  50              		.loc 1 102 0
  51 0010 2046     		mov	r0, r4
  52 0012 FFF7FEFF 		bl	Pv_EINK_SetTempFactor
  53              	.LVL4:
 103:cy_eink_library/cy_eink_library.c ****         
 104:cy_eink_library/cy_eink_library.c ****         /* Return success */
 105:cy_eink_library/cy_eink_library.c ****         returnValue = CY_EINK_SUCCESS;
  54              		.loc 1 105 0
  55 0016 0020     		movs	r0, #0
  56 0018 10BD     		pop	{r4, pc}
  57              	.LVL5:
  58              	.L3:
  59              		.cfi_def_cfa_offset 0
  60              		.cfi_restore 4
  61              		.cfi_restore 14
 106:cy_eink_library/cy_eink_library.c ****     }
 107:cy_eink_library/cy_eink_library.c ****     else
 108:cy_eink_library/cy_eink_library.c ****     {
 109:cy_eink_library/cy_eink_library.c ****         /* Return failure */
ARM GAS  C:\Users\kateb\AppData\Local\Temp\ccPuoZtr.s 			page 4


 110:cy_eink_library/cy_eink_library.c ****         returnValue = CY_EINK_FAILURE;
  62              		.loc 1 110 0
  63 001a 0120     		movs	r0, #1
  64              	.LVL6:
  65 001c 7047     		bx	lr
  66              		.cfi_endproc
  67              	.LFE592:
  68              		.size	Cy_EINK_Start, .-Cy_EINK_Start
  69 001e 00BF     		.section	.text.Cy_EINK_Power,"ax",%progbits
  70              		.align	2
  71              		.global	Cy_EINK_Power
  72              		.thumb
  73              		.thumb_func
  74              		.type	Cy_EINK_Power, %function
  75              	Cy_EINK_Power:
  76              	.LFB593:
 111:cy_eink_library/cy_eink_library.c ****     }
 112:cy_eink_library/cy_eink_library.c ****     
 113:cy_eink_library/cy_eink_library.c ****     return returnValue;
 114:cy_eink_library/cy_eink_library.c **** }
 115:cy_eink_library/cy_eink_library.c **** 
 116:cy_eink_library/cy_eink_library.c **** /*******************************************************************************
 117:cy_eink_library/cy_eink_library.c **** * Function Name: cy_eink_api_result Cy_EINK_Power(bool powerCtrl)
 118:cy_eink_library/cy_eink_library.c **** ********************************************************************************
 119:cy_eink_library/cy_eink_library.c **** *
 120:cy_eink_library/cy_eink_library.c **** * Summary: This function is used to turn on/off the E-INK display power.
 121:cy_eink_library/cy_eink_library.c **** *
 122:cy_eink_library/cy_eink_library.c **** *  Note: This function can not be used to clear the E-INK display. The display 
 123:cy_eink_library/cy_eink_library.c **** *  will retain the previously written frame even when it's turned off.
 124:cy_eink_library/cy_eink_library.c **** *
 125:cy_eink_library/cy_eink_library.c **** * Parameters:
 126:cy_eink_library/cy_eink_library.c **** *  bool powerCtrl       : "False" turns off and "True" turns on the display.
 127:cy_eink_library/cy_eink_library.c **** *
 128:cy_eink_library/cy_eink_library.c **** * Return:
 129:cy_eink_library/cy_eink_library.c **** *  cy_eink_api_result   : "CY_EINK_SUCCESS" if operation was successful;
 130:cy_eink_library/cy_eink_library.c **** *                         "CY_EINK_FAILURE" otherwise
 131:cy_eink_library/cy_eink_library.c **** *
 132:cy_eink_library/cy_eink_library.c **** * Side Effects:
 133:cy_eink_library/cy_eink_library.c **** *  None
 134:cy_eink_library/cy_eink_library.c **** *
 135:cy_eink_library/cy_eink_library.c **** *******************************************************************************/
 136:cy_eink_library/cy_eink_library.c **** cy_eink_api_result Cy_EINK_Power(bool powerCtrl)
 137:cy_eink_library/cy_eink_library.c **** {
  77              		.loc 1 137 0
  78              		.cfi_startproc
  79              		@ args = 0, pretend = 0, frame = 0
  80              		@ frame_needed = 0, uses_anonymous_args = 0
  81              	.LVL7:
  82 0000 08B5     		push	{r3, lr}
  83              		.cfi_def_cfa_offset 8
  84              		.cfi_offset 3, -8
  85              		.cfi_offset 14, -4
 138:cy_eink_library/cy_eink_library.c ****     /* Variable to store operation status */
 139:cy_eink_library/cy_eink_library.c ****     pv_eink_status_t pwrStatus;
 140:cy_eink_library/cy_eink_library.c ****     cy_eink_api_result returnValue;
 141:cy_eink_library/cy_eink_library.c ****     
 142:cy_eink_library/cy_eink_library.c ****     /* Turn on the E-INK power if powerCtrl is "true" */
ARM GAS  C:\Users\kateb\AppData\Local\Temp\ccPuoZtr.s 			page 5


 143:cy_eink_library/cy_eink_library.c ****     if (powerCtrl == CY_EINK_ON)
  86              		.loc 1 143 0
  87 0002 10B1     		cbz	r0, .L7
 144:cy_eink_library/cy_eink_library.c ****     {
 145:cy_eink_library/cy_eink_library.c ****         pwrStatus = Pv_EINK_HardwarePowerOn();
  88              		.loc 1 145 0
  89 0004 FFF7FEFF 		bl	Pv_EINK_HardwarePowerOn
  90              	.LVL8:
  91 0008 01E0     		b	.L8
  92              	.LVL9:
  93              	.L7:
 146:cy_eink_library/cy_eink_library.c ****     }
 147:cy_eink_library/cy_eink_library.c ****     /* Turn off the E-INK power if powerCtrl is "false" */
 148:cy_eink_library/cy_eink_library.c ****     else
 149:cy_eink_library/cy_eink_library.c ****     {
 150:cy_eink_library/cy_eink_library.c ****         pwrStatus = Pv_EINK_HardwarePowerOff();
  94              		.loc 1 150 0
  95 000a FFF7FEFF 		bl	Pv_EINK_HardwarePowerOff
  96              	.LVL10:
  97              	.L8:
 151:cy_eink_library/cy_eink_library.c ****     }
 152:cy_eink_library/cy_eink_library.c ****     /* If the operation was successful, return "true" */
 153:cy_eink_library/cy_eink_library.c ****     if (pwrStatus == PV_EINK_RES_OK)
  98              		.loc 1 153 0
  99 000e 00B1     		cbz	r0, .L9
 154:cy_eink_library/cy_eink_library.c ****     {
 155:cy_eink_library/cy_eink_library.c ****         returnValue = CY_EINK_SUCCESS;
 156:cy_eink_library/cy_eink_library.c ****     }
 157:cy_eink_library/cy_eink_library.c ****     /* If the operation was not successful, return "false" */
 158:cy_eink_library/cy_eink_library.c ****     else
 159:cy_eink_library/cy_eink_library.c ****     {
 160:cy_eink_library/cy_eink_library.c ****         returnValue = CY_EINK_FAILURE;
 100              		.loc 1 160 0
 101 0010 0120     		movs	r0, #1
 102              	.LVL11:
 103              	.L9:
 161:cy_eink_library/cy_eink_library.c ****     }
 162:cy_eink_library/cy_eink_library.c ****     
 163:cy_eink_library/cy_eink_library.c ****     /* Return the outcome of the power control operation */
 164:cy_eink_library/cy_eink_library.c ****     return (returnValue);
 165:cy_eink_library/cy_eink_library.c **** }
 104              		.loc 1 165 0
 105 0012 08BD     		pop	{r3, pc}
 106              		.cfi_endproc
 107              	.LFE593:
 108              		.size	Cy_EINK_Power, .-Cy_EINK_Power
 109              		.section	.text.Cy_EINK_Clear,"ax",%progbits
 110              		.align	2
 111              		.global	Cy_EINK_Clear
 112              		.thumb
 113              		.thumb_func
 114              		.type	Cy_EINK_Clear, %function
 115              	Cy_EINK_Clear:
 116              	.LFB594:
 166:cy_eink_library/cy_eink_library.c **** 
 167:cy_eink_library/cy_eink_library.c **** /*******************************************************************************
 168:cy_eink_library/cy_eink_library.c **** * Function Name: void Cy_EINK_Clear(bool background, bool powerCycle)
ARM GAS  C:\Users\kateb\AppData\Local\Temp\ccPuoZtr.s 			page 6


 169:cy_eink_library/cy_eink_library.c **** ********************************************************************************
 170:cy_eink_library/cy_eink_library.c **** *
 171:cy_eink_library/cy_eink_library.c **** * Summary: This function is used to clear the display to all white or all black
 172:cy_eink_library/cy_eink_library.c **** *  pixels.
 173:cy_eink_library/cy_eink_library.c **** *
 174:cy_eink_library/cy_eink_library.c **** *  Note1: The E-INK display should be powered on (using Cy_EINK_Power function) 
 175:cy_eink_library/cy_eink_library.c **** *  before calling this function if "powerCycle" is false. Otherwise the display 
 176:cy_eink_library/cy_eink_library.c **** *  won't be cleared.
 177:cy_eink_library/cy_eink_library.c **** *
 178:cy_eink_library/cy_eink_library.c **** *  Note2: This function is intended to be called only after a reset/power up.
 179:cy_eink_library/cy_eink_library.c **** *  Use Cy_EINK_ShowFrame() function to clear the display if you know the frame
 180:cy_eink_library/cy_eink_library.c **** *  that has been written to the display.
 181:cy_eink_library/cy_eink_library.c **** *
 182:cy_eink_library/cy_eink_library.c **** * Parameters:
 183:cy_eink_library/cy_eink_library.c **** *  bool background   : False for black background and True for white background.
 184:cy_eink_library/cy_eink_library.c **** *  bool powerCycle   : True for automatic power cycle. False otherwise
 185:cy_eink_library/cy_eink_library.c **** * 
 186:cy_eink_library/cy_eink_library.c **** * Return:
 187:cy_eink_library/cy_eink_library.c **** *  None
 188:cy_eink_library/cy_eink_library.c **** *
 189:cy_eink_library/cy_eink_library.c **** * Side Effects:
 190:cy_eink_library/cy_eink_library.c **** *  This is a blocking function that can take as many as 2 seconds 
 191:cy_eink_library/cy_eink_library.c **** *
 192:cy_eink_library/cy_eink_library.c **** *******************************************************************************/
 193:cy_eink_library/cy_eink_library.c **** void Cy_EINK_Clear(bool background, bool powerCycle)
 194:cy_eink_library/cy_eink_library.c **** {
 117              		.loc 1 194 0
 118              		.cfi_startproc
 119              		@ args = 0, pretend = 0, frame = 0
 120              		@ frame_needed = 0, uses_anonymous_args = 0
 121              	.LVL12:
 122 0000 38B5     		push	{r3, r4, r5, lr}
 123              		.cfi_def_cfa_offset 16
 124              		.cfi_offset 3, -16
 125              		.cfi_offset 4, -12
 126              		.cfi_offset 5, -8
 127              		.cfi_offset 14, -4
 128 0002 0446     		mov	r4, r0
 195:cy_eink_library/cy_eink_library.c ****     /* If power cycle operation requested, turn on E-INK power */
 196:cy_eink_library/cy_eink_library.c ****     if (powerCycle)
 129              		.loc 1 196 0
 130 0004 0D46     		mov	r5, r1
 131 0006 11B1     		cbz	r1, .L13
 197:cy_eink_library/cy_eink_library.c ****     {
 198:cy_eink_library/cy_eink_library.c ****         Cy_EINK_Power(CY_EINK_ON);
 132              		.loc 1 198 0
 133 0008 0120     		movs	r0, #1
 134              	.LVL13:
 135 000a FFF7FEFF 		bl	Cy_EINK_Power
 136              	.LVL14:
 137              	.L13:
 199:cy_eink_library/cy_eink_library.c ****     }
 200:cy_eink_library/cy_eink_library.c ****     /* Clear the display to white background */
 201:cy_eink_library/cy_eink_library.c ****     if (background == CY_EINK_WHITE_BACKGROUND)
 138              		.loc 1 201 0
 139 000e 44B1     		cbz	r4, .L14
 202:cy_eink_library/cy_eink_library.c ****     {
ARM GAS  C:\Users\kateb\AppData\Local\Temp\ccPuoZtr.s 			page 7


 203:cy_eink_library/cy_eink_library.c ****         /* Two consecutive display updates to reduce ghosting */
 204:cy_eink_library/cy_eink_library.c ****         Pv_EINK_FullStageHandler(CY_EINK_WHITE_FRAME, PV_EINK_STAGE4);
 140              		.loc 1 204 0
 141 0010 0321     		movs	r1, #3
 142 0012 0020     		movs	r0, #0
 143 0014 FFF7FEFF 		bl	Pv_EINK_FullStageHandler
 144              	.LVL15:
 205:cy_eink_library/cy_eink_library.c ****         Pv_EINK_FullStageHandler(CY_EINK_WHITE_FRAME, PV_EINK_STAGE4);
 145              		.loc 1 205 0
 146 0018 0321     		movs	r1, #3
 147 001a 0020     		movs	r0, #0
 148 001c FFF7FEFF 		bl	Pv_EINK_FullStageHandler
 149              	.LVL16:
 150 0020 09E0     		b	.L15
 151              	.L14:
 206:cy_eink_library/cy_eink_library.c ****     }
 207:cy_eink_library/cy_eink_library.c ****     /* Clear the display to black background */
 208:cy_eink_library/cy_eink_library.c ****     else if (background == CY_EINK_BLACK_BACKGROUND)
 152              		.loc 1 208 0
 153 0022 44B9     		cbnz	r4, .L15
 209:cy_eink_library/cy_eink_library.c ****     {
 210:cy_eink_library/cy_eink_library.c ****         /* Two consecutive display updates to reduce ghosting */
 211:cy_eink_library/cy_eink_library.c ****         Pv_EINK_FullStageHandler(CY_EINK_BLACK_FRAME, PV_EINK_STAGE4);
 154              		.loc 1 211 0
 155 0024 064C     		ldr	r4, .L18
 156 0026 0321     		movs	r1, #3
 157 0028 2046     		mov	r0, r4
 158 002a FFF7FEFF 		bl	Pv_EINK_FullStageHandler
 159              	.LVL17:
 212:cy_eink_library/cy_eink_library.c ****         Pv_EINK_FullStageHandler(CY_EINK_BLACK_FRAME, PV_EINK_STAGE4);
 160              		.loc 1 212 0
 161 002e 0321     		movs	r1, #3
 162 0030 2046     		mov	r0, r4
 163 0032 FFF7FEFF 		bl	Pv_EINK_FullStageHandler
 164              	.LVL18:
 165              	.L15:
 213:cy_eink_library/cy_eink_library.c ****     }
 214:cy_eink_library/cy_eink_library.c ****     else
 215:cy_eink_library/cy_eink_library.c ****     {
 216:cy_eink_library/cy_eink_library.c ****     }
 217:cy_eink_library/cy_eink_library.c ****     
 218:cy_eink_library/cy_eink_library.c ****     /* If power cycle operation requested, turn off E-INK power */
 219:cy_eink_library/cy_eink_library.c ****     if (powerCycle)
 166              		.loc 1 219 0
 167 0036 15B1     		cbz	r5, .L12
 220:cy_eink_library/cy_eink_library.c ****     {
 221:cy_eink_library/cy_eink_library.c ****         Cy_EINK_Power(CY_EINK_OFF);
 168              		.loc 1 221 0
 169 0038 0020     		movs	r0, #0
 170 003a FFF7FEFF 		bl	Cy_EINK_Power
 171              	.LVL19:
 172              	.L12:
 173 003e 38BD     		pop	{r3, r4, r5, pc}
 174              	.L19:
 175              		.align	2
 176              	.L18:
 177 0040 FFFF0F10 		.word	269484031
ARM GAS  C:\Users\kateb\AppData\Local\Temp\ccPuoZtr.s 			page 8


 178              		.cfi_endproc
 179              	.LFE594:
 180              		.size	Cy_EINK_Clear, .-Cy_EINK_Clear
 181              		.section	.text.Cy_EINK_ShowFrame,"ax",%progbits
 182              		.align	2
 183              		.global	Cy_EINK_ShowFrame
 184              		.thumb
 185              		.thumb_func
 186              		.type	Cy_EINK_ShowFrame, %function
 187              	Cy_EINK_ShowFrame:
 188              	.LFB595:
 222:cy_eink_library/cy_eink_library.c ****     }
 223:cy_eink_library/cy_eink_library.c **** }
 224:cy_eink_library/cy_eink_library.c **** 
 225:cy_eink_library/cy_eink_library.c **** /*******************************************************************************
 226:cy_eink_library/cy_eink_library.c **** * Function Name: void Cy_EINK_ShowFrame(cy_eink_frame_t* prevFrame, 
 227:cy_eink_library/cy_eink_library.c **** *      cy_eink_frame_t* newFrame,CY_EINK_UpdateType updateType, bool powerCycle)
 228:cy_eink_library/cy_eink_library.c **** ********************************************************************************
 229:cy_eink_library/cy_eink_library.c **** *
 230:cy_eink_library/cy_eink_library.c **** * Summary: Updates the E-INK display with a frame/image stored in the flash
 231:cy_eink_library/cy_eink_library.c **** *          or RAM.
 232:cy_eink_library/cy_eink_library.c **** *
 233:cy_eink_library/cy_eink_library.c **** *  Notes: This function requires the previous frame data as well as the new 
 234:cy_eink_library/cy_eink_library.c **** *  frame data. If the previous frame data changes from the actual frame 
 235:cy_eink_library/cy_eink_library.c **** *  previously written to the display, considerable ghosting may occur.
 236:cy_eink_library/cy_eink_library.c **** *
 237:cy_eink_library/cy_eink_library.c **** *  The E-INK display should be powered on (using Cy_EINK_Power function) before 
 238:cy_eink_library/cy_eink_library.c **** *  calling this function, if "powerCycle" parameter is false. Otherwise the 
 239:cy_eink_library/cy_eink_library.c **** *  display won't be updated.
 240:cy_eink_library/cy_eink_library.c **** *
 241:cy_eink_library/cy_eink_library.c **** * Parameters:
 242:cy_eink_library/cy_eink_library.c **** *  cy_eink_frame_t* prevFrame    : Pointer to the previous frame written on the 
 243:cy_eink_library/cy_eink_library.c **** *                                  display
 244:cy_eink_library/cy_eink_library.c **** *  cy_eink_frame_t* newFrame     : Pointer to the new frame that need to be
 245:cy_eink_library/cy_eink_library.c **** *                                  written
 246:cy_eink_library/cy_eink_library.c **** *  cy_eink_update_t              : Full update (2/4 stages) or  Partial update
 247:cy_eink_library/cy_eink_library.c **** *  bool powerCycle               : "true" for automatic power cycle, "false" 
 248:cy_eink_library/cy_eink_library.c **** *                                  for manual
 249:cy_eink_library/cy_eink_library.c **** *  
 250:cy_eink_library/cy_eink_library.c **** * Return:
 251:cy_eink_library/cy_eink_library.c **** *  None
 252:cy_eink_library/cy_eink_library.c **** *
 253:cy_eink_library/cy_eink_library.c **** * Side Effects:
 254:cy_eink_library/cy_eink_library.c **** *  This is a blocking function that can take as many as 2 seconds 
 255:cy_eink_library/cy_eink_library.c **** *
 256:cy_eink_library/cy_eink_library.c **** *******************************************************************************/
 257:cy_eink_library/cy_eink_library.c **** void Cy_EINK_ShowFrame(cy_eink_frame_t* prevFrame, cy_eink_frame_t* newFrame,
 258:cy_eink_library/cy_eink_library.c ****                        cy_eink_update_t updateType, bool powerCycle)
 259:cy_eink_library/cy_eink_library.c **** {
 189              		.loc 1 259 0
 190              		.cfi_startproc
 191              		@ args = 0, pretend = 0, frame = 0
 192              		@ frame_needed = 0, uses_anonymous_args = 0
 193              	.LVL20:
 194 0000 F8B5     		push	{r3, r4, r5, r6, r7, lr}
 195              		.cfi_def_cfa_offset 24
 196              		.cfi_offset 3, -24
ARM GAS  C:\Users\kateb\AppData\Local\Temp\ccPuoZtr.s 			page 9


 197              		.cfi_offset 4, -20
 198              		.cfi_offset 5, -16
 199              		.cfi_offset 6, -12
 200              		.cfi_offset 7, -8
 201              		.cfi_offset 14, -4
 202 0002 0746     		mov	r7, r0
 203 0004 0E46     		mov	r6, r1
 204 0006 1446     		mov	r4, r2
 260:cy_eink_library/cy_eink_library.c ****     /* If power cycle operation requested, turn on E-INK power */
 261:cy_eink_library/cy_eink_library.c ****     if (powerCycle)
 205              		.loc 1 261 0
 206 0008 1D46     		mov	r5, r3
 207 000a 13B1     		cbz	r3, .L21
 262:cy_eink_library/cy_eink_library.c ****     {
 263:cy_eink_library/cy_eink_library.c ****         Cy_EINK_Power(CY_EINK_ON);
 208              		.loc 1 263 0
 209 000c 0120     		movs	r0, #1
 210              	.LVL21:
 211 000e FFF7FEFF 		bl	Cy_EINK_Power
 212              	.LVL22:
 213              	.L21:
 264:cy_eink_library/cy_eink_library.c ****     }
 265:cy_eink_library/cy_eink_library.c ****     /* Partial update stage */
 266:cy_eink_library/cy_eink_library.c ****     if (updateType == CY_EINK_PARTIAL)
 214              		.loc 1 266 0
 215 0012 24B9     		cbnz	r4, .L22
 267:cy_eink_library/cy_eink_library.c ****     {
 268:cy_eink_library/cy_eink_library.c ****         /* Update the display with changes from previous frame */
 269:cy_eink_library/cy_eink_library.c ****         Pv_EINK_PartialStageHandler(prevFrame, newFrame);
 216              		.loc 1 269 0
 217 0014 3146     		mov	r1, r6
 218 0016 3846     		mov	r0, r7
 219 0018 FFF7FEFF 		bl	Pv_EINK_PartialStageHandler
 220              	.LVL23:
 221 001c 15E0     		b	.L23
 222              	.L22:
 270:cy_eink_library/cy_eink_library.c ****     }
 271:cy_eink_library/cy_eink_library.c ****     /* Full update stages */
 272:cy_eink_library/cy_eink_library.c ****     else if ((updateType == CY_EINK_FULL_4STAGE) || 
 223              		.loc 1 272 0
 224 001e 631E     		subs	r3, r4, #1
 225 0020 DBB2     		uxtb	r3, r3
 226 0022 012B     		cmp	r3, #1
 227 0024 11D8     		bhi	.L23
 273:cy_eink_library/cy_eink_library.c ****              (updateType == CY_EINK_FULL_2STAGE))
 274:cy_eink_library/cy_eink_library.c ****     {
 275:cy_eink_library/cy_eink_library.c ****         /* Stage 1: update the display with the inverted version of the previous 
 276:cy_eink_library/cy_eink_library.c ****            frame */
 277:cy_eink_library/cy_eink_library.c ****         Pv_EINK_FullStageHandler(prevFrame, PV_EINK_STAGE1);
 228              		.loc 1 277 0
 229 0026 0021     		movs	r1, #0
 230 0028 3846     		mov	r0, r7
 231 002a FFF7FEFF 		bl	Pv_EINK_FullStageHandler
 232              	.LVL24:
 278:cy_eink_library/cy_eink_library.c ****         
 279:cy_eink_library/cy_eink_library.c ****         /* Additional stages that reduce ghosting for a 4 stage full update */
 280:cy_eink_library/cy_eink_library.c ****         if (updateType == CY_EINK_FULL_4STAGE)
ARM GAS  C:\Users\kateb\AppData\Local\Temp\ccPuoZtr.s 			page 10


 233              		.loc 1 280 0
 234 002e 012C     		cmp	r4, #1
 235 0030 07D1     		bne	.L24
 281:cy_eink_library/cy_eink_library.c ****         {
 282:cy_eink_library/cy_eink_library.c ****             /* Stage 2: update the display with an all white frame */
 283:cy_eink_library/cy_eink_library.c ****             Pv_EINK_FullStageHandler(prevFrame, PV_EINK_STAGE2);
 236              		.loc 1 283 0
 237 0032 0121     		movs	r1, #1
 238 0034 3846     		mov	r0, r7
 239 0036 FFF7FEFF 		bl	Pv_EINK_FullStageHandler
 240              	.LVL25:
 284:cy_eink_library/cy_eink_library.c ****             /* Stage 3: update the display with the inverted version of the new 
 285:cy_eink_library/cy_eink_library.c ****                frame */
 286:cy_eink_library/cy_eink_library.c ****             Pv_EINK_FullStageHandler(newFrame, PV_EINK_STAGE3);
 241              		.loc 1 286 0
 242 003a 0221     		movs	r1, #2
 243 003c 3046     		mov	r0, r6
 244 003e FFF7FEFF 		bl	Pv_EINK_FullStageHandler
 245              	.LVL26:
 246              	.L24:
 287:cy_eink_library/cy_eink_library.c ****         }
 288:cy_eink_library/cy_eink_library.c ****         
 289:cy_eink_library/cy_eink_library.c ****         /* Stage 4: update the display with the new frame */
 290:cy_eink_library/cy_eink_library.c ****         Pv_EINK_FullStageHandler(newFrame, PV_EINK_STAGE4);
 247              		.loc 1 290 0
 248 0042 0321     		movs	r1, #3
 249 0044 3046     		mov	r0, r6
 250 0046 FFF7FEFF 		bl	Pv_EINK_FullStageHandler
 251              	.LVL27:
 252              	.L23:
 291:cy_eink_library/cy_eink_library.c ****     }
 292:cy_eink_library/cy_eink_library.c ****     else
 293:cy_eink_library/cy_eink_library.c ****     {
 294:cy_eink_library/cy_eink_library.c ****     }
 295:cy_eink_library/cy_eink_library.c ****     
 296:cy_eink_library/cy_eink_library.c ****     /* If power cycle operation requested, turn off E-INK power */
 297:cy_eink_library/cy_eink_library.c ****     if (powerCycle)
 253              		.loc 1 297 0
 254 004a 15B1     		cbz	r5, .L20
 298:cy_eink_library/cy_eink_library.c ****     {
 299:cy_eink_library/cy_eink_library.c ****         Cy_EINK_Power(CY_EINK_OFF);
 255              		.loc 1 299 0
 256 004c 0020     		movs	r0, #0
 257 004e FFF7FEFF 		bl	Cy_EINK_Power
 258              	.LVL28:
 259              	.L20:
 260 0052 F8BD     		pop	{r3, r4, r5, r6, r7, pc}
 261              		.cfi_endproc
 262              	.LFE595:
 263              		.size	Cy_EINK_ShowFrame, .-Cy_EINK_ShowFrame
 264              		.section	.text.Cy_EINK_ImageToFrameBuffer,"ax",%progbits
 265              		.align	2
 266              		.global	Cy_EINK_ImageToFrameBuffer
 267              		.thumb
 268              		.thumb_func
 269              		.type	Cy_EINK_ImageToFrameBuffer, %function
 270              	Cy_EINK_ImageToFrameBuffer:
ARM GAS  C:\Users\kateb\AppData\Local\Temp\ccPuoZtr.s 			page 11


 271              	.LFB596:
 300:cy_eink_library/cy_eink_library.c ****     }
 301:cy_eink_library/cy_eink_library.c **** }
 302:cy_eink_library/cy_eink_library.c **** 
 303:cy_eink_library/cy_eink_library.c **** /*******************************************************************************
 304:cy_eink_library/cy_eink_library.c **** * Function Name: void Cy_EINK_ImageToFrameBuffer(cy_eink_frame_t* frameBuffer,
 305:cy_eink_library/cy_eink_library.c **** *                               cy_eink_frame_t* image, uint8_t* imgCoordinates)
 306:cy_eink_library/cy_eink_library.c **** ********************************************************************************
 307:cy_eink_library/cy_eink_library.c **** *
 308:cy_eink_library/cy_eink_library.c **** * Summary: Copies pixel block data between the specified x and y coordinates 
 309:cy_eink_library/cy_eink_library.c **** *  from an image (typically stored in the flash) to a frame buffer in RAM.
 310:cy_eink_library/cy_eink_library.c **** *
 311:cy_eink_library/cy_eink_library.c **** *  Notes: Image array should be of the same size as frame buffer.
 312:cy_eink_library/cy_eink_library.c **** *
 313:cy_eink_library/cy_eink_library.c **** *  Copying is done at byte level. Pixel level operations are not supported.
 314:cy_eink_library/cy_eink_library.c **** *
 315:cy_eink_library/cy_eink_library.c **** *  This function does not update the E-INK display. After frame buffer update,
 316:cy_eink_library/cy_eink_library.c **** *  use Cy_EINK_ShowFrame() function to update the display if required.
 317:cy_eink_library/cy_eink_library.c **** *
 318:cy_eink_library/cy_eink_library.c **** *  This function can be used to clear the frame buffer by passing an all-white 
 319:cy_eink_library/cy_eink_library.c **** *  or an all-black image.
 320:cy_eink_library/cy_eink_library.c **** *
 321:cy_eink_library/cy_eink_library.c **** * Parameters:
 322:cy_eink_library/cy_eink_library.c **** *  cy_eink_frame_t* frameBuffer   : Pointer to the frame buffer array in RAM
 323:cy_eink_library/cy_eink_library.c **** *  cy_eink_frame_t* image         : Pointer to the image array (typically in 
 324:cy_eink_library/cy_eink_library.c **** *                                   flash)
 325:cy_eink_library/cy_eink_library.c **** *  uint8_t* imgCoordinates        : Pointer to a 4-byte array of image byte
 326:cy_eink_library/cy_eink_library.c **** *                                   coordinates
 327:cy_eink_library/cy_eink_library.c **** *
 328:cy_eink_library/cy_eink_library.c **** * Return:
 329:cy_eink_library/cy_eink_library.c **** *  cy_eink_api_result   : "CY_EINK_SUCCESS" if operation was successful;
 330:cy_eink_library/cy_eink_library.c **** *                         "CY_EINK_FAILURE" otherwise
 331:cy_eink_library/cy_eink_library.c **** *
 332:cy_eink_library/cy_eink_library.c **** * Side Effects:
 333:cy_eink_library/cy_eink_library.c **** *  This is a blocking function that can take as many as 5808 RAM write cycles
 334:cy_eink_library/cy_eink_library.c **** *  to complete.
 335:cy_eink_library/cy_eink_library.c **** *
 336:cy_eink_library/cy_eink_library.c **** *******************************************************************************/
 337:cy_eink_library/cy_eink_library.c **** cy_eink_api_result Cy_EINK_ImageToFrameBuffer(cy_eink_frame_t* frameBuffer, 
 338:cy_eink_library/cy_eink_library.c ****                         cy_eink_frame_t* image, uint8_t* imgCoordinates)
 339:cy_eink_library/cy_eink_library.c **** {
 272              		.loc 1 339 0
 273              		.cfi_startproc
 274              		@ args = 0, pretend = 0, frame = 0
 275              		@ frame_needed = 0, uses_anonymous_args = 0
 276              	.LVL29:
 277 0000 F8B5     		push	{r3, r4, r5, r6, r7, lr}
 278              		.cfi_def_cfa_offset 24
 279              		.cfi_offset 3, -24
 280              		.cfi_offset 4, -20
 281              		.cfi_offset 5, -16
 282              		.cfi_offset 6, -12
 283              		.cfi_offset 7, -8
 284              		.cfi_offset 14, -4
 340:cy_eink_library/cy_eink_library.c ****     /* Counter variable for horizontal pixel lines */
 341:cy_eink_library/cy_eink_library.c ****     uint16_t pixelLineCounter;
 342:cy_eink_library/cy_eink_library.c ****     
ARM GAS  C:\Users\kateb\AppData\Local\Temp\ccPuoZtr.s 			page 12


 343:cy_eink_library/cy_eink_library.c ****     /* Variable that stores the starting location of the current pixel line */
 344:cy_eink_library/cy_eink_library.c ****     uint16_t startLocation;
 345:cy_eink_library/cy_eink_library.c ****     
 346:cy_eink_library/cy_eink_library.c ****     /* Variable that stores the length of the pixel line */
 347:cy_eink_library/cy_eink_library.c ****     uint16_t lineLength;
 348:cy_eink_library/cy_eink_library.c ****     
 349:cy_eink_library/cy_eink_library.c ****     /* Variable that stores the return value */
 350:cy_eink_library/cy_eink_library.c ****     cy_eink_api_result returnValue;
 351:cy_eink_library/cy_eink_library.c ****     
 352:cy_eink_library/cy_eink_library.c ****     /* Check if the coordinates are within limits */
 353:cy_eink_library/cy_eink_library.c ****     if((imgCoordinates[CY_EINK_IMG_X1] < imgCoordinates[CY_EINK_IMG_X2])&& 
 285              		.loc 1 353 0
 286 0002 1478     		ldrb	r4, [r2]	@ zero_extendqisi2
 287 0004 5378     		ldrb	r3, [r2, #1]	@ zero_extendqisi2
 288 0006 9C42     		cmp	r4, r3
 289 0008 1FD2     		bcs	.L31
 354:cy_eink_library/cy_eink_library.c ****        (imgCoordinates[CY_EINK_IMG_Y1] < imgCoordinates[CY_EINK_IMG_Y2])&& 
 290              		.loc 1 354 0 discriminator 1
 291 000a 9478     		ldrb	r4, [r2, #2]	@ zero_extendqisi2
 292 000c D578     		ldrb	r5, [r2, #3]	@ zero_extendqisi2
 353:cy_eink_library/cy_eink_library.c ****        (imgCoordinates[CY_EINK_IMG_Y1] < imgCoordinates[CY_EINK_IMG_Y2])&& 
 293              		.loc 1 353 0 discriminator 1
 294 000e AC42     		cmp	r4, r5
 295 0010 1DD2     		bcs	.L32
 296              		.loc 1 354 0
 297 0012 212B     		cmp	r3, #33
 298 0014 1DD8     		bhi	.L33
 355:cy_eink_library/cy_eink_library.c ****        (imgCoordinates[CY_EINK_IMG_X2] <= CY_EINK_IMAGE_X_MAX)&&
 299              		.loc 1 355 0
 300 0016 AF2D     		cmp	r5, #175
 301 0018 1DD8     		bhi	.L34
 302 001a 1546     		mov	r5, r2
 303 001c 0F46     		mov	r7, r1
 304 001e 0646     		mov	r6, r0
 356:cy_eink_library/cy_eink_library.c ****        (imgCoordinates[CY_EINK_IMG_Y2] <= CY_EINK_IMAGE_Y_MAX))
 357:cy_eink_library/cy_eink_library.c ****     {
 358:cy_eink_library/cy_eink_library.c ****         /* Do this for all horizontal pixel lines between Y1 and Y2 
 359:cy_eink_library/cy_eink_library.c ****            coordinates */
 360:cy_eink_library/cy_eink_library.c ****         for (pixelLineCounter  = imgCoordinates[CY_EINK_IMG_Y1];
 305              		.loc 1 360 0
 306 0020 A4B2     		uxth	r4, r4
 307              	.LVL30:
 308 0022 0DE0     		b	.L29
 309              	.LVL31:
 310              	.L30:
 361:cy_eink_library/cy_eink_library.c ****              pixelLineCounter <= imgCoordinates[CY_EINK_IMG_Y2];
 362:cy_eink_library/cy_eink_library.c ****              pixelLineCounter++)
 363:cy_eink_library/cy_eink_library.c ****         {
 364:cy_eink_library/cy_eink_library.c ****             
 365:cy_eink_library/cy_eink_library.c ****             /* Find the starting location of the pixel line */
 366:cy_eink_library/cy_eink_library.c ****             startLocation = (pixelLineCounter * PV_EINK_HORIZONTAL_SIZE) + 
 311              		.loc 1 366 0
 312 0024 2A78     		ldrb	r2, [r5]	@ zero_extendqisi2
 313 0026 04EB4410 		add	r0, r4, r4, lsl #5
 314 002a 1044     		add	r0, r0, r2
 315 002c 80B2     		uxth	r0, r0
 316              	.LVL32:
ARM GAS  C:\Users\kateb\AppData\Local\Temp\ccPuoZtr.s 			page 13


 367:cy_eink_library/cy_eink_library.c ****                              imgCoordinates[CY_EINK_IMG_X1];
 368:cy_eink_library/cy_eink_library.c ****             
 369:cy_eink_library/cy_eink_library.c ****            /* Find the length of the pixel line to be copied */
 370:cy_eink_library/cy_eink_library.c ****             lineLength = imgCoordinates[CY_EINK_IMG_X2] - 
 317              		.loc 1 370 0
 318 002e 6B78     		ldrb	r3, [r5, #1]	@ zero_extendqisi2
 319 0030 9A1A     		subs	r2, r3, r2
 320              	.LVL33:
 371:cy_eink_library/cy_eink_library.c ****                          imgCoordinates[CY_EINK_IMG_X1];
 372:cy_eink_library/cy_eink_library.c ****             
 373:cy_eink_library/cy_eink_library.c ****             /* Copy the pixel line from the image to the same location in the 
 374:cy_eink_library/cy_eink_library.c ****                frame buffer */
 375:cy_eink_library/cy_eink_library.c ****             memcpy (&frameBuffer[startLocation], &image[startLocation],
 321              		.loc 1 375 0
 322 0032 92B2     		uxth	r2, r2
 323 0034 3918     		adds	r1, r7, r0
 324 0036 3044     		add	r0, r0, r6
 325              	.LVL34:
 326 0038 FFF7FEFF 		bl	memcpy
 327              	.LVL35:
 362:cy_eink_library/cy_eink_library.c ****         {
 328              		.loc 1 362 0
 329 003c 0134     		adds	r4, r4, #1
 330              	.LVL36:
 331 003e A4B2     		uxth	r4, r4
 332              	.LVL37:
 333              	.L29:
 361:cy_eink_library/cy_eink_library.c ****              pixelLineCounter++)
 334              		.loc 1 361 0 discriminator 1
 335 0040 EB78     		ldrb	r3, [r5, #3]	@ zero_extendqisi2
 360:cy_eink_library/cy_eink_library.c ****              pixelLineCounter <= imgCoordinates[CY_EINK_IMG_Y2];
 336              		.loc 1 360 0 discriminator 1
 337 0042 9C42     		cmp	r4, r3
 338 0044 EED9     		bls	.L30
 376:cy_eink_library/cy_eink_library.c ****                     lineLength);
 377:cy_eink_library/cy_eink_library.c ****         }
 378:cy_eink_library/cy_eink_library.c ****         
 379:cy_eink_library/cy_eink_library.c ****         returnValue = CY_EINK_SUCCESS;
 339              		.loc 1 379 0
 340 0046 0020     		movs	r0, #0
 341 0048 F8BD     		pop	{r3, r4, r5, r6, r7, pc}
 342              	.LVL38:
 343              	.L31:
 380:cy_eink_library/cy_eink_library.c ****     }
 381:cy_eink_library/cy_eink_library.c ****     else
 382:cy_eink_library/cy_eink_library.c ****     {   
 383:cy_eink_library/cy_eink_library.c ****         /* Operation failed. Check the input parameters */
 384:cy_eink_library/cy_eink_library.c ****         returnValue = CY_EINK_FAILURE; 
 344              		.loc 1 384 0
 345 004a 0120     		movs	r0, #1
 346              	.LVL39:
 347 004c F8BD     		pop	{r3, r4, r5, r6, r7, pc}
 348              	.LVL40:
 349              	.L32:
 350 004e 0120     		movs	r0, #1
 351              	.LVL41:
 352 0050 F8BD     		pop	{r3, r4, r5, r6, r7, pc}
ARM GAS  C:\Users\kateb\AppData\Local\Temp\ccPuoZtr.s 			page 14


 353              	.LVL42:
 354              	.L33:
 355 0052 0120     		movs	r0, #1
 356              	.LVL43:
 357 0054 F8BD     		pop	{r3, r4, r5, r6, r7, pc}
 358              	.LVL44:
 359              	.L34:
 360 0056 0120     		movs	r0, #1
 361              	.LVL45:
 385:cy_eink_library/cy_eink_library.c ****     }
 386:cy_eink_library/cy_eink_library.c ****     
 387:cy_eink_library/cy_eink_library.c ****     return returnValue;
 388:cy_eink_library/cy_eink_library.c **** }
 362              		.loc 1 388 0
 363 0058 F8BD     		pop	{r3, r4, r5, r6, r7, pc}
 364              		.cfi_endproc
 365              	.LFE596:
 366              		.size	Cy_EINK_ImageToFrameBuffer, .-Cy_EINK_ImageToFrameBuffer
 367 005a 00BF     		.section	.text.Cy_EINK_TextToFrameBuffer,"ax",%progbits
 368              		.align	2
 369              		.global	Cy_EINK_TextToFrameBuffer
 370              		.thumb
 371              		.thumb_func
 372              		.type	Cy_EINK_TextToFrameBuffer, %function
 373              	Cy_EINK_TextToFrameBuffer:
 374              	.LFB597:
 389:cy_eink_library/cy_eink_library.c **** 
 390:cy_eink_library/cy_eink_library.c **** /*******************************************************************************
 391:cy_eink_library/cy_eink_library.c **** * Function Name: void Cy_EINK_TextToFrameBuffer(cy_eink_frame_t* frameBuffer, 
 392:cy_eink_library/cy_eink_library.c **** *                char* string, cy_eink_font_t* fontInfo , uint8_t* fontCor)
 393:cy_eink_library/cy_eink_library.c **** ********************************************************************************
 394:cy_eink_library/cy_eink_library.c **** *
 395:cy_eink_library/cy_eink_library.c **** * Summary: Converts a text input (string) to pixel data and stores it at the
 396:cy_eink_library/cy_eink_library.c **** *  specified coordinates of a frame buffer.
 397:cy_eink_library/cy_eink_library.c **** *
 398:cy_eink_library/cy_eink_library.c **** *  Notes: This function only supports printable ASCII characters from "!" to "~"
 399:cy_eink_library/cy_eink_library.c **** *
 400:cy_eink_library/cy_eink_library.c **** *  X and Y locations used in this function are font coordinates, rather than the
 401:cy_eink_library/cy_eink_library.c **** *  pixel coordinates used in Cy_EINK_ImageToFrameBuffer() function. See the 
 402:cy_eink_library/cy_eink_library.c **** *  CY_EINK_fonts.h for details.
 403:cy_eink_library/cy_eink_library.c **** *
 404:cy_eink_library/cy_eink_library.c **** *  This function does not update the E-INK display. After frame buffer update,
 405:cy_eink_library/cy_eink_library.c **** *  use CY_EINK_ShowFrame() function to update the display if required.
 406:cy_eink_library/cy_eink_library.c **** *
 407:cy_eink_library/cy_eink_library.c **** * Parameters:
 408:cy_eink_library/cy_eink_library.c **** *  cy_eink_frame_t* frameBuffer : Pointer to the frame buffer array in RAM
 409:cy_eink_library/cy_eink_library.c **** *  char* string                 : Pointer to the string
 410:cy_eink_library/cy_eink_library.c **** *  cy_eink_font_t* fontInfo     : Structure that stores font information
 411:cy_eink_library/cy_eink_library.c **** *  uint8_t* fontCor             : Pointer to the 2-byte array containing X and
 412:cy_eink_library/cy_eink_library.c **** *                                 Y locations
 413:cy_eink_library/cy_eink_library.c **** *
 414:cy_eink_library/cy_eink_library.c **** * Return:
 415:cy_eink_library/cy_eink_library.c **** *  cy_eink_api_result   : "CY_EINK_SUCCESS" if operation was successful;
 416:cy_eink_library/cy_eink_library.c **** *                         "CY_EINK_FAILURE" otherwise
 417:cy_eink_library/cy_eink_library.c **** *
 418:cy_eink_library/cy_eink_library.c **** * Side Effects:
 419:cy_eink_library/cy_eink_library.c **** *  This is a blocking function that can take as many as 5808 RAM write cycles
ARM GAS  C:\Users\kateb\AppData\Local\Temp\ccPuoZtr.s 			page 15


 420:cy_eink_library/cy_eink_library.c **** *  to complete.
 421:cy_eink_library/cy_eink_library.c **** *
 422:cy_eink_library/cy_eink_library.c **** *******************************************************************************/
 423:cy_eink_library/cy_eink_library.c **** cy_eink_api_result  Cy_EINK_TextToFrameBuffer(cy_eink_frame_t* frameBuffer, 
 424:cy_eink_library/cy_eink_library.c ****                        char* string, cy_eink_font_t* fontInfo, uint8_t* fontCor)
 425:cy_eink_library/cy_eink_library.c **** { 
 375              		.loc 1 425 0
 376              		.cfi_startproc
 377              		@ args = 0, pretend = 0, frame = 0
 378              		@ frame_needed = 0, uses_anonymous_args = 0
 379              	.LVL46:
 380 0000 2DE9F04F 		push	{r4, r5, r6, r7, r8, r9, r10, fp, lr}
 381              		.cfi_def_cfa_offset 36
 382              		.cfi_offset 4, -36
 383              		.cfi_offset 5, -32
 384              		.cfi_offset 6, -28
 385              		.cfi_offset 7, -24
 386              		.cfi_offset 8, -20
 387              		.cfi_offset 9, -16
 388              		.cfi_offset 10, -12
 389              		.cfi_offset 11, -8
 390              		.cfi_offset 14, -4
 391 0004 8B46     		mov	fp, r1
 392              	.LVL47:
 426:cy_eink_library/cy_eink_library.c ****     /* Pointer variable for current character under conversion */
 427:cy_eink_library/cy_eink_library.c ****     char* currentChar;
 428:cy_eink_library/cy_eink_library.c ****     
 429:cy_eink_library/cy_eink_library.c ****     /* Variable for storing the location in the frame buffer to which 
 430:cy_eink_library/cy_eink_library.c ****        the font data is printed */
 431:cy_eink_library/cy_eink_library.c ****     uint16_t printLocation;
 432:cy_eink_library/cy_eink_library.c ****     /* Variable for storing the character location in the font */
 433:cy_eink_library/cy_eink_library.c ****     uint16_t charLocation;
 434:cy_eink_library/cy_eink_library.c ****     
 435:cy_eink_library/cy_eink_library.c ****     /* Variable that stores the pixel data byte location in the frame 
 436:cy_eink_library/cy_eink_library.c ****        buffer */
 437:cy_eink_library/cy_eink_library.c ****     uint16_t frameByte;
 438:cy_eink_library/cy_eink_library.c ****     /* Variable that stores the pixel data byte location in the font array */
 439:cy_eink_library/cy_eink_library.c ****     uint16_t fontByte;
 440:cy_eink_library/cy_eink_library.c ****     
 441:cy_eink_library/cy_eink_library.c ****     /* Counter variable for the vertical loop */
 442:cy_eink_library/cy_eink_library.c ****     uint8_t verticalCounter;
 443:cy_eink_library/cy_eink_library.c ****     /* Counter variable for the horizontal loop */
 444:cy_eink_library/cy_eink_library.c ****     uint8_t horizontalCounter;
 445:cy_eink_library/cy_eink_library.c ****     
 446:cy_eink_library/cy_eink_library.c ****     /* Variable that stores the return value */
 447:cy_eink_library/cy_eink_library.c ****     cy_eink_api_result returnValue = CY_EINK_SUCCESS;
 393              		.loc 1 447 0
 394 0006 4FF00008 		mov	r8, #0
 448:cy_eink_library/cy_eink_library.c ****     
 449:cy_eink_library/cy_eink_library.c ****     /* Repeat this process until the null character of the string is reached */
 450:cy_eink_library/cy_eink_library.c ****     for (currentChar = string;  *currentChar != '\0'; currentChar++)
 395              		.loc 1 450 0
 396 000a 83E0     		b	.L37
 397              	.LVL48:
 398              	.L51:
 451:cy_eink_library/cy_eink_library.c ****     {
 452:cy_eink_library/cy_eink_library.c ****         /* Check if X and Y coordinates are between the font's max limits */
ARM GAS  C:\Users\kateb\AppData\Local\Temp\ccPuoZtr.s 			page 16


 453:cy_eink_library/cy_eink_library.c ****         if ((fontCor[CY_EINK_FONT_X] < (fontInfo->xSpan)) && 
 399              		.loc 1 453 0
 400 000c 1D78     		ldrb	r5, [r3]	@ zero_extendqisi2
 401 000e 167A     		ldrb	r6, [r2, #8]	@ zero_extendqisi2
 402 0010 B542     		cmp	r5, r6
 403 0012 6DD2     		bcs	.L38
 454:cy_eink_library/cy_eink_library.c ****             (fontCor[CY_EINK_FONT_Y] < (fontInfo->ySpan)))
 404              		.loc 1 454 0 discriminator 1
 405 0014 5E78     		ldrb	r6, [r3, #1]	@ zero_extendqisi2
 406 0016 577A     		ldrb	r7, [r2, #9]	@ zero_extendqisi2
 453:cy_eink_library/cy_eink_library.c ****             (fontCor[CY_EINK_FONT_Y] < (fontInfo->ySpan)))
 407              		.loc 1 453 0 discriminator 1
 408 0018 BE42     		cmp	r6, r7
 409 001a 69D2     		bcs	.L38
 455:cy_eink_library/cy_eink_library.c ****         {
 456:cy_eink_library/cy_eink_library.c ****             /* Find the actual pixel location in the frame buffer where the
 457:cy_eink_library/cy_eink_library.c ****                pixel data should be copied */
 458:cy_eink_library/cy_eink_library.c ****             printLocation = (fontInfo->xOffset) + (fontCor[CY_EINK_FONT_X]   * 
 410              		.loc 1 458 0
 411 001c 1779     		ldrb	r7, [r2, #4]	@ zero_extendqisi2
 459:cy_eink_library/cy_eink_library.c ****                             (fontInfo->xSize))  + (((fontCor[CY_EINK_FONT_Y] * 
 460:cy_eink_library/cy_eink_library.c ****                             (fontInfo->ySize))  + (fontInfo->yOffset))    * 
 412              		.loc 1 460 0
 413 001e 92F807E0 		ldrb	lr, [r2, #7]	@ zero_extendqisi2
 414 0022 92F805C0 		ldrb	ip, [r2, #5]	@ zero_extendqisi2
 415 0026 0EFB06C6 		mla	r6, lr, r6, ip
 458:cy_eink_library/cy_eink_library.c ****                             (fontInfo->xSize))  + (((fontCor[CY_EINK_FONT_Y] * 
 416              		.loc 1 458 0
 417 002a 92F806C0 		ldrb	ip, [r2, #6]	@ zero_extendqisi2
 418 002e 06EB4616 		add	r6, r6, r6, lsl #5
 419 0032 05FB0C65 		mla	r5, r5, ip, r6
 420 0036 3D44     		add	r5, r5, r7
 421 0038 AFB2     		uxth	r7, r5
 422              	.LVL49:
 461:cy_eink_library/cy_eink_library.c ****                              PV_EINK_HORIZONTAL_SIZE);
 462:cy_eink_library/cy_eink_library.c ****             
 463:cy_eink_library/cy_eink_library.c ****             /* Check if the current character is a printable ASCII character 
 464:cy_eink_library/cy_eink_library.c ****                between "!" and "~" */
 465:cy_eink_library/cy_eink_library.c ****             if ((*currentChar <= CY_EINK_ASCII_MAX) &&
 423              		.loc 1 465 0
 424 003a A4F12105 		sub	r5, r4, #33
 425 003e EDB2     		uxtb	r5, r5
 426 0040 5D2D     		cmp	r5, #93
 427 0042 51D8     		bhi	.L52
 466:cy_eink_library/cy_eink_library.c ****                 (*currentChar >= CY_EINK_ASCII_MIN))
 467:cy_eink_library/cy_eink_library.c ****             {
 468:cy_eink_library/cy_eink_library.c ****                 /* Find the location of pixel data corresponding to the 
 469:cy_eink_library/cy_eink_library.c ****                    current character from the font array */
 470:cy_eink_library/cy_eink_library.c ****                 charLocation = (*currentChar - CY_EINK_ASCII_MIN) *
 428              		.loc 1 470 0
 429 0044 213C     		subs	r4, r4, #33
 430 0046 1EFB0CFE 		smulbb	lr, lr, ip
 431 004a 1EFB04FE 		smulbb	lr, lr, r4
 432 004e 1FFA8EFC 		uxth	ip, lr
 433              	.LVL50:
 471:cy_eink_library/cy_eink_library.c ****                                ((fontInfo->ySize) * (fontInfo->xSize));
 472:cy_eink_library/cy_eink_library.c ****                 
ARM GAS  C:\Users\kateb\AppData\Local\Temp\ccPuoZtr.s 			page 17


 473:cy_eink_library/cy_eink_library.c ****                 /* Vertical copying loop */
 474:cy_eink_library/cy_eink_library.c ****                 for (verticalCounter = 0; verticalCounter < (fontInfo->ySize); 
 434              		.loc 1 474 0
 435 0052 4FF0000E 		mov	lr, #0
 436 0056 26E0     		b	.L40
 437              	.LVL51:
 438              	.L43:
 475:cy_eink_library/cy_eink_library.c ****                      verticalCounter++)
 476:cy_eink_library/cy_eink_library.c ****                 {
 477:cy_eink_library/cy_eink_library.c ****                     /* Horizontal copying loop */
 478:cy_eink_library/cy_eink_library.c ****                     for (horizontalCounter = 0; 
 479:cy_eink_library/cy_eink_library.c ****                          horizontalCounter < (fontInfo->xSize); 
 480:cy_eink_library/cy_eink_library.c ****                          horizontalCounter++)
 481:cy_eink_library/cy_eink_library.c ****                     {
 482:cy_eink_library/cy_eink_library.c ****                         /* Calculate the current pixel data byte location of 
 483:cy_eink_library/cy_eink_library.c ****                            the frame buffer */
 484:cy_eink_library/cy_eink_library.c ****                         frameByte = horizontalCounter + (printLocation +
 439              		.loc 1 484 0
 440 0058 1FFA86F9 		uxth	r9, r6
 441 005c 1FFA8EF4 		uxth	r4, lr
 442 0060 04EB4415 		add	r5, r4, r4, lsl #5
 443 0064 3D44     		add	r5, r5, r7
 444 0066 4D44     		add	r5, r5, r9
 445 0068 ADB2     		uxth	r5, r5
 446              	.LVL52:
 485:cy_eink_library/cy_eink_library.c ****                                     (PV_EINK_HORIZONTAL_SIZE 
 486:cy_eink_library/cy_eink_library.c ****                                      * verticalCounter));
 487:cy_eink_library/cy_eink_library.c ****                         
 488:cy_eink_library/cy_eink_library.c ****                         /* Calculate the current pixel data byte location of 
 489:cy_eink_library/cy_eink_library.c ****                            the font */
 490:cy_eink_library/cy_eink_library.c ****                         fontByte = charLocation + (verticalCounter * 
 447              		.loc 1 490 0
 448 006a 0AFB04C4 		mla	r4, r10, r4, ip
 449 006e 4C44     		add	r4, r4, r9
 450 0070 A4B2     		uxth	r4, r4
 451              	.LVL53:
 491:cy_eink_library/cy_eink_library.c ****                                    (fontInfo->xSize)) + horizontalCounter;
 492:cy_eink_library/cy_eink_library.c ****                         
 493:cy_eink_library/cy_eink_library.c ****                         /* Copy the pixel data as is for black font on white 
 494:cy_eink_library/cy_eink_library.c ****                            background */
 495:cy_eink_library/cy_eink_library.c ****                         if ((fontInfo->color) == CY_EINK_WHITE_BACKGROUND)
 452              		.loc 1 495 0
 453 0072 917A     		ldrb	r1, [r2, #10]	@ zero_extendqisi2
 454 0074 21B1     		cbz	r1, .L41
 496:cy_eink_library/cy_eink_library.c ****                         {
 497:cy_eink_library/cy_eink_library.c ****                             frameBuffer[frameByte] = ~(fontInfo->fontData
 498:cy_eink_library/cy_eink_library.c ****                                                                  [fontByte]);
 455              		.loc 1 498 0
 456 0076 1168     		ldr	r1, [r2]
 457 0078 0C5D     		ldrb	r4, [r1, r4]	@ zero_extendqisi2
 458              	.LVL54:
 497:cy_eink_library/cy_eink_library.c ****                                                                  [fontByte]);
 459              		.loc 1 497 0
 460 007a E443     		mvns	r4, r4
 461 007c 4455     		strb	r4, [r0, r5]
 462 007e 06E0     		b	.L42
 463              	.LVL55:
ARM GAS  C:\Users\kateb\AppData\Local\Temp\ccPuoZtr.s 			page 18


 464              	.L41:
 499:cy_eink_library/cy_eink_library.c ****                         }
 500:cy_eink_library/cy_eink_library.c ****                         /* Copy the inverted pixel data for white font on black
 501:cy_eink_library/cy_eink_library.c ****                            background */
 502:cy_eink_library/cy_eink_library.c ****                         else if ((fontInfo->color) == CY_EINK_BLACK_BACKGROUND)
 465              		.loc 1 502 0
 466 0080 19B9     		cbnz	r1, .L53
 503:cy_eink_library/cy_eink_library.c ****                         {
 504:cy_eink_library/cy_eink_library.c ****                             frameBuffer[frameByte] = fontInfo->fontData
 505:cy_eink_library/cy_eink_library.c ****                                                               [fontByte];
 467              		.loc 1 505 0
 468 0082 1168     		ldr	r1, [r2]
 469 0084 0C5D     		ldrb	r4, [r1, r4]	@ zero_extendqisi2
 470              	.LVL56:
 504:cy_eink_library/cy_eink_library.c ****                                                               [fontByte];
 471              		.loc 1 504 0
 472 0086 4455     		strb	r4, [r0, r5]
 473 0088 01E0     		b	.L42
 474              	.LVL57:
 475              	.L53:
 506:cy_eink_library/cy_eink_library.c ****                         }
 507:cy_eink_library/cy_eink_library.c ****                         else
 508:cy_eink_library/cy_eink_library.c ****                         {
 509:cy_eink_library/cy_eink_library.c ****                             returnValue = CY_EINK_FAILURE;
 476              		.loc 1 509 0
 477 008a 4FF00108 		mov	r8, #1
 478              	.LVL58:
 479              	.L42:
 480:cy_eink_library/cy_eink_library.c ****                     {
 480              		.loc 1 480 0
 481 008e 0136     		adds	r6, r6, #1
 482              	.LVL59:
 483 0090 F6B2     		uxtb	r6, r6
 484              	.LVL60:
 485 0092 00E0     		b	.L44
 486              	.LVL61:
 487              	.L54:
 488 0094 0026     		movs	r6, #0
 489              	.L44:
 490              	.LVL62:
 479:cy_eink_library/cy_eink_library.c ****                          horizontalCounter++)
 491              		.loc 1 479 0 discriminator 1
 492 0096 92F806A0 		ldrb	r10, [r2, #6]	@ zero_extendqisi2
 478:cy_eink_library/cy_eink_library.c ****                          horizontalCounter < (fontInfo->xSize); 
 493              		.loc 1 478 0 discriminator 1
 494 009a 5645     		cmp	r6, r10
 495 009c DCD3     		bcc	.L43
 475:cy_eink_library/cy_eink_library.c ****                 {
 496              		.loc 1 475 0
 497 009e 0EF1010E 		add	lr, lr, #1
 498              	.LVL63:
 499 00a2 5FFA8EFE 		uxtb	lr, lr
 500              	.LVL64:
 501              	.L40:
 474:cy_eink_library/cy_eink_library.c ****                      verticalCounter++)
 502              		.loc 1 474 0 discriminator 1
 503 00a6 D479     		ldrb	r4, [r2, #7]	@ zero_extendqisi2
ARM GAS  C:\Users\kateb\AppData\Local\Temp\ccPuoZtr.s 			page 19


 504 00a8 A645     		cmp	lr, r4
 505 00aa F3D3     		bcc	.L54
 506 00ac 20E0     		b	.L38
 507              	.LVL65:
 508              	.L47:
 510:cy_eink_library/cy_eink_library.c ****                         }
 511:cy_eink_library/cy_eink_library.c ****                     }
 512:cy_eink_library/cy_eink_library.c ****                 }
 513:cy_eink_library/cy_eink_library.c ****             }
 514:cy_eink_library/cy_eink_library.c ****             /* For space and non-printable ASCII characters */
 515:cy_eink_library/cy_eink_library.c ****             else
 516:cy_eink_library/cy_eink_library.c ****             {
 517:cy_eink_library/cy_eink_library.c ****                 /* Vertical copying loop */
 518:cy_eink_library/cy_eink_library.c ****                 for (verticalCounter = 0; 
 519:cy_eink_library/cy_eink_library.c ****                      verticalCounter < (fontInfo->ySize); 
 520:cy_eink_library/cy_eink_library.c ****                      verticalCounter++)
 521:cy_eink_library/cy_eink_library.c ****                 {
 522:cy_eink_library/cy_eink_library.c ****                     /* Horizontal copying loop */
 523:cy_eink_library/cy_eink_library.c ****                     for (horizontalCounter = 0; 
 524:cy_eink_library/cy_eink_library.c ****                          horizontalCounter < (fontInfo->xSize);
 525:cy_eink_library/cy_eink_library.c ****                          horizontalCounter++)
 526:cy_eink_library/cy_eink_library.c ****                     {
 527:cy_eink_library/cy_eink_library.c ****                         /* Calculate the current pixel data byte location of 
 528:cy_eink_library/cy_eink_library.c ****                            the frame buffer */
 529:cy_eink_library/cy_eink_library.c ****                         frameByte = horizontalCounter + (printLocation +
 509              		.loc 1 529 0
 510 00ae 06EB4614 		add	r4, r6, r6, lsl #5
 511 00b2 3C44     		add	r4, r4, r7
 512 00b4 2C44     		add	r4, r4, r5
 513 00b6 A4B2     		uxth	r4, r4
 514              	.LVL66:
 530:cy_eink_library/cy_eink_library.c ****                                     (PV_EINK_HORIZONTAL_SIZE 
 531:cy_eink_library/cy_eink_library.c ****                                     * verticalCounter));
 532:cy_eink_library/cy_eink_library.c ****                         
 533:cy_eink_library/cy_eink_library.c ****                         /* Copy white pixels to create a space for fonts with 
 534:cy_eink_library/cy_eink_library.c ****                            white background */
 535:cy_eink_library/cy_eink_library.c ****                         if ((fontInfo->color) == CY_EINK_WHITE_BACKGROUND)
 515              		.loc 1 535 0
 516 00b8 92F80AE0 		ldrb	lr, [r2, #10]	@ zero_extendqisi2
 517 00bc BEF1000F 		cmp	lr, #0
 518 00c0 04D0     		beq	.L45
 536:cy_eink_library/cy_eink_library.c ****                         {
 537:cy_eink_library/cy_eink_library.c ****                             frameBuffer[frameByte] = CY_EINK_CLEAR_TO_WHITE;
 519              		.loc 1 537 0
 520 00c2 4FF0FF0E 		mov	lr, #255
 521 00c6 00F804E0 		strb	lr, [r0, r4]
 522 00ca 03E0     		b	.L46
 523              	.L45:
 538:cy_eink_library/cy_eink_library.c ****                         }
 539:cy_eink_library/cy_eink_library.c ****                         /* Copy black pixels to create a space for fonts with 
 540:cy_eink_library/cy_eink_library.c ****                            black background */
 541:cy_eink_library/cy_eink_library.c ****                         else
 542:cy_eink_library/cy_eink_library.c ****                         {
 543:cy_eink_library/cy_eink_library.c ****                             frameBuffer[frameByte] = CY_EINK_CLEAR_TO_BLACK;
 524              		.loc 1 543 0
 525 00cc 4FF0000E 		mov	lr, #0
 526 00d0 00F804E0 		strb	lr, [r0, r4]
ARM GAS  C:\Users\kateb\AppData\Local\Temp\ccPuoZtr.s 			page 20


 527              	.L46:
 525:cy_eink_library/cy_eink_library.c ****                     {
 528              		.loc 1 525 0
 529 00d4 0135     		adds	r5, r5, #1
 530              	.LVL67:
 531 00d6 EDB2     		uxtb	r5, r5
 532              	.LVL68:
 533 00d8 00E0     		b	.L48
 534              	.LVL69:
 535              	.L55:
 536 00da 0025     		movs	r5, #0
 537              	.L48:
 538              	.LVL70:
 524:cy_eink_library/cy_eink_library.c ****                          horizontalCounter++)
 539              		.loc 1 524 0 discriminator 1
 540 00dc 9479     		ldrb	r4, [r2, #6]	@ zero_extendqisi2
 523:cy_eink_library/cy_eink_library.c ****                          horizontalCounter < (fontInfo->xSize);
 541              		.loc 1 523 0 discriminator 1
 542 00de A542     		cmp	r5, r4
 543 00e0 E5D3     		bcc	.L47
 520:cy_eink_library/cy_eink_library.c ****                 {
 544              		.loc 1 520 0
 545 00e2 0136     		adds	r6, r6, #1
 546              	.LVL71:
 547 00e4 F6B2     		uxtb	r6, r6
 548              	.LVL72:
 549 00e6 00E0     		b	.L39
 550              	.LVL73:
 551              	.L52:
 552 00e8 0026     		movs	r6, #0
 553              	.L39:
 554              	.LVL74:
 519:cy_eink_library/cy_eink_library.c ****                      verticalCounter++)
 555              		.loc 1 519 0 discriminator 1
 556 00ea D479     		ldrb	r4, [r2, #7]	@ zero_extendqisi2
 518:cy_eink_library/cy_eink_library.c ****                      verticalCounter < (fontInfo->ySize); 
 557              		.loc 1 518 0 discriminator 1
 558 00ec A642     		cmp	r6, r4
 559 00ee F4D3     		bcc	.L55
 560              	.LVL75:
 561              	.L38:
 544:cy_eink_library/cy_eink_library.c ****                         }
 545:cy_eink_library/cy_eink_library.c ****                     }
 546:cy_eink_library/cy_eink_library.c ****                 }
 547:cy_eink_library/cy_eink_library.c ****             }
 548:cy_eink_library/cy_eink_library.c ****         }
 549:cy_eink_library/cy_eink_library.c ****         /* Move on to the next character by incrementing the horizontal
 550:cy_eink_library/cy_eink_library.c ****            location */
 551:cy_eink_library/cy_eink_library.c ****         fontCor[CY_EINK_FONT_X]++;
 562              		.loc 1 551 0
 563 00f0 1C78     		ldrb	r4, [r3]	@ zero_extendqisi2
 564 00f2 0134     		adds	r4, r4, #1
 565 00f4 E4B2     		uxtb	r4, r4
 566 00f6 1C70     		strb	r4, [r3]
 552:cy_eink_library/cy_eink_library.c ****         
 553:cy_eink_library/cy_eink_library.c ****         /* Reset the X location and increment the Y location if the X span 
 554:cy_eink_library/cy_eink_library.c ****            is reached */
ARM GAS  C:\Users\kateb\AppData\Local\Temp\ccPuoZtr.s 			page 21


 555:cy_eink_library/cy_eink_library.c ****         if (fontCor[CY_EINK_FONT_X] >= (fontInfo->xSpan))
 567              		.loc 1 555 0
 568 00f8 157A     		ldrb	r5, [r2, #8]	@ zero_extendqisi2
 569 00fa AC42     		cmp	r4, r5
 570 00fc 04D3     		bcc	.L49
 556:cy_eink_library/cy_eink_library.c ****         {
 557:cy_eink_library/cy_eink_library.c ****             fontCor[CY_EINK_FONT_X] = 0;
 571              		.loc 1 557 0
 572 00fe 0024     		movs	r4, #0
 573 0100 1C70     		strb	r4, [r3]
 558:cy_eink_library/cy_eink_library.c ****             fontCor[CY_EINK_FONT_Y]++;
 574              		.loc 1 558 0
 575 0102 5C78     		ldrb	r4, [r3, #1]	@ zero_extendqisi2
 576 0104 0134     		adds	r4, r4, #1
 577 0106 5C70     		strb	r4, [r3, #1]
 578              	.L49:
 559:cy_eink_library/cy_eink_library.c ****         }
 560:cy_eink_library/cy_eink_library.c ****         /* End the function if the Y span is reached */
 561:cy_eink_library/cy_eink_library.c ****         if (fontCor[CY_EINK_FONT_Y] > (fontInfo->ySpan))
 579              		.loc 1 561 0
 580 0108 5D78     		ldrb	r5, [r3, #1]	@ zero_extendqisi2
 581 010a 547A     		ldrb	r4, [r2, #9]	@ zero_extendqisi2
 582 010c A542     		cmp	r5, r4
 583 010e 06D8     		bhi	.L50
 450:cy_eink_library/cy_eink_library.c ****     {
 584              		.loc 1 450 0 discriminator 2
 585 0110 0BF1010B 		add	fp, fp, #1
 586              	.LVL76:
 587              	.L37:
 450:cy_eink_library/cy_eink_library.c ****     {
 588              		.loc 1 450 0 is_stmt 0 discriminator 1
 589 0114 9BF80040 		ldrb	r4, [fp]	@ zero_extendqisi2
 590 0118 002C     		cmp	r4, #0
 591 011a 7FF477AF 		bne	.L51
 592              	.L50:
 562:cy_eink_library/cy_eink_library.c ****         {
 563:cy_eink_library/cy_eink_library.c ****             break;
 564:cy_eink_library/cy_eink_library.c ****         }
 565:cy_eink_library/cy_eink_library.c ****     }
 566:cy_eink_library/cy_eink_library.c ****     
 567:cy_eink_library/cy_eink_library.c ****     return returnValue;
 568:cy_eink_library/cy_eink_library.c **** }
 593              		.loc 1 568 0 is_stmt 1
 594 011e 4046     		mov	r0, r8
 595              	.LVL77:
 596 0120 BDE8F08F 		pop	{r4, r5, r6, r7, r8, r9, r10, fp, pc}
 597              		.cfi_endproc
 598              	.LFE597:
 599              		.size	Cy_EINK_TextToFrameBuffer, .-Cy_EINK_TextToFrameBuffer
 600              		.text
 601              	.Letext0:
 602              		.file 2 "c:\\program files (x86)\\cypress\\psoc creator\\4.2\\psoc creator\\import\\gnu\\arm\\5.4.
 603              		.file 3 "c:\\program files (x86)\\cypress\\psoc creator\\4.2\\psoc creator\\import\\gnu\\arm\\5.4.
 604              		.file 4 "Generated_Source\\PSoC6\\pdl\\drivers/peripheral/rtc/cy_rtc.h"
 605              		.file 5 "Generated_Source\\PSoC6\\pdl\\drivers/peripheral/scb/cy_scb_spi.h"
 606              		.file 6 "Generated_Source\\PSoC6\\pdl\\drivers/peripheral/scb/cy_scb_uart.h"
 607              		.file 7 "Generated_Source\\PSoC6\\pdl\\drivers/peripheral/sar/cy_sar.h"
ARM GAS  C:\Users\kateb\AppData\Local\Temp\ccPuoZtr.s 			page 22


 608              		.file 8 "Generated_Source\\PSoC6\\pdl\\middleware/ble/cy_ble_stack_host_main.h"
 609              		.file 9 "Generated_Source\\PSoC6\\pdl\\middleware/ble/cy_ble_gap.h"
 610              		.file 10 "Generated_Source\\PSoC6/ADC.h"
 611              		.file 11 "cy_eink_library\\cy_eink_fonts.h"
 612              		.file 12 "cy_eink_library\\cy_eink_psoc_interface.h"
 613              		.file 13 "cy_eink_library\\pervasive_eink_hardware_driver.h"
 614              		.file 14 "cy_eink_library\\cy_eink_library.h"
 615              		.file 15 "Generated_Source\\PSoC6\\pdl\\cmsis/include/core_cm4.h"
 616              		.file 16 "Generated_Source\\PSoC6/DEBUG_UART.h"
 617              		.file 17 "Generated_Source\\PSoC6/RTC.h"
 618              		.file 18 "Generated_Source\\PSoC6/CY_EINK_SPIM.h"