ARM GAS  C:\Users\kateb\AppData\Local\Temp\ccTd0Wkf.s 			page 1


   1              		.syntax unified
   2              		.cpu cortex-m4
   3              		.eabi_attribute 27, 1
   4              		.fpu fpv4-sp-d16
   5              		.eabi_attribute 20, 1
   6              		.eabi_attribute 21, 1
   7              		.eabi_attribute 23, 3
   8              		.eabi_attribute 24, 1
   9              		.eabi_attribute 25, 1
  10              		.eabi_attribute 26, 1
  11              		.eabi_attribute 30, 1
  12              		.eabi_attribute 34, 1
  13              		.eabi_attribute 18, 4
  14              		.thumb
  15              		.syntax unified
  16              		.file	"display_task.c"
  17              		.text
  18              	.Ltext0:
  19              		.cfi_sections	.debug_frame
  20              		.section	.text.DelayMs,"ax",%progbits
  21              		.align	2
  22              		.thumb
  23              		.thumb_func
  24              		.type	DelayMs, %function
  25              	DelayMs:
  26              	.LFB596:
  27              		.file 1 "display_task.c"
   1:display_task.c **** /******************************************************************************
   2:display_task.c **** * File Name: display_task.c
   3:display_task.c **** *
   4:display_task.c **** * Version: 1.00
   5:display_task.c **** *
   6:display_task.c **** * Description: This file contains the task that initializes the E-INK display
   7:display_task.c **** *              and show the instructions to use this code example at startup
   8:display_task.c **** *
   9:display_task.c **** * Related Document: CE222604_RTC_CTS_RTOS.pdf
  10:display_task.c **** *
  11:display_task.c **** * Hardware Dependency: CY8CKIT-062-BLE PSoC 6 BLE Pioneer Kit
  12:display_task.c **** *                      CY8CKIT-028-EPD E-INK Display Shield
  13:display_task.c **** *
  14:display_task.c **** *******************************************************************************
  15:display_task.c **** * Copyright (2018), Cypress Semiconductor Corporation. All rights reserved.
  16:display_task.c **** *******************************************************************************
  17:display_task.c **** * This software, including source code, documentation and related materials
  18:display_task.c **** * (“Software”), is owned by Cypress Semiconductor Corporation or one of its
  19:display_task.c **** * subsidiaries (“Cypress”) and is protected by and subject to worldwide patent
  20:display_task.c **** * protection (United States and foreign), United States copyright laws and
  21:display_task.c **** * international treaty provisions. Therefore, you may use this Software only
  22:display_task.c **** * as provided in the license agreement accompanying the software package from
  23:display_task.c **** * which you obtained this Software (“EULA”).
  24:display_task.c **** *
  25:display_task.c **** * If no EULA applies, Cypress hereby grants you a personal, nonexclusive,
  26:display_task.c **** * non-transferable license to copy, modify, and compile the Software source
  27:display_task.c **** * code solely for use in connection with Cypress’s integrated circuit products.
  28:display_task.c **** * Any reproduction, modification, translation, compilation, or representation
  29:display_task.c **** * of this Software except as specified above is prohibited without the express
  30:display_task.c **** * written permission of Cypress.
ARM GAS  C:\Users\kateb\AppData\Local\Temp\ccTd0Wkf.s 			page 2


  31:display_task.c **** *
  32:display_task.c **** * Disclaimer: THIS SOFTWARE IS PROVIDED AS-IS, WITH NO WARRANTY OF ANY KIND, 
  33:display_task.c **** * EXPRESS OR IMPLIED, INCLUDING, BUT NOT LIMITED TO, NONINFRINGEMENT, IMPLIED 
  34:display_task.c **** * WARRANTIES OF MERCHANTABILITY AND FITNESS FOR A PARTICULAR PURPOSE. Cypress 
  35:display_task.c **** * reserves the right to make changes to the Software without notice. Cypress 
  36:display_task.c **** * does not assume any liability arising out of the application or use of the 
  37:display_task.c **** * Software or any product or circuit described in the Software. Cypress does 
  38:display_task.c **** * not authorize its products for use in any products where a malfunction or 
  39:display_task.c **** * failure of the Cypress product may reasonably be expected to result in 
  40:display_task.c **** * significant property damage, injury or death (“High Risk Product”). By 
  41:display_task.c **** * including Cypress’s product in a High Risk Product, the manufacturer of such 
  42:display_task.c **** * system or application assumes all risk of such use and in doing so agrees to 
  43:display_task.c **** * indemnify Cypress against all liability.
  44:display_task.c **** *******************************************************************************/
  45:display_task.c **** /******************************************************************************
  46:display_task.c **** * This file contains the task that initialize the E-INK display and show the
  47:display_task.c **** * instructions to use this code example at startup
  48:display_task.c **** *
  49:display_task.c **** * For the details of the E-INK display and library functions, see the code 
  50:display_task.c **** * example CE218133 - PSoC 6 MCU E-INK Display with CapSense
  51:display_task.c **** *******************************************************************************/
  52:display_task.c **** 
  53:display_task.c **** /* Header file includes */
  54:display_task.c **** #include "display_task.h"
  55:display_task.c **** #include "rtc_task.h"
  56:display_task.c **** #include "screen_contents.h"
  57:display_task.c **** #include "cy_eink_library.h"
  58:display_task.c **** #include "uart_debug.h"
  59:display_task.c **** #include "FreeRTOS.h"
  60:display_task.c **** #include "task.h"  
  61:display_task.c **** 
  62:display_task.c **** /* Ambient temprature used in thin project */
  63:display_task.c **** #define AMBIENT_TEMPRATURE  (25u)
  64:display_task.c **** 
  65:display_task.c **** /* Character size of a time string in HH:MM format */    
  66:display_task.c **** #define TIME_STRING_SIZE    (06u)
  67:display_task.c **** /* Character size of a date string in MM/DD/YYYY format */  
  68:display_task.c **** #define DATE_STRING_SIZE    (11u)    
  69:display_task.c ****     
  70:display_task.c **** /* Data-type that stores time and date as strings */
  71:display_task.c **** typedef struct 
  72:display_task.c **** {
  73:display_task.c ****     char timeSting[TIME_STRING_SIZE];
  74:display_task.c ****     char dateString[DATE_STRING_SIZE];
  75:display_task.c **** }   time_date_strings_t;
  76:display_task.c **** 
  77:display_task.c **** /* Origin coordinates of text (instructions) */
  78:display_task.c **** #define INSTRUCTION_TEXT_ORIGIN {0x00u, 0x06u}
  79:display_task.c **** 
  80:display_task.c **** /* Origin coordinates of date and time */
  81:display_task.c **** #define DATE_TEXT_ORIGIN        {0x05u, 0x01u}
  82:display_task.c **** #define TIME_TEXT_ORIGIN        {0x05u, 0x03u}
  83:display_task.c **** 
  84:display_task.c **** /* Queue handle used for display data  */
  85:display_task.c **** QueueHandle_t displayDataQ;
  86:display_task.c **** 
  87:display_task.c **** /* Frame buffer used for combining text and images into one frame */
ARM GAS  C:\Users\kateb\AppData\Local\Temp\ccTd0Wkf.s 			page 3


  88:display_task.c **** cy_eink_frame_t frameBuffer[CY_EINK_FRAME_SIZE];
  89:display_task.c **** 
  90:display_task.c **** /* Function used to register the E-INK delay call back */
  91:display_task.c **** void static DelayMs(uint32_t delayInMs)  {vTaskDelay(pdMS_TO_TICKS(delayInMs));}
  28              		.loc 1 91 0
  29              		.cfi_startproc
  30              		@ args = 0, pretend = 0, frame = 0
  31              		@ frame_needed = 0, uses_anonymous_args = 0
  32              	.LVL0:
  33 0000 08B5     		push	{r3, lr}
  34              		.cfi_def_cfa_offset 8
  35              		.cfi_offset 3, -8
  36              		.cfi_offset 14, -4
  37              		.loc 1 91 0
  38 0002 4FF47A73 		mov	r3, #1000
  39 0006 03FB00F0 		mul	r0, r3, r0
  40              	.LVL1:
  41 000a 034B     		ldr	r3, .L3
  42 000c A3FB0030 		umull	r3, r0, r3, r0
  43 0010 8009     		lsrs	r0, r0, #6
  44 0012 FFF7FEFF 		bl	vTaskDelay
  45              	.LVL2:
  46 0016 08BD     		pop	{r3, pc}
  47              	.L4:
  48              		.align	2
  49              	.L3:
  50 0018 D34D6210 		.word	274877907
  51              		.cfi_endproc
  52              	.LFE596:
  53              		.size	DelayMs, .-DelayMs
  54              		.section	.text.GetRtcStrings,"ax",%progbits
  55              		.align	2
  56              		.thumb
  57              		.thumb_func
  58              		.type	GetRtcStrings, %function
  59              	GetRtcStrings:
  60              	.LFB598:
  92:display_task.c **** 
  93:display_task.c **** 
  94:display_task.c **** /* This static functions is used by the Task_Display. See the function definitions for 
  95:display_task.c ****    more details */
  96:display_task.c **** time_date_strings_t static GetRtcStrings(cy_stc_rtc_config_t *dateTime);
  97:display_task.c **** 
  98:display_task.c **** /*******************************************************************************
  99:display_task.c **** * Task Name  : Task_Display
 100:display_task.c **** ********************************************************************************
 101:display_task.c **** *
 102:display_task.c **** * Summary:
 103:display_task.c **** *  This Task combines text and logo/heading images using a frame buffer and then
 104:display_task.c **** *  writes the frame buffer to the E-INK display to show the instructions to use
 105:display_task.c **** *  this code example. After displaying the instructions, the Task suspends
 106:display_task.c **** *  itself.
 107:display_task.c **** *
 108:display_task.c **** * Task Handle: None
 109:display_task.c **** *                                                    
 110:display_task.c **** *******************************************************************************/
 111:display_task.c **** void Task_Display (void *pvParameters)
ARM GAS  C:\Users\kateb\AppData\Local\Temp\ccTd0Wkf.s 			page 4


 112:display_task.c **** {  
 113:display_task.c ****     /* Variable used to store the return values of RTOS APIs */
 114:display_task.c ****     BaseType_t rtosApiResult;
 115:display_task.c ****     
 116:display_task.c ****     /* Flag that indicates if the E-INK display has been detected */
 117:display_task.c ****     cy_eink_api_result displayDetected = CY_EINK_FAILURE;
 118:display_task.c **** 
 119:display_task.c ****     /* Variable used to store RTC data*/   
 120:display_task.c ****     rtc_command_and_data_t  timeAndDate;
 121:display_task.c ****     
 122:display_task.c ****     /* Remove warning for unused parameter */
 123:display_task.c ****     (void)pvParameters ;
 124:display_task.c ****     
 125:display_task.c ****     /* Initialize the E-INK display hardware with the ambient temperature 
 126:display_task.c ****        value and the delay function pointer */
 127:display_task.c ****     if(Cy_EINK_Start(AMBIENT_TEMPRATURE, DelayMs) == CY_EINK_SUCCESS)
 128:display_task.c ****     {
 129:display_task.c ****         Task_DebugPrintf("Success  : Display - Cy_EINK_Start API", 0u);
 130:display_task.c ****     }
 131:display_task.c ****     else
 132:display_task.c ****     {
 133:display_task.c ****         Task_DebugPrintf("Failure! : Display - Cy_EINK_Start API", 0u);
 134:display_task.c ****     }
 135:display_task.c **** 
 136:display_task.c ****     for(;;)
 137:display_task.c ****     {
 138:display_task.c ****         /* Block until a display data been received over displayDataQ */
 139:display_task.c ****         rtosApiResult = xQueueReceive(displayDataQ, &timeAndDate, portMAX_DELAY);
 140:display_task.c ****         
 141:display_task.c ****         /* Data has been received from displayDataQ */
 142:display_task.c ****         if(rtosApiResult == pdTRUE)
 143:display_task.c ****         {
 144:display_task.c ****             /* Power on the display and check if the operation was successful */
 145:display_task.c ****             displayDetected = Cy_EINK_Power(CY_EINK_ON);
 146:display_task.c ****             
 147:display_task.c ****             if(displayDetected == CY_EINK_SUCCESS)
 148:display_task.c ****             {
 149:display_task.c ****                 /* Coordinates of a full-image and text origin */
 150:display_task.c ****                 uint8_t   imageCoordinates[]    = CY_EINK_COMPLETE_IMAGE;
 151:display_task.c ****                 uint8_t   textOrigin[]          = INSTRUCTION_TEXT_ORIGIN;
 152:display_task.c ****                 uint8_t const  timeOrigin[]     = DATE_TEXT_ORIGIN;
 153:display_task.c ****                 uint8_t const  dateOrigin[]     = TIME_TEXT_ORIGIN;
 154:display_task.c ****                 
 155:display_task.c ****                 /* Variable that stores the time and date strings */
 156:display_task.c ****                 time_date_strings_t     timeAndDateBuffer;            
 157:display_task.c ****                 
 158:display_task.c ****                 /* Load the image that has the logo and the heading to the 
 159:display_task.c ****                    frame buffer */
 160:display_task.c ****                 Cy_EINK_ImageToFrameBuffer(frameBuffer, 
 161:display_task.c ****                                           (cy_eink_frame_t*)background,
 162:display_task.c ****                                            imageCoordinates);
 163:display_task.c ****                 
 164:display_task.c ****                 /* Load the text that stores instructions to the frame buffer */
 165:display_task.c ****                 Cy_EINK_TextToFrameBuffer(frameBuffer, (char*)instructions,
 166:display_task.c ****                                           CY_EINK_FONT_8X12BLACK, textOrigin);
 167:display_task.c ****                 
 168:display_task.c ****                 timeAndDateBuffer = GetRtcStrings(&timeAndDate.rtcDateTime);
ARM GAS  C:\Users\kateb\AppData\Local\Temp\ccTd0Wkf.s 			page 5


 169:display_task.c ****                 
 170:display_task.c ****                 /* Load the frame buffer with the strings that store current time and date */
 171:display_task.c ****                 Cy_EINK_TextToFrameBuffer(frameBuffer, 
 172:display_task.c ****                                       timeAndDateBuffer.timeSting,
 173:display_task.c ****                                       CY_EINK_FONT_16X16BLACK, (uint8_t*)timeOrigin);
 174:display_task.c ****                 Cy_EINK_TextToFrameBuffer(frameBuffer, 
 175:display_task.c ****                                       timeAndDateBuffer.dateString,
 176:display_task.c ****                                       CY_EINK_FONT_16X16BLACK, (uint8_t*)dateOrigin);
 177:display_task.c ****                 
 178:display_task.c ****                 Cy_EINK_Power(CY_EINK_ON);
 179:display_task.c ****                 Task_DebugPrintf("Success  : Display - E-INK display power on", 0u);
 180:display_task.c ****                 
 181:display_task.c ****                 /* Write the frame buffer to the E-INK display */
 182:display_task.c ****                 Cy_EINK_ShowFrame(CY_EINK_WHITE_FRAME, frameBuffer,
 183:display_task.c ****                                   CY_EINK_FULL_4STAGE, CY_EINK_POWER_MANUAL);
 184:display_task.c ****                 
 185:display_task.c ****                 /* Turn off the E-INK power */
 186:display_task.c ****                 Cy_EINK_Power(CY_EINK_OFF);
 187:display_task.c ****                 Task_DebugPrintf("Info     : Display - Task completed", 0u);
 188:display_task.c ****             }
 189:display_task.c ****             else
 190:display_task.c ****             {   
 191:display_task.c ****                 Task_DebugPrintf("Failure! : Display - E-INK display power on ",
 192:display_task.c ****                                   0u); 
 193:display_task.c ****             }
 194:display_task.c ****         }
 195:display_task.c ****     }
 196:display_task.c **** }
 197:display_task.c **** 
 198:display_task.c **** /*******************************************************************************
 199:display_task.c **** * Function Name: time_date_strings_t* GetRtcStrings(void)
 200:display_task.c **** ********************************************************************************
 201:display_task.c **** *
 202:display_task.c **** * Summary:
 203:display_task.c **** *  This function returns a structure that contains current time and date strings.
 204:display_task.c **** *  Date is returned in "mm/dd/yyyy" format and time is in "hh:mm" format
 205:display_task.c **** *
 206:display_task.c **** * Parameters:
 207:display_task.c **** *  time_and_date_t* : structure that contains time and date strings
 208:display_task.c **** *
 209:display_task.c **** * Return:
 210:display_task.c **** *  None
 211:display_task.c **** *
 212:display_task.c **** **********************************************************************************/
 213:display_task.c **** time_date_strings_t static GetRtcStrings(cy_stc_rtc_config_t *dateTime)
 214:display_task.c **** {
  61              		.loc 1 214 0
  62              		.cfi_startproc
  63              		@ args = 0, pretend = 0, frame = 24
  64              		@ frame_needed = 0, uses_anonymous_args = 0
  65              	.LVL3:
  66 0000 30B5     		push	{r4, r5, lr}
  67              		.cfi_def_cfa_offset 12
  68              		.cfi_offset 4, -12
  69              		.cfi_offset 5, -8
  70              		.cfi_offset 14, -4
  71 0002 89B0     		sub	sp, sp, #36
ARM GAS  C:\Users\kateb\AppData\Local\Temp\ccTd0Wkf.s 			page 6


  72              		.cfi_def_cfa_offset 48
  73 0004 0546     		mov	r5, r0
  74 0006 0C46     		mov	r4, r1
 215:display_task.c ****     /* Variable that stores converted strings */
 216:display_task.c ****     time_date_strings_t dateTimeStrings;
 217:display_task.c **** 
 218:display_task.c **** 
 219:display_task.c ****     /* Print Date info in mm/dd/yyyy format */
 220:display_task.c ****     sprintf(dateTimeStrings.dateString, "%02u/%02u/20%02u", (uint16_t) dateTime->month,
  75              		.loc 1 220 0
  76 0008 8B8A     		ldrh	r3, [r1, #20]
  77 000a 0A8B     		ldrh	r2, [r1, #24]
  78 000c 898B     		ldrh	r1, [r1, #28]
  79              	.LVL4:
  80 000e 0091     		str	r1, [sp]
  81 0010 0A49     		ldr	r1, .L7
  82 0012 0DF11200 		add	r0, sp, #18
  83              	.LVL5:
  84 0016 FFF7FEFF 		bl	sprintf
  85              	.LVL6:
 221:display_task.c ****            (uint16_t) dateTime->date, (uint16_t) dateTime->year);
 222:display_task.c ****     
 223:display_task.c ****     /* Print Time in hh:mm:ss format */
 224:display_task.c ****     sprintf(dateTimeStrings.timeSting, "%02u:%02u", (uint16_t) dateTime->hour, 
  86              		.loc 1 224 0
  87 001a A388     		ldrh	r3, [r4, #4]
  88 001c 2289     		ldrh	r2, [r4, #8]
  89 001e 0849     		ldr	r1, .L7+4
  90 0020 03A8     		add	r0, sp, #12
  91 0022 FFF7FEFF 		bl	sprintf
  92              	.LVL7:
 225:display_task.c ****             (uint16_t) dateTime->min);
 226:display_task.c ****     
 227:display_task.c ****     /* Return the converted strings */
 228:display_task.c ****     return dateTimeStrings;
  93              		.loc 1 228 0
  94 0026 03AC     		add	r4, sp, #12
  95              	.LVL8:
  96 0028 0FCC     		ldmia	r4!, {r0, r1, r2, r3}
  97 002a 2860     		str	r0, [r5]	@ unaligned
  98 002c 6960     		str	r1, [r5, #4]	@ unaligned
  99 002e AA60     		str	r2, [r5, #8]	@ unaligned
 100 0030 EB60     		str	r3, [r5, #12]	@ unaligned
 101 0032 2378     		ldrb	r3, [r4]	@ zero_extendqisi2
 102 0034 2B74     		strb	r3, [r5, #16]
 229:display_task.c **** }
 103              		.loc 1 229 0
 104 0036 2846     		mov	r0, r5
 105 0038 09B0     		add	sp, sp, #36
 106              		.cfi_def_cfa_offset 12
 107              		@ sp needed
 108 003a 30BD     		pop	{r4, r5, pc}
 109              	.LVL9:
 110              	.L8:
 111              		.align	2
 112              	.L7:
 113 003c 00000000 		.word	.LC3
ARM GAS  C:\Users\kateb\AppData\Local\Temp\ccTd0Wkf.s 			page 7


 114 0040 14000000 		.word	.LC4
 115              		.cfi_endproc
 116              	.LFE598:
 117              		.size	GetRtcStrings, .-GetRtcStrings
 118              		.section	.text.Task_Display,"ax",%progbits
 119              		.align	2
 120              		.global	Task_Display
 121              		.thumb
 122              		.thumb_func
 123              		.type	Task_Display, %function
 124              	Task_Display:
 125              	.LFB597:
 112:display_task.c ****     /* Variable used to store the return values of RTOS APIs */
 126              		.loc 1 112 0
 127              		.cfi_startproc
 128              		@ args = 0, pretend = 0, frame = 96
 129              		@ frame_needed = 0, uses_anonymous_args = 0
 130              	.LVL10:
 131 0000 70B5     		push	{r4, r5, r6, lr}
 132              		.cfi_def_cfa_offset 16
 133              		.cfi_offset 4, -16
 134              		.cfi_offset 5, -12
 135              		.cfi_offset 6, -8
 136              		.cfi_offset 14, -4
 137 0002 98B0     		sub	sp, sp, #96
 138              		.cfi_def_cfa_offset 112
 139              	.LVL11:
 127:display_task.c ****     {
 140              		.loc 1 127 0
 141 0004 2A49     		ldr	r1, .L14
 142 0006 1920     		movs	r0, #25
 143              	.LVL12:
 144 0008 FFF7FEFF 		bl	Cy_EINK_Start
 145              	.LVL13:
 146              	.L10:
 139:display_task.c ****         
 147              		.loc 1 139 0
 148 000c 4FF0FF32 		mov	r2, #-1
 149 0010 0FA9     		add	r1, sp, #60
 150 0012 284B     		ldr	r3, .L14+4
 151 0014 1868     		ldr	r0, [r3]
 152 0016 FFF7FEFF 		bl	xQueueReceive
 153              	.LVL14:
 142:display_task.c ****         {
 154              		.loc 1 142 0
 155 001a 0128     		cmp	r0, #1
 156 001c F6D1     		bne	.L10
 145:display_task.c ****             
 157              		.loc 1 145 0
 158 001e FFF7FEFF 		bl	Cy_EINK_Power
 159              	.LVL15:
 147:display_task.c ****             {
 160              		.loc 1 147 0
 161 0022 0028     		cmp	r0, #0
 162 0024 F2D1     		bne	.L10
 163              	.LBB2:
 150:display_task.c ****                 uint8_t   textOrigin[]          = INSTRUCTION_TEXT_ORIGIN;
ARM GAS  C:\Users\kateb\AppData\Local\Temp\ccTd0Wkf.s 			page 8


 164              		.loc 1 150 0
 165 0026 244A     		ldr	r2, .L14+8
 166 0028 1346     		mov	r3, r2
 167 002a 53F8040B 		ldr	r0, [r3], #4	@ unaligned
 168              	.LVL16:
 169 002e 0990     		str	r0, [sp, #36]	@ unaligned
 151:display_task.c ****                 uint8_t const  timeOrigin[]     = DATE_TEXT_ORIGIN;
 170              		.loc 1 151 0
 171 0030 0026     		movs	r6, #0
 172 0032 8DF81860 		strb	r6, [sp, #24]
 173 0036 0621     		movs	r1, #6
 174 0038 8DF81910 		strb	r1, [sp, #25]
 152:display_task.c ****                 uint8_t const  dateOrigin[]     = TIME_TEXT_ORIGIN;
 175              		.loc 1 152 0
 176 003c 1B88     		ldrh	r3, [r3]	@ unaligned
 177 003e ADF81C30 		strh	r3, [sp, #28]	@ unaligned
 153:display_task.c ****                 
 178              		.loc 1 153 0
 179 0042 1389     		ldrh	r3, [r2, #8]	@ unaligned
 180 0044 ADF82030 		strh	r3, [sp, #32]	@ unaligned
 160:display_task.c ****                                           (cy_eink_frame_t*)background,
 181              		.loc 1 160 0
 182 0048 1C4D     		ldr	r5, .L14+12
 183 004a 09AA     		add	r2, sp, #36
 184 004c 1C49     		ldr	r1, .L14+16
 185 004e 2846     		mov	r0, r5
 186 0050 FFF7FEFF 		bl	Cy_EINK_ImageToFrameBuffer
 187              	.LVL17:
 165:display_task.c ****                                           CY_EINK_FONT_8X12BLACK, textOrigin);
 188              		.loc 1 165 0
 189 0054 06AB     		add	r3, sp, #24
 190 0056 1B4A     		ldr	r2, .L14+20
 191 0058 1B49     		ldr	r1, .L14+24
 192 005a 2846     		mov	r0, r5
 193 005c FFF7FEFF 		bl	Cy_EINK_TextToFrameBuffer
 194              	.LVL18:
 168:display_task.c ****                 
 195              		.loc 1 168 0
 196 0060 10A9     		add	r1, sp, #64
 197 0062 6846     		mov	r0, sp
 198 0064 FFF7FEFF 		bl	GetRtcStrings
 199              	.LVL19:
 200 0068 0AAC     		add	r4, sp, #40
 201 006a 0098     		ldr	r0, [sp]	@ unaligned
 202 006c 0199     		ldr	r1, [sp, #4]	@ unaligned
 203 006e 029A     		ldr	r2, [sp, #8]	@ unaligned
 204 0070 039B     		ldr	r3, [sp, #12]	@ unaligned
 205 0072 0FC4     		stmia	r4!, {r0, r1, r2, r3}
 206 0074 9DF81030 		ldrb	r3, [sp, #16]	@ zero_extendqisi2
 207 0078 2370     		strb	r3, [r4]
 171:display_task.c ****                                       timeAndDateBuffer.timeSting,
 208              		.loc 1 171 0
 209 007a 144C     		ldr	r4, .L14+28
 210 007c 07AB     		add	r3, sp, #28
 211 007e 2246     		mov	r2, r4
 212 0080 0AA9     		add	r1, sp, #40
 213 0082 2846     		mov	r0, r5
ARM GAS  C:\Users\kateb\AppData\Local\Temp\ccTd0Wkf.s 			page 9


 214 0084 FFF7FEFF 		bl	Cy_EINK_TextToFrameBuffer
 215              	.LVL20:
 174:display_task.c ****                                       timeAndDateBuffer.dateString,
 216              		.loc 1 174 0
 217 0088 08AB     		add	r3, sp, #32
 218 008a 2246     		mov	r2, r4
 219 008c 0DF12E01 		add	r1, sp, #46
 220 0090 2846     		mov	r0, r5
 221 0092 FFF7FEFF 		bl	Cy_EINK_TextToFrameBuffer
 222              	.LVL21:
 178:display_task.c ****                 Task_DebugPrintf("Success  : Display - E-INK display power on", 0u);
 223              		.loc 1 178 0
 224 0096 0120     		movs	r0, #1
 225 0098 FFF7FEFF 		bl	Cy_EINK_Power
 226              	.LVL22:
 182:display_task.c ****                                   CY_EINK_FULL_4STAGE, CY_EINK_POWER_MANUAL);
 227              		.loc 1 182 0
 228 009c 3346     		mov	r3, r6
 229 009e 0122     		movs	r2, #1
 230 00a0 2946     		mov	r1, r5
 231 00a2 3046     		mov	r0, r6
 232 00a4 FFF7FEFF 		bl	Cy_EINK_ShowFrame
 233              	.LVL23:
 186:display_task.c ****                 Task_DebugPrintf("Info     : Display - Task completed", 0u);
 234              		.loc 1 186 0
 235 00a8 3046     		mov	r0, r6
 236 00aa FFF7FEFF 		bl	Cy_EINK_Power
 237              	.LVL24:
 238              	.LBE2:
 239 00ae ADE7     		b	.L10
 240              	.L15:
 241              		.align	2
 242              	.L14:
 243 00b0 00000000 		.word	DelayMs
 244 00b4 00000000 		.word	displayDataQ
 245 00b8 00000000 		.word	.LANCHOR0
 246 00bc 00000000 		.word	frameBuffer
 247 00c0 00000000 		.word	background
 248 00c4 00000000 		.word	cy_eink_font8By12_blackInWhite
 249 00c8 00000000 		.word	instructions
 250 00cc 00000000 		.word	cy_eink_font16By16_blackInWhite
 251              		.cfi_endproc
 252              	.LFE597:
 253              		.size	Task_Display, .-Task_Display
 254              		.comm	frameBuffer,5808,4
 255              		.comm	displayDataQ,4,4
 256              		.section	.rodata
 257              		.align	2
 258              		.set	.LANCHOR0,. + 0
 259              	.LC0:
 260 0000 00       		.byte	0
 261 0001 21       		.byte	33
 262 0002 00       		.byte	0
 263 0003 AF       		.byte	-81
 264              	.LC1:
 265 0004 05       		.byte	5
 266 0005 01       		.byte	1
ARM GAS  C:\Users\kateb\AppData\Local\Temp\ccTd0Wkf.s 			page 10


 267 0006 0000     		.space	2
 268              	.LC2:
 269 0008 05       		.byte	5
 270 0009 03       		.byte	3
 271              		.section	.rodata.str1.4,"aMS",%progbits,1
 272              		.align	2
 273              	.LC3:
 274 0000 25303275 		.ascii	"%02u/%02u/20%02u\000"
 274      2F253032 
 274      752F3230 
 274      25303275 
 274      00
 275 0011 000000   		.space	3
 276              	.LC4:
 277 0014 25303275 		.ascii	"%02u:%02u\000"
 277      3A253032 
 277      7500
 278              		.text
 279              	.Letext0:
 280              		.file 2 "c:\\program files (x86)\\cypress\\psoc creator\\4.2\\psoc creator\\import\\gnu\\arm\\5.4.
 281              		.file 3 "c:\\program files (x86)\\cypress\\psoc creator\\4.2\\psoc creator\\import\\gnu\\arm\\5.4.
 282              		.file 4 "Generated_Source\\PSoC6\\pdl\\drivers/peripheral/rtc/cy_rtc.h"
 283              		.file 5 "Generated_Source\\PSoC6\\pdl\\drivers/peripheral/scb/cy_scb_spi.h"
 284              		.file 6 "Generated_Source\\PSoC6\\pdl\\drivers/peripheral/scb/cy_scb_uart.h"
 285              		.file 7 "Generated_Source\\PSoC6\\pdl\\drivers/peripheral/sar/cy_sar.h"
 286              		.file 8 "Generated_Source\\PSoC6\\pdl\\middleware/ble/cy_ble_stack.h"
 287              		.file 9 "Generated_Source\\PSoC6\\pdl\\middleware/ble/cy_ble_stack_host_main.h"
 288              		.file 10 "Generated_Source\\PSoC6\\pdl\\middleware/ble/cy_ble_gap.h"
 289              		.file 11 "Generated_Source\\PSoC6\\pdl\\middleware/ble/cy_ble_cts.h"
 290              		.file 12 "Generated_Source\\PSoC6\\pdl\\middleware/ble/cy_ble_event_handler.h"
 291              		.file 13 "Generated_Source\\PSoC6/ADC.h"
 292              		.file 14 "Generated_Source\\PSoC6\\pdl\\rtos/FreeRTOS/10.0.1/Source/portable/GCC/CM4F/portmacro.h"
 293              		.file 15 "Generated_Source\\PSoC6\\pdl\\rtos/FreeRTOS/10.0.1/Source/include/queue.h"
 294              		.file 16 "rtc_task.h"
 295              		.file 17 ".\\cy_eink_library/cy_eink_fonts.h"
 296              		.file 18 ".\\cy_eink_library/pervasive_eink_hardware_driver.h"
 297              		.file 19 ".\\cy_eink_library/cy_eink_library.h"
 298              		.file 20 "Generated_Source\\PSoC6\\pdl\\cmsis/include/core_cm4.h"
 299              		.file 21 "Generated_Source\\PSoC6/DEBUG_UART.h"
 300              		.file 22 "Generated_Source\\PSoC6/RTC.h"
 301              		.file 23 "Generated_Source\\PSoC6/CY_EINK_SPIM.h"
 302              		.file 24 "screen_contents.h"
 303              		.file 25 "Generated_Source\\PSoC6\\pdl\\rtos/FreeRTOS/10.0.1/Source/include/task.h"
 304              		.file 26 "c:\\program files (x86)\\cypress\\psoc creator\\4.2\\psoc creator\\import\\gnu\\arm\\5.4