ARM GAS  C:\Users\kateb\AppData\Local\Temp\cclfFuoF.s 			page 1


   1              		.syntax unified
   2              		.cpu cortex-m4
   3              		.eabi_attribute 27, 1
   4              		.fpu fpv4-sp-d16
   5              		.eabi_attribute 20, 1
   6              		.eabi_attribute 21, 1
   7              		.eabi_attribute 23, 3
   8              		.eabi_attribute 24, 1
   9              		.eabi_attribute 25, 1
  10              		.eabi_attribute 26, 1
  11              		.eabi_attribute 30, 1
  12              		.eabi_attribute 34, 1
  13              		.eabi_attribute 18, 4
  14              		.thumb
  15              		.syntax unified
  16              		.file	"event_groups.c"
  17              		.text
  18              	.Ltext0:
  19              		.cfi_sections	.debug_frame
  20              		.section	.text.prvTestWaitCondition,"ax",%progbits
  21              		.align	2
  22              		.thumb
  23              		.thumb_func
  24              		.type	prvTestWaitCondition, %function
  25              	prvTestWaitCondition:
  26              	.LFB604:
  27              		.file 1 "Generated_Source\\PSoC6\\pdl\\rtos\\FreeRTOS\\10.0.1\\Source\\event_groups.c"
   1:Generated_Source\PSoC6\pdl\rtos\FreeRTOS\10.0.1\Source/event_groups.c **** /*
   2:Generated_Source\PSoC6\pdl\rtos\FreeRTOS\10.0.1\Source/event_groups.c ****  * FreeRTOS Kernel V10.0.1
   3:Generated_Source\PSoC6\pdl\rtos\FreeRTOS\10.0.1\Source/event_groups.c ****  * Copyright (C) 2017 Amazon.com, Inc. or its affiliates.  All Rights Reserved.
   4:Generated_Source\PSoC6\pdl\rtos\FreeRTOS\10.0.1\Source/event_groups.c ****  *
   5:Generated_Source\PSoC6\pdl\rtos\FreeRTOS\10.0.1\Source/event_groups.c ****  * Permission is hereby granted, free of charge, to any person obtaining a copy of
   6:Generated_Source\PSoC6\pdl\rtos\FreeRTOS\10.0.1\Source/event_groups.c ****  * this software and associated documentation files (the "Software"), to deal in
   7:Generated_Source\PSoC6\pdl\rtos\FreeRTOS\10.0.1\Source/event_groups.c ****  * the Software without restriction, including without limitation the rights to
   8:Generated_Source\PSoC6\pdl\rtos\FreeRTOS\10.0.1\Source/event_groups.c ****  * use, copy, modify, merge, publish, distribute, sublicense, and/or sell copies of
   9:Generated_Source\PSoC6\pdl\rtos\FreeRTOS\10.0.1\Source/event_groups.c ****  * the Software, and to permit persons to whom the Software is furnished to do so,
  10:Generated_Source\PSoC6\pdl\rtos\FreeRTOS\10.0.1\Source/event_groups.c ****  * subject to the following conditions:
  11:Generated_Source\PSoC6\pdl\rtos\FreeRTOS\10.0.1\Source/event_groups.c ****  *
  12:Generated_Source\PSoC6\pdl\rtos\FreeRTOS\10.0.1\Source/event_groups.c ****  * The above copyright notice and this permission notice shall be included in all
  13:Generated_Source\PSoC6\pdl\rtos\FreeRTOS\10.0.1\Source/event_groups.c ****  * copies or substantial portions of the Software.
  14:Generated_Source\PSoC6\pdl\rtos\FreeRTOS\10.0.1\Source/event_groups.c ****  *
  15:Generated_Source\PSoC6\pdl\rtos\FreeRTOS\10.0.1\Source/event_groups.c ****  * THE SOFTWARE IS PROVIDED "AS IS", WITHOUT WARRANTY OF ANY KIND, EXPRESS OR
  16:Generated_Source\PSoC6\pdl\rtos\FreeRTOS\10.0.1\Source/event_groups.c ****  * IMPLIED, INCLUDING BUT NOT LIMITED TO THE WARRANTIES OF MERCHANTABILITY, FITNESS
  17:Generated_Source\PSoC6\pdl\rtos\FreeRTOS\10.0.1\Source/event_groups.c ****  * FOR A PARTICULAR PURPOSE AND NONINFRINGEMENT. IN NO EVENT SHALL THE AUTHORS OR
  18:Generated_Source\PSoC6\pdl\rtos\FreeRTOS\10.0.1\Source/event_groups.c ****  * COPYRIGHT HOLDERS BE LIABLE FOR ANY CLAIM, DAMAGES OR OTHER LIABILITY, WHETHER
  19:Generated_Source\PSoC6\pdl\rtos\FreeRTOS\10.0.1\Source/event_groups.c ****  * IN AN ACTION OF CONTRACT, TORT OR OTHERWISE, ARISING FROM, OUT OF OR IN
  20:Generated_Source\PSoC6\pdl\rtos\FreeRTOS\10.0.1\Source/event_groups.c ****  * CONNECTION WITH THE SOFTWARE OR THE USE OR OTHER DEALINGS IN THE SOFTWARE.
  21:Generated_Source\PSoC6\pdl\rtos\FreeRTOS\10.0.1\Source/event_groups.c ****  *
  22:Generated_Source\PSoC6\pdl\rtos\FreeRTOS\10.0.1\Source/event_groups.c ****  * http://www.FreeRTOS.org
  23:Generated_Source\PSoC6\pdl\rtos\FreeRTOS\10.0.1\Source/event_groups.c ****  * http://aws.amazon.com/freertos
  24:Generated_Source\PSoC6\pdl\rtos\FreeRTOS\10.0.1\Source/event_groups.c ****  *
  25:Generated_Source\PSoC6\pdl\rtos\FreeRTOS\10.0.1\Source/event_groups.c ****  * 1 tab == 4 spaces!
  26:Generated_Source\PSoC6\pdl\rtos\FreeRTOS\10.0.1\Source/event_groups.c ****  */
  27:Generated_Source\PSoC6\pdl\rtos\FreeRTOS\10.0.1\Source/event_groups.c **** 
  28:Generated_Source\PSoC6\pdl\rtos\FreeRTOS\10.0.1\Source/event_groups.c **** /* Standard includes. */
  29:Generated_Source\PSoC6\pdl\rtos\FreeRTOS\10.0.1\Source/event_groups.c **** #include <stdlib.h>
  30:Generated_Source\PSoC6\pdl\rtos\FreeRTOS\10.0.1\Source/event_groups.c **** 
ARM GAS  C:\Users\kateb\AppData\Local\Temp\cclfFuoF.s 			page 2


  31:Generated_Source\PSoC6\pdl\rtos\FreeRTOS\10.0.1\Source/event_groups.c **** /* Defining MPU_WRAPPERS_INCLUDED_FROM_API_FILE prevents task.h from redefining
  32:Generated_Source\PSoC6\pdl\rtos\FreeRTOS\10.0.1\Source/event_groups.c **** all the API functions to use the MPU wrappers.  That should only be done when
  33:Generated_Source\PSoC6\pdl\rtos\FreeRTOS\10.0.1\Source/event_groups.c **** task.h is included from an application file. */
  34:Generated_Source\PSoC6\pdl\rtos\FreeRTOS\10.0.1\Source/event_groups.c **** #define MPU_WRAPPERS_INCLUDED_FROM_API_FILE
  35:Generated_Source\PSoC6\pdl\rtos\FreeRTOS\10.0.1\Source/event_groups.c **** 
  36:Generated_Source\PSoC6\pdl\rtos\FreeRTOS\10.0.1\Source/event_groups.c **** /* FreeRTOS includes. */
  37:Generated_Source\PSoC6\pdl\rtos\FreeRTOS\10.0.1\Source/event_groups.c **** #include "FreeRTOS.h"
  38:Generated_Source\PSoC6\pdl\rtos\FreeRTOS\10.0.1\Source/event_groups.c **** #include "task.h"
  39:Generated_Source\PSoC6\pdl\rtos\FreeRTOS\10.0.1\Source/event_groups.c **** #include "timers.h"
  40:Generated_Source\PSoC6\pdl\rtos\FreeRTOS\10.0.1\Source/event_groups.c **** #include "event_groups.h"
  41:Generated_Source\PSoC6\pdl\rtos\FreeRTOS\10.0.1\Source/event_groups.c **** 
  42:Generated_Source\PSoC6\pdl\rtos\FreeRTOS\10.0.1\Source/event_groups.c **** /* Lint e961 and e750 are suppressed as a MISRA exception justified because the
  43:Generated_Source\PSoC6\pdl\rtos\FreeRTOS\10.0.1\Source/event_groups.c **** MPU ports require MPU_WRAPPERS_INCLUDED_FROM_API_FILE to be defined for the
  44:Generated_Source\PSoC6\pdl\rtos\FreeRTOS\10.0.1\Source/event_groups.c **** header files above, but not in this file, in order to generate the correct
  45:Generated_Source\PSoC6\pdl\rtos\FreeRTOS\10.0.1\Source/event_groups.c **** privileged Vs unprivileged linkage and placement. */
  46:Generated_Source\PSoC6\pdl\rtos\FreeRTOS\10.0.1\Source/event_groups.c **** #undef MPU_WRAPPERS_INCLUDED_FROM_API_FILE /*lint !e961 !e750. */
  47:Generated_Source\PSoC6\pdl\rtos\FreeRTOS\10.0.1\Source/event_groups.c **** 
  48:Generated_Source\PSoC6\pdl\rtos\FreeRTOS\10.0.1\Source/event_groups.c **** /* The following bit fields convey control information in a task's event list
  49:Generated_Source\PSoC6\pdl\rtos\FreeRTOS\10.0.1\Source/event_groups.c **** item value.  It is important they don't clash with the
  50:Generated_Source\PSoC6\pdl\rtos\FreeRTOS\10.0.1\Source/event_groups.c **** taskEVENT_LIST_ITEM_VALUE_IN_USE definition. */
  51:Generated_Source\PSoC6\pdl\rtos\FreeRTOS\10.0.1\Source/event_groups.c **** #if configUSE_16_BIT_TICKS == 1
  52:Generated_Source\PSoC6\pdl\rtos\FreeRTOS\10.0.1\Source/event_groups.c **** 	#define eventCLEAR_EVENTS_ON_EXIT_BIT	0x0100U
  53:Generated_Source\PSoC6\pdl\rtos\FreeRTOS\10.0.1\Source/event_groups.c **** 	#define eventUNBLOCKED_DUE_TO_BIT_SET	0x0200U
  54:Generated_Source\PSoC6\pdl\rtos\FreeRTOS\10.0.1\Source/event_groups.c **** 	#define eventWAIT_FOR_ALL_BITS			0x0400U
  55:Generated_Source\PSoC6\pdl\rtos\FreeRTOS\10.0.1\Source/event_groups.c **** 	#define eventEVENT_BITS_CONTROL_BYTES	0xff00U
  56:Generated_Source\PSoC6\pdl\rtos\FreeRTOS\10.0.1\Source/event_groups.c **** #else
  57:Generated_Source\PSoC6\pdl\rtos\FreeRTOS\10.0.1\Source/event_groups.c **** 	#define eventCLEAR_EVENTS_ON_EXIT_BIT	0x01000000UL
  58:Generated_Source\PSoC6\pdl\rtos\FreeRTOS\10.0.1\Source/event_groups.c **** 	#define eventUNBLOCKED_DUE_TO_BIT_SET	0x02000000UL
  59:Generated_Source\PSoC6\pdl\rtos\FreeRTOS\10.0.1\Source/event_groups.c **** 	#define eventWAIT_FOR_ALL_BITS			0x04000000UL
  60:Generated_Source\PSoC6\pdl\rtos\FreeRTOS\10.0.1\Source/event_groups.c **** 	#define eventEVENT_BITS_CONTROL_BYTES	0xff000000UL
  61:Generated_Source\PSoC6\pdl\rtos\FreeRTOS\10.0.1\Source/event_groups.c **** #endif
  62:Generated_Source\PSoC6\pdl\rtos\FreeRTOS\10.0.1\Source/event_groups.c **** 
  63:Generated_Source\PSoC6\pdl\rtos\FreeRTOS\10.0.1\Source/event_groups.c **** typedef struct xEventGroupDefinition
  64:Generated_Source\PSoC6\pdl\rtos\FreeRTOS\10.0.1\Source/event_groups.c **** {
  65:Generated_Source\PSoC6\pdl\rtos\FreeRTOS\10.0.1\Source/event_groups.c **** 	EventBits_t uxEventBits;
  66:Generated_Source\PSoC6\pdl\rtos\FreeRTOS\10.0.1\Source/event_groups.c **** 	List_t xTasksWaitingForBits;		/*< List of tasks waiting for a bit to be set. */
  67:Generated_Source\PSoC6\pdl\rtos\FreeRTOS\10.0.1\Source/event_groups.c **** 
  68:Generated_Source\PSoC6\pdl\rtos\FreeRTOS\10.0.1\Source/event_groups.c **** 	#if( configUSE_TRACE_FACILITY == 1 )
  69:Generated_Source\PSoC6\pdl\rtos\FreeRTOS\10.0.1\Source/event_groups.c **** 		UBaseType_t uxEventGroupNumber;
  70:Generated_Source\PSoC6\pdl\rtos\FreeRTOS\10.0.1\Source/event_groups.c **** 	#endif
  71:Generated_Source\PSoC6\pdl\rtos\FreeRTOS\10.0.1\Source/event_groups.c **** 
  72:Generated_Source\PSoC6\pdl\rtos\FreeRTOS\10.0.1\Source/event_groups.c **** 	#if( ( configSUPPORT_STATIC_ALLOCATION == 1 ) && ( configSUPPORT_DYNAMIC_ALLOCATION == 1 ) )
  73:Generated_Source\PSoC6\pdl\rtos\FreeRTOS\10.0.1\Source/event_groups.c **** 		uint8_t ucStaticallyAllocated; /*< Set to pdTRUE if the event group is statically allocated to en
  74:Generated_Source\PSoC6\pdl\rtos\FreeRTOS\10.0.1\Source/event_groups.c **** 	#endif
  75:Generated_Source\PSoC6\pdl\rtos\FreeRTOS\10.0.1\Source/event_groups.c **** } EventGroup_t;
  76:Generated_Source\PSoC6\pdl\rtos\FreeRTOS\10.0.1\Source/event_groups.c **** 
  77:Generated_Source\PSoC6\pdl\rtos\FreeRTOS\10.0.1\Source/event_groups.c **** /*-----------------------------------------------------------*/
  78:Generated_Source\PSoC6\pdl\rtos\FreeRTOS\10.0.1\Source/event_groups.c **** 
  79:Generated_Source\PSoC6\pdl\rtos\FreeRTOS\10.0.1\Source/event_groups.c **** /*
  80:Generated_Source\PSoC6\pdl\rtos\FreeRTOS\10.0.1\Source/event_groups.c ****  * Test the bits set in uxCurrentEventBits to see if the wait condition is met.
  81:Generated_Source\PSoC6\pdl\rtos\FreeRTOS\10.0.1\Source/event_groups.c ****  * The wait condition is defined by xWaitForAllBits.  If xWaitForAllBits is
  82:Generated_Source\PSoC6\pdl\rtos\FreeRTOS\10.0.1\Source/event_groups.c ****  * pdTRUE then the wait condition is met if all the bits set in uxBitsToWaitFor
  83:Generated_Source\PSoC6\pdl\rtos\FreeRTOS\10.0.1\Source/event_groups.c ****  * are also set in uxCurrentEventBits.  If xWaitForAllBits is pdFALSE then the
  84:Generated_Source\PSoC6\pdl\rtos\FreeRTOS\10.0.1\Source/event_groups.c ****  * wait condition is met if any of the bits set in uxBitsToWait for are also set
  85:Generated_Source\PSoC6\pdl\rtos\FreeRTOS\10.0.1\Source/event_groups.c ****  * in uxCurrentEventBits.
  86:Generated_Source\PSoC6\pdl\rtos\FreeRTOS\10.0.1\Source/event_groups.c ****  */
  87:Generated_Source\PSoC6\pdl\rtos\FreeRTOS\10.0.1\Source/event_groups.c **** static BaseType_t prvTestWaitCondition( const EventBits_t uxCurrentEventBits, const EventBits_t uxB
ARM GAS  C:\Users\kateb\AppData\Local\Temp\cclfFuoF.s 			page 3


  88:Generated_Source\PSoC6\pdl\rtos\FreeRTOS\10.0.1\Source/event_groups.c **** 
  89:Generated_Source\PSoC6\pdl\rtos\FreeRTOS\10.0.1\Source/event_groups.c **** /*-----------------------------------------------------------*/
  90:Generated_Source\PSoC6\pdl\rtos\FreeRTOS\10.0.1\Source/event_groups.c **** 
  91:Generated_Source\PSoC6\pdl\rtos\FreeRTOS\10.0.1\Source/event_groups.c **** #if( configSUPPORT_STATIC_ALLOCATION == 1 )
  92:Generated_Source\PSoC6\pdl\rtos\FreeRTOS\10.0.1\Source/event_groups.c **** 
  93:Generated_Source\PSoC6\pdl\rtos\FreeRTOS\10.0.1\Source/event_groups.c **** 	EventGroupHandle_t xEventGroupCreateStatic( StaticEventGroup_t *pxEventGroupBuffer )
  94:Generated_Source\PSoC6\pdl\rtos\FreeRTOS\10.0.1\Source/event_groups.c **** 	{
  95:Generated_Source\PSoC6\pdl\rtos\FreeRTOS\10.0.1\Source/event_groups.c **** 	EventGroup_t *pxEventBits;
  96:Generated_Source\PSoC6\pdl\rtos\FreeRTOS\10.0.1\Source/event_groups.c **** 
  97:Generated_Source\PSoC6\pdl\rtos\FreeRTOS\10.0.1\Source/event_groups.c **** 		/* A StaticEventGroup_t object must be provided. */
  98:Generated_Source\PSoC6\pdl\rtos\FreeRTOS\10.0.1\Source/event_groups.c **** 		configASSERT( pxEventGroupBuffer );
  99:Generated_Source\PSoC6\pdl\rtos\FreeRTOS\10.0.1\Source/event_groups.c **** 
 100:Generated_Source\PSoC6\pdl\rtos\FreeRTOS\10.0.1\Source/event_groups.c **** 		#if( configASSERT_DEFINED == 1 )
 101:Generated_Source\PSoC6\pdl\rtos\FreeRTOS\10.0.1\Source/event_groups.c **** 		{
 102:Generated_Source\PSoC6\pdl\rtos\FreeRTOS\10.0.1\Source/event_groups.c **** 			/* Sanity check that the size of the structure used to declare a
 103:Generated_Source\PSoC6\pdl\rtos\FreeRTOS\10.0.1\Source/event_groups.c **** 			variable of type StaticEventGroup_t equals the size of the real
 104:Generated_Source\PSoC6\pdl\rtos\FreeRTOS\10.0.1\Source/event_groups.c **** 			event group structure. */
 105:Generated_Source\PSoC6\pdl\rtos\FreeRTOS\10.0.1\Source/event_groups.c **** 			volatile size_t xSize = sizeof( StaticEventGroup_t );
 106:Generated_Source\PSoC6\pdl\rtos\FreeRTOS\10.0.1\Source/event_groups.c **** 			configASSERT( xSize == sizeof( EventGroup_t ) );
 107:Generated_Source\PSoC6\pdl\rtos\FreeRTOS\10.0.1\Source/event_groups.c **** 		}
 108:Generated_Source\PSoC6\pdl\rtos\FreeRTOS\10.0.1\Source/event_groups.c **** 		#endif /* configASSERT_DEFINED */
 109:Generated_Source\PSoC6\pdl\rtos\FreeRTOS\10.0.1\Source/event_groups.c **** 
 110:Generated_Source\PSoC6\pdl\rtos\FreeRTOS\10.0.1\Source/event_groups.c **** 		/* The user has provided a statically allocated event group - use it. */
 111:Generated_Source\PSoC6\pdl\rtos\FreeRTOS\10.0.1\Source/event_groups.c **** 		pxEventBits = ( EventGroup_t * ) pxEventGroupBuffer; /*lint !e740 EventGroup_t and StaticEventGro
 112:Generated_Source\PSoC6\pdl\rtos\FreeRTOS\10.0.1\Source/event_groups.c **** 
 113:Generated_Source\PSoC6\pdl\rtos\FreeRTOS\10.0.1\Source/event_groups.c **** 		if( pxEventBits != NULL )
 114:Generated_Source\PSoC6\pdl\rtos\FreeRTOS\10.0.1\Source/event_groups.c **** 		{
 115:Generated_Source\PSoC6\pdl\rtos\FreeRTOS\10.0.1\Source/event_groups.c **** 			pxEventBits->uxEventBits = 0;
 116:Generated_Source\PSoC6\pdl\rtos\FreeRTOS\10.0.1\Source/event_groups.c **** 			vListInitialise( &( pxEventBits->xTasksWaitingForBits ) );
 117:Generated_Source\PSoC6\pdl\rtos\FreeRTOS\10.0.1\Source/event_groups.c **** 
 118:Generated_Source\PSoC6\pdl\rtos\FreeRTOS\10.0.1\Source/event_groups.c **** 			#if( configSUPPORT_DYNAMIC_ALLOCATION == 1 )
 119:Generated_Source\PSoC6\pdl\rtos\FreeRTOS\10.0.1\Source/event_groups.c **** 			{
 120:Generated_Source\PSoC6\pdl\rtos\FreeRTOS\10.0.1\Source/event_groups.c **** 				/* Both static and dynamic allocation can be used, so note that
 121:Generated_Source\PSoC6\pdl\rtos\FreeRTOS\10.0.1\Source/event_groups.c **** 				this event group was created statically in case the event group
 122:Generated_Source\PSoC6\pdl\rtos\FreeRTOS\10.0.1\Source/event_groups.c **** 				is later deleted. */
 123:Generated_Source\PSoC6\pdl\rtos\FreeRTOS\10.0.1\Source/event_groups.c **** 				pxEventBits->ucStaticallyAllocated = pdTRUE;
 124:Generated_Source\PSoC6\pdl\rtos\FreeRTOS\10.0.1\Source/event_groups.c **** 			}
 125:Generated_Source\PSoC6\pdl\rtos\FreeRTOS\10.0.1\Source/event_groups.c **** 			#endif /* configSUPPORT_DYNAMIC_ALLOCATION */
 126:Generated_Source\PSoC6\pdl\rtos\FreeRTOS\10.0.1\Source/event_groups.c **** 
 127:Generated_Source\PSoC6\pdl\rtos\FreeRTOS\10.0.1\Source/event_groups.c **** 			traceEVENT_GROUP_CREATE( pxEventBits );
 128:Generated_Source\PSoC6\pdl\rtos\FreeRTOS\10.0.1\Source/event_groups.c **** 		}
 129:Generated_Source\PSoC6\pdl\rtos\FreeRTOS\10.0.1\Source/event_groups.c **** 		else
 130:Generated_Source\PSoC6\pdl\rtos\FreeRTOS\10.0.1\Source/event_groups.c **** 		{
 131:Generated_Source\PSoC6\pdl\rtos\FreeRTOS\10.0.1\Source/event_groups.c **** 			traceEVENT_GROUP_CREATE_FAILED();
 132:Generated_Source\PSoC6\pdl\rtos\FreeRTOS\10.0.1\Source/event_groups.c **** 		}
 133:Generated_Source\PSoC6\pdl\rtos\FreeRTOS\10.0.1\Source/event_groups.c **** 
 134:Generated_Source\PSoC6\pdl\rtos\FreeRTOS\10.0.1\Source/event_groups.c **** 		return ( EventGroupHandle_t ) pxEventBits;
 135:Generated_Source\PSoC6\pdl\rtos\FreeRTOS\10.0.1\Source/event_groups.c **** 	}
 136:Generated_Source\PSoC6\pdl\rtos\FreeRTOS\10.0.1\Source/event_groups.c **** 
 137:Generated_Source\PSoC6\pdl\rtos\FreeRTOS\10.0.1\Source/event_groups.c **** #endif /* configSUPPORT_STATIC_ALLOCATION */
 138:Generated_Source\PSoC6\pdl\rtos\FreeRTOS\10.0.1\Source/event_groups.c **** /*-----------------------------------------------------------*/
 139:Generated_Source\PSoC6\pdl\rtos\FreeRTOS\10.0.1\Source/event_groups.c **** 
 140:Generated_Source\PSoC6\pdl\rtos\FreeRTOS\10.0.1\Source/event_groups.c **** #if( configSUPPORT_DYNAMIC_ALLOCATION == 1 )
 141:Generated_Source\PSoC6\pdl\rtos\FreeRTOS\10.0.1\Source/event_groups.c **** 
 142:Generated_Source\PSoC6\pdl\rtos\FreeRTOS\10.0.1\Source/event_groups.c **** 	EventGroupHandle_t xEventGroupCreate( void )
 143:Generated_Source\PSoC6\pdl\rtos\FreeRTOS\10.0.1\Source/event_groups.c **** 	{
 144:Generated_Source\PSoC6\pdl\rtos\FreeRTOS\10.0.1\Source/event_groups.c **** 	EventGroup_t *pxEventBits;
ARM GAS  C:\Users\kateb\AppData\Local\Temp\cclfFuoF.s 			page 4


 145:Generated_Source\PSoC6\pdl\rtos\FreeRTOS\10.0.1\Source/event_groups.c **** 
 146:Generated_Source\PSoC6\pdl\rtos\FreeRTOS\10.0.1\Source/event_groups.c **** 		/* Allocate the event group. */
 147:Generated_Source\PSoC6\pdl\rtos\FreeRTOS\10.0.1\Source/event_groups.c **** 		pxEventBits = ( EventGroup_t * ) pvPortMalloc( sizeof( EventGroup_t ) );
 148:Generated_Source\PSoC6\pdl\rtos\FreeRTOS\10.0.1\Source/event_groups.c **** 
 149:Generated_Source\PSoC6\pdl\rtos\FreeRTOS\10.0.1\Source/event_groups.c **** 		if( pxEventBits != NULL )
 150:Generated_Source\PSoC6\pdl\rtos\FreeRTOS\10.0.1\Source/event_groups.c **** 		{
 151:Generated_Source\PSoC6\pdl\rtos\FreeRTOS\10.0.1\Source/event_groups.c **** 			pxEventBits->uxEventBits = 0;
 152:Generated_Source\PSoC6\pdl\rtos\FreeRTOS\10.0.1\Source/event_groups.c **** 			vListInitialise( &( pxEventBits->xTasksWaitingForBits ) );
 153:Generated_Source\PSoC6\pdl\rtos\FreeRTOS\10.0.1\Source/event_groups.c **** 
 154:Generated_Source\PSoC6\pdl\rtos\FreeRTOS\10.0.1\Source/event_groups.c **** 			#if( configSUPPORT_STATIC_ALLOCATION == 1 )
 155:Generated_Source\PSoC6\pdl\rtos\FreeRTOS\10.0.1\Source/event_groups.c **** 			{
 156:Generated_Source\PSoC6\pdl\rtos\FreeRTOS\10.0.1\Source/event_groups.c **** 				/* Both static and dynamic allocation can be used, so note this
 157:Generated_Source\PSoC6\pdl\rtos\FreeRTOS\10.0.1\Source/event_groups.c **** 				event group was allocated statically in case the event group is
 158:Generated_Source\PSoC6\pdl\rtos\FreeRTOS\10.0.1\Source/event_groups.c **** 				later deleted. */
 159:Generated_Source\PSoC6\pdl\rtos\FreeRTOS\10.0.1\Source/event_groups.c **** 				pxEventBits->ucStaticallyAllocated = pdFALSE;
 160:Generated_Source\PSoC6\pdl\rtos\FreeRTOS\10.0.1\Source/event_groups.c **** 			}
 161:Generated_Source\PSoC6\pdl\rtos\FreeRTOS\10.0.1\Source/event_groups.c **** 			#endif /* configSUPPORT_STATIC_ALLOCATION */
 162:Generated_Source\PSoC6\pdl\rtos\FreeRTOS\10.0.1\Source/event_groups.c **** 
 163:Generated_Source\PSoC6\pdl\rtos\FreeRTOS\10.0.1\Source/event_groups.c **** 			traceEVENT_GROUP_CREATE( pxEventBits );
 164:Generated_Source\PSoC6\pdl\rtos\FreeRTOS\10.0.1\Source/event_groups.c **** 		}
 165:Generated_Source\PSoC6\pdl\rtos\FreeRTOS\10.0.1\Source/event_groups.c **** 		else
 166:Generated_Source\PSoC6\pdl\rtos\FreeRTOS\10.0.1\Source/event_groups.c **** 		{
 167:Generated_Source\PSoC6\pdl\rtos\FreeRTOS\10.0.1\Source/event_groups.c **** 			traceEVENT_GROUP_CREATE_FAILED();
 168:Generated_Source\PSoC6\pdl\rtos\FreeRTOS\10.0.1\Source/event_groups.c **** 		}
 169:Generated_Source\PSoC6\pdl\rtos\FreeRTOS\10.0.1\Source/event_groups.c **** 
 170:Generated_Source\PSoC6\pdl\rtos\FreeRTOS\10.0.1\Source/event_groups.c **** 		return ( EventGroupHandle_t ) pxEventBits;
 171:Generated_Source\PSoC6\pdl\rtos\FreeRTOS\10.0.1\Source/event_groups.c **** 	}
 172:Generated_Source\PSoC6\pdl\rtos\FreeRTOS\10.0.1\Source/event_groups.c **** 
 173:Generated_Source\PSoC6\pdl\rtos\FreeRTOS\10.0.1\Source/event_groups.c **** #endif /* configSUPPORT_DYNAMIC_ALLOCATION */
 174:Generated_Source\PSoC6\pdl\rtos\FreeRTOS\10.0.1\Source/event_groups.c **** /*-----------------------------------------------------------*/
 175:Generated_Source\PSoC6\pdl\rtos\FreeRTOS\10.0.1\Source/event_groups.c **** 
 176:Generated_Source\PSoC6\pdl\rtos\FreeRTOS\10.0.1\Source/event_groups.c **** EventBits_t xEventGroupSync( EventGroupHandle_t xEventGroup, const EventBits_t uxBitsToSet, const E
 177:Generated_Source\PSoC6\pdl\rtos\FreeRTOS\10.0.1\Source/event_groups.c **** {
 178:Generated_Source\PSoC6\pdl\rtos\FreeRTOS\10.0.1\Source/event_groups.c **** EventBits_t uxOriginalBitValue, uxReturn;
 179:Generated_Source\PSoC6\pdl\rtos\FreeRTOS\10.0.1\Source/event_groups.c **** EventGroup_t *pxEventBits = ( EventGroup_t * ) xEventGroup;
 180:Generated_Source\PSoC6\pdl\rtos\FreeRTOS\10.0.1\Source/event_groups.c **** BaseType_t xAlreadyYielded;
 181:Generated_Source\PSoC6\pdl\rtos\FreeRTOS\10.0.1\Source/event_groups.c **** BaseType_t xTimeoutOccurred = pdFALSE;
 182:Generated_Source\PSoC6\pdl\rtos\FreeRTOS\10.0.1\Source/event_groups.c **** 
 183:Generated_Source\PSoC6\pdl\rtos\FreeRTOS\10.0.1\Source/event_groups.c **** 	configASSERT( ( uxBitsToWaitFor & eventEVENT_BITS_CONTROL_BYTES ) == 0 );
 184:Generated_Source\PSoC6\pdl\rtos\FreeRTOS\10.0.1\Source/event_groups.c **** 	configASSERT( uxBitsToWaitFor != 0 );
 185:Generated_Source\PSoC6\pdl\rtos\FreeRTOS\10.0.1\Source/event_groups.c **** 	#if ( ( INCLUDE_xTaskGetSchedulerState == 1 ) || ( configUSE_TIMERS == 1 ) )
 186:Generated_Source\PSoC6\pdl\rtos\FreeRTOS\10.0.1\Source/event_groups.c **** 	{
 187:Generated_Source\PSoC6\pdl\rtos\FreeRTOS\10.0.1\Source/event_groups.c **** 		configASSERT( !( ( xTaskGetSchedulerState() == taskSCHEDULER_SUSPENDED ) && ( xTicksToWait != 0 )
 188:Generated_Source\PSoC6\pdl\rtos\FreeRTOS\10.0.1\Source/event_groups.c **** 	}
 189:Generated_Source\PSoC6\pdl\rtos\FreeRTOS\10.0.1\Source/event_groups.c **** 	#endif
 190:Generated_Source\PSoC6\pdl\rtos\FreeRTOS\10.0.1\Source/event_groups.c **** 
 191:Generated_Source\PSoC6\pdl\rtos\FreeRTOS\10.0.1\Source/event_groups.c **** 	vTaskSuspendAll();
 192:Generated_Source\PSoC6\pdl\rtos\FreeRTOS\10.0.1\Source/event_groups.c **** 	{
 193:Generated_Source\PSoC6\pdl\rtos\FreeRTOS\10.0.1\Source/event_groups.c **** 		uxOriginalBitValue = pxEventBits->uxEventBits;
 194:Generated_Source\PSoC6\pdl\rtos\FreeRTOS\10.0.1\Source/event_groups.c **** 
 195:Generated_Source\PSoC6\pdl\rtos\FreeRTOS\10.0.1\Source/event_groups.c **** 		( void ) xEventGroupSetBits( xEventGroup, uxBitsToSet );
 196:Generated_Source\PSoC6\pdl\rtos\FreeRTOS\10.0.1\Source/event_groups.c **** 
 197:Generated_Source\PSoC6\pdl\rtos\FreeRTOS\10.0.1\Source/event_groups.c **** 		if( ( ( uxOriginalBitValue | uxBitsToSet ) & uxBitsToWaitFor ) == uxBitsToWaitFor )
 198:Generated_Source\PSoC6\pdl\rtos\FreeRTOS\10.0.1\Source/event_groups.c **** 		{
 199:Generated_Source\PSoC6\pdl\rtos\FreeRTOS\10.0.1\Source/event_groups.c **** 			/* All the rendezvous bits are now set - no need to block. */
 200:Generated_Source\PSoC6\pdl\rtos\FreeRTOS\10.0.1\Source/event_groups.c **** 			uxReturn = ( uxOriginalBitValue | uxBitsToSet );
 201:Generated_Source\PSoC6\pdl\rtos\FreeRTOS\10.0.1\Source/event_groups.c **** 
ARM GAS  C:\Users\kateb\AppData\Local\Temp\cclfFuoF.s 			page 5


 202:Generated_Source\PSoC6\pdl\rtos\FreeRTOS\10.0.1\Source/event_groups.c **** 			/* Rendezvous always clear the bits.  They will have been cleared
 203:Generated_Source\PSoC6\pdl\rtos\FreeRTOS\10.0.1\Source/event_groups.c **** 			already unless this is the only task in the rendezvous. */
 204:Generated_Source\PSoC6\pdl\rtos\FreeRTOS\10.0.1\Source/event_groups.c **** 			pxEventBits->uxEventBits &= ~uxBitsToWaitFor;
 205:Generated_Source\PSoC6\pdl\rtos\FreeRTOS\10.0.1\Source/event_groups.c **** 
 206:Generated_Source\PSoC6\pdl\rtos\FreeRTOS\10.0.1\Source/event_groups.c **** 			xTicksToWait = 0;
 207:Generated_Source\PSoC6\pdl\rtos\FreeRTOS\10.0.1\Source/event_groups.c **** 		}
 208:Generated_Source\PSoC6\pdl\rtos\FreeRTOS\10.0.1\Source/event_groups.c **** 		else
 209:Generated_Source\PSoC6\pdl\rtos\FreeRTOS\10.0.1\Source/event_groups.c **** 		{
 210:Generated_Source\PSoC6\pdl\rtos\FreeRTOS\10.0.1\Source/event_groups.c **** 			if( xTicksToWait != ( TickType_t ) 0 )
 211:Generated_Source\PSoC6\pdl\rtos\FreeRTOS\10.0.1\Source/event_groups.c **** 			{
 212:Generated_Source\PSoC6\pdl\rtos\FreeRTOS\10.0.1\Source/event_groups.c **** 				traceEVENT_GROUP_SYNC_BLOCK( xEventGroup, uxBitsToSet, uxBitsToWaitFor );
 213:Generated_Source\PSoC6\pdl\rtos\FreeRTOS\10.0.1\Source/event_groups.c **** 
 214:Generated_Source\PSoC6\pdl\rtos\FreeRTOS\10.0.1\Source/event_groups.c **** 				/* Store the bits that the calling task is waiting for in the
 215:Generated_Source\PSoC6\pdl\rtos\FreeRTOS\10.0.1\Source/event_groups.c **** 				task's event list item so the kernel knows when a match is
 216:Generated_Source\PSoC6\pdl\rtos\FreeRTOS\10.0.1\Source/event_groups.c **** 				found.  Then enter the blocked state. */
 217:Generated_Source\PSoC6\pdl\rtos\FreeRTOS\10.0.1\Source/event_groups.c **** 				vTaskPlaceOnUnorderedEventList( &( pxEventBits->xTasksWaitingForBits ), ( uxBitsToWaitFor | eve
 218:Generated_Source\PSoC6\pdl\rtos\FreeRTOS\10.0.1\Source/event_groups.c **** 
 219:Generated_Source\PSoC6\pdl\rtos\FreeRTOS\10.0.1\Source/event_groups.c **** 				/* This assignment is obsolete as uxReturn will get set after
 220:Generated_Source\PSoC6\pdl\rtos\FreeRTOS\10.0.1\Source/event_groups.c **** 				the task unblocks, but some compilers mistakenly generate a
 221:Generated_Source\PSoC6\pdl\rtos\FreeRTOS\10.0.1\Source/event_groups.c **** 				warning about uxReturn being returned without being set if the
 222:Generated_Source\PSoC6\pdl\rtos\FreeRTOS\10.0.1\Source/event_groups.c **** 				assignment is omitted. */
 223:Generated_Source\PSoC6\pdl\rtos\FreeRTOS\10.0.1\Source/event_groups.c **** 				uxReturn = 0;
 224:Generated_Source\PSoC6\pdl\rtos\FreeRTOS\10.0.1\Source/event_groups.c **** 			}
 225:Generated_Source\PSoC6\pdl\rtos\FreeRTOS\10.0.1\Source/event_groups.c **** 			else
 226:Generated_Source\PSoC6\pdl\rtos\FreeRTOS\10.0.1\Source/event_groups.c **** 			{
 227:Generated_Source\PSoC6\pdl\rtos\FreeRTOS\10.0.1\Source/event_groups.c **** 				/* The rendezvous bits were not set, but no block time was
 228:Generated_Source\PSoC6\pdl\rtos\FreeRTOS\10.0.1\Source/event_groups.c **** 				specified - just return the current event bit value. */
 229:Generated_Source\PSoC6\pdl\rtos\FreeRTOS\10.0.1\Source/event_groups.c **** 				uxReturn = pxEventBits->uxEventBits;
 230:Generated_Source\PSoC6\pdl\rtos\FreeRTOS\10.0.1\Source/event_groups.c **** 				xTimeoutOccurred = pdTRUE;
 231:Generated_Source\PSoC6\pdl\rtos\FreeRTOS\10.0.1\Source/event_groups.c **** 			}
 232:Generated_Source\PSoC6\pdl\rtos\FreeRTOS\10.0.1\Source/event_groups.c **** 		}
 233:Generated_Source\PSoC6\pdl\rtos\FreeRTOS\10.0.1\Source/event_groups.c **** 	}
 234:Generated_Source\PSoC6\pdl\rtos\FreeRTOS\10.0.1\Source/event_groups.c **** 	xAlreadyYielded = xTaskResumeAll();
 235:Generated_Source\PSoC6\pdl\rtos\FreeRTOS\10.0.1\Source/event_groups.c **** 
 236:Generated_Source\PSoC6\pdl\rtos\FreeRTOS\10.0.1\Source/event_groups.c **** 	if( xTicksToWait != ( TickType_t ) 0 )
 237:Generated_Source\PSoC6\pdl\rtos\FreeRTOS\10.0.1\Source/event_groups.c **** 	{
 238:Generated_Source\PSoC6\pdl\rtos\FreeRTOS\10.0.1\Source/event_groups.c **** 		if( xAlreadyYielded == pdFALSE )
 239:Generated_Source\PSoC6\pdl\rtos\FreeRTOS\10.0.1\Source/event_groups.c **** 		{
 240:Generated_Source\PSoC6\pdl\rtos\FreeRTOS\10.0.1\Source/event_groups.c **** 			portYIELD_WITHIN_API();
 241:Generated_Source\PSoC6\pdl\rtos\FreeRTOS\10.0.1\Source/event_groups.c **** 		}
 242:Generated_Source\PSoC6\pdl\rtos\FreeRTOS\10.0.1\Source/event_groups.c **** 		else
 243:Generated_Source\PSoC6\pdl\rtos\FreeRTOS\10.0.1\Source/event_groups.c **** 		{
 244:Generated_Source\PSoC6\pdl\rtos\FreeRTOS\10.0.1\Source/event_groups.c **** 			mtCOVERAGE_TEST_MARKER();
 245:Generated_Source\PSoC6\pdl\rtos\FreeRTOS\10.0.1\Source/event_groups.c **** 		}
 246:Generated_Source\PSoC6\pdl\rtos\FreeRTOS\10.0.1\Source/event_groups.c **** 
 247:Generated_Source\PSoC6\pdl\rtos\FreeRTOS\10.0.1\Source/event_groups.c **** 		/* The task blocked to wait for its required bits to be set - at this
 248:Generated_Source\PSoC6\pdl\rtos\FreeRTOS\10.0.1\Source/event_groups.c **** 		point either the required bits were set or the block time expired.  If
 249:Generated_Source\PSoC6\pdl\rtos\FreeRTOS\10.0.1\Source/event_groups.c **** 		the required bits were set they will have been stored in the task's
 250:Generated_Source\PSoC6\pdl\rtos\FreeRTOS\10.0.1\Source/event_groups.c **** 		event list item, and they should now be retrieved then cleared. */
 251:Generated_Source\PSoC6\pdl\rtos\FreeRTOS\10.0.1\Source/event_groups.c **** 		uxReturn = uxTaskResetEventItemValue();
 252:Generated_Source\PSoC6\pdl\rtos\FreeRTOS\10.0.1\Source/event_groups.c **** 
 253:Generated_Source\PSoC6\pdl\rtos\FreeRTOS\10.0.1\Source/event_groups.c **** 		if( ( uxReturn & eventUNBLOCKED_DUE_TO_BIT_SET ) == ( EventBits_t ) 0 )
 254:Generated_Source\PSoC6\pdl\rtos\FreeRTOS\10.0.1\Source/event_groups.c **** 		{
 255:Generated_Source\PSoC6\pdl\rtos\FreeRTOS\10.0.1\Source/event_groups.c **** 			/* The task timed out, just return the current event bit value. */
 256:Generated_Source\PSoC6\pdl\rtos\FreeRTOS\10.0.1\Source/event_groups.c **** 			taskENTER_CRITICAL();
 257:Generated_Source\PSoC6\pdl\rtos\FreeRTOS\10.0.1\Source/event_groups.c **** 			{
 258:Generated_Source\PSoC6\pdl\rtos\FreeRTOS\10.0.1\Source/event_groups.c **** 				uxReturn = pxEventBits->uxEventBits;
ARM GAS  C:\Users\kateb\AppData\Local\Temp\cclfFuoF.s 			page 6


 259:Generated_Source\PSoC6\pdl\rtos\FreeRTOS\10.0.1\Source/event_groups.c **** 
 260:Generated_Source\PSoC6\pdl\rtos\FreeRTOS\10.0.1\Source/event_groups.c **** 				/* Although the task got here because it timed out before the
 261:Generated_Source\PSoC6\pdl\rtos\FreeRTOS\10.0.1\Source/event_groups.c **** 				bits it was waiting for were set, it is possible that since it
 262:Generated_Source\PSoC6\pdl\rtos\FreeRTOS\10.0.1\Source/event_groups.c **** 				unblocked another task has set the bits.  If this is the case
 263:Generated_Source\PSoC6\pdl\rtos\FreeRTOS\10.0.1\Source/event_groups.c **** 				then it needs to clear the bits before exiting. */
 264:Generated_Source\PSoC6\pdl\rtos\FreeRTOS\10.0.1\Source/event_groups.c **** 				if( ( uxReturn & uxBitsToWaitFor ) == uxBitsToWaitFor )
 265:Generated_Source\PSoC6\pdl\rtos\FreeRTOS\10.0.1\Source/event_groups.c **** 				{
 266:Generated_Source\PSoC6\pdl\rtos\FreeRTOS\10.0.1\Source/event_groups.c **** 					pxEventBits->uxEventBits &= ~uxBitsToWaitFor;
 267:Generated_Source\PSoC6\pdl\rtos\FreeRTOS\10.0.1\Source/event_groups.c **** 				}
 268:Generated_Source\PSoC6\pdl\rtos\FreeRTOS\10.0.1\Source/event_groups.c **** 				else
 269:Generated_Source\PSoC6\pdl\rtos\FreeRTOS\10.0.1\Source/event_groups.c **** 				{
 270:Generated_Source\PSoC6\pdl\rtos\FreeRTOS\10.0.1\Source/event_groups.c **** 					mtCOVERAGE_TEST_MARKER();
 271:Generated_Source\PSoC6\pdl\rtos\FreeRTOS\10.0.1\Source/event_groups.c **** 				}
 272:Generated_Source\PSoC6\pdl\rtos\FreeRTOS\10.0.1\Source/event_groups.c **** 			}
 273:Generated_Source\PSoC6\pdl\rtos\FreeRTOS\10.0.1\Source/event_groups.c **** 			taskEXIT_CRITICAL();
 274:Generated_Source\PSoC6\pdl\rtos\FreeRTOS\10.0.1\Source/event_groups.c **** 
 275:Generated_Source\PSoC6\pdl\rtos\FreeRTOS\10.0.1\Source/event_groups.c **** 			xTimeoutOccurred = pdTRUE;
 276:Generated_Source\PSoC6\pdl\rtos\FreeRTOS\10.0.1\Source/event_groups.c **** 		}
 277:Generated_Source\PSoC6\pdl\rtos\FreeRTOS\10.0.1\Source/event_groups.c **** 		else
 278:Generated_Source\PSoC6\pdl\rtos\FreeRTOS\10.0.1\Source/event_groups.c **** 		{
 279:Generated_Source\PSoC6\pdl\rtos\FreeRTOS\10.0.1\Source/event_groups.c **** 			/* The task unblocked because the bits were set. */
 280:Generated_Source\PSoC6\pdl\rtos\FreeRTOS\10.0.1\Source/event_groups.c **** 		}
 281:Generated_Source\PSoC6\pdl\rtos\FreeRTOS\10.0.1\Source/event_groups.c **** 
 282:Generated_Source\PSoC6\pdl\rtos\FreeRTOS\10.0.1\Source/event_groups.c **** 		/* Control bits might be set as the task had blocked should not be
 283:Generated_Source\PSoC6\pdl\rtos\FreeRTOS\10.0.1\Source/event_groups.c **** 		returned. */
 284:Generated_Source\PSoC6\pdl\rtos\FreeRTOS\10.0.1\Source/event_groups.c **** 		uxReturn &= ~eventEVENT_BITS_CONTROL_BYTES;
 285:Generated_Source\PSoC6\pdl\rtos\FreeRTOS\10.0.1\Source/event_groups.c **** 	}
 286:Generated_Source\PSoC6\pdl\rtos\FreeRTOS\10.0.1\Source/event_groups.c **** 
 287:Generated_Source\PSoC6\pdl\rtos\FreeRTOS\10.0.1\Source/event_groups.c **** 	traceEVENT_GROUP_SYNC_END( xEventGroup, uxBitsToSet, uxBitsToWaitFor, xTimeoutOccurred );
 288:Generated_Source\PSoC6\pdl\rtos\FreeRTOS\10.0.1\Source/event_groups.c **** 
 289:Generated_Source\PSoC6\pdl\rtos\FreeRTOS\10.0.1\Source/event_groups.c **** 	/* Prevent compiler warnings when trace macros are not used. */
 290:Generated_Source\PSoC6\pdl\rtos\FreeRTOS\10.0.1\Source/event_groups.c **** 	( void ) xTimeoutOccurred;
 291:Generated_Source\PSoC6\pdl\rtos\FreeRTOS\10.0.1\Source/event_groups.c **** 
 292:Generated_Source\PSoC6\pdl\rtos\FreeRTOS\10.0.1\Source/event_groups.c **** 	return uxReturn;
 293:Generated_Source\PSoC6\pdl\rtos\FreeRTOS\10.0.1\Source/event_groups.c **** }
 294:Generated_Source\PSoC6\pdl\rtos\FreeRTOS\10.0.1\Source/event_groups.c **** /*-----------------------------------------------------------*/
 295:Generated_Source\PSoC6\pdl\rtos\FreeRTOS\10.0.1\Source/event_groups.c **** 
 296:Generated_Source\PSoC6\pdl\rtos\FreeRTOS\10.0.1\Source/event_groups.c **** EventBits_t xEventGroupWaitBits( EventGroupHandle_t xEventGroup, const EventBits_t uxBitsToWaitFor,
 297:Generated_Source\PSoC6\pdl\rtos\FreeRTOS\10.0.1\Source/event_groups.c **** {
 298:Generated_Source\PSoC6\pdl\rtos\FreeRTOS\10.0.1\Source/event_groups.c **** EventGroup_t *pxEventBits = ( EventGroup_t * ) xEventGroup;
 299:Generated_Source\PSoC6\pdl\rtos\FreeRTOS\10.0.1\Source/event_groups.c **** EventBits_t uxReturn, uxControlBits = 0;
 300:Generated_Source\PSoC6\pdl\rtos\FreeRTOS\10.0.1\Source/event_groups.c **** BaseType_t xWaitConditionMet, xAlreadyYielded;
 301:Generated_Source\PSoC6\pdl\rtos\FreeRTOS\10.0.1\Source/event_groups.c **** BaseType_t xTimeoutOccurred = pdFALSE;
 302:Generated_Source\PSoC6\pdl\rtos\FreeRTOS\10.0.1\Source/event_groups.c **** 
 303:Generated_Source\PSoC6\pdl\rtos\FreeRTOS\10.0.1\Source/event_groups.c **** 	/* Check the user is not attempting to wait on the bits used by the kernel
 304:Generated_Source\PSoC6\pdl\rtos\FreeRTOS\10.0.1\Source/event_groups.c **** 	itself, and that at least one bit is being requested. */
 305:Generated_Source\PSoC6\pdl\rtos\FreeRTOS\10.0.1\Source/event_groups.c **** 	configASSERT( xEventGroup );
 306:Generated_Source\PSoC6\pdl\rtos\FreeRTOS\10.0.1\Source/event_groups.c **** 	configASSERT( ( uxBitsToWaitFor & eventEVENT_BITS_CONTROL_BYTES ) == 0 );
 307:Generated_Source\PSoC6\pdl\rtos\FreeRTOS\10.0.1\Source/event_groups.c **** 	configASSERT( uxBitsToWaitFor != 0 );
 308:Generated_Source\PSoC6\pdl\rtos\FreeRTOS\10.0.1\Source/event_groups.c **** 	#if ( ( INCLUDE_xTaskGetSchedulerState == 1 ) || ( configUSE_TIMERS == 1 ) )
 309:Generated_Source\PSoC6\pdl\rtos\FreeRTOS\10.0.1\Source/event_groups.c **** 	{
 310:Generated_Source\PSoC6\pdl\rtos\FreeRTOS\10.0.1\Source/event_groups.c **** 		configASSERT( !( ( xTaskGetSchedulerState() == taskSCHEDULER_SUSPENDED ) && ( xTicksToWait != 0 )
 311:Generated_Source\PSoC6\pdl\rtos\FreeRTOS\10.0.1\Source/event_groups.c **** 	}
 312:Generated_Source\PSoC6\pdl\rtos\FreeRTOS\10.0.1\Source/event_groups.c **** 	#endif
 313:Generated_Source\PSoC6\pdl\rtos\FreeRTOS\10.0.1\Source/event_groups.c **** 
 314:Generated_Source\PSoC6\pdl\rtos\FreeRTOS\10.0.1\Source/event_groups.c **** 	vTaskSuspendAll();
 315:Generated_Source\PSoC6\pdl\rtos\FreeRTOS\10.0.1\Source/event_groups.c **** 	{
ARM GAS  C:\Users\kateb\AppData\Local\Temp\cclfFuoF.s 			page 7


 316:Generated_Source\PSoC6\pdl\rtos\FreeRTOS\10.0.1\Source/event_groups.c **** 		const EventBits_t uxCurrentEventBits = pxEventBits->uxEventBits;
 317:Generated_Source\PSoC6\pdl\rtos\FreeRTOS\10.0.1\Source/event_groups.c **** 
 318:Generated_Source\PSoC6\pdl\rtos\FreeRTOS\10.0.1\Source/event_groups.c **** 		/* Check to see if the wait condition is already met or not. */
 319:Generated_Source\PSoC6\pdl\rtos\FreeRTOS\10.0.1\Source/event_groups.c **** 		xWaitConditionMet = prvTestWaitCondition( uxCurrentEventBits, uxBitsToWaitFor, xWaitForAllBits );
 320:Generated_Source\PSoC6\pdl\rtos\FreeRTOS\10.0.1\Source/event_groups.c **** 
 321:Generated_Source\PSoC6\pdl\rtos\FreeRTOS\10.0.1\Source/event_groups.c **** 		if( xWaitConditionMet != pdFALSE )
 322:Generated_Source\PSoC6\pdl\rtos\FreeRTOS\10.0.1\Source/event_groups.c **** 		{
 323:Generated_Source\PSoC6\pdl\rtos\FreeRTOS\10.0.1\Source/event_groups.c **** 			/* The wait condition has already been met so there is no need to
 324:Generated_Source\PSoC6\pdl\rtos\FreeRTOS\10.0.1\Source/event_groups.c **** 			block. */
 325:Generated_Source\PSoC6\pdl\rtos\FreeRTOS\10.0.1\Source/event_groups.c **** 			uxReturn = uxCurrentEventBits;
 326:Generated_Source\PSoC6\pdl\rtos\FreeRTOS\10.0.1\Source/event_groups.c **** 			xTicksToWait = ( TickType_t ) 0;
 327:Generated_Source\PSoC6\pdl\rtos\FreeRTOS\10.0.1\Source/event_groups.c **** 
 328:Generated_Source\PSoC6\pdl\rtos\FreeRTOS\10.0.1\Source/event_groups.c **** 			/* Clear the wait bits if requested to do so. */
 329:Generated_Source\PSoC6\pdl\rtos\FreeRTOS\10.0.1\Source/event_groups.c **** 			if( xClearOnExit != pdFALSE )
 330:Generated_Source\PSoC6\pdl\rtos\FreeRTOS\10.0.1\Source/event_groups.c **** 			{
 331:Generated_Source\PSoC6\pdl\rtos\FreeRTOS\10.0.1\Source/event_groups.c **** 				pxEventBits->uxEventBits &= ~uxBitsToWaitFor;
 332:Generated_Source\PSoC6\pdl\rtos\FreeRTOS\10.0.1\Source/event_groups.c **** 			}
 333:Generated_Source\PSoC6\pdl\rtos\FreeRTOS\10.0.1\Source/event_groups.c **** 			else
 334:Generated_Source\PSoC6\pdl\rtos\FreeRTOS\10.0.1\Source/event_groups.c **** 			{
 335:Generated_Source\PSoC6\pdl\rtos\FreeRTOS\10.0.1\Source/event_groups.c **** 				mtCOVERAGE_TEST_MARKER();
 336:Generated_Source\PSoC6\pdl\rtos\FreeRTOS\10.0.1\Source/event_groups.c **** 			}
 337:Generated_Source\PSoC6\pdl\rtos\FreeRTOS\10.0.1\Source/event_groups.c **** 		}
 338:Generated_Source\PSoC6\pdl\rtos\FreeRTOS\10.0.1\Source/event_groups.c **** 		else if( xTicksToWait == ( TickType_t ) 0 )
 339:Generated_Source\PSoC6\pdl\rtos\FreeRTOS\10.0.1\Source/event_groups.c **** 		{
 340:Generated_Source\PSoC6\pdl\rtos\FreeRTOS\10.0.1\Source/event_groups.c **** 			/* The wait condition has not been met, but no block time was
 341:Generated_Source\PSoC6\pdl\rtos\FreeRTOS\10.0.1\Source/event_groups.c **** 			specified, so just return the current value. */
 342:Generated_Source\PSoC6\pdl\rtos\FreeRTOS\10.0.1\Source/event_groups.c **** 			uxReturn = uxCurrentEventBits;
 343:Generated_Source\PSoC6\pdl\rtos\FreeRTOS\10.0.1\Source/event_groups.c **** 			xTimeoutOccurred = pdTRUE;
 344:Generated_Source\PSoC6\pdl\rtos\FreeRTOS\10.0.1\Source/event_groups.c **** 		}
 345:Generated_Source\PSoC6\pdl\rtos\FreeRTOS\10.0.1\Source/event_groups.c **** 		else
 346:Generated_Source\PSoC6\pdl\rtos\FreeRTOS\10.0.1\Source/event_groups.c **** 		{
 347:Generated_Source\PSoC6\pdl\rtos\FreeRTOS\10.0.1\Source/event_groups.c **** 			/* The task is going to block to wait for its required bits to be
 348:Generated_Source\PSoC6\pdl\rtos\FreeRTOS\10.0.1\Source/event_groups.c **** 			set.  uxControlBits are used to remember the specified behaviour of
 349:Generated_Source\PSoC6\pdl\rtos\FreeRTOS\10.0.1\Source/event_groups.c **** 			this call to xEventGroupWaitBits() - for use when the event bits
 350:Generated_Source\PSoC6\pdl\rtos\FreeRTOS\10.0.1\Source/event_groups.c **** 			unblock the task. */
 351:Generated_Source\PSoC6\pdl\rtos\FreeRTOS\10.0.1\Source/event_groups.c **** 			if( xClearOnExit != pdFALSE )
 352:Generated_Source\PSoC6\pdl\rtos\FreeRTOS\10.0.1\Source/event_groups.c **** 			{
 353:Generated_Source\PSoC6\pdl\rtos\FreeRTOS\10.0.1\Source/event_groups.c **** 				uxControlBits |= eventCLEAR_EVENTS_ON_EXIT_BIT;
 354:Generated_Source\PSoC6\pdl\rtos\FreeRTOS\10.0.1\Source/event_groups.c **** 			}
 355:Generated_Source\PSoC6\pdl\rtos\FreeRTOS\10.0.1\Source/event_groups.c **** 			else
 356:Generated_Source\PSoC6\pdl\rtos\FreeRTOS\10.0.1\Source/event_groups.c **** 			{
 357:Generated_Source\PSoC6\pdl\rtos\FreeRTOS\10.0.1\Source/event_groups.c **** 				mtCOVERAGE_TEST_MARKER();
 358:Generated_Source\PSoC6\pdl\rtos\FreeRTOS\10.0.1\Source/event_groups.c **** 			}
 359:Generated_Source\PSoC6\pdl\rtos\FreeRTOS\10.0.1\Source/event_groups.c **** 
 360:Generated_Source\PSoC6\pdl\rtos\FreeRTOS\10.0.1\Source/event_groups.c **** 			if( xWaitForAllBits != pdFALSE )
 361:Generated_Source\PSoC6\pdl\rtos\FreeRTOS\10.0.1\Source/event_groups.c **** 			{
 362:Generated_Source\PSoC6\pdl\rtos\FreeRTOS\10.0.1\Source/event_groups.c **** 				uxControlBits |= eventWAIT_FOR_ALL_BITS;
 363:Generated_Source\PSoC6\pdl\rtos\FreeRTOS\10.0.1\Source/event_groups.c **** 			}
 364:Generated_Source\PSoC6\pdl\rtos\FreeRTOS\10.0.1\Source/event_groups.c **** 			else
 365:Generated_Source\PSoC6\pdl\rtos\FreeRTOS\10.0.1\Source/event_groups.c **** 			{
 366:Generated_Source\PSoC6\pdl\rtos\FreeRTOS\10.0.1\Source/event_groups.c **** 				mtCOVERAGE_TEST_MARKER();
 367:Generated_Source\PSoC6\pdl\rtos\FreeRTOS\10.0.1\Source/event_groups.c **** 			}
 368:Generated_Source\PSoC6\pdl\rtos\FreeRTOS\10.0.1\Source/event_groups.c **** 
 369:Generated_Source\PSoC6\pdl\rtos\FreeRTOS\10.0.1\Source/event_groups.c **** 			/* Store the bits that the calling task is waiting for in the
 370:Generated_Source\PSoC6\pdl\rtos\FreeRTOS\10.0.1\Source/event_groups.c **** 			task's event list item so the kernel knows when a match is
 371:Generated_Source\PSoC6\pdl\rtos\FreeRTOS\10.0.1\Source/event_groups.c **** 			found.  Then enter the blocked state. */
 372:Generated_Source\PSoC6\pdl\rtos\FreeRTOS\10.0.1\Source/event_groups.c **** 			vTaskPlaceOnUnorderedEventList( &( pxEventBits->xTasksWaitingForBits ), ( uxBitsToWaitFor | uxCo
ARM GAS  C:\Users\kateb\AppData\Local\Temp\cclfFuoF.s 			page 8


 373:Generated_Source\PSoC6\pdl\rtos\FreeRTOS\10.0.1\Source/event_groups.c **** 
 374:Generated_Source\PSoC6\pdl\rtos\FreeRTOS\10.0.1\Source/event_groups.c **** 			/* This is obsolete as it will get set after the task unblocks, but
 375:Generated_Source\PSoC6\pdl\rtos\FreeRTOS\10.0.1\Source/event_groups.c **** 			some compilers mistakenly generate a warning about the variable
 376:Generated_Source\PSoC6\pdl\rtos\FreeRTOS\10.0.1\Source/event_groups.c **** 			being returned without being set if it is not done. */
 377:Generated_Source\PSoC6\pdl\rtos\FreeRTOS\10.0.1\Source/event_groups.c **** 			uxReturn = 0;
 378:Generated_Source\PSoC6\pdl\rtos\FreeRTOS\10.0.1\Source/event_groups.c **** 
 379:Generated_Source\PSoC6\pdl\rtos\FreeRTOS\10.0.1\Source/event_groups.c **** 			traceEVENT_GROUP_WAIT_BITS_BLOCK( xEventGroup, uxBitsToWaitFor );
 380:Generated_Source\PSoC6\pdl\rtos\FreeRTOS\10.0.1\Source/event_groups.c **** 		}
 381:Generated_Source\PSoC6\pdl\rtos\FreeRTOS\10.0.1\Source/event_groups.c **** 	}
 382:Generated_Source\PSoC6\pdl\rtos\FreeRTOS\10.0.1\Source/event_groups.c **** 	xAlreadyYielded = xTaskResumeAll();
 383:Generated_Source\PSoC6\pdl\rtos\FreeRTOS\10.0.1\Source/event_groups.c **** 
 384:Generated_Source\PSoC6\pdl\rtos\FreeRTOS\10.0.1\Source/event_groups.c **** 	if( xTicksToWait != ( TickType_t ) 0 )
 385:Generated_Source\PSoC6\pdl\rtos\FreeRTOS\10.0.1\Source/event_groups.c **** 	{
 386:Generated_Source\PSoC6\pdl\rtos\FreeRTOS\10.0.1\Source/event_groups.c **** 		if( xAlreadyYielded == pdFALSE )
 387:Generated_Source\PSoC6\pdl\rtos\FreeRTOS\10.0.1\Source/event_groups.c **** 		{
 388:Generated_Source\PSoC6\pdl\rtos\FreeRTOS\10.0.1\Source/event_groups.c **** 			portYIELD_WITHIN_API();
 389:Generated_Source\PSoC6\pdl\rtos\FreeRTOS\10.0.1\Source/event_groups.c **** 		}
 390:Generated_Source\PSoC6\pdl\rtos\FreeRTOS\10.0.1\Source/event_groups.c **** 		else
 391:Generated_Source\PSoC6\pdl\rtos\FreeRTOS\10.0.1\Source/event_groups.c **** 		{
 392:Generated_Source\PSoC6\pdl\rtos\FreeRTOS\10.0.1\Source/event_groups.c **** 			mtCOVERAGE_TEST_MARKER();
 393:Generated_Source\PSoC6\pdl\rtos\FreeRTOS\10.0.1\Source/event_groups.c **** 		}
 394:Generated_Source\PSoC6\pdl\rtos\FreeRTOS\10.0.1\Source/event_groups.c **** 
 395:Generated_Source\PSoC6\pdl\rtos\FreeRTOS\10.0.1\Source/event_groups.c **** 		/* The task blocked to wait for its required bits to be set - at this
 396:Generated_Source\PSoC6\pdl\rtos\FreeRTOS\10.0.1\Source/event_groups.c **** 		point either the required bits were set or the block time expired.  If
 397:Generated_Source\PSoC6\pdl\rtos\FreeRTOS\10.0.1\Source/event_groups.c **** 		the required bits were set they will have been stored in the task's
 398:Generated_Source\PSoC6\pdl\rtos\FreeRTOS\10.0.1\Source/event_groups.c **** 		event list item, and they should now be retrieved then cleared. */
 399:Generated_Source\PSoC6\pdl\rtos\FreeRTOS\10.0.1\Source/event_groups.c **** 		uxReturn = uxTaskResetEventItemValue();
 400:Generated_Source\PSoC6\pdl\rtos\FreeRTOS\10.0.1\Source/event_groups.c **** 
 401:Generated_Source\PSoC6\pdl\rtos\FreeRTOS\10.0.1\Source/event_groups.c **** 		if( ( uxReturn & eventUNBLOCKED_DUE_TO_BIT_SET ) == ( EventBits_t ) 0 )
 402:Generated_Source\PSoC6\pdl\rtos\FreeRTOS\10.0.1\Source/event_groups.c **** 		{
 403:Generated_Source\PSoC6\pdl\rtos\FreeRTOS\10.0.1\Source/event_groups.c **** 			taskENTER_CRITICAL();
 404:Generated_Source\PSoC6\pdl\rtos\FreeRTOS\10.0.1\Source/event_groups.c **** 			{
 405:Generated_Source\PSoC6\pdl\rtos\FreeRTOS\10.0.1\Source/event_groups.c **** 				/* The task timed out, just return the current event bit value. */
 406:Generated_Source\PSoC6\pdl\rtos\FreeRTOS\10.0.1\Source/event_groups.c **** 				uxReturn = pxEventBits->uxEventBits;
 407:Generated_Source\PSoC6\pdl\rtos\FreeRTOS\10.0.1\Source/event_groups.c **** 
 408:Generated_Source\PSoC6\pdl\rtos\FreeRTOS\10.0.1\Source/event_groups.c **** 				/* It is possible that the event bits were updated between this
 409:Generated_Source\PSoC6\pdl\rtos\FreeRTOS\10.0.1\Source/event_groups.c **** 				task leaving the Blocked state and running again. */
 410:Generated_Source\PSoC6\pdl\rtos\FreeRTOS\10.0.1\Source/event_groups.c **** 				if( prvTestWaitCondition( uxReturn, uxBitsToWaitFor, xWaitForAllBits ) != pdFALSE )
 411:Generated_Source\PSoC6\pdl\rtos\FreeRTOS\10.0.1\Source/event_groups.c **** 				{
 412:Generated_Source\PSoC6\pdl\rtos\FreeRTOS\10.0.1\Source/event_groups.c **** 					if( xClearOnExit != pdFALSE )
 413:Generated_Source\PSoC6\pdl\rtos\FreeRTOS\10.0.1\Source/event_groups.c **** 					{
 414:Generated_Source\PSoC6\pdl\rtos\FreeRTOS\10.0.1\Source/event_groups.c **** 						pxEventBits->uxEventBits &= ~uxBitsToWaitFor;
 415:Generated_Source\PSoC6\pdl\rtos\FreeRTOS\10.0.1\Source/event_groups.c **** 					}
 416:Generated_Source\PSoC6\pdl\rtos\FreeRTOS\10.0.1\Source/event_groups.c **** 					else
 417:Generated_Source\PSoC6\pdl\rtos\FreeRTOS\10.0.1\Source/event_groups.c **** 					{
 418:Generated_Source\PSoC6\pdl\rtos\FreeRTOS\10.0.1\Source/event_groups.c **** 						mtCOVERAGE_TEST_MARKER();
 419:Generated_Source\PSoC6\pdl\rtos\FreeRTOS\10.0.1\Source/event_groups.c **** 					}
 420:Generated_Source\PSoC6\pdl\rtos\FreeRTOS\10.0.1\Source/event_groups.c **** 				}
 421:Generated_Source\PSoC6\pdl\rtos\FreeRTOS\10.0.1\Source/event_groups.c **** 				else
 422:Generated_Source\PSoC6\pdl\rtos\FreeRTOS\10.0.1\Source/event_groups.c **** 				{
 423:Generated_Source\PSoC6\pdl\rtos\FreeRTOS\10.0.1\Source/event_groups.c **** 					mtCOVERAGE_TEST_MARKER();
 424:Generated_Source\PSoC6\pdl\rtos\FreeRTOS\10.0.1\Source/event_groups.c **** 				}
 425:Generated_Source\PSoC6\pdl\rtos\FreeRTOS\10.0.1\Source/event_groups.c **** 				xTimeoutOccurred = pdTRUE;
 426:Generated_Source\PSoC6\pdl\rtos\FreeRTOS\10.0.1\Source/event_groups.c **** 			}
 427:Generated_Source\PSoC6\pdl\rtos\FreeRTOS\10.0.1\Source/event_groups.c **** 			taskEXIT_CRITICAL();
 428:Generated_Source\PSoC6\pdl\rtos\FreeRTOS\10.0.1\Source/event_groups.c **** 		}
 429:Generated_Source\PSoC6\pdl\rtos\FreeRTOS\10.0.1\Source/event_groups.c **** 		else
ARM GAS  C:\Users\kateb\AppData\Local\Temp\cclfFuoF.s 			page 9


 430:Generated_Source\PSoC6\pdl\rtos\FreeRTOS\10.0.1\Source/event_groups.c **** 		{
 431:Generated_Source\PSoC6\pdl\rtos\FreeRTOS\10.0.1\Source/event_groups.c **** 			/* The task unblocked because the bits were set. */
 432:Generated_Source\PSoC6\pdl\rtos\FreeRTOS\10.0.1\Source/event_groups.c **** 		}
 433:Generated_Source\PSoC6\pdl\rtos\FreeRTOS\10.0.1\Source/event_groups.c **** 
 434:Generated_Source\PSoC6\pdl\rtos\FreeRTOS\10.0.1\Source/event_groups.c **** 		/* The task blocked so control bits may have been set. */
 435:Generated_Source\PSoC6\pdl\rtos\FreeRTOS\10.0.1\Source/event_groups.c **** 		uxReturn &= ~eventEVENT_BITS_CONTROL_BYTES;
 436:Generated_Source\PSoC6\pdl\rtos\FreeRTOS\10.0.1\Source/event_groups.c **** 	}
 437:Generated_Source\PSoC6\pdl\rtos\FreeRTOS\10.0.1\Source/event_groups.c **** 	traceEVENT_GROUP_WAIT_BITS_END( xEventGroup, uxBitsToWaitFor, xTimeoutOccurred );
 438:Generated_Source\PSoC6\pdl\rtos\FreeRTOS\10.0.1\Source/event_groups.c **** 
 439:Generated_Source\PSoC6\pdl\rtos\FreeRTOS\10.0.1\Source/event_groups.c **** 	/* Prevent compiler warnings when trace macros are not used. */
 440:Generated_Source\PSoC6\pdl\rtos\FreeRTOS\10.0.1\Source/event_groups.c **** 	( void ) xTimeoutOccurred;
 441:Generated_Source\PSoC6\pdl\rtos\FreeRTOS\10.0.1\Source/event_groups.c **** 
 442:Generated_Source\PSoC6\pdl\rtos\FreeRTOS\10.0.1\Source/event_groups.c **** 	return uxReturn;
 443:Generated_Source\PSoC6\pdl\rtos\FreeRTOS\10.0.1\Source/event_groups.c **** }
 444:Generated_Source\PSoC6\pdl\rtos\FreeRTOS\10.0.1\Source/event_groups.c **** /*-----------------------------------------------------------*/
 445:Generated_Source\PSoC6\pdl\rtos\FreeRTOS\10.0.1\Source/event_groups.c **** 
 446:Generated_Source\PSoC6\pdl\rtos\FreeRTOS\10.0.1\Source/event_groups.c **** EventBits_t xEventGroupClearBits( EventGroupHandle_t xEventGroup, const EventBits_t uxBitsToClear )
 447:Generated_Source\PSoC6\pdl\rtos\FreeRTOS\10.0.1\Source/event_groups.c **** {
 448:Generated_Source\PSoC6\pdl\rtos\FreeRTOS\10.0.1\Source/event_groups.c **** EventGroup_t *pxEventBits = ( EventGroup_t * ) xEventGroup;
 449:Generated_Source\PSoC6\pdl\rtos\FreeRTOS\10.0.1\Source/event_groups.c **** EventBits_t uxReturn;
 450:Generated_Source\PSoC6\pdl\rtos\FreeRTOS\10.0.1\Source/event_groups.c **** 
 451:Generated_Source\PSoC6\pdl\rtos\FreeRTOS\10.0.1\Source/event_groups.c **** 	/* Check the user is not attempting to clear the bits used by the kernel
 452:Generated_Source\PSoC6\pdl\rtos\FreeRTOS\10.0.1\Source/event_groups.c **** 	itself. */
 453:Generated_Source\PSoC6\pdl\rtos\FreeRTOS\10.0.1\Source/event_groups.c **** 	configASSERT( xEventGroup );
 454:Generated_Source\PSoC6\pdl\rtos\FreeRTOS\10.0.1\Source/event_groups.c **** 	configASSERT( ( uxBitsToClear & eventEVENT_BITS_CONTROL_BYTES ) == 0 );
 455:Generated_Source\PSoC6\pdl\rtos\FreeRTOS\10.0.1\Source/event_groups.c **** 
 456:Generated_Source\PSoC6\pdl\rtos\FreeRTOS\10.0.1\Source/event_groups.c **** 	taskENTER_CRITICAL();
 457:Generated_Source\PSoC6\pdl\rtos\FreeRTOS\10.0.1\Source/event_groups.c **** 	{
 458:Generated_Source\PSoC6\pdl\rtos\FreeRTOS\10.0.1\Source/event_groups.c **** 		traceEVENT_GROUP_CLEAR_BITS( xEventGroup, uxBitsToClear );
 459:Generated_Source\PSoC6\pdl\rtos\FreeRTOS\10.0.1\Source/event_groups.c **** 
 460:Generated_Source\PSoC6\pdl\rtos\FreeRTOS\10.0.1\Source/event_groups.c **** 		/* The value returned is the event group value prior to the bits being
 461:Generated_Source\PSoC6\pdl\rtos\FreeRTOS\10.0.1\Source/event_groups.c **** 		cleared. */
 462:Generated_Source\PSoC6\pdl\rtos\FreeRTOS\10.0.1\Source/event_groups.c **** 		uxReturn = pxEventBits->uxEventBits;
 463:Generated_Source\PSoC6\pdl\rtos\FreeRTOS\10.0.1\Source/event_groups.c **** 
 464:Generated_Source\PSoC6\pdl\rtos\FreeRTOS\10.0.1\Source/event_groups.c **** 		/* Clear the bits. */
 465:Generated_Source\PSoC6\pdl\rtos\FreeRTOS\10.0.1\Source/event_groups.c **** 		pxEventBits->uxEventBits &= ~uxBitsToClear;
 466:Generated_Source\PSoC6\pdl\rtos\FreeRTOS\10.0.1\Source/event_groups.c **** 	}
 467:Generated_Source\PSoC6\pdl\rtos\FreeRTOS\10.0.1\Source/event_groups.c **** 	taskEXIT_CRITICAL();
 468:Generated_Source\PSoC6\pdl\rtos\FreeRTOS\10.0.1\Source/event_groups.c **** 
 469:Generated_Source\PSoC6\pdl\rtos\FreeRTOS\10.0.1\Source/event_groups.c **** 	return uxReturn;
 470:Generated_Source\PSoC6\pdl\rtos\FreeRTOS\10.0.1\Source/event_groups.c **** }
 471:Generated_Source\PSoC6\pdl\rtos\FreeRTOS\10.0.1\Source/event_groups.c **** /*-----------------------------------------------------------*/
 472:Generated_Source\PSoC6\pdl\rtos\FreeRTOS\10.0.1\Source/event_groups.c **** 
 473:Generated_Source\PSoC6\pdl\rtos\FreeRTOS\10.0.1\Source/event_groups.c **** #if ( ( configUSE_TRACE_FACILITY == 1 ) && ( INCLUDE_xTimerPendFunctionCall == 1 ) && ( configUSE_T
 474:Generated_Source\PSoC6\pdl\rtos\FreeRTOS\10.0.1\Source/event_groups.c **** 
 475:Generated_Source\PSoC6\pdl\rtos\FreeRTOS\10.0.1\Source/event_groups.c **** 	BaseType_t xEventGroupClearBitsFromISR( EventGroupHandle_t xEventGroup, const EventBits_t uxBitsTo
 476:Generated_Source\PSoC6\pdl\rtos\FreeRTOS\10.0.1\Source/event_groups.c **** 	{
 477:Generated_Source\PSoC6\pdl\rtos\FreeRTOS\10.0.1\Source/event_groups.c **** 		BaseType_t xReturn;
 478:Generated_Source\PSoC6\pdl\rtos\FreeRTOS\10.0.1\Source/event_groups.c **** 
 479:Generated_Source\PSoC6\pdl\rtos\FreeRTOS\10.0.1\Source/event_groups.c **** 		traceEVENT_GROUP_CLEAR_BITS_FROM_ISR( xEventGroup, uxBitsToClear );
 480:Generated_Source\PSoC6\pdl\rtos\FreeRTOS\10.0.1\Source/event_groups.c **** 		xReturn = xTimerPendFunctionCallFromISR( vEventGroupClearBitsCallback, ( void * ) xEventGroup, ( 
 481:Generated_Source\PSoC6\pdl\rtos\FreeRTOS\10.0.1\Source/event_groups.c **** 
 482:Generated_Source\PSoC6\pdl\rtos\FreeRTOS\10.0.1\Source/event_groups.c **** 		return xReturn;
 483:Generated_Source\PSoC6\pdl\rtos\FreeRTOS\10.0.1\Source/event_groups.c **** 	}
 484:Generated_Source\PSoC6\pdl\rtos\FreeRTOS\10.0.1\Source/event_groups.c **** 
 485:Generated_Source\PSoC6\pdl\rtos\FreeRTOS\10.0.1\Source/event_groups.c **** #endif
 486:Generated_Source\PSoC6\pdl\rtos\FreeRTOS\10.0.1\Source/event_groups.c **** /*-----------------------------------------------------------*/
ARM GAS  C:\Users\kateb\AppData\Local\Temp\cclfFuoF.s 			page 10


 487:Generated_Source\PSoC6\pdl\rtos\FreeRTOS\10.0.1\Source/event_groups.c **** 
 488:Generated_Source\PSoC6\pdl\rtos\FreeRTOS\10.0.1\Source/event_groups.c **** EventBits_t xEventGroupGetBitsFromISR( EventGroupHandle_t xEventGroup )
 489:Generated_Source\PSoC6\pdl\rtos\FreeRTOS\10.0.1\Source/event_groups.c **** {
 490:Generated_Source\PSoC6\pdl\rtos\FreeRTOS\10.0.1\Source/event_groups.c **** UBaseType_t uxSavedInterruptStatus;
 491:Generated_Source\PSoC6\pdl\rtos\FreeRTOS\10.0.1\Source/event_groups.c **** EventGroup_t *pxEventBits = ( EventGroup_t * ) xEventGroup;
 492:Generated_Source\PSoC6\pdl\rtos\FreeRTOS\10.0.1\Source/event_groups.c **** EventBits_t uxReturn;
 493:Generated_Source\PSoC6\pdl\rtos\FreeRTOS\10.0.1\Source/event_groups.c **** 
 494:Generated_Source\PSoC6\pdl\rtos\FreeRTOS\10.0.1\Source/event_groups.c **** 	uxSavedInterruptStatus = portSET_INTERRUPT_MASK_FROM_ISR();
 495:Generated_Source\PSoC6\pdl\rtos\FreeRTOS\10.0.1\Source/event_groups.c **** 	{
 496:Generated_Source\PSoC6\pdl\rtos\FreeRTOS\10.0.1\Source/event_groups.c **** 		uxReturn = pxEventBits->uxEventBits;
 497:Generated_Source\PSoC6\pdl\rtos\FreeRTOS\10.0.1\Source/event_groups.c **** 	}
 498:Generated_Source\PSoC6\pdl\rtos\FreeRTOS\10.0.1\Source/event_groups.c **** 	portCLEAR_INTERRUPT_MASK_FROM_ISR( uxSavedInterruptStatus );
 499:Generated_Source\PSoC6\pdl\rtos\FreeRTOS\10.0.1\Source/event_groups.c **** 
 500:Generated_Source\PSoC6\pdl\rtos\FreeRTOS\10.0.1\Source/event_groups.c **** 	return uxReturn;
 501:Generated_Source\PSoC6\pdl\rtos\FreeRTOS\10.0.1\Source/event_groups.c **** }
 502:Generated_Source\PSoC6\pdl\rtos\FreeRTOS\10.0.1\Source/event_groups.c **** /*-----------------------------------------------------------*/
 503:Generated_Source\PSoC6\pdl\rtos\FreeRTOS\10.0.1\Source/event_groups.c **** 
 504:Generated_Source\PSoC6\pdl\rtos\FreeRTOS\10.0.1\Source/event_groups.c **** EventBits_t xEventGroupSetBits( EventGroupHandle_t xEventGroup, const EventBits_t uxBitsToSet )
 505:Generated_Source\PSoC6\pdl\rtos\FreeRTOS\10.0.1\Source/event_groups.c **** {
 506:Generated_Source\PSoC6\pdl\rtos\FreeRTOS\10.0.1\Source/event_groups.c **** ListItem_t *pxListItem, *pxNext;
 507:Generated_Source\PSoC6\pdl\rtos\FreeRTOS\10.0.1\Source/event_groups.c **** ListItem_t const *pxListEnd;
 508:Generated_Source\PSoC6\pdl\rtos\FreeRTOS\10.0.1\Source/event_groups.c **** List_t *pxList;
 509:Generated_Source\PSoC6\pdl\rtos\FreeRTOS\10.0.1\Source/event_groups.c **** EventBits_t uxBitsToClear = 0, uxBitsWaitedFor, uxControlBits;
 510:Generated_Source\PSoC6\pdl\rtos\FreeRTOS\10.0.1\Source/event_groups.c **** EventGroup_t *pxEventBits = ( EventGroup_t * ) xEventGroup;
 511:Generated_Source\PSoC6\pdl\rtos\FreeRTOS\10.0.1\Source/event_groups.c **** BaseType_t xMatchFound = pdFALSE;
 512:Generated_Source\PSoC6\pdl\rtos\FreeRTOS\10.0.1\Source/event_groups.c **** 
 513:Generated_Source\PSoC6\pdl\rtos\FreeRTOS\10.0.1\Source/event_groups.c **** 	/* Check the user is not attempting to set the bits used by the kernel
 514:Generated_Source\PSoC6\pdl\rtos\FreeRTOS\10.0.1\Source/event_groups.c **** 	itself. */
 515:Generated_Source\PSoC6\pdl\rtos\FreeRTOS\10.0.1\Source/event_groups.c **** 	configASSERT( xEventGroup );
 516:Generated_Source\PSoC6\pdl\rtos\FreeRTOS\10.0.1\Source/event_groups.c **** 	configASSERT( ( uxBitsToSet & eventEVENT_BITS_CONTROL_BYTES ) == 0 );
 517:Generated_Source\PSoC6\pdl\rtos\FreeRTOS\10.0.1\Source/event_groups.c **** 
 518:Generated_Source\PSoC6\pdl\rtos\FreeRTOS\10.0.1\Source/event_groups.c **** 	pxList = &( pxEventBits->xTasksWaitingForBits );
 519:Generated_Source\PSoC6\pdl\rtos\FreeRTOS\10.0.1\Source/event_groups.c **** 	pxListEnd = listGET_END_MARKER( pxList ); /*lint !e826 !e740 The mini list structure is used as th
 520:Generated_Source\PSoC6\pdl\rtos\FreeRTOS\10.0.1\Source/event_groups.c **** 	vTaskSuspendAll();
 521:Generated_Source\PSoC6\pdl\rtos\FreeRTOS\10.0.1\Source/event_groups.c **** 	{
 522:Generated_Source\PSoC6\pdl\rtos\FreeRTOS\10.0.1\Source/event_groups.c **** 		traceEVENT_GROUP_SET_BITS( xEventGroup, uxBitsToSet );
 523:Generated_Source\PSoC6\pdl\rtos\FreeRTOS\10.0.1\Source/event_groups.c **** 
 524:Generated_Source\PSoC6\pdl\rtos\FreeRTOS\10.0.1\Source/event_groups.c **** 		pxListItem = listGET_HEAD_ENTRY( pxList );
 525:Generated_Source\PSoC6\pdl\rtos\FreeRTOS\10.0.1\Source/event_groups.c **** 
 526:Generated_Source\PSoC6\pdl\rtos\FreeRTOS\10.0.1\Source/event_groups.c **** 		/* Set the bits. */
 527:Generated_Source\PSoC6\pdl\rtos\FreeRTOS\10.0.1\Source/event_groups.c **** 		pxEventBits->uxEventBits |= uxBitsToSet;
 528:Generated_Source\PSoC6\pdl\rtos\FreeRTOS\10.0.1\Source/event_groups.c **** 
 529:Generated_Source\PSoC6\pdl\rtos\FreeRTOS\10.0.1\Source/event_groups.c **** 		/* See if the new bit value should unblock any tasks. */
 530:Generated_Source\PSoC6\pdl\rtos\FreeRTOS\10.0.1\Source/event_groups.c **** 		while( pxListItem != pxListEnd )
 531:Generated_Source\PSoC6\pdl\rtos\FreeRTOS\10.0.1\Source/event_groups.c **** 		{
 532:Generated_Source\PSoC6\pdl\rtos\FreeRTOS\10.0.1\Source/event_groups.c **** 			pxNext = listGET_NEXT( pxListItem );
 533:Generated_Source\PSoC6\pdl\rtos\FreeRTOS\10.0.1\Source/event_groups.c **** 			uxBitsWaitedFor = listGET_LIST_ITEM_VALUE( pxListItem );
 534:Generated_Source\PSoC6\pdl\rtos\FreeRTOS\10.0.1\Source/event_groups.c **** 			xMatchFound = pdFALSE;
 535:Generated_Source\PSoC6\pdl\rtos\FreeRTOS\10.0.1\Source/event_groups.c **** 
 536:Generated_Source\PSoC6\pdl\rtos\FreeRTOS\10.0.1\Source/event_groups.c **** 			/* Split the bits waited for from the control bits. */
 537:Generated_Source\PSoC6\pdl\rtos\FreeRTOS\10.0.1\Source/event_groups.c **** 			uxControlBits = uxBitsWaitedFor & eventEVENT_BITS_CONTROL_BYTES;
 538:Generated_Source\PSoC6\pdl\rtos\FreeRTOS\10.0.1\Source/event_groups.c **** 			uxBitsWaitedFor &= ~eventEVENT_BITS_CONTROL_BYTES;
 539:Generated_Source\PSoC6\pdl\rtos\FreeRTOS\10.0.1\Source/event_groups.c **** 
 540:Generated_Source\PSoC6\pdl\rtos\FreeRTOS\10.0.1\Source/event_groups.c **** 			if( ( uxControlBits & eventWAIT_FOR_ALL_BITS ) == ( EventBits_t ) 0 )
 541:Generated_Source\PSoC6\pdl\rtos\FreeRTOS\10.0.1\Source/event_groups.c **** 			{
 542:Generated_Source\PSoC6\pdl\rtos\FreeRTOS\10.0.1\Source/event_groups.c **** 				/* Just looking for single bit being set. */
 543:Generated_Source\PSoC6\pdl\rtos\FreeRTOS\10.0.1\Source/event_groups.c **** 				if( ( uxBitsWaitedFor & pxEventBits->uxEventBits ) != ( EventBits_t ) 0 )
ARM GAS  C:\Users\kateb\AppData\Local\Temp\cclfFuoF.s 			page 11


 544:Generated_Source\PSoC6\pdl\rtos\FreeRTOS\10.0.1\Source/event_groups.c **** 				{
 545:Generated_Source\PSoC6\pdl\rtos\FreeRTOS\10.0.1\Source/event_groups.c **** 					xMatchFound = pdTRUE;
 546:Generated_Source\PSoC6\pdl\rtos\FreeRTOS\10.0.1\Source/event_groups.c **** 				}
 547:Generated_Source\PSoC6\pdl\rtos\FreeRTOS\10.0.1\Source/event_groups.c **** 				else
 548:Generated_Source\PSoC6\pdl\rtos\FreeRTOS\10.0.1\Source/event_groups.c **** 				{
 549:Generated_Source\PSoC6\pdl\rtos\FreeRTOS\10.0.1\Source/event_groups.c **** 					mtCOVERAGE_TEST_MARKER();
 550:Generated_Source\PSoC6\pdl\rtos\FreeRTOS\10.0.1\Source/event_groups.c **** 				}
 551:Generated_Source\PSoC6\pdl\rtos\FreeRTOS\10.0.1\Source/event_groups.c **** 			}
 552:Generated_Source\PSoC6\pdl\rtos\FreeRTOS\10.0.1\Source/event_groups.c **** 			else if( ( uxBitsWaitedFor & pxEventBits->uxEventBits ) == uxBitsWaitedFor )
 553:Generated_Source\PSoC6\pdl\rtos\FreeRTOS\10.0.1\Source/event_groups.c **** 			{
 554:Generated_Source\PSoC6\pdl\rtos\FreeRTOS\10.0.1\Source/event_groups.c **** 				/* All bits are set. */
 555:Generated_Source\PSoC6\pdl\rtos\FreeRTOS\10.0.1\Source/event_groups.c **** 				xMatchFound = pdTRUE;
 556:Generated_Source\PSoC6\pdl\rtos\FreeRTOS\10.0.1\Source/event_groups.c **** 			}
 557:Generated_Source\PSoC6\pdl\rtos\FreeRTOS\10.0.1\Source/event_groups.c **** 			else
 558:Generated_Source\PSoC6\pdl\rtos\FreeRTOS\10.0.1\Source/event_groups.c **** 			{
 559:Generated_Source\PSoC6\pdl\rtos\FreeRTOS\10.0.1\Source/event_groups.c **** 				/* Need all bits to be set, but not all the bits were set. */
 560:Generated_Source\PSoC6\pdl\rtos\FreeRTOS\10.0.1\Source/event_groups.c **** 			}
 561:Generated_Source\PSoC6\pdl\rtos\FreeRTOS\10.0.1\Source/event_groups.c **** 
 562:Generated_Source\PSoC6\pdl\rtos\FreeRTOS\10.0.1\Source/event_groups.c **** 			if( xMatchFound != pdFALSE )
 563:Generated_Source\PSoC6\pdl\rtos\FreeRTOS\10.0.1\Source/event_groups.c **** 			{
 564:Generated_Source\PSoC6\pdl\rtos\FreeRTOS\10.0.1\Source/event_groups.c **** 				/* The bits match.  Should the bits be cleared on exit? */
 565:Generated_Source\PSoC6\pdl\rtos\FreeRTOS\10.0.1\Source/event_groups.c **** 				if( ( uxControlBits & eventCLEAR_EVENTS_ON_EXIT_BIT ) != ( EventBits_t ) 0 )
 566:Generated_Source\PSoC6\pdl\rtos\FreeRTOS\10.0.1\Source/event_groups.c **** 				{
 567:Generated_Source\PSoC6\pdl\rtos\FreeRTOS\10.0.1\Source/event_groups.c **** 					uxBitsToClear |= uxBitsWaitedFor;
 568:Generated_Source\PSoC6\pdl\rtos\FreeRTOS\10.0.1\Source/event_groups.c **** 				}
 569:Generated_Source\PSoC6\pdl\rtos\FreeRTOS\10.0.1\Source/event_groups.c **** 				else
 570:Generated_Source\PSoC6\pdl\rtos\FreeRTOS\10.0.1\Source/event_groups.c **** 				{
 571:Generated_Source\PSoC6\pdl\rtos\FreeRTOS\10.0.1\Source/event_groups.c **** 					mtCOVERAGE_TEST_MARKER();
 572:Generated_Source\PSoC6\pdl\rtos\FreeRTOS\10.0.1\Source/event_groups.c **** 				}
 573:Generated_Source\PSoC6\pdl\rtos\FreeRTOS\10.0.1\Source/event_groups.c **** 
 574:Generated_Source\PSoC6\pdl\rtos\FreeRTOS\10.0.1\Source/event_groups.c **** 				/* Store the actual event flag value in the task's event list
 575:Generated_Source\PSoC6\pdl\rtos\FreeRTOS\10.0.1\Source/event_groups.c **** 				item before removing the task from the event list.  The
 576:Generated_Source\PSoC6\pdl\rtos\FreeRTOS\10.0.1\Source/event_groups.c **** 				eventUNBLOCKED_DUE_TO_BIT_SET bit is set so the task knows
 577:Generated_Source\PSoC6\pdl\rtos\FreeRTOS\10.0.1\Source/event_groups.c **** 				that is was unblocked due to its required bits matching, rather
 578:Generated_Source\PSoC6\pdl\rtos\FreeRTOS\10.0.1\Source/event_groups.c **** 				than because it timed out. */
 579:Generated_Source\PSoC6\pdl\rtos\FreeRTOS\10.0.1\Source/event_groups.c **** 				vTaskRemoveFromUnorderedEventList( pxListItem, pxEventBits->uxEventBits | eventUNBLOCKED_DUE_TO
 580:Generated_Source\PSoC6\pdl\rtos\FreeRTOS\10.0.1\Source/event_groups.c **** 			}
 581:Generated_Source\PSoC6\pdl\rtos\FreeRTOS\10.0.1\Source/event_groups.c **** 
 582:Generated_Source\PSoC6\pdl\rtos\FreeRTOS\10.0.1\Source/event_groups.c **** 			/* Move onto the next list item.  Note pxListItem->pxNext is not
 583:Generated_Source\PSoC6\pdl\rtos\FreeRTOS\10.0.1\Source/event_groups.c **** 			used here as the list item may have been removed from the event list
 584:Generated_Source\PSoC6\pdl\rtos\FreeRTOS\10.0.1\Source/event_groups.c **** 			and inserted into the ready/pending reading list. */
 585:Generated_Source\PSoC6\pdl\rtos\FreeRTOS\10.0.1\Source/event_groups.c **** 			pxListItem = pxNext;
 586:Generated_Source\PSoC6\pdl\rtos\FreeRTOS\10.0.1\Source/event_groups.c **** 		}
 587:Generated_Source\PSoC6\pdl\rtos\FreeRTOS\10.0.1\Source/event_groups.c **** 
 588:Generated_Source\PSoC6\pdl\rtos\FreeRTOS\10.0.1\Source/event_groups.c **** 		/* Clear any bits that matched when the eventCLEAR_EVENTS_ON_EXIT_BIT
 589:Generated_Source\PSoC6\pdl\rtos\FreeRTOS\10.0.1\Source/event_groups.c **** 		bit was set in the control word. */
 590:Generated_Source\PSoC6\pdl\rtos\FreeRTOS\10.0.1\Source/event_groups.c **** 		pxEventBits->uxEventBits &= ~uxBitsToClear;
 591:Generated_Source\PSoC6\pdl\rtos\FreeRTOS\10.0.1\Source/event_groups.c **** 	}
 592:Generated_Source\PSoC6\pdl\rtos\FreeRTOS\10.0.1\Source/event_groups.c **** 	( void ) xTaskResumeAll();
 593:Generated_Source\PSoC6\pdl\rtos\FreeRTOS\10.0.1\Source/event_groups.c **** 
 594:Generated_Source\PSoC6\pdl\rtos\FreeRTOS\10.0.1\Source/event_groups.c **** 	return pxEventBits->uxEventBits;
 595:Generated_Source\PSoC6\pdl\rtos\FreeRTOS\10.0.1\Source/event_groups.c **** }
 596:Generated_Source\PSoC6\pdl\rtos\FreeRTOS\10.0.1\Source/event_groups.c **** /*-----------------------------------------------------------*/
 597:Generated_Source\PSoC6\pdl\rtos\FreeRTOS\10.0.1\Source/event_groups.c **** 
 598:Generated_Source\PSoC6\pdl\rtos\FreeRTOS\10.0.1\Source/event_groups.c **** void vEventGroupDelete( EventGroupHandle_t xEventGroup )
 599:Generated_Source\PSoC6\pdl\rtos\FreeRTOS\10.0.1\Source/event_groups.c **** {
 600:Generated_Source\PSoC6\pdl\rtos\FreeRTOS\10.0.1\Source/event_groups.c **** EventGroup_t *pxEventBits = ( EventGroup_t * ) xEventGroup;
ARM GAS  C:\Users\kateb\AppData\Local\Temp\cclfFuoF.s 			page 12


 601:Generated_Source\PSoC6\pdl\rtos\FreeRTOS\10.0.1\Source/event_groups.c **** const List_t *pxTasksWaitingForBits = &( pxEventBits->xTasksWaitingForBits );
 602:Generated_Source\PSoC6\pdl\rtos\FreeRTOS\10.0.1\Source/event_groups.c **** 
 603:Generated_Source\PSoC6\pdl\rtos\FreeRTOS\10.0.1\Source/event_groups.c **** 	vTaskSuspendAll();
 604:Generated_Source\PSoC6\pdl\rtos\FreeRTOS\10.0.1\Source/event_groups.c **** 	{
 605:Generated_Source\PSoC6\pdl\rtos\FreeRTOS\10.0.1\Source/event_groups.c **** 		traceEVENT_GROUP_DELETE( xEventGroup );
 606:Generated_Source\PSoC6\pdl\rtos\FreeRTOS\10.0.1\Source/event_groups.c **** 
 607:Generated_Source\PSoC6\pdl\rtos\FreeRTOS\10.0.1\Source/event_groups.c **** 		while( listCURRENT_LIST_LENGTH( pxTasksWaitingForBits ) > ( UBaseType_t ) 0 )
 608:Generated_Source\PSoC6\pdl\rtos\FreeRTOS\10.0.1\Source/event_groups.c **** 		{
 609:Generated_Source\PSoC6\pdl\rtos\FreeRTOS\10.0.1\Source/event_groups.c **** 			/* Unblock the task, returning 0 as the event list is being deleted
 610:Generated_Source\PSoC6\pdl\rtos\FreeRTOS\10.0.1\Source/event_groups.c **** 			and cannot therefore have any bits set. */
 611:Generated_Source\PSoC6\pdl\rtos\FreeRTOS\10.0.1\Source/event_groups.c **** 			configASSERT( pxTasksWaitingForBits->xListEnd.pxNext != ( const ListItem_t * ) &( pxTasksWaiting
 612:Generated_Source\PSoC6\pdl\rtos\FreeRTOS\10.0.1\Source/event_groups.c **** 			vTaskRemoveFromUnorderedEventList( pxTasksWaitingForBits->xListEnd.pxNext, eventUNBLOCKED_DUE_TO
 613:Generated_Source\PSoC6\pdl\rtos\FreeRTOS\10.0.1\Source/event_groups.c **** 		}
 614:Generated_Source\PSoC6\pdl\rtos\FreeRTOS\10.0.1\Source/event_groups.c **** 
 615:Generated_Source\PSoC6\pdl\rtos\FreeRTOS\10.0.1\Source/event_groups.c **** 		#if( ( configSUPPORT_DYNAMIC_ALLOCATION == 1 ) && ( configSUPPORT_STATIC_ALLOCATION == 0 ) )
 616:Generated_Source\PSoC6\pdl\rtos\FreeRTOS\10.0.1\Source/event_groups.c **** 		{
 617:Generated_Source\PSoC6\pdl\rtos\FreeRTOS\10.0.1\Source/event_groups.c **** 			/* The event group can only have been allocated dynamically - free
 618:Generated_Source\PSoC6\pdl\rtos\FreeRTOS\10.0.1\Source/event_groups.c **** 			it again. */
 619:Generated_Source\PSoC6\pdl\rtos\FreeRTOS\10.0.1\Source/event_groups.c **** 			vPortFree( pxEventBits );
 620:Generated_Source\PSoC6\pdl\rtos\FreeRTOS\10.0.1\Source/event_groups.c **** 		}
 621:Generated_Source\PSoC6\pdl\rtos\FreeRTOS\10.0.1\Source/event_groups.c **** 		#elif( ( configSUPPORT_DYNAMIC_ALLOCATION == 1 ) && ( configSUPPORT_STATIC_ALLOCATION == 1 ) )
 622:Generated_Source\PSoC6\pdl\rtos\FreeRTOS\10.0.1\Source/event_groups.c **** 		{
 623:Generated_Source\PSoC6\pdl\rtos\FreeRTOS\10.0.1\Source/event_groups.c **** 			/* The event group could have been allocated statically or
 624:Generated_Source\PSoC6\pdl\rtos\FreeRTOS\10.0.1\Source/event_groups.c **** 			dynamically, so check before attempting to free the memory. */
 625:Generated_Source\PSoC6\pdl\rtos\FreeRTOS\10.0.1\Source/event_groups.c **** 			if( pxEventBits->ucStaticallyAllocated == ( uint8_t ) pdFALSE )
 626:Generated_Source\PSoC6\pdl\rtos\FreeRTOS\10.0.1\Source/event_groups.c **** 			{
 627:Generated_Source\PSoC6\pdl\rtos\FreeRTOS\10.0.1\Source/event_groups.c **** 				vPortFree( pxEventBits );
 628:Generated_Source\PSoC6\pdl\rtos\FreeRTOS\10.0.1\Source/event_groups.c **** 			}
 629:Generated_Source\PSoC6\pdl\rtos\FreeRTOS\10.0.1\Source/event_groups.c **** 			else
 630:Generated_Source\PSoC6\pdl\rtos\FreeRTOS\10.0.1\Source/event_groups.c **** 			{
 631:Generated_Source\PSoC6\pdl\rtos\FreeRTOS\10.0.1\Source/event_groups.c **** 				mtCOVERAGE_TEST_MARKER();
 632:Generated_Source\PSoC6\pdl\rtos\FreeRTOS\10.0.1\Source/event_groups.c **** 			}
 633:Generated_Source\PSoC6\pdl\rtos\FreeRTOS\10.0.1\Source/event_groups.c **** 		}
 634:Generated_Source\PSoC6\pdl\rtos\FreeRTOS\10.0.1\Source/event_groups.c **** 		#endif /* configSUPPORT_DYNAMIC_ALLOCATION */
 635:Generated_Source\PSoC6\pdl\rtos\FreeRTOS\10.0.1\Source/event_groups.c **** 	}
 636:Generated_Source\PSoC6\pdl\rtos\FreeRTOS\10.0.1\Source/event_groups.c **** 	( void ) xTaskResumeAll();
 637:Generated_Source\PSoC6\pdl\rtos\FreeRTOS\10.0.1\Source/event_groups.c **** }
 638:Generated_Source\PSoC6\pdl\rtos\FreeRTOS\10.0.1\Source/event_groups.c **** /*-----------------------------------------------------------*/
 639:Generated_Source\PSoC6\pdl\rtos\FreeRTOS\10.0.1\Source/event_groups.c **** 
 640:Generated_Source\PSoC6\pdl\rtos\FreeRTOS\10.0.1\Source/event_groups.c **** /* For internal use only - execute a 'set bits' command that was pended from
 641:Generated_Source\PSoC6\pdl\rtos\FreeRTOS\10.0.1\Source/event_groups.c **** an interrupt. */
 642:Generated_Source\PSoC6\pdl\rtos\FreeRTOS\10.0.1\Source/event_groups.c **** void vEventGroupSetBitsCallback( void *pvEventGroup, const uint32_t ulBitsToSet )
 643:Generated_Source\PSoC6\pdl\rtos\FreeRTOS\10.0.1\Source/event_groups.c **** {
 644:Generated_Source\PSoC6\pdl\rtos\FreeRTOS\10.0.1\Source/event_groups.c **** 	( void ) xEventGroupSetBits( pvEventGroup, ( EventBits_t ) ulBitsToSet );
 645:Generated_Source\PSoC6\pdl\rtos\FreeRTOS\10.0.1\Source/event_groups.c **** }
 646:Generated_Source\PSoC6\pdl\rtos\FreeRTOS\10.0.1\Source/event_groups.c **** /*-----------------------------------------------------------*/
 647:Generated_Source\PSoC6\pdl\rtos\FreeRTOS\10.0.1\Source/event_groups.c **** 
 648:Generated_Source\PSoC6\pdl\rtos\FreeRTOS\10.0.1\Source/event_groups.c **** /* For internal use only - execute a 'clear bits' command that was pended from
 649:Generated_Source\PSoC6\pdl\rtos\FreeRTOS\10.0.1\Source/event_groups.c **** an interrupt. */
 650:Generated_Source\PSoC6\pdl\rtos\FreeRTOS\10.0.1\Source/event_groups.c **** void vEventGroupClearBitsCallback( void *pvEventGroup, const uint32_t ulBitsToClear )
 651:Generated_Source\PSoC6\pdl\rtos\FreeRTOS\10.0.1\Source/event_groups.c **** {
 652:Generated_Source\PSoC6\pdl\rtos\FreeRTOS\10.0.1\Source/event_groups.c **** 	( void ) xEventGroupClearBits( pvEventGroup, ( EventBits_t ) ulBitsToClear );
 653:Generated_Source\PSoC6\pdl\rtos\FreeRTOS\10.0.1\Source/event_groups.c **** }
 654:Generated_Source\PSoC6\pdl\rtos\FreeRTOS\10.0.1\Source/event_groups.c **** /*-----------------------------------------------------------*/
 655:Generated_Source\PSoC6\pdl\rtos\FreeRTOS\10.0.1\Source/event_groups.c **** 
 656:Generated_Source\PSoC6\pdl\rtos\FreeRTOS\10.0.1\Source/event_groups.c **** static BaseType_t prvTestWaitCondition( const EventBits_t uxCurrentEventBits, const EventBits_t uxB
 657:Generated_Source\PSoC6\pdl\rtos\FreeRTOS\10.0.1\Source/event_groups.c **** {
ARM GAS  C:\Users\kateb\AppData\Local\Temp\cclfFuoF.s 			page 13


  28              		.loc 1 657 0
  29              		.cfi_startproc
  30              		@ args = 0, pretend = 0, frame = 0
  31              		@ frame_needed = 0, uses_anonymous_args = 0
  32              		@ link register save eliminated.
  33              	.LVL0:
 658:Generated_Source\PSoC6\pdl\rtos\FreeRTOS\10.0.1\Source/event_groups.c **** BaseType_t xWaitConditionMet = pdFALSE;
 659:Generated_Source\PSoC6\pdl\rtos\FreeRTOS\10.0.1\Source/event_groups.c **** 
 660:Generated_Source\PSoC6\pdl\rtos\FreeRTOS\10.0.1\Source/event_groups.c **** 	if( xWaitForAllBits == pdFALSE )
  34              		.loc 1 660 0
  35 0000 1AB9     		cbnz	r2, .L2
 661:Generated_Source\PSoC6\pdl\rtos\FreeRTOS\10.0.1\Source/event_groups.c **** 	{
 662:Generated_Source\PSoC6\pdl\rtos\FreeRTOS\10.0.1\Source/event_groups.c **** 		/* Task only has to wait for one bit within uxBitsToWaitFor to be
 663:Generated_Source\PSoC6\pdl\rtos\FreeRTOS\10.0.1\Source/event_groups.c **** 		set.  Is one already set? */
 664:Generated_Source\PSoC6\pdl\rtos\FreeRTOS\10.0.1\Source/event_groups.c **** 		if( ( uxCurrentEventBits & uxBitsToWaitFor ) != ( EventBits_t ) 0 )
  36              		.loc 1 664 0
  37 0002 0842     		tst	r0, r1
  38 0004 06D1     		bne	.L4
 658:Generated_Source\PSoC6\pdl\rtos\FreeRTOS\10.0.1\Source/event_groups.c **** BaseType_t xWaitConditionMet = pdFALSE;
  39              		.loc 1 658 0
  40 0006 0020     		movs	r0, #0
  41              	.LVL1:
  42 0008 7047     		bx	lr
  43              	.LVL2:
  44              	.L2:
 665:Generated_Source\PSoC6\pdl\rtos\FreeRTOS\10.0.1\Source/event_groups.c **** 		{
 666:Generated_Source\PSoC6\pdl\rtos\FreeRTOS\10.0.1\Source/event_groups.c **** 			xWaitConditionMet = pdTRUE;
 667:Generated_Source\PSoC6\pdl\rtos\FreeRTOS\10.0.1\Source/event_groups.c **** 		}
 668:Generated_Source\PSoC6\pdl\rtos\FreeRTOS\10.0.1\Source/event_groups.c **** 		else
 669:Generated_Source\PSoC6\pdl\rtos\FreeRTOS\10.0.1\Source/event_groups.c **** 		{
 670:Generated_Source\PSoC6\pdl\rtos\FreeRTOS\10.0.1\Source/event_groups.c **** 			mtCOVERAGE_TEST_MARKER();
 671:Generated_Source\PSoC6\pdl\rtos\FreeRTOS\10.0.1\Source/event_groups.c **** 		}
 672:Generated_Source\PSoC6\pdl\rtos\FreeRTOS\10.0.1\Source/event_groups.c **** 	}
 673:Generated_Source\PSoC6\pdl\rtos\FreeRTOS\10.0.1\Source/event_groups.c **** 	else
 674:Generated_Source\PSoC6\pdl\rtos\FreeRTOS\10.0.1\Source/event_groups.c **** 	{
 675:Generated_Source\PSoC6\pdl\rtos\FreeRTOS\10.0.1\Source/event_groups.c **** 		/* Task has to wait for all the bits in uxBitsToWaitFor to be set.
 676:Generated_Source\PSoC6\pdl\rtos\FreeRTOS\10.0.1\Source/event_groups.c **** 		Are they set already? */
 677:Generated_Source\PSoC6\pdl\rtos\FreeRTOS\10.0.1\Source/event_groups.c **** 		if( ( uxCurrentEventBits & uxBitsToWaitFor ) == uxBitsToWaitFor )
  45              		.loc 1 677 0
  46 000a 31EA0003 		bics	r3, r1, r0
  47 000e 03D0     		beq	.L5
 658:Generated_Source\PSoC6\pdl\rtos\FreeRTOS\10.0.1\Source/event_groups.c **** 
  48              		.loc 1 658 0
  49 0010 0020     		movs	r0, #0
  50              	.LVL3:
  51 0012 7047     		bx	lr
  52              	.LVL4:
  53              	.L4:
 666:Generated_Source\PSoC6\pdl\rtos\FreeRTOS\10.0.1\Source/event_groups.c **** 		}
  54              		.loc 1 666 0
  55 0014 0120     		movs	r0, #1
  56              	.LVL5:
  57 0016 7047     		bx	lr
  58              	.LVL6:
  59              	.L5:
 678:Generated_Source\PSoC6\pdl\rtos\FreeRTOS\10.0.1\Source/event_groups.c **** 		{
 679:Generated_Source\PSoC6\pdl\rtos\FreeRTOS\10.0.1\Source/event_groups.c **** 			xWaitConditionMet = pdTRUE;
ARM GAS  C:\Users\kateb\AppData\Local\Temp\cclfFuoF.s 			page 14


  60              		.loc 1 679 0
  61 0018 0120     		movs	r0, #1
  62              	.LVL7:
 680:Generated_Source\PSoC6\pdl\rtos\FreeRTOS\10.0.1\Source/event_groups.c **** 		}
 681:Generated_Source\PSoC6\pdl\rtos\FreeRTOS\10.0.1\Source/event_groups.c **** 		else
 682:Generated_Source\PSoC6\pdl\rtos\FreeRTOS\10.0.1\Source/event_groups.c **** 		{
 683:Generated_Source\PSoC6\pdl\rtos\FreeRTOS\10.0.1\Source/event_groups.c **** 			mtCOVERAGE_TEST_MARKER();
 684:Generated_Source\PSoC6\pdl\rtos\FreeRTOS\10.0.1\Source/event_groups.c **** 		}
 685:Generated_Source\PSoC6\pdl\rtos\FreeRTOS\10.0.1\Source/event_groups.c **** 	}
 686:Generated_Source\PSoC6\pdl\rtos\FreeRTOS\10.0.1\Source/event_groups.c **** 
 687:Generated_Source\PSoC6\pdl\rtos\FreeRTOS\10.0.1\Source/event_groups.c **** 	return xWaitConditionMet;
 688:Generated_Source\PSoC6\pdl\rtos\FreeRTOS\10.0.1\Source/event_groups.c **** }
  63              		.loc 1 688 0
  64 001a 7047     		bx	lr
  65              		.cfi_endproc
  66              	.LFE604:
  67              		.size	prvTestWaitCondition, .-prvTestWaitCondition
  68              		.section	.text.xEventGroupCreate,"ax",%progbits
  69              		.align	2
  70              		.global	xEventGroupCreate
  71              		.thumb
  72              		.thumb_func
  73              		.type	xEventGroupCreate, %function
  74              	xEventGroupCreate:
  75              	.LFB595:
 143:Generated_Source\PSoC6\pdl\rtos\FreeRTOS\10.0.1\Source/event_groups.c **** 	EventGroup_t *pxEventBits;
  76              		.loc 1 143 0
  77              		.cfi_startproc
  78              		@ args = 0, pretend = 0, frame = 0
  79              		@ frame_needed = 0, uses_anonymous_args = 0
  80 0000 10B5     		push	{r4, lr}
  81              		.cfi_def_cfa_offset 8
  82              		.cfi_offset 4, -8
  83              		.cfi_offset 14, -4
 147:Generated_Source\PSoC6\pdl\rtos\FreeRTOS\10.0.1\Source/event_groups.c **** 
  84              		.loc 1 147 0
  85 0002 1820     		movs	r0, #24
  86 0004 FFF7FEFF 		bl	pvPortMalloc
  87              	.LVL8:
 149:Generated_Source\PSoC6\pdl\rtos\FreeRTOS\10.0.1\Source/event_groups.c **** 		{
  88              		.loc 1 149 0
  89 0008 0446     		mov	r4, r0
  90 000a 20B1     		cbz	r0, .L7
 151:Generated_Source\PSoC6\pdl\rtos\FreeRTOS\10.0.1\Source/event_groups.c **** 			vListInitialise( &( pxEventBits->xTasksWaitingForBits ) );
  91              		.loc 1 151 0
  92 000c 0023     		movs	r3, #0
  93 000e 40F8043B 		str	r3, [r0], #4
  94              	.LVL9:
 152:Generated_Source\PSoC6\pdl\rtos\FreeRTOS\10.0.1\Source/event_groups.c **** 
  95              		.loc 1 152 0
  96 0012 FFF7FEFF 		bl	vListInitialise
  97              	.LVL10:
  98              	.L7:
 171:Generated_Source\PSoC6\pdl\rtos\FreeRTOS\10.0.1\Source/event_groups.c **** 
  99              		.loc 1 171 0
 100 0016 2046     		mov	r0, r4
 101 0018 10BD     		pop	{r4, pc}
ARM GAS  C:\Users\kateb\AppData\Local\Temp\cclfFuoF.s 			page 15


 102              		.cfi_endproc
 103              	.LFE595:
 104              		.size	xEventGroupCreate, .-xEventGroupCreate
 105 001a 00BF     		.section	.text.xEventGroupWaitBits,"ax",%progbits
 106              		.align	2
 107              		.global	xEventGroupWaitBits
 108              		.thumb
 109              		.thumb_func
 110              		.type	xEventGroupWaitBits, %function
 111              	xEventGroupWaitBits:
 112              	.LFB597:
 297:Generated_Source\PSoC6\pdl\rtos\FreeRTOS\10.0.1\Source/event_groups.c **** EventGroup_t *pxEventBits = ( EventGroup_t * ) xEventGroup;
 113              		.loc 1 297 0
 114              		.cfi_startproc
 115              		@ args = 4, pretend = 0, frame = 0
 116              		@ frame_needed = 0, uses_anonymous_args = 0
 117              	.LVL11:
 118 0000 2DE9F843 		push	{r3, r4, r5, r6, r7, r8, r9, lr}
 119              		.cfi_def_cfa_offset 32
 120              		.cfi_offset 3, -32
 121              		.cfi_offset 4, -28
 122              		.cfi_offset 5, -24
 123              		.cfi_offset 6, -20
 124              		.cfi_offset 7, -16
 125              		.cfi_offset 8, -12
 126              		.cfi_offset 9, -8
 127              		.cfi_offset 14, -4
 128 0004 089F     		ldr	r7, [sp, #32]
 129              	.LVL12:
 305:Generated_Source\PSoC6\pdl\rtos\FreeRTOS\10.0.1\Source/event_groups.c **** 	configASSERT( ( uxBitsToWaitFor & eventEVENT_BITS_CONTROL_BYTES ) == 0 );
 130              		.loc 1 305 0
 131 0006 40B9     		cbnz	r0, .L10
 132              	.LBB31:
 133              	.LBB32:
 134              		.file 2 "Generated_Source\\PSoC6\\pdl\\rtos/FreeRTOS/10.0.1/Source/portable/GCC/CM4F/portmacro.h"
   1:Generated_Source\PSoC6\pdl\rtos/FreeRTOS/10.0.1/Source/portable/GCC/CM4F/portmacro.h **** /*
   2:Generated_Source\PSoC6\pdl\rtos/FreeRTOS/10.0.1/Source/portable/GCC/CM4F/portmacro.h ****  * FreeRTOS Kernel V10.0.1
   3:Generated_Source\PSoC6\pdl\rtos/FreeRTOS/10.0.1/Source/portable/GCC/CM4F/portmacro.h ****  * Copyright (C) 2017 Amazon.com, Inc. or its affiliates.  All Rights Reserved.
   4:Generated_Source\PSoC6\pdl\rtos/FreeRTOS/10.0.1/Source/portable/GCC/CM4F/portmacro.h ****  *
   5:Generated_Source\PSoC6\pdl\rtos/FreeRTOS/10.0.1/Source/portable/GCC/CM4F/portmacro.h ****  * Permission is hereby granted, free of charge, to any person obtaining a copy of
   6:Generated_Source\PSoC6\pdl\rtos/FreeRTOS/10.0.1/Source/portable/GCC/CM4F/portmacro.h ****  * this software and associated documentation files (the "Software"), to deal in
   7:Generated_Source\PSoC6\pdl\rtos/FreeRTOS/10.0.1/Source/portable/GCC/CM4F/portmacro.h ****  * the Software without restriction, including without limitation the rights to
   8:Generated_Source\PSoC6\pdl\rtos/FreeRTOS/10.0.1/Source/portable/GCC/CM4F/portmacro.h ****  * use, copy, modify, merge, publish, distribute, sublicense, and/or sell copies of
   9:Generated_Source\PSoC6\pdl\rtos/FreeRTOS/10.0.1/Source/portable/GCC/CM4F/portmacro.h ****  * the Software, and to permit persons to whom the Software is furnished to do so,
  10:Generated_Source\PSoC6\pdl\rtos/FreeRTOS/10.0.1/Source/portable/GCC/CM4F/portmacro.h ****  * subject to the following conditions:
  11:Generated_Source\PSoC6\pdl\rtos/FreeRTOS/10.0.1/Source/portable/GCC/CM4F/portmacro.h ****  *
  12:Generated_Source\PSoC6\pdl\rtos/FreeRTOS/10.0.1/Source/portable/GCC/CM4F/portmacro.h ****  * The above copyright notice and this permission notice shall be included in all
  13:Generated_Source\PSoC6\pdl\rtos/FreeRTOS/10.0.1/Source/portable/GCC/CM4F/portmacro.h ****  * copies or substantial portions of the Software.
  14:Generated_Source\PSoC6\pdl\rtos/FreeRTOS/10.0.1/Source/portable/GCC/CM4F/portmacro.h ****  *
  15:Generated_Source\PSoC6\pdl\rtos/FreeRTOS/10.0.1/Source/portable/GCC/CM4F/portmacro.h ****  * THE SOFTWARE IS PROVIDED "AS IS", WITHOUT WARRANTY OF ANY KIND, EXPRESS OR
  16:Generated_Source\PSoC6\pdl\rtos/FreeRTOS/10.0.1/Source/portable/GCC/CM4F/portmacro.h ****  * IMPLIED, INCLUDING BUT NOT LIMITED TO THE WARRANTIES OF MERCHANTABILITY, FITNESS
  17:Generated_Source\PSoC6\pdl\rtos/FreeRTOS/10.0.1/Source/portable/GCC/CM4F/portmacro.h ****  * FOR A PARTICULAR PURPOSE AND NONINFRINGEMENT. IN NO EVENT SHALL THE AUTHORS OR
  18:Generated_Source\PSoC6\pdl\rtos/FreeRTOS/10.0.1/Source/portable/GCC/CM4F/portmacro.h ****  * COPYRIGHT HOLDERS BE LIABLE FOR ANY CLAIM, DAMAGES OR OTHER LIABILITY, WHETHER
  19:Generated_Source\PSoC6\pdl\rtos/FreeRTOS/10.0.1/Source/portable/GCC/CM4F/portmacro.h ****  * IN AN ACTION OF CONTRACT, TORT OR OTHERWISE, ARISING FROM, OUT OF OR IN
  20:Generated_Source\PSoC6\pdl\rtos/FreeRTOS/10.0.1/Source/portable/GCC/CM4F/portmacro.h ****  * CONNECTION WITH THE SOFTWARE OR THE USE OR OTHER DEALINGS IN THE SOFTWARE.
  21:Generated_Source\PSoC6\pdl\rtos/FreeRTOS/10.0.1/Source/portable/GCC/CM4F/portmacro.h ****  *
  22:Generated_Source\PSoC6\pdl\rtos/FreeRTOS/10.0.1/Source/portable/GCC/CM4F/portmacro.h ****  * http://www.FreeRTOS.org
ARM GAS  C:\Users\kateb\AppData\Local\Temp\cclfFuoF.s 			page 16


  23:Generated_Source\PSoC6\pdl\rtos/FreeRTOS/10.0.1/Source/portable/GCC/CM4F/portmacro.h ****  * http://aws.amazon.com/freertos
  24:Generated_Source\PSoC6\pdl\rtos/FreeRTOS/10.0.1/Source/portable/GCC/CM4F/portmacro.h ****  *
  25:Generated_Source\PSoC6\pdl\rtos/FreeRTOS/10.0.1/Source/portable/GCC/CM4F/portmacro.h ****  * 1 tab == 4 spaces!
  26:Generated_Source\PSoC6\pdl\rtos/FreeRTOS/10.0.1/Source/portable/GCC/CM4F/portmacro.h ****  */
  27:Generated_Source\PSoC6\pdl\rtos/FreeRTOS/10.0.1/Source/portable/GCC/CM4F/portmacro.h **** 
  28:Generated_Source\PSoC6\pdl\rtos/FreeRTOS/10.0.1/Source/portable/GCC/CM4F/portmacro.h **** 
  29:Generated_Source\PSoC6\pdl\rtos/FreeRTOS/10.0.1/Source/portable/GCC/CM4F/portmacro.h **** #ifndef PORTMACRO_H
  30:Generated_Source\PSoC6\pdl\rtos/FreeRTOS/10.0.1/Source/portable/GCC/CM4F/portmacro.h **** #define PORTMACRO_H
  31:Generated_Source\PSoC6\pdl\rtos/FreeRTOS/10.0.1/Source/portable/GCC/CM4F/portmacro.h **** 
  32:Generated_Source\PSoC6\pdl\rtos/FreeRTOS/10.0.1/Source/portable/GCC/CM4F/portmacro.h **** #ifdef __cplusplus
  33:Generated_Source\PSoC6\pdl\rtos/FreeRTOS/10.0.1/Source/portable/GCC/CM4F/portmacro.h **** extern "C" {
  34:Generated_Source\PSoC6\pdl\rtos/FreeRTOS/10.0.1/Source/portable/GCC/CM4F/portmacro.h **** #endif
  35:Generated_Source\PSoC6\pdl\rtos/FreeRTOS/10.0.1/Source/portable/GCC/CM4F/portmacro.h **** 
  36:Generated_Source\PSoC6\pdl\rtos/FreeRTOS/10.0.1/Source/portable/GCC/CM4F/portmacro.h **** /*-----------------------------------------------------------
  37:Generated_Source\PSoC6\pdl\rtos/FreeRTOS/10.0.1/Source/portable/GCC/CM4F/portmacro.h ****  * Port specific definitions.
  38:Generated_Source\PSoC6\pdl\rtos/FreeRTOS/10.0.1/Source/portable/GCC/CM4F/portmacro.h ****  *
  39:Generated_Source\PSoC6\pdl\rtos/FreeRTOS/10.0.1/Source/portable/GCC/CM4F/portmacro.h ****  * The settings in this file configure FreeRTOS correctly for the
  40:Generated_Source\PSoC6\pdl\rtos/FreeRTOS/10.0.1/Source/portable/GCC/CM4F/portmacro.h ****  * given hardware and compiler.
  41:Generated_Source\PSoC6\pdl\rtos/FreeRTOS/10.0.1/Source/portable/GCC/CM4F/portmacro.h ****  *
  42:Generated_Source\PSoC6\pdl\rtos/FreeRTOS/10.0.1/Source/portable/GCC/CM4F/portmacro.h ****  * These settings should not be altered.
  43:Generated_Source\PSoC6\pdl\rtos/FreeRTOS/10.0.1/Source/portable/GCC/CM4F/portmacro.h ****  *-----------------------------------------------------------
  44:Generated_Source\PSoC6\pdl\rtos/FreeRTOS/10.0.1/Source/portable/GCC/CM4F/portmacro.h ****  */
  45:Generated_Source\PSoC6\pdl\rtos/FreeRTOS/10.0.1/Source/portable/GCC/CM4F/portmacro.h **** 
  46:Generated_Source\PSoC6\pdl\rtos/FreeRTOS/10.0.1/Source/portable/GCC/CM4F/portmacro.h **** /* Type definitions. */
  47:Generated_Source\PSoC6\pdl\rtos/FreeRTOS/10.0.1/Source/portable/GCC/CM4F/portmacro.h **** #define portCHAR		char
  48:Generated_Source\PSoC6\pdl\rtos/FreeRTOS/10.0.1/Source/portable/GCC/CM4F/portmacro.h **** #define portFLOAT		float
  49:Generated_Source\PSoC6\pdl\rtos/FreeRTOS/10.0.1/Source/portable/GCC/CM4F/portmacro.h **** #define portDOUBLE		double
  50:Generated_Source\PSoC6\pdl\rtos/FreeRTOS/10.0.1/Source/portable/GCC/CM4F/portmacro.h **** #define portLONG		long
  51:Generated_Source\PSoC6\pdl\rtos/FreeRTOS/10.0.1/Source/portable/GCC/CM4F/portmacro.h **** #define portSHORT		short
  52:Generated_Source\PSoC6\pdl\rtos/FreeRTOS/10.0.1/Source/portable/GCC/CM4F/portmacro.h **** #define portSTACK_TYPE	uint32_t
  53:Generated_Source\PSoC6\pdl\rtos/FreeRTOS/10.0.1/Source/portable/GCC/CM4F/portmacro.h **** #define portBASE_TYPE	long
  54:Generated_Source\PSoC6\pdl\rtos/FreeRTOS/10.0.1/Source/portable/GCC/CM4F/portmacro.h **** 
  55:Generated_Source\PSoC6\pdl\rtos/FreeRTOS/10.0.1/Source/portable/GCC/CM4F/portmacro.h **** typedef portSTACK_TYPE StackType_t;
  56:Generated_Source\PSoC6\pdl\rtos/FreeRTOS/10.0.1/Source/portable/GCC/CM4F/portmacro.h **** typedef long BaseType_t;
  57:Generated_Source\PSoC6\pdl\rtos/FreeRTOS/10.0.1/Source/portable/GCC/CM4F/portmacro.h **** typedef unsigned long UBaseType_t;
  58:Generated_Source\PSoC6\pdl\rtos/FreeRTOS/10.0.1/Source/portable/GCC/CM4F/portmacro.h **** 
  59:Generated_Source\PSoC6\pdl\rtos/FreeRTOS/10.0.1/Source/portable/GCC/CM4F/portmacro.h **** #if( configUSE_16_BIT_TICKS == 1 )
  60:Generated_Source\PSoC6\pdl\rtos/FreeRTOS/10.0.1/Source/portable/GCC/CM4F/portmacro.h **** 	typedef uint16_t TickType_t;
  61:Generated_Source\PSoC6\pdl\rtos/FreeRTOS/10.0.1/Source/portable/GCC/CM4F/portmacro.h **** 	#define portMAX_DELAY ( TickType_t ) 0xffff
  62:Generated_Source\PSoC6\pdl\rtos/FreeRTOS/10.0.1/Source/portable/GCC/CM4F/portmacro.h **** #else
  63:Generated_Source\PSoC6\pdl\rtos/FreeRTOS/10.0.1/Source/portable/GCC/CM4F/portmacro.h **** 	typedef uint32_t TickType_t;
  64:Generated_Source\PSoC6\pdl\rtos/FreeRTOS/10.0.1/Source/portable/GCC/CM4F/portmacro.h **** 	#define portMAX_DELAY ( TickType_t ) 0xffffffffUL
  65:Generated_Source\PSoC6\pdl\rtos/FreeRTOS/10.0.1/Source/portable/GCC/CM4F/portmacro.h **** 
  66:Generated_Source\PSoC6\pdl\rtos/FreeRTOS/10.0.1/Source/portable/GCC/CM4F/portmacro.h **** 	/* 32-bit tick type on a 32-bit architecture, so reads of the tick count do
  67:Generated_Source\PSoC6\pdl\rtos/FreeRTOS/10.0.1/Source/portable/GCC/CM4F/portmacro.h **** 	not need to be guarded with a critical section. */
  68:Generated_Source\PSoC6\pdl\rtos/FreeRTOS/10.0.1/Source/portable/GCC/CM4F/portmacro.h **** 	#define portTICK_TYPE_IS_ATOMIC 1
  69:Generated_Source\PSoC6\pdl\rtos/FreeRTOS/10.0.1/Source/portable/GCC/CM4F/portmacro.h **** #endif
  70:Generated_Source\PSoC6\pdl\rtos/FreeRTOS/10.0.1/Source/portable/GCC/CM4F/portmacro.h **** /*-----------------------------------------------------------*/
  71:Generated_Source\PSoC6\pdl\rtos/FreeRTOS/10.0.1/Source/portable/GCC/CM4F/portmacro.h **** 
  72:Generated_Source\PSoC6\pdl\rtos/FreeRTOS/10.0.1/Source/portable/GCC/CM4F/portmacro.h **** /* Architecture specifics. */
  73:Generated_Source\PSoC6\pdl\rtos/FreeRTOS/10.0.1/Source/portable/GCC/CM4F/portmacro.h **** #define portSTACK_GROWTH			( -1 )
  74:Generated_Source\PSoC6\pdl\rtos/FreeRTOS/10.0.1/Source/portable/GCC/CM4F/portmacro.h **** #define portTICK_PERIOD_MS			( ( TickType_t ) 1000 / configTICK_RATE_HZ )
  75:Generated_Source\PSoC6\pdl\rtos/FreeRTOS/10.0.1/Source/portable/GCC/CM4F/portmacro.h **** #define portBYTE_ALIGNMENT			8
  76:Generated_Source\PSoC6\pdl\rtos/FreeRTOS/10.0.1/Source/portable/GCC/CM4F/portmacro.h **** /*-----------------------------------------------------------*/
  77:Generated_Source\PSoC6\pdl\rtos/FreeRTOS/10.0.1/Source/portable/GCC/CM4F/portmacro.h **** 
  78:Generated_Source\PSoC6\pdl\rtos/FreeRTOS/10.0.1/Source/portable/GCC/CM4F/portmacro.h **** /* Scheduler utilities. */
  79:Generated_Source\PSoC6\pdl\rtos/FreeRTOS/10.0.1/Source/portable/GCC/CM4F/portmacro.h **** #define portYIELD() 															\
ARM GAS  C:\Users\kateb\AppData\Local\Temp\cclfFuoF.s 			page 17


  80:Generated_Source\PSoC6\pdl\rtos/FreeRTOS/10.0.1/Source/portable/GCC/CM4F/portmacro.h **** {																				\
  81:Generated_Source\PSoC6\pdl\rtos/FreeRTOS/10.0.1/Source/portable/GCC/CM4F/portmacro.h **** 	/* Set a PendSV to request a context switch. */								\
  82:Generated_Source\PSoC6\pdl\rtos/FreeRTOS/10.0.1/Source/portable/GCC/CM4F/portmacro.h **** 	portNVIC_INT_CTRL_REG = portNVIC_PENDSVSET_BIT;								\
  83:Generated_Source\PSoC6\pdl\rtos/FreeRTOS/10.0.1/Source/portable/GCC/CM4F/portmacro.h **** 																				\
  84:Generated_Source\PSoC6\pdl\rtos/FreeRTOS/10.0.1/Source/portable/GCC/CM4F/portmacro.h **** 	/* Barriers are normally not required but do ensure the code is completely	\
  85:Generated_Source\PSoC6\pdl\rtos/FreeRTOS/10.0.1/Source/portable/GCC/CM4F/portmacro.h **** 	within the specified behaviour for the architecture. */						\
  86:Generated_Source\PSoC6\pdl\rtos/FreeRTOS/10.0.1/Source/portable/GCC/CM4F/portmacro.h **** 	__asm volatile( "dsb" ::: "memory" );										\
  87:Generated_Source\PSoC6\pdl\rtos/FreeRTOS/10.0.1/Source/portable/GCC/CM4F/portmacro.h **** 	__asm volatile( "isb" );													\
  88:Generated_Source\PSoC6\pdl\rtos/FreeRTOS/10.0.1/Source/portable/GCC/CM4F/portmacro.h **** }
  89:Generated_Source\PSoC6\pdl\rtos/FreeRTOS/10.0.1/Source/portable/GCC/CM4F/portmacro.h **** 
  90:Generated_Source\PSoC6\pdl\rtos/FreeRTOS/10.0.1/Source/portable/GCC/CM4F/portmacro.h **** #define portNVIC_INT_CTRL_REG		( * ( ( volatile uint32_t * ) 0xe000ed04 ) )
  91:Generated_Source\PSoC6\pdl\rtos/FreeRTOS/10.0.1/Source/portable/GCC/CM4F/portmacro.h **** #define portNVIC_PENDSVSET_BIT		( 1UL << 28UL )
  92:Generated_Source\PSoC6\pdl\rtos/FreeRTOS/10.0.1/Source/portable/GCC/CM4F/portmacro.h **** #define portEND_SWITCHING_ISR( xSwitchRequired ) if( xSwitchRequired != pdFALSE ) portYIELD()
  93:Generated_Source\PSoC6\pdl\rtos/FreeRTOS/10.0.1/Source/portable/GCC/CM4F/portmacro.h **** #define portYIELD_FROM_ISR( x ) portEND_SWITCHING_ISR( x )
  94:Generated_Source\PSoC6\pdl\rtos/FreeRTOS/10.0.1/Source/portable/GCC/CM4F/portmacro.h **** /*-----------------------------------------------------------*/
  95:Generated_Source\PSoC6\pdl\rtos/FreeRTOS/10.0.1/Source/portable/GCC/CM4F/portmacro.h **** 
  96:Generated_Source\PSoC6\pdl\rtos/FreeRTOS/10.0.1/Source/portable/GCC/CM4F/portmacro.h **** /* Critical section management. */
  97:Generated_Source\PSoC6\pdl\rtos/FreeRTOS/10.0.1/Source/portable/GCC/CM4F/portmacro.h **** extern void vPortEnterCritical( void );
  98:Generated_Source\PSoC6\pdl\rtos/FreeRTOS/10.0.1/Source/portable/GCC/CM4F/portmacro.h **** extern void vPortExitCritical( void );
  99:Generated_Source\PSoC6\pdl\rtos/FreeRTOS/10.0.1/Source/portable/GCC/CM4F/portmacro.h **** #define portSET_INTERRUPT_MASK_FROM_ISR()		ulPortRaiseBASEPRI()
 100:Generated_Source\PSoC6\pdl\rtos/FreeRTOS/10.0.1/Source/portable/GCC/CM4F/portmacro.h **** #define portCLEAR_INTERRUPT_MASK_FROM_ISR(x)	vPortSetBASEPRI(x)
 101:Generated_Source\PSoC6\pdl\rtos/FreeRTOS/10.0.1/Source/portable/GCC/CM4F/portmacro.h **** #define portDISABLE_INTERRUPTS()				vPortRaiseBASEPRI()
 102:Generated_Source\PSoC6\pdl\rtos/FreeRTOS/10.0.1/Source/portable/GCC/CM4F/portmacro.h **** #define portENABLE_INTERRUPTS()					vPortSetBASEPRI(0)
 103:Generated_Source\PSoC6\pdl\rtos/FreeRTOS/10.0.1/Source/portable/GCC/CM4F/portmacro.h **** #define portENTER_CRITICAL()					vPortEnterCritical()
 104:Generated_Source\PSoC6\pdl\rtos/FreeRTOS/10.0.1/Source/portable/GCC/CM4F/portmacro.h **** #define portEXIT_CRITICAL()						vPortExitCritical()
 105:Generated_Source\PSoC6\pdl\rtos/FreeRTOS/10.0.1/Source/portable/GCC/CM4F/portmacro.h **** 
 106:Generated_Source\PSoC6\pdl\rtos/FreeRTOS/10.0.1/Source/portable/GCC/CM4F/portmacro.h **** /*-----------------------------------------------------------*/
 107:Generated_Source\PSoC6\pdl\rtos/FreeRTOS/10.0.1/Source/portable/GCC/CM4F/portmacro.h **** 
 108:Generated_Source\PSoC6\pdl\rtos/FreeRTOS/10.0.1/Source/portable/GCC/CM4F/portmacro.h **** /* Task function macros as described on the FreeRTOS.org WEB site.  These are
 109:Generated_Source\PSoC6\pdl\rtos/FreeRTOS/10.0.1/Source/portable/GCC/CM4F/portmacro.h **** not necessary for to use this port.  They are defined so the common demo files
 110:Generated_Source\PSoC6\pdl\rtos/FreeRTOS/10.0.1/Source/portable/GCC/CM4F/portmacro.h **** (which build with all the ports) will build. */
 111:Generated_Source\PSoC6\pdl\rtos/FreeRTOS/10.0.1/Source/portable/GCC/CM4F/portmacro.h **** #define portTASK_FUNCTION_PROTO( vFunction, pvParameters ) void vFunction( void *pvParameters )
 112:Generated_Source\PSoC6\pdl\rtos/FreeRTOS/10.0.1/Source/portable/GCC/CM4F/portmacro.h **** #define portTASK_FUNCTION( vFunction, pvParameters ) void vFunction( void *pvParameters )
 113:Generated_Source\PSoC6\pdl\rtos/FreeRTOS/10.0.1/Source/portable/GCC/CM4F/portmacro.h **** 
 114:Generated_Source\PSoC6\pdl\rtos/FreeRTOS/10.0.1/Source/portable/GCC/CM4F/portmacro.h **** /*-----------------------------------------------------------*/
 115:Generated_Source\PSoC6\pdl\rtos/FreeRTOS/10.0.1/Source/portable/GCC/CM4F/portmacro.h **** 
 116:Generated_Source\PSoC6\pdl\rtos/FreeRTOS/10.0.1/Source/portable/GCC/CM4F/portmacro.h **** #ifdef configASSERT
 117:Generated_Source\PSoC6\pdl\rtos/FreeRTOS/10.0.1/Source/portable/GCC/CM4F/portmacro.h **** 	void vPortValidateInterruptPriority( void );
 118:Generated_Source\PSoC6\pdl\rtos/FreeRTOS/10.0.1/Source/portable/GCC/CM4F/portmacro.h **** 	#define portASSERT_IF_INTERRUPT_PRIORITY_INVALID() 	vPortValidateInterruptPriority()
 119:Generated_Source\PSoC6\pdl\rtos/FreeRTOS/10.0.1/Source/portable/GCC/CM4F/portmacro.h **** #endif
 120:Generated_Source\PSoC6\pdl\rtos/FreeRTOS/10.0.1/Source/portable/GCC/CM4F/portmacro.h **** 
 121:Generated_Source\PSoC6\pdl\rtos/FreeRTOS/10.0.1/Source/portable/GCC/CM4F/portmacro.h **** /* portNOP() is not required by this port. */
 122:Generated_Source\PSoC6\pdl\rtos/FreeRTOS/10.0.1/Source/portable/GCC/CM4F/portmacro.h **** #define portNOP()
 123:Generated_Source\PSoC6\pdl\rtos/FreeRTOS/10.0.1/Source/portable/GCC/CM4F/portmacro.h **** 
 124:Generated_Source\PSoC6\pdl\rtos/FreeRTOS/10.0.1/Source/portable/GCC/CM4F/portmacro.h **** #define portINLINE	__inline
 125:Generated_Source\PSoC6\pdl\rtos/FreeRTOS/10.0.1/Source/portable/GCC/CM4F/portmacro.h **** 
 126:Generated_Source\PSoC6\pdl\rtos/FreeRTOS/10.0.1/Source/portable/GCC/CM4F/portmacro.h **** #ifndef portFORCE_INLINE
 127:Generated_Source\PSoC6\pdl\rtos/FreeRTOS/10.0.1/Source/portable/GCC/CM4F/portmacro.h **** 	#define portFORCE_INLINE inline __attribute__(( always_inline))
 128:Generated_Source\PSoC6\pdl\rtos/FreeRTOS/10.0.1/Source/portable/GCC/CM4F/portmacro.h **** #endif
 129:Generated_Source\PSoC6\pdl\rtos/FreeRTOS/10.0.1/Source/portable/GCC/CM4F/portmacro.h **** 
 130:Generated_Source\PSoC6\pdl\rtos/FreeRTOS/10.0.1/Source/portable/GCC/CM4F/portmacro.h **** portFORCE_INLINE static BaseType_t xPortIsInsideInterrupt( void )
 131:Generated_Source\PSoC6\pdl\rtos/FreeRTOS/10.0.1/Source/portable/GCC/CM4F/portmacro.h **** {
 132:Generated_Source\PSoC6\pdl\rtos/FreeRTOS/10.0.1/Source/portable/GCC/CM4F/portmacro.h **** uint32_t ulCurrentInterrupt;
 133:Generated_Source\PSoC6\pdl\rtos/FreeRTOS/10.0.1/Source/portable/GCC/CM4F/portmacro.h **** BaseType_t xReturn;
 134:Generated_Source\PSoC6\pdl\rtos/FreeRTOS/10.0.1/Source/portable/GCC/CM4F/portmacro.h **** 
 135:Generated_Source\PSoC6\pdl\rtos/FreeRTOS/10.0.1/Source/portable/GCC/CM4F/portmacro.h **** 	/* Obtain the number of the currently executing interrupt. */
 136:Generated_Source\PSoC6\pdl\rtos/FreeRTOS/10.0.1/Source/portable/GCC/CM4F/portmacro.h **** 	__asm volatile( "mrs %0, ipsr" : "=r"( ulCurrentInterrupt ) :: "memory" );
ARM GAS  C:\Users\kateb\AppData\Local\Temp\cclfFuoF.s 			page 18


 137:Generated_Source\PSoC6\pdl\rtos/FreeRTOS/10.0.1/Source/portable/GCC/CM4F/portmacro.h **** 
 138:Generated_Source\PSoC6\pdl\rtos/FreeRTOS/10.0.1/Source/portable/GCC/CM4F/portmacro.h **** 	if( ulCurrentInterrupt == 0 )
 139:Generated_Source\PSoC6\pdl\rtos/FreeRTOS/10.0.1/Source/portable/GCC/CM4F/portmacro.h **** 	{
 140:Generated_Source\PSoC6\pdl\rtos/FreeRTOS/10.0.1/Source/portable/GCC/CM4F/portmacro.h **** 		xReturn = pdFALSE;
 141:Generated_Source\PSoC6\pdl\rtos/FreeRTOS/10.0.1/Source/portable/GCC/CM4F/portmacro.h **** 	}
 142:Generated_Source\PSoC6\pdl\rtos/FreeRTOS/10.0.1/Source/portable/GCC/CM4F/portmacro.h **** 	else
 143:Generated_Source\PSoC6\pdl\rtos/FreeRTOS/10.0.1/Source/portable/GCC/CM4F/portmacro.h **** 	{
 144:Generated_Source\PSoC6\pdl\rtos/FreeRTOS/10.0.1/Source/portable/GCC/CM4F/portmacro.h **** 		xReturn = pdTRUE;
 145:Generated_Source\PSoC6\pdl\rtos/FreeRTOS/10.0.1/Source/portable/GCC/CM4F/portmacro.h **** 	}
 146:Generated_Source\PSoC6\pdl\rtos/FreeRTOS/10.0.1/Source/portable/GCC/CM4F/portmacro.h **** 
 147:Generated_Source\PSoC6\pdl\rtos/FreeRTOS/10.0.1/Source/portable/GCC/CM4F/portmacro.h **** 	return xReturn;
 148:Generated_Source\PSoC6\pdl\rtos/FreeRTOS/10.0.1/Source/portable/GCC/CM4F/portmacro.h **** }
 149:Generated_Source\PSoC6\pdl\rtos/FreeRTOS/10.0.1/Source/portable/GCC/CM4F/portmacro.h **** 
 150:Generated_Source\PSoC6\pdl\rtos/FreeRTOS/10.0.1/Source/portable/GCC/CM4F/portmacro.h **** /*-----------------------------------------------------------*/
 151:Generated_Source\PSoC6\pdl\rtos/FreeRTOS/10.0.1/Source/portable/GCC/CM4F/portmacro.h **** 
 152:Generated_Source\PSoC6\pdl\rtos/FreeRTOS/10.0.1/Source/portable/GCC/CM4F/portmacro.h **** portFORCE_INLINE static void vPortRaiseBASEPRI( void )
 153:Generated_Source\PSoC6\pdl\rtos/FreeRTOS/10.0.1/Source/portable/GCC/CM4F/portmacro.h **** {
 154:Generated_Source\PSoC6\pdl\rtos/FreeRTOS/10.0.1/Source/portable/GCC/CM4F/portmacro.h **** uint32_t ulNewBASEPRI;
 155:Generated_Source\PSoC6\pdl\rtos/FreeRTOS/10.0.1/Source/portable/GCC/CM4F/portmacro.h **** 
 156:Generated_Source\PSoC6\pdl\rtos/FreeRTOS/10.0.1/Source/portable/GCC/CM4F/portmacro.h **** 	__asm volatile
 135              		.loc 2 156 0
 136              		.syntax unified
 137              	@ 156 "Generated_Source\PSoC6\pdl\rtos/FreeRTOS/10.0.1/Source/portable/GCC/CM4F/portmacro.h" 1
 138 0008 4FF02F03 			mov r3, #47												
 139 000c 83F31188 		msr basepri, r3											
 140 0010 BFF36F8F 		isb														
 141 0014 BFF34F8F 		dsb														
 142              	
 143              	@ 0 "" 2
 144              	.LVL13:
 145              		.thumb
 146              		.syntax unified
 147              	.L11:
 148 0018 FEE7     		b	.L11
 149              	.LVL14:
 150              	.L10:
 151 001a 0646     		mov	r6, r0
 152              	.LBE32:
 153              	.LBE31:
 306:Generated_Source\PSoC6\pdl\rtos\FreeRTOS\10.0.1\Source/event_groups.c **** 	configASSERT( uxBitsToWaitFor != 0 );
 154              		.loc 1 306 0
 155 001c 11F07F4F 		tst	r1, #-16777216
 156 0020 08D0     		beq	.L12
 157              	.LBB33:
 158              	.LBB34:
 159              		.loc 2 156 0
 160              		.syntax unified
 161              	@ 156 "Generated_Source\PSoC6\pdl\rtos/FreeRTOS/10.0.1/Source/portable/GCC/CM4F/portmacro.h" 1
 162 0022 4FF02F03 			mov r3, #47												
 163 0026 83F31188 		msr basepri, r3											
 164 002a BFF36F8F 		isb														
 165 002e BFF34F8F 		dsb														
 166              	
 167              	@ 0 "" 2
 168              	.LVL15:
 169              		.thumb
 170              		.syntax unified
ARM GAS  C:\Users\kateb\AppData\Local\Temp\cclfFuoF.s 			page 19


 171              	.L13:
 172 0032 FEE7     		b	.L13
 173              	.LVL16:
 174              	.L12:
 175              	.LBE34:
 176              	.LBE33:
 307:Generated_Source\PSoC6\pdl\rtos\FreeRTOS\10.0.1\Source/event_groups.c **** 	#if ( ( INCLUDE_xTaskGetSchedulerState == 1 ) || ( configUSE_TIMERS == 1 ) )
 177              		.loc 1 307 0
 178 0034 41B9     		cbnz	r1, .L14
 179              	.LBB35:
 180              	.LBB36:
 181              		.loc 2 156 0
 182              		.syntax unified
 183              	@ 156 "Generated_Source\PSoC6\pdl\rtos/FreeRTOS/10.0.1/Source/portable/GCC/CM4F/portmacro.h" 1
 184 0036 4FF02F03 			mov r3, #47												
 185 003a 83F31188 		msr basepri, r3											
 186 003e BFF36F8F 		isb														
 187 0042 BFF34F8F 		dsb														
 188              	
 189              	@ 0 "" 2
 190              	.LVL17:
 191              		.thumb
 192              		.syntax unified
 193              	.L15:
 194 0046 FEE7     		b	.L15
 195              	.LVL18:
 196              	.L14:
 197 0048 9946     		mov	r9, r3
 198 004a 9046     		mov	r8, r2
 199 004c 0D46     		mov	r5, r1
 200              	.LBE36:
 201              	.LBE35:
 310:Generated_Source\PSoC6\pdl\rtos\FreeRTOS\10.0.1\Source/event_groups.c **** 	}
 202              		.loc 1 310 0
 203 004e FFF7FEFF 		bl	xTaskGetSchedulerState
 204              	.LVL19:
 205 0052 10B9     		cbnz	r0, .L27
 310:Generated_Source\PSoC6\pdl\rtos\FreeRTOS\10.0.1\Source/event_groups.c **** 	}
 206              		.loc 1 310 0 is_stmt 0 discriminator 2
 207 0054 1FB9     		cbnz	r7, .L28
 310:Generated_Source\PSoC6\pdl\rtos\FreeRTOS\10.0.1\Source/event_groups.c **** 	}
 208              		.loc 1 310 0
 209 0056 0123     		movs	r3, #1
 210 0058 02E0     		b	.L16
 211              	.L27:
 212 005a 0123     		movs	r3, #1
 213 005c 00E0     		b	.L16
 214              	.L28:
 215 005e 0023     		movs	r3, #0
 216              	.L16:
 310:Generated_Source\PSoC6\pdl\rtos\FreeRTOS\10.0.1\Source/event_groups.c **** 	}
 217              		.loc 1 310 0 discriminator 6
 218 0060 43B9     		cbnz	r3, .L17
 219              	.LBB37:
 220              	.LBB38:
 221              		.loc 2 156 0 is_stmt 1
 222              		.syntax unified
ARM GAS  C:\Users\kateb\AppData\Local\Temp\cclfFuoF.s 			page 20


 223              	@ 156 "Generated_Source\PSoC6\pdl\rtos/FreeRTOS/10.0.1/Source/portable/GCC/CM4F/portmacro.h" 1
 224 0062 4FF02F03 			mov r3, #47												
 225 0066 83F31188 		msr basepri, r3											
 226 006a BFF36F8F 		isb														
 227 006e BFF34F8F 		dsb														
 228              	
 229              	@ 0 "" 2
 230              	.LVL20:
 231              		.thumb
 232              		.syntax unified
 233              	.L18:
 234 0072 FEE7     		b	.L18
 235              	.L17:
 236              	.LBE38:
 237              	.LBE37:
 314:Generated_Source\PSoC6\pdl\rtos\FreeRTOS\10.0.1\Source/event_groups.c **** 	{
 238              		.loc 1 314 0
 239 0074 FFF7FEFF 		bl	vTaskSuspendAll
 240              	.LVL21:
 241              	.LBB39:
 316:Generated_Source\PSoC6\pdl\rtos\FreeRTOS\10.0.1\Source/event_groups.c **** 
 242              		.loc 1 316 0
 243 0078 3468     		ldr	r4, [r6]
 244              	.LVL22:
 319:Generated_Source\PSoC6\pdl\rtos\FreeRTOS\10.0.1\Source/event_groups.c **** 
 245              		.loc 1 319 0
 246 007a 4A46     		mov	r2, r9
 247 007c 2946     		mov	r1, r5
 248 007e 2046     		mov	r0, r4
 249 0080 FFF7FEFF 		bl	prvTestWaitCondition
 250              	.LVL23:
 321:Generated_Source\PSoC6\pdl\rtos\FreeRTOS\10.0.1\Source/event_groups.c **** 		{
 251              		.loc 1 321 0
 252 0084 38B1     		cbz	r0, .L19
 253              	.LVL24:
 329:Generated_Source\PSoC6\pdl\rtos\FreeRTOS\10.0.1\Source/event_groups.c **** 			{
 254              		.loc 1 329 0
 255 0086 B8F1000F 		cmp	r8, #0
 256 008a 18D0     		beq	.L29
 331:Generated_Source\PSoC6\pdl\rtos\FreeRTOS\10.0.1\Source/event_groups.c **** 			}
 257              		.loc 1 331 0
 258 008c 24EA0503 		bic	r3, r4, r5
 259 0090 3360     		str	r3, [r6]
 326:Generated_Source\PSoC6\pdl\rtos\FreeRTOS\10.0.1\Source/event_groups.c **** 
 260              		.loc 1 326 0
 261 0092 0027     		movs	r7, #0
 262 0094 14E0     		b	.L20
 263              	.LVL25:
 264              	.L19:
 338:Generated_Source\PSoC6\pdl\rtos\FreeRTOS\10.0.1\Source/event_groups.c **** 		{
 265              		.loc 1 338 0
 266 0096 9FB1     		cbz	r7, .L20
 351:Generated_Source\PSoC6\pdl\rtos\FreeRTOS\10.0.1\Source/event_groups.c **** 			{
 267              		.loc 1 351 0
 268 0098 B8F1000F 		cmp	r8, #0
 269 009c 01D1     		bne	.L30
 270              	.LBE39:
ARM GAS  C:\Users\kateb\AppData\Local\Temp\cclfFuoF.s 			page 21


 299:Generated_Source\PSoC6\pdl\rtos\FreeRTOS\10.0.1\Source/event_groups.c **** BaseType_t xWaitConditionMet, xAlreadyYielded;
 271              		.loc 1 299 0
 272 009e 0021     		movs	r1, #0
 273 00a0 01E0     		b	.L21
 274              	.L30:
 275              	.LBB40:
 353:Generated_Source\PSoC6\pdl\rtos\FreeRTOS\10.0.1\Source/event_groups.c **** 			}
 276              		.loc 1 353 0
 277 00a2 4FF08071 		mov	r1, #16777216
 278              	.L21:
 279              	.LVL26:
 360:Generated_Source\PSoC6\pdl\rtos\FreeRTOS\10.0.1\Source/event_groups.c **** 			{
 280              		.loc 1 360 0
 281 00a6 B9F1000F 		cmp	r9, #0
 282 00aa 01D0     		beq	.L22
 362:Generated_Source\PSoC6\pdl\rtos\FreeRTOS\10.0.1\Source/event_groups.c **** 			}
 283              		.loc 1 362 0
 284 00ac 41F08061 		orr	r1, r1, #67108864
 285              	.LVL27:
 286              	.L22:
 372:Generated_Source\PSoC6\pdl\rtos\FreeRTOS\10.0.1\Source/event_groups.c **** 
 287              		.loc 1 372 0
 288 00b0 3A46     		mov	r2, r7
 289 00b2 2943     		orrs	r1, r1, r5
 290              	.LVL28:
 291 00b4 301D     		adds	r0, r6, #4
 292              	.LVL29:
 293 00b6 FFF7FEFF 		bl	vTaskPlaceOnUnorderedEventList
 294              	.LVL30:
 377:Generated_Source\PSoC6\pdl\rtos\FreeRTOS\10.0.1\Source/event_groups.c **** 
 295              		.loc 1 377 0
 296 00ba 0024     		movs	r4, #0
 297              	.LVL31:
 298 00bc 00E0     		b	.L20
 299              	.LVL32:
 300              	.L29:
 326:Generated_Source\PSoC6\pdl\rtos\FreeRTOS\10.0.1\Source/event_groups.c **** 
 301              		.loc 1 326 0
 302 00be 0027     		movs	r7, #0
 303              	.LVL33:
 304              	.L20:
 305              	.LBE40:
 382:Generated_Source\PSoC6\pdl\rtos\FreeRTOS\10.0.1\Source/event_groups.c **** 
 306              		.loc 1 382 0
 307 00c0 FFF7FEFF 		bl	xTaskResumeAll
 308              	.LVL34:
 384:Generated_Source\PSoC6\pdl\rtos\FreeRTOS\10.0.1\Source/event_groups.c **** 	{
 309              		.loc 1 384 0
 310 00c4 0FB3     		cbz	r7, .L23
 386:Generated_Source\PSoC6\pdl\rtos\FreeRTOS\10.0.1\Source/event_groups.c **** 		{
 311              		.loc 1 386 0
 312 00c6 38B9     		cbnz	r0, .L24
 388:Generated_Source\PSoC6\pdl\rtos\FreeRTOS\10.0.1\Source/event_groups.c **** 		}
 313              		.loc 1 388 0
 314 00c8 4FF08052 		mov	r2, #268435456
 315 00cc 104B     		ldr	r3, .L32
 316 00ce 1A60     		str	r2, [r3]
ARM GAS  C:\Users\kateb\AppData\Local\Temp\cclfFuoF.s 			page 22


 317              		.syntax unified
 318              	@ 388 "Generated_Source\PSoC6\pdl\rtos\FreeRTOS\10.0.1\Source\event_groups.c" 1
 319 00d0 BFF34F8F 		dsb
 320              	@ 0 "" 2
 321              	@ 388 "Generated_Source\PSoC6\pdl\rtos\FreeRTOS\10.0.1\Source\event_groups.c" 1
 322 00d4 BFF36F8F 		isb
 323              	@ 0 "" 2
 324              		.thumb
 325              		.syntax unified
 326              	.L24:
 399:Generated_Source\PSoC6\pdl\rtos\FreeRTOS\10.0.1\Source/event_groups.c **** 
 327              		.loc 1 399 0
 328 00d8 FFF7FEFF 		bl	uxTaskResetEventItemValue
 329              	.LVL35:
 330 00dc 0446     		mov	r4, r0
 331              	.LVL36:
 401:Generated_Source\PSoC6\pdl\rtos\FreeRTOS\10.0.1\Source/event_groups.c **** 		{
 332              		.loc 1 401 0
 333 00de 10F0007F 		tst	r0, #33554432
 334 00e2 10D1     		bne	.L25
 403:Generated_Source\PSoC6\pdl\rtos\FreeRTOS\10.0.1\Source/event_groups.c **** 			{
 335              		.loc 1 403 0
 336 00e4 FFF7FEFF 		bl	vPortEnterCritical
 337              	.LVL37:
 406:Generated_Source\PSoC6\pdl\rtos\FreeRTOS\10.0.1\Source/event_groups.c **** 
 338              		.loc 1 406 0
 339 00e8 3468     		ldr	r4, [r6]
 340              	.LVL38:
 410:Generated_Source\PSoC6\pdl\rtos\FreeRTOS\10.0.1\Source/event_groups.c **** 				{
 341              		.loc 1 410 0
 342 00ea 4A46     		mov	r2, r9
 343 00ec 2946     		mov	r1, r5
 344 00ee 2046     		mov	r0, r4
 345 00f0 FFF7FEFF 		bl	prvTestWaitCondition
 346              	.LVL39:
 347 00f4 28B1     		cbz	r0, .L26
 412:Generated_Source\PSoC6\pdl\rtos\FreeRTOS\10.0.1\Source/event_groups.c **** 					{
 348              		.loc 1 412 0
 349 00f6 B8F1000F 		cmp	r8, #0
 350 00fa 02D0     		beq	.L26
 414:Generated_Source\PSoC6\pdl\rtos\FreeRTOS\10.0.1\Source/event_groups.c **** 					}
 351              		.loc 1 414 0
 352 00fc 24EA0505 		bic	r5, r4, r5
 353              	.LVL40:
 354 0100 3560     		str	r5, [r6]
 355              	.L26:
 356              	.LVL41:
 427:Generated_Source\PSoC6\pdl\rtos\FreeRTOS\10.0.1\Source/event_groups.c **** 		}
 357              		.loc 1 427 0
 358 0102 FFF7FEFF 		bl	vPortExitCritical
 359              	.LVL42:
 360              	.L25:
 435:Generated_Source\PSoC6\pdl\rtos\FreeRTOS\10.0.1\Source/event_groups.c **** 	}
 361              		.loc 1 435 0
 362 0106 24F07F44 		bic	r4, r4, #-16777216
 363              	.LVL43:
 364              	.L23:
ARM GAS  C:\Users\kateb\AppData\Local\Temp\cclfFuoF.s 			page 23


 443:Generated_Source\PSoC6\pdl\rtos\FreeRTOS\10.0.1\Source/event_groups.c **** /*-----------------------------------------------------------*/
 365              		.loc 1 443 0
 366 010a 2046     		mov	r0, r4
 367 010c BDE8F883 		pop	{r3, r4, r5, r6, r7, r8, r9, pc}
 368              	.LVL44:
 369              	.L33:
 370              		.align	2
 371              	.L32:
 372 0110 04ED00E0 		.word	-536810236
 373              		.cfi_endproc
 374              	.LFE597:
 375              		.size	xEventGroupWaitBits, .-xEventGroupWaitBits
 376              		.section	.text.xEventGroupClearBits,"ax",%progbits
 377              		.align	2
 378              		.global	xEventGroupClearBits
 379              		.thumb
 380              		.thumb_func
 381              		.type	xEventGroupClearBits, %function
 382              	xEventGroupClearBits:
 383              	.LFB598:
 447:Generated_Source\PSoC6\pdl\rtos\FreeRTOS\10.0.1\Source/event_groups.c **** EventGroup_t *pxEventBits = ( EventGroup_t * ) xEventGroup;
 384              		.loc 1 447 0
 385              		.cfi_startproc
 386              		@ args = 0, pretend = 0, frame = 0
 387              		@ frame_needed = 0, uses_anonymous_args = 0
 388              	.LVL45:
 453:Generated_Source\PSoC6\pdl\rtos\FreeRTOS\10.0.1\Source/event_groups.c **** 	configASSERT( ( uxBitsToClear & eventEVENT_BITS_CONTROL_BYTES ) == 0 );
 389              		.loc 1 453 0
 390 0000 40B9     		cbnz	r0, .L35
 391              	.LBB41:
 392              	.LBB42:
 393              		.loc 2 156 0
 394              		.syntax unified
 395              	@ 156 "Generated_Source\PSoC6\pdl\rtos/FreeRTOS/10.0.1/Source/portable/GCC/CM4F/portmacro.h" 1
 396 0002 4FF02F03 			mov r3, #47												
 397 0006 83F31188 		msr basepri, r3											
 398 000a BFF36F8F 		isb														
 399 000e BFF34F8F 		dsb														
 400              	
 401              	@ 0 "" 2
 402              	.LVL46:
 403              		.thumb
 404              		.syntax unified
 405              	.L36:
 406 0012 FEE7     		b	.L36
 407              	.L35:
 408              	.LBE42:
 409              	.LBE41:
 447:Generated_Source\PSoC6\pdl\rtos\FreeRTOS\10.0.1\Source/event_groups.c **** EventGroup_t *pxEventBits = ( EventGroup_t * ) xEventGroup;
 410              		.loc 1 447 0
 411 0014 70B5     		push	{r4, r5, r6, lr}
 412              		.cfi_def_cfa_offset 16
 413              		.cfi_offset 4, -16
 414              		.cfi_offset 5, -12
 415              		.cfi_offset 6, -8
 416              		.cfi_offset 14, -4
 417 0016 0546     		mov	r5, r0
ARM GAS  C:\Users\kateb\AppData\Local\Temp\cclfFuoF.s 			page 24


 454:Generated_Source\PSoC6\pdl\rtos\FreeRTOS\10.0.1\Source/event_groups.c **** 
 418              		.loc 1 454 0
 419 0018 11F07F4F 		tst	r1, #-16777216
 420 001c 08D0     		beq	.L37
 421              	.LBB43:
 422              	.LBB44:
 423              		.loc 2 156 0
 424              		.syntax unified
 425              	@ 156 "Generated_Source\PSoC6\pdl\rtos/FreeRTOS/10.0.1/Source/portable/GCC/CM4F/portmacro.h" 1
 426 001e 4FF02F03 			mov r3, #47												
 427 0022 83F31188 		msr basepri, r3											
 428 0026 BFF36F8F 		isb														
 429 002a BFF34F8F 		dsb														
 430              	
 431              	@ 0 "" 2
 432              	.LVL47:
 433              		.thumb
 434              		.syntax unified
 435              	.L38:
 436 002e FEE7     		b	.L38
 437              	.L37:
 438 0030 0C46     		mov	r4, r1
 439              	.LBE44:
 440              	.LBE43:
 456:Generated_Source\PSoC6\pdl\rtos\FreeRTOS\10.0.1\Source/event_groups.c **** 	{
 441              		.loc 1 456 0
 442 0032 FFF7FEFF 		bl	vPortEnterCritical
 443              	.LVL48:
 462:Generated_Source\PSoC6\pdl\rtos\FreeRTOS\10.0.1\Source/event_groups.c **** 
 444              		.loc 1 462 0
 445 0036 2E68     		ldr	r6, [r5]
 446              	.LVL49:
 465:Generated_Source\PSoC6\pdl\rtos\FreeRTOS\10.0.1\Source/event_groups.c **** 	}
 447              		.loc 1 465 0
 448 0038 26EA0401 		bic	r1, r6, r4
 449 003c 2960     		str	r1, [r5]
 467:Generated_Source\PSoC6\pdl\rtos\FreeRTOS\10.0.1\Source/event_groups.c **** 
 450              		.loc 1 467 0
 451 003e FFF7FEFF 		bl	vPortExitCritical
 452              	.LVL50:
 470:Generated_Source\PSoC6\pdl\rtos\FreeRTOS\10.0.1\Source/event_groups.c **** /*-----------------------------------------------------------*/
 453              		.loc 1 470 0
 454 0042 3046     		mov	r0, r6
 455 0044 70BD     		pop	{r4, r5, r6, pc}
 456              		.cfi_endproc
 457              	.LFE598:
 458              		.size	xEventGroupClearBits, .-xEventGroupClearBits
 459 0046 00BF     		.section	.text.xEventGroupGetBitsFromISR,"ax",%progbits
 460              		.align	2
 461              		.global	xEventGroupGetBitsFromISR
 462              		.thumb
 463              		.thumb_func
 464              		.type	xEventGroupGetBitsFromISR, %function
 465              	xEventGroupGetBitsFromISR:
 466              	.LFB599:
 489:Generated_Source\PSoC6\pdl\rtos\FreeRTOS\10.0.1\Source/event_groups.c **** UBaseType_t uxSavedInterruptStatus;
 467              		.loc 1 489 0
ARM GAS  C:\Users\kateb\AppData\Local\Temp\cclfFuoF.s 			page 25


 468              		.cfi_startproc
 469              		@ args = 0, pretend = 0, frame = 0
 470              		@ frame_needed = 0, uses_anonymous_args = 0
 471              		@ link register save eliminated.
 472              	.LVL51:
 473              	.LBB45:
 474              	.LBB46:
 157:Generated_Source\PSoC6\pdl\rtos/FreeRTOS/10.0.1/Source/portable/GCC/CM4F/portmacro.h **** 	(
 158:Generated_Source\PSoC6\pdl\rtos/FreeRTOS/10.0.1/Source/portable/GCC/CM4F/portmacro.h **** 		"	mov %0, %1												\n"	\
 159:Generated_Source\PSoC6\pdl\rtos/FreeRTOS/10.0.1/Source/portable/GCC/CM4F/portmacro.h **** 		"	msr basepri, %0											\n" \
 160:Generated_Source\PSoC6\pdl\rtos/FreeRTOS/10.0.1/Source/portable/GCC/CM4F/portmacro.h **** 		"	isb														\n" \
 161:Generated_Source\PSoC6\pdl\rtos/FreeRTOS/10.0.1/Source/portable/GCC/CM4F/portmacro.h **** 		"	dsb														\n" \
 162:Generated_Source\PSoC6\pdl\rtos/FreeRTOS/10.0.1/Source/portable/GCC/CM4F/portmacro.h **** 		:"=r" (ulNewBASEPRI) : "i" ( configMAX_SYSCALL_INTERRUPT_PRIORITY ) : "memory"
 163:Generated_Source\PSoC6\pdl\rtos/FreeRTOS/10.0.1/Source/portable/GCC/CM4F/portmacro.h **** 	);
 164:Generated_Source\PSoC6\pdl\rtos/FreeRTOS/10.0.1/Source/portable/GCC/CM4F/portmacro.h **** }
 165:Generated_Source\PSoC6\pdl\rtos/FreeRTOS/10.0.1/Source/portable/GCC/CM4F/portmacro.h **** 
 166:Generated_Source\PSoC6\pdl\rtos/FreeRTOS/10.0.1/Source/portable/GCC/CM4F/portmacro.h **** /*-----------------------------------------------------------*/
 167:Generated_Source\PSoC6\pdl\rtos/FreeRTOS/10.0.1/Source/portable/GCC/CM4F/portmacro.h **** 
 168:Generated_Source\PSoC6\pdl\rtos/FreeRTOS/10.0.1/Source/portable/GCC/CM4F/portmacro.h **** portFORCE_INLINE static uint32_t ulPortRaiseBASEPRI( void )
 169:Generated_Source\PSoC6\pdl\rtos/FreeRTOS/10.0.1/Source/portable/GCC/CM4F/portmacro.h **** {
 170:Generated_Source\PSoC6\pdl\rtos/FreeRTOS/10.0.1/Source/portable/GCC/CM4F/portmacro.h **** uint32_t ulOriginalBASEPRI, ulNewBASEPRI;
 171:Generated_Source\PSoC6\pdl\rtos/FreeRTOS/10.0.1/Source/portable/GCC/CM4F/portmacro.h **** 
 172:Generated_Source\PSoC6\pdl\rtos/FreeRTOS/10.0.1/Source/portable/GCC/CM4F/portmacro.h **** 	__asm volatile
 475              		.loc 2 172 0
 476              		.syntax unified
 477              	@ 172 "Generated_Source\PSoC6\pdl\rtos/FreeRTOS/10.0.1/Source/portable/GCC/CM4F/portmacro.h" 1
 478 0000 EFF31183 			mrs r3, basepri											
 479 0004 4FF02F02 		mov r2, #47												
 480 0008 82F31188 		msr basepri, r2											
 481 000c BFF36F8F 		isb														
 482 0010 BFF34F8F 		dsb														
 483              	
 484              	@ 0 "" 2
 485              		.thumb
 486              		.syntax unified
 487              	.LBE46:
 488              	.LBE45:
 496:Generated_Source\PSoC6\pdl\rtos\FreeRTOS\10.0.1\Source/event_groups.c **** 	}
 489              		.loc 1 496 0
 490 0014 0068     		ldr	r0, [r0]
 491              	.LVL52:
 492              	.LBB47:
 493              	.LBB48:
 173:Generated_Source\PSoC6\pdl\rtos/FreeRTOS/10.0.1/Source/portable/GCC/CM4F/portmacro.h **** 	(
 174:Generated_Source\PSoC6\pdl\rtos/FreeRTOS/10.0.1/Source/portable/GCC/CM4F/portmacro.h **** 		"	mrs %0, basepri											\n" \
 175:Generated_Source\PSoC6\pdl\rtos/FreeRTOS/10.0.1/Source/portable/GCC/CM4F/portmacro.h **** 		"	mov %1, %2												\n"	\
 176:Generated_Source\PSoC6\pdl\rtos/FreeRTOS/10.0.1/Source/portable/GCC/CM4F/portmacro.h **** 		"	msr basepri, %1											\n" \
 177:Generated_Source\PSoC6\pdl\rtos/FreeRTOS/10.0.1/Source/portable/GCC/CM4F/portmacro.h **** 		"	isb														\n" \
 178:Generated_Source\PSoC6\pdl\rtos/FreeRTOS/10.0.1/Source/portable/GCC/CM4F/portmacro.h **** 		"	dsb														\n" \
 179:Generated_Source\PSoC6\pdl\rtos/FreeRTOS/10.0.1/Source/portable/GCC/CM4F/portmacro.h **** 		:"=r" (ulOriginalBASEPRI), "=r" (ulNewBASEPRI) : "i" ( configMAX_SYSCALL_INTERRUPT_PRIORITY ) : "
 180:Generated_Source\PSoC6\pdl\rtos/FreeRTOS/10.0.1/Source/portable/GCC/CM4F/portmacro.h **** 	);
 181:Generated_Source\PSoC6\pdl\rtos/FreeRTOS/10.0.1/Source/portable/GCC/CM4F/portmacro.h **** 
 182:Generated_Source\PSoC6\pdl\rtos/FreeRTOS/10.0.1/Source/portable/GCC/CM4F/portmacro.h **** 	/* This return will not be reached but is necessary to prevent compiler
 183:Generated_Source\PSoC6\pdl\rtos/FreeRTOS/10.0.1/Source/portable/GCC/CM4F/portmacro.h **** 	warnings. */
 184:Generated_Source\PSoC6\pdl\rtos/FreeRTOS/10.0.1/Source/portable/GCC/CM4F/portmacro.h **** 	return ulOriginalBASEPRI;
 185:Generated_Source\PSoC6\pdl\rtos/FreeRTOS/10.0.1/Source/portable/GCC/CM4F/portmacro.h **** }
 186:Generated_Source\PSoC6\pdl\rtos/FreeRTOS/10.0.1/Source/portable/GCC/CM4F/portmacro.h **** /*-----------------------------------------------------------*/
ARM GAS  C:\Users\kateb\AppData\Local\Temp\cclfFuoF.s 			page 26


 187:Generated_Source\PSoC6\pdl\rtos/FreeRTOS/10.0.1/Source/portable/GCC/CM4F/portmacro.h **** 
 188:Generated_Source\PSoC6\pdl\rtos/FreeRTOS/10.0.1/Source/portable/GCC/CM4F/portmacro.h **** portFORCE_INLINE static void vPortSetBASEPRI( uint32_t ulNewMaskValue )
 189:Generated_Source\PSoC6\pdl\rtos/FreeRTOS/10.0.1/Source/portable/GCC/CM4F/portmacro.h **** {
 190:Generated_Source\PSoC6\pdl\rtos/FreeRTOS/10.0.1/Source/portable/GCC/CM4F/portmacro.h **** 	__asm volatile
 494              		.loc 2 190 0
 495              		.syntax unified
 496              	@ 190 "Generated_Source\PSoC6\pdl\rtos/FreeRTOS/10.0.1/Source/portable/GCC/CM4F/portmacro.h" 1
 497 0016 83F31188 			msr basepri, r3	
 498              	@ 0 "" 2
 499              		.thumb
 500              		.syntax unified
 501              	.LBE48:
 502              	.LBE47:
 501:Generated_Source\PSoC6\pdl\rtos\FreeRTOS\10.0.1\Source/event_groups.c **** /*-----------------------------------------------------------*/
 503              		.loc 1 501 0
 504 001a 7047     		bx	lr
 505              		.cfi_endproc
 506              	.LFE599:
 507              		.size	xEventGroupGetBitsFromISR, .-xEventGroupGetBitsFromISR
 508              		.section	.text.xEventGroupSetBits,"ax",%progbits
 509              		.align	2
 510              		.global	xEventGroupSetBits
 511              		.thumb
 512              		.thumb_func
 513              		.type	xEventGroupSetBits, %function
 514              	xEventGroupSetBits:
 515              	.LFB600:
 505:Generated_Source\PSoC6\pdl\rtos\FreeRTOS\10.0.1\Source/event_groups.c **** ListItem_t *pxListItem, *pxNext;
 516              		.loc 1 505 0
 517              		.cfi_startproc
 518              		@ args = 0, pretend = 0, frame = 0
 519              		@ frame_needed = 0, uses_anonymous_args = 0
 520              	.LVL53:
 521 0000 F8B5     		push	{r3, r4, r5, r6, r7, lr}
 522              		.cfi_def_cfa_offset 24
 523              		.cfi_offset 3, -24
 524              		.cfi_offset 4, -20
 525              		.cfi_offset 5, -16
 526              		.cfi_offset 6, -12
 527              		.cfi_offset 7, -8
 528              		.cfi_offset 14, -4
 529              	.LVL54:
 515:Generated_Source\PSoC6\pdl\rtos\FreeRTOS\10.0.1\Source/event_groups.c **** 	configASSERT( ( uxBitsToSet & eventEVENT_BITS_CONTROL_BYTES ) == 0 );
 530              		.loc 1 515 0
 531 0002 40B9     		cbnz	r0, .L42
 532              	.LBB49:
 533              	.LBB50:
 156:Generated_Source\PSoC6\pdl\rtos/FreeRTOS/10.0.1/Source/portable/GCC/CM4F/portmacro.h **** 	(
 534              		.loc 2 156 0
 535              		.syntax unified
 536              	@ 156 "Generated_Source\PSoC6\pdl\rtos/FreeRTOS/10.0.1/Source/portable/GCC/CM4F/portmacro.h" 1
 537 0004 4FF02F03 			mov r3, #47												
 538 0008 83F31188 		msr basepri, r3											
 539 000c BFF36F8F 		isb														
 540 0010 BFF34F8F 		dsb														
 541              	
 542              	@ 0 "" 2
ARM GAS  C:\Users\kateb\AppData\Local\Temp\cclfFuoF.s 			page 27


 543              	.LVL55:
 544              		.thumb
 545              		.syntax unified
 546              	.L43:
 547 0014 FEE7     		b	.L43
 548              	.L42:
 549 0016 0446     		mov	r4, r0
 550              	.LBE50:
 551              	.LBE49:
 516:Generated_Source\PSoC6\pdl\rtos\FreeRTOS\10.0.1\Source/event_groups.c **** 
 552              		.loc 1 516 0
 553 0018 11F07F4F 		tst	r1, #-16777216
 554 001c 08D0     		beq	.L44
 555              	.LBB51:
 556              	.LBB52:
 156:Generated_Source\PSoC6\pdl\rtos/FreeRTOS/10.0.1/Source/portable/GCC/CM4F/portmacro.h **** 	(
 557              		.loc 2 156 0
 558              		.syntax unified
 559              	@ 156 "Generated_Source\PSoC6\pdl\rtos/FreeRTOS/10.0.1/Source/portable/GCC/CM4F/portmacro.h" 1
 560 001e 4FF02F03 			mov r3, #47												
 561 0022 83F31188 		msr basepri, r3											
 562 0026 BFF36F8F 		isb														
 563 002a BFF34F8F 		dsb														
 564              	
 565              	@ 0 "" 2
 566              	.LVL56:
 567              		.thumb
 568              		.syntax unified
 569              	.L45:
 570 002e FEE7     		b	.L45
 571              	.L44:
 572 0030 0D46     		mov	r5, r1
 573              	.LVL57:
 574              	.LBE52:
 575              	.LBE51:
 519:Generated_Source\PSoC6\pdl\rtos\FreeRTOS\10.0.1\Source/event_groups.c **** 	vTaskSuspendAll();
 576              		.loc 1 519 0
 577 0032 00F10C06 		add	r6, r0, #12
 578              	.LVL58:
 520:Generated_Source\PSoC6\pdl\rtos\FreeRTOS\10.0.1\Source/event_groups.c **** 	{
 579              		.loc 1 520 0
 580 0036 FFF7FEFF 		bl	vTaskSuspendAll
 581              	.LVL59:
 524:Generated_Source\PSoC6\pdl\rtos\FreeRTOS\10.0.1\Source/event_groups.c **** 
 582              		.loc 1 524 0
 583 003a 2069     		ldr	r0, [r4, #16]
 584              	.LVL60:
 527:Generated_Source\PSoC6\pdl\rtos\FreeRTOS\10.0.1\Source/event_groups.c **** 
 585              		.loc 1 527 0
 586 003c 2168     		ldr	r1, [r4]
 587 003e 2943     		orrs	r1, r1, r5
 588 0040 2160     		str	r1, [r4]
 509:Generated_Source\PSoC6\pdl\rtos\FreeRTOS\10.0.1\Source/event_groups.c **** EventGroup_t *pxEventBits = ( EventGroup_t * ) xEventGroup;
 589              		.loc 1 509 0
 590 0042 0025     		movs	r5, #0
 591              	.LVL61:
 530:Generated_Source\PSoC6\pdl\rtos\FreeRTOS\10.0.1\Source/event_groups.c **** 		{
ARM GAS  C:\Users\kateb\AppData\Local\Temp\cclfFuoF.s 			page 28


 592              		.loc 1 530 0
 593 0044 1FE0     		b	.L46
 594              	.LVL62:
 595              	.L51:
 532:Generated_Source\PSoC6\pdl\rtos\FreeRTOS\10.0.1\Source/event_groups.c **** 			uxBitsWaitedFor = listGET_LIST_ITEM_VALUE( pxListItem );
 596              		.loc 1 532 0
 597 0046 4768     		ldr	r7, [r0, #4]
 598              	.LVL63:
 533:Generated_Source\PSoC6\pdl\rtos\FreeRTOS\10.0.1\Source/event_groups.c **** 			xMatchFound = pdFALSE;
 599              		.loc 1 533 0
 600 0048 0168     		ldr	r1, [r0]
 601              	.LVL64:
 538:Generated_Source\PSoC6\pdl\rtos\FreeRTOS\10.0.1\Source/event_groups.c **** 
 602              		.loc 1 538 0
 603 004a 21F07F42 		bic	r2, r1, #-16777216
 604              	.LVL65:
 540:Generated_Source\PSoC6\pdl\rtos\FreeRTOS\10.0.1\Source/event_groups.c **** 			{
 605              		.loc 1 540 0
 606 004e 11F0806F 		tst	r1, #67108864
 607 0052 04D1     		bne	.L47
 543:Generated_Source\PSoC6\pdl\rtos\FreeRTOS\10.0.1\Source/event_groups.c **** 				{
 608              		.loc 1 543 0
 609 0054 2368     		ldr	r3, [r4]
 610 0056 1A42     		tst	r2, r3
 611 0058 07D1     		bne	.L52
 534:Generated_Source\PSoC6\pdl\rtos\FreeRTOS\10.0.1\Source/event_groups.c **** 
 612              		.loc 1 534 0
 613 005a 0023     		movs	r3, #0
 614 005c 08E0     		b	.L48
 615              	.L47:
 552:Generated_Source\PSoC6\pdl\rtos\FreeRTOS\10.0.1\Source/event_groups.c **** 			{
 616              		.loc 1 552 0
 617 005e 2368     		ldr	r3, [r4]
 618 0060 32EA0303 		bics	r3, r2, r3
 619 0064 03D0     		beq	.L53
 534:Generated_Source\PSoC6\pdl\rtos\FreeRTOS\10.0.1\Source/event_groups.c **** 
 620              		.loc 1 534 0
 621 0066 0023     		movs	r3, #0
 622 0068 02E0     		b	.L48
 623              	.L52:
 545:Generated_Source\PSoC6\pdl\rtos\FreeRTOS\10.0.1\Source/event_groups.c **** 				}
 624              		.loc 1 545 0
 625 006a 0123     		movs	r3, #1
 626 006c 00E0     		b	.L48
 627              	.L53:
 555:Generated_Source\PSoC6\pdl\rtos\FreeRTOS\10.0.1\Source/event_groups.c **** 			}
 628              		.loc 1 555 0
 629 006e 0123     		movs	r3, #1
 630              	.L48:
 631              	.LVL66:
 562:Generated_Source\PSoC6\pdl\rtos\FreeRTOS\10.0.1\Source/event_groups.c **** 			{
 632              		.loc 1 562 0
 633 0070 43B1     		cbz	r3, .L49
 565:Generated_Source\PSoC6\pdl\rtos\FreeRTOS\10.0.1\Source/event_groups.c **** 				{
 634              		.loc 1 565 0
 635 0072 11F0807F 		tst	r1, #16777216
 636 0076 00D0     		beq	.L50
ARM GAS  C:\Users\kateb\AppData\Local\Temp\cclfFuoF.s 			page 29


 567:Generated_Source\PSoC6\pdl\rtos\FreeRTOS\10.0.1\Source/event_groups.c **** 				}
 637              		.loc 1 567 0
 638 0078 1543     		orrs	r5, r5, r2
 639              	.LVL67:
 640              	.L50:
 579:Generated_Source\PSoC6\pdl\rtos\FreeRTOS\10.0.1\Source/event_groups.c **** 			}
 641              		.loc 1 579 0
 642 007a 2168     		ldr	r1, [r4]
 643              	.LVL68:
 644 007c 41F00071 		orr	r1, r1, #33554432
 645 0080 FFF7FEFF 		bl	vTaskRemoveFromUnorderedEventList
 646              	.LVL69:
 647              	.L49:
 534:Generated_Source\PSoC6\pdl\rtos\FreeRTOS\10.0.1\Source/event_groups.c **** 
 648              		.loc 1 534 0
 649 0084 3846     		mov	r0, r7
 650              	.LVL70:
 651              	.L46:
 530:Generated_Source\PSoC6\pdl\rtos\FreeRTOS\10.0.1\Source/event_groups.c **** 		{
 652              		.loc 1 530 0
 653 0086 B042     		cmp	r0, r6
 654 0088 DDD1     		bne	.L51
 590:Generated_Source\PSoC6\pdl\rtos\FreeRTOS\10.0.1\Source/event_groups.c **** 	}
 655              		.loc 1 590 0
 656 008a 2368     		ldr	r3, [r4]
 657 008c 23EA0503 		bic	r3, r3, r5
 658 0090 2360     		str	r3, [r4]
 592:Generated_Source\PSoC6\pdl\rtos\FreeRTOS\10.0.1\Source/event_groups.c **** 
 659              		.loc 1 592 0
 660 0092 FFF7FEFF 		bl	xTaskResumeAll
 661              	.LVL71:
 595:Generated_Source\PSoC6\pdl\rtos\FreeRTOS\10.0.1\Source/event_groups.c **** /*-----------------------------------------------------------*/
 662              		.loc 1 595 0
 663 0096 2068     		ldr	r0, [r4]
 664 0098 F8BD     		pop	{r3, r4, r5, r6, r7, pc}
 665              		.cfi_endproc
 666              	.LFE600:
 667              		.size	xEventGroupSetBits, .-xEventGroupSetBits
 668 009a 00BF     		.section	.text.xEventGroupSync,"ax",%progbits
 669              		.align	2
 670              		.global	xEventGroupSync
 671              		.thumb
 672              		.thumb_func
 673              		.type	xEventGroupSync, %function
 674              	xEventGroupSync:
 675              	.LFB596:
 177:Generated_Source\PSoC6\pdl\rtos\FreeRTOS\10.0.1\Source/event_groups.c **** EventBits_t uxOriginalBitValue, uxReturn;
 676              		.loc 1 177 0
 677              		.cfi_startproc
 678              		@ args = 0, pretend = 0, frame = 0
 679              		@ frame_needed = 0, uses_anonymous_args = 0
 680              	.LVL72:
 183:Generated_Source\PSoC6\pdl\rtos\FreeRTOS\10.0.1\Source/event_groups.c **** 	configASSERT( uxBitsToWaitFor != 0 );
 681              		.loc 1 183 0
 682 0000 12F07F4F 		tst	r2, #-16777216
 683 0004 08D0     		beq	.L56
 684              	.LBB53:
ARM GAS  C:\Users\kateb\AppData\Local\Temp\cclfFuoF.s 			page 30


 685              	.LBB54:
 156:Generated_Source\PSoC6\pdl\rtos/FreeRTOS/10.0.1/Source/portable/GCC/CM4F/portmacro.h **** 	(
 686              		.loc 2 156 0
 687              		.syntax unified
 688              	@ 156 "Generated_Source\PSoC6\pdl\rtos/FreeRTOS/10.0.1/Source/portable/GCC/CM4F/portmacro.h" 1
 689 0006 4FF02F03 			mov r3, #47												
 690 000a 83F31188 		msr basepri, r3											
 691 000e BFF36F8F 		isb														
 692 0012 BFF34F8F 		dsb														
 693              	
 694              	@ 0 "" 2
 695              	.LVL73:
 696              		.thumb
 697              		.syntax unified
 698              	.L57:
 699 0016 FEE7     		b	.L57
 700              	.LVL74:
 701              	.L56:
 702              	.LBE54:
 703              	.LBE53:
 177:Generated_Source\PSoC6\pdl\rtos\FreeRTOS\10.0.1\Source/event_groups.c **** EventBits_t uxOriginalBitValue, uxReturn;
 704              		.loc 1 177 0
 705 0018 2DE9F041 		push	{r4, r5, r6, r7, r8, lr}
 706              		.cfi_def_cfa_offset 24
 707              		.cfi_offset 4, -24
 708              		.cfi_offset 5, -20
 709              		.cfi_offset 6, -16
 710              		.cfi_offset 7, -12
 711              		.cfi_offset 8, -8
 712              		.cfi_offset 14, -4
 713 001c 0646     		mov	r6, r0
 714 001e 0C46     		mov	r4, r1
 715 0020 1546     		mov	r5, r2
 716 0022 1F46     		mov	r7, r3
 184:Generated_Source\PSoC6\pdl\rtos\FreeRTOS\10.0.1\Source/event_groups.c **** 	#if ( ( INCLUDE_xTaskGetSchedulerState == 1 ) || ( configUSE_TIMERS == 1 ) )
 717              		.loc 1 184 0
 718 0024 42B9     		cbnz	r2, .L58
 719              	.LBB55:
 720              	.LBB56:
 156:Generated_Source\PSoC6\pdl\rtos/FreeRTOS/10.0.1/Source/portable/GCC/CM4F/portmacro.h **** 	(
 721              		.loc 2 156 0
 722              		.syntax unified
 723              	@ 156 "Generated_Source\PSoC6\pdl\rtos/FreeRTOS/10.0.1/Source/portable/GCC/CM4F/portmacro.h" 1
 724 0026 4FF02F03 			mov r3, #47												
 725 002a 83F31188 		msr basepri, r3											
 726 002e BFF36F8F 		isb														
 727 0032 BFF34F8F 		dsb														
 728              	
 729              	@ 0 "" 2
 730              	.LVL75:
 731              		.thumb
 732              		.syntax unified
 733              	.L59:
 734 0036 FEE7     		b	.L59
 735              	.LVL76:
 736              	.L58:
 737              	.LBE56:
ARM GAS  C:\Users\kateb\AppData\Local\Temp\cclfFuoF.s 			page 31


 738              	.LBE55:
 187:Generated_Source\PSoC6\pdl\rtos\FreeRTOS\10.0.1\Source/event_groups.c **** 	}
 739              		.loc 1 187 0
 740 0038 FFF7FEFF 		bl	xTaskGetSchedulerState
 741              	.LVL77:
 742 003c 10B9     		cbnz	r0, .L70
 187:Generated_Source\PSoC6\pdl\rtos\FreeRTOS\10.0.1\Source/event_groups.c **** 	}
 743              		.loc 1 187 0 is_stmt 0 discriminator 2
 744 003e 1FB9     		cbnz	r7, .L71
 187:Generated_Source\PSoC6\pdl\rtos\FreeRTOS\10.0.1\Source/event_groups.c **** 	}
 745              		.loc 1 187 0
 746 0040 0123     		movs	r3, #1
 747 0042 02E0     		b	.L60
 748              	.L70:
 749 0044 0123     		movs	r3, #1
 750 0046 00E0     		b	.L60
 751              	.L71:
 752 0048 0023     		movs	r3, #0
 753              	.L60:
 187:Generated_Source\PSoC6\pdl\rtos\FreeRTOS\10.0.1\Source/event_groups.c **** 	}
 754              		.loc 1 187 0 discriminator 6
 755 004a 43B9     		cbnz	r3, .L61
 756              	.LBB57:
 757              	.LBB58:
 156:Generated_Source\PSoC6\pdl\rtos/FreeRTOS/10.0.1/Source/portable/GCC/CM4F/portmacro.h **** 	(
 758              		.loc 2 156 0 is_stmt 1
 759              		.syntax unified
 760              	@ 156 "Generated_Source\PSoC6\pdl\rtos/FreeRTOS/10.0.1/Source/portable/GCC/CM4F/portmacro.h" 1
 761 004c 4FF02F03 			mov r3, #47												
 762 0050 83F31188 		msr basepri, r3											
 763 0054 BFF36F8F 		isb														
 764 0058 BFF34F8F 		dsb														
 765              	
 766              	@ 0 "" 2
 767              	.LVL78:
 768              		.thumb
 769              		.syntax unified
 770              	.L62:
 771 005c FEE7     		b	.L62
 772              	.L61:
 773              	.LBE58:
 774              	.LBE57:
 191:Generated_Source\PSoC6\pdl\rtos\FreeRTOS\10.0.1\Source/event_groups.c **** 	{
 775              		.loc 1 191 0
 776 005e FFF7FEFF 		bl	vTaskSuspendAll
 777              	.LVL79:
 193:Generated_Source\PSoC6\pdl\rtos\FreeRTOS\10.0.1\Source/event_groups.c **** 
 778              		.loc 1 193 0
 779 0062 D6F80080 		ldr	r8, [r6]
 780              	.LVL80:
 195:Generated_Source\PSoC6\pdl\rtos\FreeRTOS\10.0.1\Source/event_groups.c **** 
 781              		.loc 1 195 0
 782 0066 2146     		mov	r1, r4
 783 0068 3046     		mov	r0, r6
 784 006a FFF7FEFF 		bl	xEventGroupSetBits
 785              	.LVL81:
 197:Generated_Source\PSoC6\pdl\rtos\FreeRTOS\10.0.1\Source/event_groups.c **** 		{
ARM GAS  C:\Users\kateb\AppData\Local\Temp\cclfFuoF.s 			page 32


 786              		.loc 1 197 0
 787 006e 48EA0404 		orr	r4, r8, r4
 788              	.LVL82:
 789 0072 35EA0403 		bics	r3, r5, r4
 790 0076 05D1     		bne	.L63
 791              	.LVL83:
 204:Generated_Source\PSoC6\pdl\rtos\FreeRTOS\10.0.1\Source/event_groups.c **** 
 792              		.loc 1 204 0
 793 0078 3368     		ldr	r3, [r6]
 794 007a 23EA0503 		bic	r3, r3, r5
 795 007e 3360     		str	r3, [r6]
 796              	.LVL84:
 206:Generated_Source\PSoC6\pdl\rtos\FreeRTOS\10.0.1\Source/event_groups.c **** 		}
 797              		.loc 1 206 0
 798 0080 0027     		movs	r7, #0
 799 0082 09E0     		b	.L64
 800              	.LVL85:
 801              	.L63:
 210:Generated_Source\PSoC6\pdl\rtos\FreeRTOS\10.0.1\Source/event_groups.c **** 			{
 802              		.loc 1 210 0
 803 0084 3FB1     		cbz	r7, .L65
 217:Generated_Source\PSoC6\pdl\rtos\FreeRTOS\10.0.1\Source/event_groups.c **** 
 804              		.loc 1 217 0
 805 0086 3A46     		mov	r2, r7
 806 0088 45F0A061 		orr	r1, r5, #83886080
 807 008c 301D     		adds	r0, r6, #4
 808 008e FFF7FEFF 		bl	vTaskPlaceOnUnorderedEventList
 809              	.LVL86:
 223:Generated_Source\PSoC6\pdl\rtos\FreeRTOS\10.0.1\Source/event_groups.c **** 			}
 810              		.loc 1 223 0
 811 0092 0024     		movs	r4, #0
 812 0094 00E0     		b	.L64
 813              	.LVL87:
 814              	.L65:
 229:Generated_Source\PSoC6\pdl\rtos\FreeRTOS\10.0.1\Source/event_groups.c **** 				xTimeoutOccurred = pdTRUE;
 815              		.loc 1 229 0
 816 0096 3468     		ldr	r4, [r6]
 817              	.LVL88:
 818              	.L64:
 234:Generated_Source\PSoC6\pdl\rtos\FreeRTOS\10.0.1\Source/event_groups.c **** 
 819              		.loc 1 234 0
 820 0098 FFF7FEFF 		bl	xTaskResumeAll
 821              	.LVL89:
 236:Generated_Source\PSoC6\pdl\rtos\FreeRTOS\10.0.1\Source/event_groups.c **** 	{
 822              		.loc 1 236 0
 823 009c DFB1     		cbz	r7, .L66
 238:Generated_Source\PSoC6\pdl\rtos\FreeRTOS\10.0.1\Source/event_groups.c **** 		{
 824              		.loc 1 238 0
 825 009e 38B9     		cbnz	r0, .L67
 240:Generated_Source\PSoC6\pdl\rtos\FreeRTOS\10.0.1\Source/event_groups.c **** 		}
 826              		.loc 1 240 0
 827 00a0 4FF08052 		mov	r2, #268435456
 828 00a4 0D4B     		ldr	r3, .L73
 829 00a6 1A60     		str	r2, [r3]
 830              		.syntax unified
 831              	@ 240 "Generated_Source\PSoC6\pdl\rtos\FreeRTOS\10.0.1\Source\event_groups.c" 1
 832 00a8 BFF34F8F 		dsb
ARM GAS  C:\Users\kateb\AppData\Local\Temp\cclfFuoF.s 			page 33


 833              	@ 0 "" 2
 834              	@ 240 "Generated_Source\PSoC6\pdl\rtos\FreeRTOS\10.0.1\Source\event_groups.c" 1
 835 00ac BFF36F8F 		isb
 836              	@ 0 "" 2
 837              		.thumb
 838              		.syntax unified
 839              	.L67:
 251:Generated_Source\PSoC6\pdl\rtos\FreeRTOS\10.0.1\Source/event_groups.c **** 
 840              		.loc 1 251 0
 841 00b0 FFF7FEFF 		bl	uxTaskResetEventItemValue
 842              	.LVL90:
 843 00b4 0446     		mov	r4, r0
 844              	.LVL91:
 253:Generated_Source\PSoC6\pdl\rtos\FreeRTOS\10.0.1\Source/event_groups.c **** 		{
 845              		.loc 1 253 0
 846 00b6 10F0007F 		tst	r0, #33554432
 847 00ba 0AD1     		bne	.L68
 256:Generated_Source\PSoC6\pdl\rtos\FreeRTOS\10.0.1\Source/event_groups.c **** 			{
 848              		.loc 1 256 0
 849 00bc FFF7FEFF 		bl	vPortEnterCritical
 850              	.LVL92:
 258:Generated_Source\PSoC6\pdl\rtos\FreeRTOS\10.0.1\Source/event_groups.c **** 
 851              		.loc 1 258 0
 852 00c0 3468     		ldr	r4, [r6]
 853              	.LVL93:
 264:Generated_Source\PSoC6\pdl\rtos\FreeRTOS\10.0.1\Source/event_groups.c **** 				{
 854              		.loc 1 264 0
 855 00c2 35EA0403 		bics	r3, r5, r4
 856 00c6 02D1     		bne	.L69
 266:Generated_Source\PSoC6\pdl\rtos\FreeRTOS\10.0.1\Source/event_groups.c **** 				}
 857              		.loc 1 266 0
 858 00c8 24EA0505 		bic	r5, r4, r5
 859              	.LVL94:
 860 00cc 3560     		str	r5, [r6]
 861              	.L69:
 273:Generated_Source\PSoC6\pdl\rtos\FreeRTOS\10.0.1\Source/event_groups.c **** 
 862              		.loc 1 273 0
 863 00ce FFF7FEFF 		bl	vPortExitCritical
 864              	.LVL95:
 865              	.L68:
 284:Generated_Source\PSoC6\pdl\rtos\FreeRTOS\10.0.1\Source/event_groups.c **** 	}
 866              		.loc 1 284 0
 867 00d2 24F07F44 		bic	r4, r4, #-16777216
 868              	.LVL96:
 869              	.L66:
 293:Generated_Source\PSoC6\pdl\rtos\FreeRTOS\10.0.1\Source/event_groups.c **** /*-----------------------------------------------------------*/
 870              		.loc 1 293 0
 871 00d6 2046     		mov	r0, r4
 872 00d8 BDE8F081 		pop	{r4, r5, r6, r7, r8, pc}
 873              	.LVL97:
 874              	.L74:
 875              		.align	2
 876              	.L73:
 877 00dc 04ED00E0 		.word	-536810236
 878              		.cfi_endproc
 879              	.LFE596:
 880              		.size	xEventGroupSync, .-xEventGroupSync
ARM GAS  C:\Users\kateb\AppData\Local\Temp\cclfFuoF.s 			page 34


 881              		.section	.text.vEventGroupDelete,"ax",%progbits
 882              		.align	2
 883              		.global	vEventGroupDelete
 884              		.thumb
 885              		.thumb_func
 886              		.type	vEventGroupDelete, %function
 887              	vEventGroupDelete:
 888              	.LFB601:
 599:Generated_Source\PSoC6\pdl\rtos\FreeRTOS\10.0.1\Source/event_groups.c **** EventGroup_t *pxEventBits = ( EventGroup_t * ) xEventGroup;
 889              		.loc 1 599 0
 890              		.cfi_startproc
 891              		@ args = 0, pretend = 0, frame = 0
 892              		@ frame_needed = 0, uses_anonymous_args = 0
 893              	.LVL98:
 894 0000 10B5     		push	{r4, lr}
 895              		.cfi_def_cfa_offset 8
 896              		.cfi_offset 4, -8
 897              		.cfi_offset 14, -4
 898 0002 0446     		mov	r4, r0
 899              	.LVL99:
 603:Generated_Source\PSoC6\pdl\rtos\FreeRTOS\10.0.1\Source/event_groups.c **** 	{
 900              		.loc 1 603 0
 901 0004 FFF7FEFF 		bl	vTaskSuspendAll
 902              	.LVL100:
 607:Generated_Source\PSoC6\pdl\rtos\FreeRTOS\10.0.1\Source/event_groups.c **** 		{
 903              		.loc 1 607 0
 904 0008 11E0     		b	.L76
 905              	.L79:
 611:Generated_Source\PSoC6\pdl\rtos\FreeRTOS\10.0.1\Source/event_groups.c **** 			vTaskRemoveFromUnorderedEventList( pxTasksWaitingForBits->xListEnd.pxNext, eventUNBLOCKED_DUE_TO
 906              		.loc 1 611 0
 907 000a 2069     		ldr	r0, [r4, #16]
 908 000c 04F10C03 		add	r3, r4, #12
 909 0010 9842     		cmp	r0, r3
 910 0012 08D1     		bne	.L77
 911              	.LBB59:
 912              	.LBB60:
 156:Generated_Source\PSoC6\pdl\rtos/FreeRTOS/10.0.1/Source/portable/GCC/CM4F/portmacro.h **** 	(
 913              		.loc 2 156 0
 914              		.syntax unified
 915              	@ 156 "Generated_Source\PSoC6\pdl\rtos/FreeRTOS/10.0.1/Source/portable/GCC/CM4F/portmacro.h" 1
 916 0014 4FF02F03 			mov r3, #47												
 917 0018 83F31188 		msr basepri, r3											
 918 001c BFF36F8F 		isb														
 919 0020 BFF34F8F 		dsb														
 920              	
 921              	@ 0 "" 2
 922              	.LVL101:
 923              		.thumb
 924              		.syntax unified
 925              	.L78:
 926 0024 FEE7     		b	.L78
 927              	.L77:
 928              	.LBE60:
 929              	.LBE59:
 612:Generated_Source\PSoC6\pdl\rtos\FreeRTOS\10.0.1\Source/event_groups.c **** 		}
 930              		.loc 1 612 0
 931 0026 4FF00071 		mov	r1, #33554432
ARM GAS  C:\Users\kateb\AppData\Local\Temp\cclfFuoF.s 			page 35


 932 002a FFF7FEFF 		bl	vTaskRemoveFromUnorderedEventList
 933              	.LVL102:
 934              	.L76:
 607:Generated_Source\PSoC6\pdl\rtos\FreeRTOS\10.0.1\Source/event_groups.c **** 		{
 935              		.loc 1 607 0
 936 002e 6368     		ldr	r3, [r4, #4]
 937 0030 002B     		cmp	r3, #0
 938 0032 EAD1     		bne	.L79
 619:Generated_Source\PSoC6\pdl\rtos\FreeRTOS\10.0.1\Source/event_groups.c **** 		}
 939              		.loc 1 619 0
 940 0034 2046     		mov	r0, r4
 941 0036 FFF7FEFF 		bl	vPortFree
 942              	.LVL103:
 636:Generated_Source\PSoC6\pdl\rtos\FreeRTOS\10.0.1\Source/event_groups.c **** }
 943              		.loc 1 636 0
 944 003a FFF7FEFF 		bl	xTaskResumeAll
 945              	.LVL104:
 946 003e 10BD     		pop	{r4, pc}
 947              		.cfi_endproc
 948              	.LFE601:
 949              		.size	vEventGroupDelete, .-vEventGroupDelete
 950              		.section	.text.vEventGroupSetBitsCallback,"ax",%progbits
 951              		.align	2
 952              		.global	vEventGroupSetBitsCallback
 953              		.thumb
 954              		.thumb_func
 955              		.type	vEventGroupSetBitsCallback, %function
 956              	vEventGroupSetBitsCallback:
 957              	.LFB602:
 643:Generated_Source\PSoC6\pdl\rtos\FreeRTOS\10.0.1\Source/event_groups.c **** 	( void ) xEventGroupSetBits( pvEventGroup, ( EventBits_t ) ulBitsToSet );
 958              		.loc 1 643 0
 959              		.cfi_startproc
 960              		@ args = 0, pretend = 0, frame = 0
 961              		@ frame_needed = 0, uses_anonymous_args = 0
 962              	.LVL105:
 963 0000 08B5     		push	{r3, lr}
 964              		.cfi_def_cfa_offset 8
 965              		.cfi_offset 3, -8
 966              		.cfi_offset 14, -4
 644:Generated_Source\PSoC6\pdl\rtos\FreeRTOS\10.0.1\Source/event_groups.c **** }
 967              		.loc 1 644 0
 968 0002 FFF7FEFF 		bl	xEventGroupSetBits
 969              	.LVL106:
 970 0006 08BD     		pop	{r3, pc}
 971              		.cfi_endproc
 972              	.LFE602:
 973              		.size	vEventGroupSetBitsCallback, .-vEventGroupSetBitsCallback
 974              		.section	.text.vEventGroupClearBitsCallback,"ax",%progbits
 975              		.align	2
 976              		.global	vEventGroupClearBitsCallback
 977              		.thumb
 978              		.thumb_func
 979              		.type	vEventGroupClearBitsCallback, %function
 980              	vEventGroupClearBitsCallback:
 981              	.LFB603:
 651:Generated_Source\PSoC6\pdl\rtos\FreeRTOS\10.0.1\Source/event_groups.c **** 	( void ) xEventGroupClearBits( pvEventGroup, ( EventBits_t ) ulBitsToClear );
 982              		.loc 1 651 0
ARM GAS  C:\Users\kateb\AppData\Local\Temp\cclfFuoF.s 			page 36


 983              		.cfi_startproc
 984              		@ args = 0, pretend = 0, frame = 0
 985              		@ frame_needed = 0, uses_anonymous_args = 0
 986              	.LVL107:
 987 0000 08B5     		push	{r3, lr}
 988              		.cfi_def_cfa_offset 8
 989              		.cfi_offset 3, -8
 990              		.cfi_offset 14, -4
 652:Generated_Source\PSoC6\pdl\rtos\FreeRTOS\10.0.1\Source/event_groups.c **** }
 991              		.loc 1 652 0
 992 0002 FFF7FEFF 		bl	xEventGroupClearBits
 993              	.LVL108:
 994 0006 08BD     		pop	{r3, pc}
 995              		.cfi_endproc
 996              	.LFE603:
 997              		.size	vEventGroupClearBitsCallback, .-vEventGroupClearBitsCallback
 998              		.text
 999              	.Letext0:
 1000              		.file 3 "c:\\program files (x86)\\cypress\\psoc creator\\4.2\\psoc creator\\import\\gnu\\arm\\5.4.
 1001              		.file 4 "c:\\program files (x86)\\cypress\\psoc creator\\4.2\\psoc creator\\import\\gnu\\arm\\5.4.
 1002              		.file 5 "Generated_Source\\PSoC6\\pdl\\drivers/peripheral/rtc/cy_rtc.h"
 1003              		.file 6 "Generated_Source\\PSoC6\\pdl\\drivers/peripheral/scb/cy_scb_spi.h"
 1004              		.file 7 "Generated_Source\\PSoC6\\pdl\\drivers/peripheral/scb/cy_scb_uart.h"
 1005              		.file 8 "Generated_Source\\PSoC6\\pdl\\drivers/peripheral/sar/cy_sar.h"
 1006              		.file 9 "Generated_Source\\PSoC6\\pdl\\middleware/ble/cy_ble_stack_host_main.h"
 1007              		.file 10 "Generated_Source\\PSoC6\\pdl\\middleware/ble/cy_ble_gap.h"
 1008              		.file 11 "Generated_Source\\PSoC6/ADC.h"
 1009              		.file 12 "Generated_Source\\PSoC6\\pdl\\rtos/FreeRTOS/10.0.1/Source/include/list.h"
 1010              		.file 13 "Generated_Source\\PSoC6\\pdl\\rtos/FreeRTOS/10.0.1/Source/include/event_groups.h"
 1011              		.file 14 "Generated_Source\\PSoC6\\pdl\\cmsis/include/core_cm4.h"
 1012              		.file 15 "Generated_Source\\PSoC6/DEBUG_UART.h"
 1013              		.file 16 "Generated_Source\\PSoC6/RTC.h"
 1014              		.file 17 "Generated_Source\\PSoC6/CY_EINK_SPIM.h"
 1015              		.file 18 "Generated_Source\\PSoC6\\pdl\\rtos/FreeRTOS/10.0.1/Source/include/portable.h"
 1016              		.file 19 "Generated_Source\\PSoC6\\pdl\\rtos/FreeRTOS/10.0.1/Source/include/task.h"