ARM GAS  C:\Users\kateb\AppData\Local\Temp\cc9mC3XY.s 			page 1


   1              		.syntax unified
   2              		.cpu cortex-m4
   3              		.eabi_attribute 27, 1
   4              		.fpu fpv4-sp-d16
   5              		.eabi_attribute 20, 1
   6              		.eabi_attribute 21, 1
   7              		.eabi_attribute 23, 3
   8              		.eabi_attribute 24, 1
   9              		.eabi_attribute 25, 1
  10              		.eabi_attribute 26, 1
  11              		.eabi_attribute 30, 1
  12              		.eabi_attribute 34, 1
  13              		.eabi_attribute 18, 4
  14              		.thumb
  15              		.syntax unified
  16              		.file	"stream_buffer.c"
  17              		.text
  18              	.Ltext0:
  19              		.cfi_sections	.debug_frame
  20              		.section	.text.prvBytesInBuffer,"ax",%progbits
  21              		.align	2
  22              		.thumb
  23              		.thumb_func
  24              		.type	prvBytesInBuffer, %function
  25              	prvBytesInBuffer:
  26              	.LFB613:
  27              		.file 1 "Generated_Source\\PSoC6\\pdl\\rtos\\FreeRTOS\\10.0.1\\Source\\stream_buffer.c"
   1:Generated_Source\PSoC6\pdl\rtos\FreeRTOS\10.0.1\Source/stream_buffer.c **** /*
   2:Generated_Source\PSoC6\pdl\rtos\FreeRTOS\10.0.1\Source/stream_buffer.c ****  * FreeRTOS Kernel V10.0.1
   3:Generated_Source\PSoC6\pdl\rtos\FreeRTOS\10.0.1\Source/stream_buffer.c ****  * Copyright (C) 2017 Amazon.com, Inc. or its affiliates.  All Rights Reserved.
   4:Generated_Source\PSoC6\pdl\rtos\FreeRTOS\10.0.1\Source/stream_buffer.c ****  *
   5:Generated_Source\PSoC6\pdl\rtos\FreeRTOS\10.0.1\Source/stream_buffer.c ****  * Permission is hereby granted, free of charge, to any person obtaining a copy of
   6:Generated_Source\PSoC6\pdl\rtos\FreeRTOS\10.0.1\Source/stream_buffer.c ****  * this software and associated documentation files (the "Software"), to deal in
   7:Generated_Source\PSoC6\pdl\rtos\FreeRTOS\10.0.1\Source/stream_buffer.c ****  * the Software without restriction, including without limitation the rights to
   8:Generated_Source\PSoC6\pdl\rtos\FreeRTOS\10.0.1\Source/stream_buffer.c ****  * use, copy, modify, merge, publish, distribute, sublicense, and/or sell copies of
   9:Generated_Source\PSoC6\pdl\rtos\FreeRTOS\10.0.1\Source/stream_buffer.c ****  * the Software, and to permit persons to whom the Software is furnished to do so,
  10:Generated_Source\PSoC6\pdl\rtos\FreeRTOS\10.0.1\Source/stream_buffer.c ****  * subject to the following conditions:
  11:Generated_Source\PSoC6\pdl\rtos\FreeRTOS\10.0.1\Source/stream_buffer.c ****  *
  12:Generated_Source\PSoC6\pdl\rtos\FreeRTOS\10.0.1\Source/stream_buffer.c ****  * The above copyright notice and this permission notice shall be included in all
  13:Generated_Source\PSoC6\pdl\rtos\FreeRTOS\10.0.1\Source/stream_buffer.c ****  * copies or substantial portions of the Software.
  14:Generated_Source\PSoC6\pdl\rtos\FreeRTOS\10.0.1\Source/stream_buffer.c ****  *
  15:Generated_Source\PSoC6\pdl\rtos\FreeRTOS\10.0.1\Source/stream_buffer.c ****  * THE SOFTWARE IS PROVIDED "AS IS", WITHOUT WARRANTY OF ANY KIND, EXPRESS OR
  16:Generated_Source\PSoC6\pdl\rtos\FreeRTOS\10.0.1\Source/stream_buffer.c ****  * IMPLIED, INCLUDING BUT NOT LIMITED TO THE WARRANTIES OF MERCHANTABILITY, FITNESS
  17:Generated_Source\PSoC6\pdl\rtos\FreeRTOS\10.0.1\Source/stream_buffer.c ****  * FOR A PARTICULAR PURPOSE AND NONINFRINGEMENT. IN NO EVENT SHALL THE AUTHORS OR
  18:Generated_Source\PSoC6\pdl\rtos\FreeRTOS\10.0.1\Source/stream_buffer.c ****  * COPYRIGHT HOLDERS BE LIABLE FOR ANY CLAIM, DAMAGES OR OTHER LIABILITY, WHETHER
  19:Generated_Source\PSoC6\pdl\rtos\FreeRTOS\10.0.1\Source/stream_buffer.c ****  * IN AN ACTION OF CONTRACT, TORT OR OTHERWISE, ARISING FROM, OUT OF OR IN
  20:Generated_Source\PSoC6\pdl\rtos\FreeRTOS\10.0.1\Source/stream_buffer.c ****  * CONNECTION WITH THE SOFTWARE OR THE USE OR OTHER DEALINGS IN THE SOFTWARE.
  21:Generated_Source\PSoC6\pdl\rtos\FreeRTOS\10.0.1\Source/stream_buffer.c ****  *
  22:Generated_Source\PSoC6\pdl\rtos\FreeRTOS\10.0.1\Source/stream_buffer.c ****  * http://www.FreeRTOS.org
  23:Generated_Source\PSoC6\pdl\rtos\FreeRTOS\10.0.1\Source/stream_buffer.c ****  * http://aws.amazon.com/freertos
  24:Generated_Source\PSoC6\pdl\rtos\FreeRTOS\10.0.1\Source/stream_buffer.c ****  *
  25:Generated_Source\PSoC6\pdl\rtos\FreeRTOS\10.0.1\Source/stream_buffer.c ****  * 1 tab == 4 spaces!
  26:Generated_Source\PSoC6\pdl\rtos\FreeRTOS\10.0.1\Source/stream_buffer.c ****  */
  27:Generated_Source\PSoC6\pdl\rtos\FreeRTOS\10.0.1\Source/stream_buffer.c **** 
  28:Generated_Source\PSoC6\pdl\rtos\FreeRTOS\10.0.1\Source/stream_buffer.c **** /* Standard includes. */
  29:Generated_Source\PSoC6\pdl\rtos\FreeRTOS\10.0.1\Source/stream_buffer.c **** #include <stdint.h>
  30:Generated_Source\PSoC6\pdl\rtos\FreeRTOS\10.0.1\Source/stream_buffer.c **** #include <string.h>
ARM GAS  C:\Users\kateb\AppData\Local\Temp\cc9mC3XY.s 			page 2


  31:Generated_Source\PSoC6\pdl\rtos\FreeRTOS\10.0.1\Source/stream_buffer.c **** 
  32:Generated_Source\PSoC6\pdl\rtos\FreeRTOS\10.0.1\Source/stream_buffer.c **** /* Defining MPU_WRAPPERS_INCLUDED_FROM_API_FILE prevents task.h from redefining
  33:Generated_Source\PSoC6\pdl\rtos\FreeRTOS\10.0.1\Source/stream_buffer.c **** all the API functions to use the MPU wrappers.  That should only be done when
  34:Generated_Source\PSoC6\pdl\rtos\FreeRTOS\10.0.1\Source/stream_buffer.c **** task.h is included from an application file. */
  35:Generated_Source\PSoC6\pdl\rtos\FreeRTOS\10.0.1\Source/stream_buffer.c **** #define MPU_WRAPPERS_INCLUDED_FROM_API_FILE
  36:Generated_Source\PSoC6\pdl\rtos\FreeRTOS\10.0.1\Source/stream_buffer.c **** 
  37:Generated_Source\PSoC6\pdl\rtos\FreeRTOS\10.0.1\Source/stream_buffer.c **** /* FreeRTOS includes. */
  38:Generated_Source\PSoC6\pdl\rtos\FreeRTOS\10.0.1\Source/stream_buffer.c **** #include "FreeRTOS.h"
  39:Generated_Source\PSoC6\pdl\rtos\FreeRTOS\10.0.1\Source/stream_buffer.c **** #include "task.h"
  40:Generated_Source\PSoC6\pdl\rtos\FreeRTOS\10.0.1\Source/stream_buffer.c **** #include "stream_buffer.h"
  41:Generated_Source\PSoC6\pdl\rtos\FreeRTOS\10.0.1\Source/stream_buffer.c **** 
  42:Generated_Source\PSoC6\pdl\rtos\FreeRTOS\10.0.1\Source/stream_buffer.c **** #if( configUSE_TASK_NOTIFICATIONS != 1 )
  43:Generated_Source\PSoC6\pdl\rtos\FreeRTOS\10.0.1\Source/stream_buffer.c **** 	#error configUSE_TASK_NOTIFICATIONS must be set to 1 to build stream_buffer.c
  44:Generated_Source\PSoC6\pdl\rtos\FreeRTOS\10.0.1\Source/stream_buffer.c **** #endif
  45:Generated_Source\PSoC6\pdl\rtos\FreeRTOS\10.0.1\Source/stream_buffer.c **** 
  46:Generated_Source\PSoC6\pdl\rtos\FreeRTOS\10.0.1\Source/stream_buffer.c **** /* Lint e961 and e750 are suppressed as a MISRA exception justified because the
  47:Generated_Source\PSoC6\pdl\rtos\FreeRTOS\10.0.1\Source/stream_buffer.c **** MPU ports require MPU_WRAPPERS_INCLUDED_FROM_API_FILE to be defined for the
  48:Generated_Source\PSoC6\pdl\rtos\FreeRTOS\10.0.1\Source/stream_buffer.c **** header files above, but not in this file, in order to generate the correct
  49:Generated_Source\PSoC6\pdl\rtos\FreeRTOS\10.0.1\Source/stream_buffer.c **** privileged Vs unprivileged linkage and placement. */
  50:Generated_Source\PSoC6\pdl\rtos\FreeRTOS\10.0.1\Source/stream_buffer.c **** #undef MPU_WRAPPERS_INCLUDED_FROM_API_FILE /*lint !e961 !e750. */
  51:Generated_Source\PSoC6\pdl\rtos\FreeRTOS\10.0.1\Source/stream_buffer.c **** 
  52:Generated_Source\PSoC6\pdl\rtos\FreeRTOS\10.0.1\Source/stream_buffer.c **** /* If the user has not provided application specific Rx notification macros,
  53:Generated_Source\PSoC6\pdl\rtos\FreeRTOS\10.0.1\Source/stream_buffer.c **** or #defined the notification macros away, them provide default implementations
  54:Generated_Source\PSoC6\pdl\rtos\FreeRTOS\10.0.1\Source/stream_buffer.c **** that uses task notifications. */
  55:Generated_Source\PSoC6\pdl\rtos\FreeRTOS\10.0.1\Source/stream_buffer.c **** /*lint -save -e9026 Function like macros allowed and needed here so they can be overidden. */
  56:Generated_Source\PSoC6\pdl\rtos\FreeRTOS\10.0.1\Source/stream_buffer.c **** #ifndef sbRECEIVE_COMPLETED
  57:Generated_Source\PSoC6\pdl\rtos\FreeRTOS\10.0.1\Source/stream_buffer.c **** 	#define sbRECEIVE_COMPLETED( pxStreamBuffer )										\
  58:Generated_Source\PSoC6\pdl\rtos\FreeRTOS\10.0.1\Source/stream_buffer.c **** 		vTaskSuspendAll();																\
  59:Generated_Source\PSoC6\pdl\rtos\FreeRTOS\10.0.1\Source/stream_buffer.c **** 		{																				\
  60:Generated_Source\PSoC6\pdl\rtos\FreeRTOS\10.0.1\Source/stream_buffer.c **** 			if( ( pxStreamBuffer )->xTaskWaitingToSend != NULL )						\
  61:Generated_Source\PSoC6\pdl\rtos\FreeRTOS\10.0.1\Source/stream_buffer.c **** 			{																			\
  62:Generated_Source\PSoC6\pdl\rtos\FreeRTOS\10.0.1\Source/stream_buffer.c **** 				( void ) xTaskNotify( ( pxStreamBuffer )->xTaskWaitingToSend,			\
  63:Generated_Source\PSoC6\pdl\rtos\FreeRTOS\10.0.1\Source/stream_buffer.c **** 									  ( uint32_t ) 0,									\
  64:Generated_Source\PSoC6\pdl\rtos\FreeRTOS\10.0.1\Source/stream_buffer.c **** 									  eNoAction );										\
  65:Generated_Source\PSoC6\pdl\rtos\FreeRTOS\10.0.1\Source/stream_buffer.c **** 				( pxStreamBuffer )->xTaskWaitingToSend = NULL;							\
  66:Generated_Source\PSoC6\pdl\rtos\FreeRTOS\10.0.1\Source/stream_buffer.c **** 			}																			\
  67:Generated_Source\PSoC6\pdl\rtos\FreeRTOS\10.0.1\Source/stream_buffer.c **** 		}																				\
  68:Generated_Source\PSoC6\pdl\rtos\FreeRTOS\10.0.1\Source/stream_buffer.c **** 		( void ) xTaskResumeAll();
  69:Generated_Source\PSoC6\pdl\rtos\FreeRTOS\10.0.1\Source/stream_buffer.c **** #endif /* sbRECEIVE_COMPLETED */
  70:Generated_Source\PSoC6\pdl\rtos\FreeRTOS\10.0.1\Source/stream_buffer.c **** 
  71:Generated_Source\PSoC6\pdl\rtos\FreeRTOS\10.0.1\Source/stream_buffer.c **** #ifndef sbRECEIVE_COMPLETED_FROM_ISR
  72:Generated_Source\PSoC6\pdl\rtos\FreeRTOS\10.0.1\Source/stream_buffer.c **** 	#define sbRECEIVE_COMPLETED_FROM_ISR( pxStreamBuffer,								\
  73:Generated_Source\PSoC6\pdl\rtos\FreeRTOS\10.0.1\Source/stream_buffer.c **** 										  pxHigherPriorityTaskWoken )					\
  74:Generated_Source\PSoC6\pdl\rtos\FreeRTOS\10.0.1\Source/stream_buffer.c **** 	{																					\
  75:Generated_Source\PSoC6\pdl\rtos\FreeRTOS\10.0.1\Source/stream_buffer.c **** 	UBaseType_t uxSavedInterruptStatus;													\
  76:Generated_Source\PSoC6\pdl\rtos\FreeRTOS\10.0.1\Source/stream_buffer.c **** 																						\
  77:Generated_Source\PSoC6\pdl\rtos\FreeRTOS\10.0.1\Source/stream_buffer.c **** 		uxSavedInterruptStatus = ( UBaseType_t ) portSET_INTERRUPT_MASK_FROM_ISR();		\
  78:Generated_Source\PSoC6\pdl\rtos\FreeRTOS\10.0.1\Source/stream_buffer.c **** 		{																				\
  79:Generated_Source\PSoC6\pdl\rtos\FreeRTOS\10.0.1\Source/stream_buffer.c **** 			if( ( pxStreamBuffer )->xTaskWaitingToSend != NULL )						\
  80:Generated_Source\PSoC6\pdl\rtos\FreeRTOS\10.0.1\Source/stream_buffer.c **** 			{																			\
  81:Generated_Source\PSoC6\pdl\rtos\FreeRTOS\10.0.1\Source/stream_buffer.c **** 				( void ) xTaskNotifyFromISR( ( pxStreamBuffer )->xTaskWaitingToSend,	\
  82:Generated_Source\PSoC6\pdl\rtos\FreeRTOS\10.0.1\Source/stream_buffer.c **** 											 ( uint32_t ) 0,							\
  83:Generated_Source\PSoC6\pdl\rtos\FreeRTOS\10.0.1\Source/stream_buffer.c **** 											 eNoAction,									\
  84:Generated_Source\PSoC6\pdl\rtos\FreeRTOS\10.0.1\Source/stream_buffer.c **** 											 pxHigherPriorityTaskWoken );				\
  85:Generated_Source\PSoC6\pdl\rtos\FreeRTOS\10.0.1\Source/stream_buffer.c **** 				( pxStreamBuffer )->xTaskWaitingToSend = NULL;							\
  86:Generated_Source\PSoC6\pdl\rtos\FreeRTOS\10.0.1\Source/stream_buffer.c **** 			}																			\
  87:Generated_Source\PSoC6\pdl\rtos\FreeRTOS\10.0.1\Source/stream_buffer.c **** 		}																				\
ARM GAS  C:\Users\kateb\AppData\Local\Temp\cc9mC3XY.s 			page 3


  88:Generated_Source\PSoC6\pdl\rtos\FreeRTOS\10.0.1\Source/stream_buffer.c **** 		portCLEAR_INTERRUPT_MASK_FROM_ISR( uxSavedInterruptStatus );					\
  89:Generated_Source\PSoC6\pdl\rtos\FreeRTOS\10.0.1\Source/stream_buffer.c **** 	}
  90:Generated_Source\PSoC6\pdl\rtos\FreeRTOS\10.0.1\Source/stream_buffer.c **** #endif /* sbRECEIVE_COMPLETED_FROM_ISR */
  91:Generated_Source\PSoC6\pdl\rtos\FreeRTOS\10.0.1\Source/stream_buffer.c **** 
  92:Generated_Source\PSoC6\pdl\rtos\FreeRTOS\10.0.1\Source/stream_buffer.c **** /* If the user has not provided an application specific Tx notification macro,
  93:Generated_Source\PSoC6\pdl\rtos\FreeRTOS\10.0.1\Source/stream_buffer.c **** or #defined the notification macro away, them provide a default implementation
  94:Generated_Source\PSoC6\pdl\rtos\FreeRTOS\10.0.1\Source/stream_buffer.c **** that uses task notifications. */
  95:Generated_Source\PSoC6\pdl\rtos\FreeRTOS\10.0.1\Source/stream_buffer.c **** #ifndef sbSEND_COMPLETED
  96:Generated_Source\PSoC6\pdl\rtos\FreeRTOS\10.0.1\Source/stream_buffer.c **** 	#define sbSEND_COMPLETED( pxStreamBuffer )											\
  97:Generated_Source\PSoC6\pdl\rtos\FreeRTOS\10.0.1\Source/stream_buffer.c **** 		vTaskSuspendAll();																\
  98:Generated_Source\PSoC6\pdl\rtos\FreeRTOS\10.0.1\Source/stream_buffer.c **** 		{																				\
  99:Generated_Source\PSoC6\pdl\rtos\FreeRTOS\10.0.1\Source/stream_buffer.c **** 			if( ( pxStreamBuffer )->xTaskWaitingToReceive != NULL )						\
 100:Generated_Source\PSoC6\pdl\rtos\FreeRTOS\10.0.1\Source/stream_buffer.c **** 			{																			\
 101:Generated_Source\PSoC6\pdl\rtos\FreeRTOS\10.0.1\Source/stream_buffer.c **** 				( void ) xTaskNotify( ( pxStreamBuffer )->xTaskWaitingToReceive,		\
 102:Generated_Source\PSoC6\pdl\rtos\FreeRTOS\10.0.1\Source/stream_buffer.c **** 									  ( uint32_t ) 0,									\
 103:Generated_Source\PSoC6\pdl\rtos\FreeRTOS\10.0.1\Source/stream_buffer.c **** 									  eNoAction );										\
 104:Generated_Source\PSoC6\pdl\rtos\FreeRTOS\10.0.1\Source/stream_buffer.c **** 				( pxStreamBuffer )->xTaskWaitingToReceive = NULL;						\
 105:Generated_Source\PSoC6\pdl\rtos\FreeRTOS\10.0.1\Source/stream_buffer.c **** 			}																			\
 106:Generated_Source\PSoC6\pdl\rtos\FreeRTOS\10.0.1\Source/stream_buffer.c **** 		}																				\
 107:Generated_Source\PSoC6\pdl\rtos\FreeRTOS\10.0.1\Source/stream_buffer.c **** 		( void ) xTaskResumeAll();
 108:Generated_Source\PSoC6\pdl\rtos\FreeRTOS\10.0.1\Source/stream_buffer.c **** #endif /* sbSEND_COMPLETED */
 109:Generated_Source\PSoC6\pdl\rtos\FreeRTOS\10.0.1\Source/stream_buffer.c **** 
 110:Generated_Source\PSoC6\pdl\rtos\FreeRTOS\10.0.1\Source/stream_buffer.c **** #ifndef sbSEND_COMPLETE_FROM_ISR
 111:Generated_Source\PSoC6\pdl\rtos\FreeRTOS\10.0.1\Source/stream_buffer.c **** 	#define sbSEND_COMPLETE_FROM_ISR( pxStreamBuffer, pxHigherPriorityTaskWoken )		\
 112:Generated_Source\PSoC6\pdl\rtos\FreeRTOS\10.0.1\Source/stream_buffer.c **** 	{																					\
 113:Generated_Source\PSoC6\pdl\rtos\FreeRTOS\10.0.1\Source/stream_buffer.c **** 	UBaseType_t uxSavedInterruptStatus;													\
 114:Generated_Source\PSoC6\pdl\rtos\FreeRTOS\10.0.1\Source/stream_buffer.c **** 																						\
 115:Generated_Source\PSoC6\pdl\rtos\FreeRTOS\10.0.1\Source/stream_buffer.c **** 		uxSavedInterruptStatus = ( UBaseType_t ) portSET_INTERRUPT_MASK_FROM_ISR();		\
 116:Generated_Source\PSoC6\pdl\rtos\FreeRTOS\10.0.1\Source/stream_buffer.c **** 		{																				\
 117:Generated_Source\PSoC6\pdl\rtos\FreeRTOS\10.0.1\Source/stream_buffer.c **** 			if( ( pxStreamBuffer )->xTaskWaitingToReceive != NULL )						\
 118:Generated_Source\PSoC6\pdl\rtos\FreeRTOS\10.0.1\Source/stream_buffer.c **** 			{																			\
 119:Generated_Source\PSoC6\pdl\rtos\FreeRTOS\10.0.1\Source/stream_buffer.c **** 				( void ) xTaskNotifyFromISR( ( pxStreamBuffer )->xTaskWaitingToReceive,	\
 120:Generated_Source\PSoC6\pdl\rtos\FreeRTOS\10.0.1\Source/stream_buffer.c **** 											 ( uint32_t ) 0,							\
 121:Generated_Source\PSoC6\pdl\rtos\FreeRTOS\10.0.1\Source/stream_buffer.c **** 											 eNoAction,									\
 122:Generated_Source\PSoC6\pdl\rtos\FreeRTOS\10.0.1\Source/stream_buffer.c **** 											 pxHigherPriorityTaskWoken );				\
 123:Generated_Source\PSoC6\pdl\rtos\FreeRTOS\10.0.1\Source/stream_buffer.c **** 				( pxStreamBuffer )->xTaskWaitingToReceive = NULL;						\
 124:Generated_Source\PSoC6\pdl\rtos\FreeRTOS\10.0.1\Source/stream_buffer.c **** 			}																			\
 125:Generated_Source\PSoC6\pdl\rtos\FreeRTOS\10.0.1\Source/stream_buffer.c **** 		}																				\
 126:Generated_Source\PSoC6\pdl\rtos\FreeRTOS\10.0.1\Source/stream_buffer.c **** 		portCLEAR_INTERRUPT_MASK_FROM_ISR( uxSavedInterruptStatus );					\
 127:Generated_Source\PSoC6\pdl\rtos\FreeRTOS\10.0.1\Source/stream_buffer.c **** 	}
 128:Generated_Source\PSoC6\pdl\rtos\FreeRTOS\10.0.1\Source/stream_buffer.c **** #endif /* sbSEND_COMPLETE_FROM_ISR */
 129:Generated_Source\PSoC6\pdl\rtos\FreeRTOS\10.0.1\Source/stream_buffer.c **** /*lint -restore (9026) */
 130:Generated_Source\PSoC6\pdl\rtos\FreeRTOS\10.0.1\Source/stream_buffer.c **** 
 131:Generated_Source\PSoC6\pdl\rtos\FreeRTOS\10.0.1\Source/stream_buffer.c **** /* The number of bytes used to hold the length of a message in the buffer. */
 132:Generated_Source\PSoC6\pdl\rtos\FreeRTOS\10.0.1\Source/stream_buffer.c **** #define sbBYTES_TO_STORE_MESSAGE_LENGTH ( sizeof( size_t ) )
 133:Generated_Source\PSoC6\pdl\rtos\FreeRTOS\10.0.1\Source/stream_buffer.c **** 
 134:Generated_Source\PSoC6\pdl\rtos\FreeRTOS\10.0.1\Source/stream_buffer.c **** /* Bits stored in the ucFlags field of the stream buffer. */
 135:Generated_Source\PSoC6\pdl\rtos\FreeRTOS\10.0.1\Source/stream_buffer.c **** #define sbFLAGS_IS_MESSAGE_BUFFER		( ( uint8_t ) 1 ) /* Set if the stream buffer was created as a m
 136:Generated_Source\PSoC6\pdl\rtos\FreeRTOS\10.0.1\Source/stream_buffer.c **** #define sbFLAGS_IS_STATICALLY_ALLOCATED ( ( uint8_t ) 2 ) /* Set if the stream buffer was created u
 137:Generated_Source\PSoC6\pdl\rtos\FreeRTOS\10.0.1\Source/stream_buffer.c **** 
 138:Generated_Source\PSoC6\pdl\rtos\FreeRTOS\10.0.1\Source/stream_buffer.c **** /*-----------------------------------------------------------*/
 139:Generated_Source\PSoC6\pdl\rtos\FreeRTOS\10.0.1\Source/stream_buffer.c **** 
 140:Generated_Source\PSoC6\pdl\rtos\FreeRTOS\10.0.1\Source/stream_buffer.c **** /* Structure that hold state information on the buffer. */
 141:Generated_Source\PSoC6\pdl\rtos\FreeRTOS\10.0.1\Source/stream_buffer.c **** typedef struct xSTREAM_BUFFER /*lint !e9058 Style convention uses tag. */
 142:Generated_Source\PSoC6\pdl\rtos\FreeRTOS\10.0.1\Source/stream_buffer.c **** {
 143:Generated_Source\PSoC6\pdl\rtos\FreeRTOS\10.0.1\Source/stream_buffer.c **** 	volatile size_t xTail;				/* Index to the next item to read within the buffer. */
 144:Generated_Source\PSoC6\pdl\rtos\FreeRTOS\10.0.1\Source/stream_buffer.c **** 	volatile size_t xHead;				/* Index to the next item to write within the buffer. */
ARM GAS  C:\Users\kateb\AppData\Local\Temp\cc9mC3XY.s 			page 4


 145:Generated_Source\PSoC6\pdl\rtos\FreeRTOS\10.0.1\Source/stream_buffer.c **** 	size_t xLength;						/* The length of the buffer pointed to by pucBuffer. */
 146:Generated_Source\PSoC6\pdl\rtos\FreeRTOS\10.0.1\Source/stream_buffer.c **** 	size_t xTriggerLevelBytes;			/* The number of bytes that must be in the stream buffer before a tas
 147:Generated_Source\PSoC6\pdl\rtos\FreeRTOS\10.0.1\Source/stream_buffer.c **** 	volatile TaskHandle_t xTaskWaitingToReceive; /* Holds the handle of a task waiting for data, or NU
 148:Generated_Source\PSoC6\pdl\rtos\FreeRTOS\10.0.1\Source/stream_buffer.c **** 	volatile TaskHandle_t xTaskWaitingToSend;	/* Holds the handle of a task waiting to send data to a 
 149:Generated_Source\PSoC6\pdl\rtos\FreeRTOS\10.0.1\Source/stream_buffer.c **** 	uint8_t *pucBuffer;					/* Points to the buffer itself - that is - the RAM that stores the data pa
 150:Generated_Source\PSoC6\pdl\rtos\FreeRTOS\10.0.1\Source/stream_buffer.c **** 	uint8_t ucFlags;
 151:Generated_Source\PSoC6\pdl\rtos\FreeRTOS\10.0.1\Source/stream_buffer.c **** 
 152:Generated_Source\PSoC6\pdl\rtos\FreeRTOS\10.0.1\Source/stream_buffer.c **** 	#if ( configUSE_TRACE_FACILITY == 1 )
 153:Generated_Source\PSoC6\pdl\rtos\FreeRTOS\10.0.1\Source/stream_buffer.c **** 		UBaseType_t uxStreamBufferNumber;		/* Used for tracing purposes. */
 154:Generated_Source\PSoC6\pdl\rtos\FreeRTOS\10.0.1\Source/stream_buffer.c **** 	#endif
 155:Generated_Source\PSoC6\pdl\rtos\FreeRTOS\10.0.1\Source/stream_buffer.c **** } StreamBuffer_t;
 156:Generated_Source\PSoC6\pdl\rtos\FreeRTOS\10.0.1\Source/stream_buffer.c **** 
 157:Generated_Source\PSoC6\pdl\rtos\FreeRTOS\10.0.1\Source/stream_buffer.c **** /*
 158:Generated_Source\PSoC6\pdl\rtos\FreeRTOS\10.0.1\Source/stream_buffer.c ****  * The number of bytes available to be read from the buffer.
 159:Generated_Source\PSoC6\pdl\rtos\FreeRTOS\10.0.1\Source/stream_buffer.c ****  */
 160:Generated_Source\PSoC6\pdl\rtos\FreeRTOS\10.0.1\Source/stream_buffer.c **** static size_t prvBytesInBuffer( const StreamBuffer_t * const pxStreamBuffer ) PRIVILEGED_FUNCTION;
 161:Generated_Source\PSoC6\pdl\rtos\FreeRTOS\10.0.1\Source/stream_buffer.c **** 
 162:Generated_Source\PSoC6\pdl\rtos\FreeRTOS\10.0.1\Source/stream_buffer.c **** /*
 163:Generated_Source\PSoC6\pdl\rtos\FreeRTOS\10.0.1\Source/stream_buffer.c ****  * Add xCount bytes from pucData into the pxStreamBuffer message buffer.
 164:Generated_Source\PSoC6\pdl\rtos\FreeRTOS\10.0.1\Source/stream_buffer.c ****  * Returns the number of bytes written, which will either equal xCount in the
 165:Generated_Source\PSoC6\pdl\rtos\FreeRTOS\10.0.1\Source/stream_buffer.c ****  * success case, or 0 if there was not enough space in the buffer (in which case
 166:Generated_Source\PSoC6\pdl\rtos\FreeRTOS\10.0.1\Source/stream_buffer.c ****  * no data is written into the buffer).
 167:Generated_Source\PSoC6\pdl\rtos\FreeRTOS\10.0.1\Source/stream_buffer.c ****  */
 168:Generated_Source\PSoC6\pdl\rtos\FreeRTOS\10.0.1\Source/stream_buffer.c **** static size_t prvWriteBytesToBuffer( StreamBuffer_t * const pxStreamBuffer, const uint8_t *pucData,
 169:Generated_Source\PSoC6\pdl\rtos\FreeRTOS\10.0.1\Source/stream_buffer.c **** 
 170:Generated_Source\PSoC6\pdl\rtos\FreeRTOS\10.0.1\Source/stream_buffer.c **** /*
 171:Generated_Source\PSoC6\pdl\rtos\FreeRTOS\10.0.1\Source/stream_buffer.c ****  * If the stream buffer is being used as a message buffer, then reads an entire
 172:Generated_Source\PSoC6\pdl\rtos\FreeRTOS\10.0.1\Source/stream_buffer.c ****  * message out of the buffer.  If the stream buffer is being used as a stream
 173:Generated_Source\PSoC6\pdl\rtos\FreeRTOS\10.0.1\Source/stream_buffer.c ****  * buffer then read as many bytes as possible from the buffer.
 174:Generated_Source\PSoC6\pdl\rtos\FreeRTOS\10.0.1\Source/stream_buffer.c ****  * prvReadBytesFromBuffer() is called to actually extract the bytes from the
 175:Generated_Source\PSoC6\pdl\rtos\FreeRTOS\10.0.1\Source/stream_buffer.c ****  * buffer's data storage area.
 176:Generated_Source\PSoC6\pdl\rtos\FreeRTOS\10.0.1\Source/stream_buffer.c ****  */
 177:Generated_Source\PSoC6\pdl\rtos\FreeRTOS\10.0.1\Source/stream_buffer.c **** static size_t prvReadMessageFromBuffer( StreamBuffer_t *pxStreamBuffer,
 178:Generated_Source\PSoC6\pdl\rtos\FreeRTOS\10.0.1\Source/stream_buffer.c **** 										void *pvRxData,
 179:Generated_Source\PSoC6\pdl\rtos\FreeRTOS\10.0.1\Source/stream_buffer.c **** 										size_t xBufferLengthBytes,
 180:Generated_Source\PSoC6\pdl\rtos\FreeRTOS\10.0.1\Source/stream_buffer.c **** 										size_t xBytesAvailable,
 181:Generated_Source\PSoC6\pdl\rtos\FreeRTOS\10.0.1\Source/stream_buffer.c **** 										size_t xBytesToStoreMessageLength ) PRIVILEGED_FUNCTION;
 182:Generated_Source\PSoC6\pdl\rtos\FreeRTOS\10.0.1\Source/stream_buffer.c **** 
 183:Generated_Source\PSoC6\pdl\rtos\FreeRTOS\10.0.1\Source/stream_buffer.c **** /*
 184:Generated_Source\PSoC6\pdl\rtos\FreeRTOS\10.0.1\Source/stream_buffer.c ****  * If the stream buffer is being used as a message buffer, then writes an entire
 185:Generated_Source\PSoC6\pdl\rtos\FreeRTOS\10.0.1\Source/stream_buffer.c ****  * message to the buffer.  If the stream buffer is being used as a stream
 186:Generated_Source\PSoC6\pdl\rtos\FreeRTOS\10.0.1\Source/stream_buffer.c ****  * buffer then write as many bytes as possible to the buffer.
 187:Generated_Source\PSoC6\pdl\rtos\FreeRTOS\10.0.1\Source/stream_buffer.c ****  * prvWriteBytestoBuffer() is called to actually send the bytes to the buffer's
 188:Generated_Source\PSoC6\pdl\rtos\FreeRTOS\10.0.1\Source/stream_buffer.c ****  * data storage area.
 189:Generated_Source\PSoC6\pdl\rtos\FreeRTOS\10.0.1\Source/stream_buffer.c ****  */
 190:Generated_Source\PSoC6\pdl\rtos\FreeRTOS\10.0.1\Source/stream_buffer.c **** static size_t prvWriteMessageToBuffer(  StreamBuffer_t * const pxStreamBuffer,
 191:Generated_Source\PSoC6\pdl\rtos\FreeRTOS\10.0.1\Source/stream_buffer.c **** 										const void * pvTxData,
 192:Generated_Source\PSoC6\pdl\rtos\FreeRTOS\10.0.1\Source/stream_buffer.c **** 										size_t xDataLengthBytes,
 193:Generated_Source\PSoC6\pdl\rtos\FreeRTOS\10.0.1\Source/stream_buffer.c **** 										size_t xSpace,
 194:Generated_Source\PSoC6\pdl\rtos\FreeRTOS\10.0.1\Source/stream_buffer.c **** 										size_t xRequiredSpace ) PRIVILEGED_FUNCTION;
 195:Generated_Source\PSoC6\pdl\rtos\FreeRTOS\10.0.1\Source/stream_buffer.c **** 
 196:Generated_Source\PSoC6\pdl\rtos\FreeRTOS\10.0.1\Source/stream_buffer.c **** /*
 197:Generated_Source\PSoC6\pdl\rtos\FreeRTOS\10.0.1\Source/stream_buffer.c ****  * Read xMaxCount bytes from the pxStreamBuffer message buffer and write them
 198:Generated_Source\PSoC6\pdl\rtos\FreeRTOS\10.0.1\Source/stream_buffer.c ****  * to pucData.
 199:Generated_Source\PSoC6\pdl\rtos\FreeRTOS\10.0.1\Source/stream_buffer.c ****  */
 200:Generated_Source\PSoC6\pdl\rtos\FreeRTOS\10.0.1\Source/stream_buffer.c **** static size_t prvReadBytesFromBuffer( StreamBuffer_t *pxStreamBuffer,
 201:Generated_Source\PSoC6\pdl\rtos\FreeRTOS\10.0.1\Source/stream_buffer.c **** 									  uint8_t *pucData,
ARM GAS  C:\Users\kateb\AppData\Local\Temp\cc9mC3XY.s 			page 5


 202:Generated_Source\PSoC6\pdl\rtos\FreeRTOS\10.0.1\Source/stream_buffer.c **** 									  size_t xMaxCount,
 203:Generated_Source\PSoC6\pdl\rtos\FreeRTOS\10.0.1\Source/stream_buffer.c **** 									  size_t xBytesAvailable ); PRIVILEGED_FUNCTION
 204:Generated_Source\PSoC6\pdl\rtos\FreeRTOS\10.0.1\Source/stream_buffer.c **** 
 205:Generated_Source\PSoC6\pdl\rtos\FreeRTOS\10.0.1\Source/stream_buffer.c **** /*
 206:Generated_Source\PSoC6\pdl\rtos\FreeRTOS\10.0.1\Source/stream_buffer.c ****  * Called by both pxStreamBufferCreate() and pxStreamBufferCreateStatic() to
 207:Generated_Source\PSoC6\pdl\rtos\FreeRTOS\10.0.1\Source/stream_buffer.c ****  * initialise the members of the newly created stream buffer structure.
 208:Generated_Source\PSoC6\pdl\rtos\FreeRTOS\10.0.1\Source/stream_buffer.c ****  */
 209:Generated_Source\PSoC6\pdl\rtos\FreeRTOS\10.0.1\Source/stream_buffer.c **** static void prvInitialiseNewStreamBuffer( StreamBuffer_t * const pxStreamBuffer,
 210:Generated_Source\PSoC6\pdl\rtos\FreeRTOS\10.0.1\Source/stream_buffer.c **** 										  uint8_t * const pucBuffer,
 211:Generated_Source\PSoC6\pdl\rtos\FreeRTOS\10.0.1\Source/stream_buffer.c **** 										  size_t xBufferSizeBytes,
 212:Generated_Source\PSoC6\pdl\rtos\FreeRTOS\10.0.1\Source/stream_buffer.c **** 										  size_t xTriggerLevelBytes,
 213:Generated_Source\PSoC6\pdl\rtos\FreeRTOS\10.0.1\Source/stream_buffer.c **** 										  BaseType_t xIsMessageBuffer ) PRIVILEGED_FUNCTION;
 214:Generated_Source\PSoC6\pdl\rtos\FreeRTOS\10.0.1\Source/stream_buffer.c **** 
 215:Generated_Source\PSoC6\pdl\rtos\FreeRTOS\10.0.1\Source/stream_buffer.c **** /*-----------------------------------------------------------*/
 216:Generated_Source\PSoC6\pdl\rtos\FreeRTOS\10.0.1\Source/stream_buffer.c **** 
 217:Generated_Source\PSoC6\pdl\rtos\FreeRTOS\10.0.1\Source/stream_buffer.c **** #if( configSUPPORT_DYNAMIC_ALLOCATION == 1 )
 218:Generated_Source\PSoC6\pdl\rtos\FreeRTOS\10.0.1\Source/stream_buffer.c **** 
 219:Generated_Source\PSoC6\pdl\rtos\FreeRTOS\10.0.1\Source/stream_buffer.c **** 	StreamBufferHandle_t xStreamBufferGenericCreate( size_t xBufferSizeBytes, size_t xTriggerLevelByte
 220:Generated_Source\PSoC6\pdl\rtos\FreeRTOS\10.0.1\Source/stream_buffer.c **** 	{
 221:Generated_Source\PSoC6\pdl\rtos\FreeRTOS\10.0.1\Source/stream_buffer.c **** 	uint8_t *pucAllocatedMemory;
 222:Generated_Source\PSoC6\pdl\rtos\FreeRTOS\10.0.1\Source/stream_buffer.c **** 
 223:Generated_Source\PSoC6\pdl\rtos\FreeRTOS\10.0.1\Source/stream_buffer.c **** 		/* In case the stream buffer is going to be used as a message buffer
 224:Generated_Source\PSoC6\pdl\rtos\FreeRTOS\10.0.1\Source/stream_buffer.c **** 		(that is, it will hold discrete messages with a little meta data that
 225:Generated_Source\PSoC6\pdl\rtos\FreeRTOS\10.0.1\Source/stream_buffer.c **** 		says how big the next message is) check the buffer will be large enough
 226:Generated_Source\PSoC6\pdl\rtos\FreeRTOS\10.0.1\Source/stream_buffer.c **** 		to hold at least one message. */
 227:Generated_Source\PSoC6\pdl\rtos\FreeRTOS\10.0.1\Source/stream_buffer.c **** 		configASSERT( xBufferSizeBytes > sbBYTES_TO_STORE_MESSAGE_LENGTH );
 228:Generated_Source\PSoC6\pdl\rtos\FreeRTOS\10.0.1\Source/stream_buffer.c **** 		configASSERT( xTriggerLevelBytes <= xBufferSizeBytes );
 229:Generated_Source\PSoC6\pdl\rtos\FreeRTOS\10.0.1\Source/stream_buffer.c **** 
 230:Generated_Source\PSoC6\pdl\rtos\FreeRTOS\10.0.1\Source/stream_buffer.c **** 		/* A trigger level of 0 would cause a waiting task to unblock even when
 231:Generated_Source\PSoC6\pdl\rtos\FreeRTOS\10.0.1\Source/stream_buffer.c **** 		the buffer was empty. */
 232:Generated_Source\PSoC6\pdl\rtos\FreeRTOS\10.0.1\Source/stream_buffer.c **** 		if( xTriggerLevelBytes == ( size_t ) 0 )
 233:Generated_Source\PSoC6\pdl\rtos\FreeRTOS\10.0.1\Source/stream_buffer.c **** 		{
 234:Generated_Source\PSoC6\pdl\rtos\FreeRTOS\10.0.1\Source/stream_buffer.c **** 			xTriggerLevelBytes = ( size_t ) 1; /*lint !e9044 Parameter modified to ensure it doesn't have a 
 235:Generated_Source\PSoC6\pdl\rtos\FreeRTOS\10.0.1\Source/stream_buffer.c **** 		}
 236:Generated_Source\PSoC6\pdl\rtos\FreeRTOS\10.0.1\Source/stream_buffer.c **** 
 237:Generated_Source\PSoC6\pdl\rtos\FreeRTOS\10.0.1\Source/stream_buffer.c **** 		/* A stream buffer requires a StreamBuffer_t structure and a buffer.
 238:Generated_Source\PSoC6\pdl\rtos\FreeRTOS\10.0.1\Source/stream_buffer.c **** 		Both are allocated in a single call to pvPortMalloc().  The
 239:Generated_Source\PSoC6\pdl\rtos\FreeRTOS\10.0.1\Source/stream_buffer.c **** 		StreamBuffer_t structure is placed at the start of the allocated memory
 240:Generated_Source\PSoC6\pdl\rtos\FreeRTOS\10.0.1\Source/stream_buffer.c **** 		and the buffer follows immediately after.  The requested size is
 241:Generated_Source\PSoC6\pdl\rtos\FreeRTOS\10.0.1\Source/stream_buffer.c **** 		incremented so the free space is returned as the user would expect -
 242:Generated_Source\PSoC6\pdl\rtos\FreeRTOS\10.0.1\Source/stream_buffer.c **** 		this is a quirk of the implementation that means otherwise the free
 243:Generated_Source\PSoC6\pdl\rtos\FreeRTOS\10.0.1\Source/stream_buffer.c **** 		space would be reported as one byte smaller than would be logically
 244:Generated_Source\PSoC6\pdl\rtos\FreeRTOS\10.0.1\Source/stream_buffer.c **** 		expected. */
 245:Generated_Source\PSoC6\pdl\rtos\FreeRTOS\10.0.1\Source/stream_buffer.c **** 		xBufferSizeBytes++;
 246:Generated_Source\PSoC6\pdl\rtos\FreeRTOS\10.0.1\Source/stream_buffer.c **** 		pucAllocatedMemory = ( uint8_t * ) pvPortMalloc( xBufferSizeBytes + sizeof( StreamBuffer_t ) ); /
 247:Generated_Source\PSoC6\pdl\rtos\FreeRTOS\10.0.1\Source/stream_buffer.c **** 
 248:Generated_Source\PSoC6\pdl\rtos\FreeRTOS\10.0.1\Source/stream_buffer.c **** 		if( pucAllocatedMemory != NULL )
 249:Generated_Source\PSoC6\pdl\rtos\FreeRTOS\10.0.1\Source/stream_buffer.c **** 		{
 250:Generated_Source\PSoC6\pdl\rtos\FreeRTOS\10.0.1\Source/stream_buffer.c **** 			prvInitialiseNewStreamBuffer( ( StreamBuffer_t * ) pucAllocatedMemory, /* Structure at the start
 251:Generated_Source\PSoC6\pdl\rtos\FreeRTOS\10.0.1\Source/stream_buffer.c **** 										   pucAllocatedMemory + sizeof( StreamBuffer_t ),  /* Storage area follows. */ /*lint !e9
 252:Generated_Source\PSoC6\pdl\rtos\FreeRTOS\10.0.1\Source/stream_buffer.c **** 										   xBufferSizeBytes,
 253:Generated_Source\PSoC6\pdl\rtos\FreeRTOS\10.0.1\Source/stream_buffer.c **** 										   xTriggerLevelBytes,
 254:Generated_Source\PSoC6\pdl\rtos\FreeRTOS\10.0.1\Source/stream_buffer.c **** 										   xIsMessageBuffer );
 255:Generated_Source\PSoC6\pdl\rtos\FreeRTOS\10.0.1\Source/stream_buffer.c **** 
 256:Generated_Source\PSoC6\pdl\rtos\FreeRTOS\10.0.1\Source/stream_buffer.c **** 			traceSTREAM_BUFFER_CREATE( ( ( StreamBuffer_t * ) pucAllocatedMemory ), xIsMessageBuffer );
 257:Generated_Source\PSoC6\pdl\rtos\FreeRTOS\10.0.1\Source/stream_buffer.c **** 		}
 258:Generated_Source\PSoC6\pdl\rtos\FreeRTOS\10.0.1\Source/stream_buffer.c **** 		else
ARM GAS  C:\Users\kateb\AppData\Local\Temp\cc9mC3XY.s 			page 6


 259:Generated_Source\PSoC6\pdl\rtos\FreeRTOS\10.0.1\Source/stream_buffer.c **** 		{
 260:Generated_Source\PSoC6\pdl\rtos\FreeRTOS\10.0.1\Source/stream_buffer.c **** 			traceSTREAM_BUFFER_CREATE_FAILED( xIsMessageBuffer );
 261:Generated_Source\PSoC6\pdl\rtos\FreeRTOS\10.0.1\Source/stream_buffer.c **** 		}
 262:Generated_Source\PSoC6\pdl\rtos\FreeRTOS\10.0.1\Source/stream_buffer.c **** 
 263:Generated_Source\PSoC6\pdl\rtos\FreeRTOS\10.0.1\Source/stream_buffer.c **** 		return ( StreamBufferHandle_t * ) pucAllocatedMemory; /*lint !e9087 !e826 Safe cast as allocated 
 264:Generated_Source\PSoC6\pdl\rtos\FreeRTOS\10.0.1\Source/stream_buffer.c **** 	}
 265:Generated_Source\PSoC6\pdl\rtos\FreeRTOS\10.0.1\Source/stream_buffer.c **** 
 266:Generated_Source\PSoC6\pdl\rtos\FreeRTOS\10.0.1\Source/stream_buffer.c **** #endif /* configSUPPORT_DYNAMIC_ALLOCATION */
 267:Generated_Source\PSoC6\pdl\rtos\FreeRTOS\10.0.1\Source/stream_buffer.c **** /*-----------------------------------------------------------*/
 268:Generated_Source\PSoC6\pdl\rtos\FreeRTOS\10.0.1\Source/stream_buffer.c **** 
 269:Generated_Source\PSoC6\pdl\rtos\FreeRTOS\10.0.1\Source/stream_buffer.c **** #if( configSUPPORT_STATIC_ALLOCATION == 1 )
 270:Generated_Source\PSoC6\pdl\rtos\FreeRTOS\10.0.1\Source/stream_buffer.c **** 
 271:Generated_Source\PSoC6\pdl\rtos\FreeRTOS\10.0.1\Source/stream_buffer.c **** 	StreamBufferHandle_t xStreamBufferGenericCreateStatic( size_t xBufferSizeBytes,
 272:Generated_Source\PSoC6\pdl\rtos\FreeRTOS\10.0.1\Source/stream_buffer.c **** 														   size_t xTriggerLevelBytes,
 273:Generated_Source\PSoC6\pdl\rtos\FreeRTOS\10.0.1\Source/stream_buffer.c **** 														   BaseType_t xIsMessageBuffer,
 274:Generated_Source\PSoC6\pdl\rtos\FreeRTOS\10.0.1\Source/stream_buffer.c **** 														   uint8_t * const pucStreamBufferStorageArea,
 275:Generated_Source\PSoC6\pdl\rtos\FreeRTOS\10.0.1\Source/stream_buffer.c **** 														   StaticStreamBuffer_t * const pxStaticStreamBuffer )
 276:Generated_Source\PSoC6\pdl\rtos\FreeRTOS\10.0.1\Source/stream_buffer.c **** 	{
 277:Generated_Source\PSoC6\pdl\rtos\FreeRTOS\10.0.1\Source/stream_buffer.c **** 	StreamBuffer_t * const pxStreamBuffer = ( StreamBuffer_t * ) pxStaticStreamBuffer; /*lint !e740 !e
 278:Generated_Source\PSoC6\pdl\rtos\FreeRTOS\10.0.1\Source/stream_buffer.c **** 	StreamBufferHandle_t xReturn;
 279:Generated_Source\PSoC6\pdl\rtos\FreeRTOS\10.0.1\Source/stream_buffer.c **** 
 280:Generated_Source\PSoC6\pdl\rtos\FreeRTOS\10.0.1\Source/stream_buffer.c **** 		configASSERT( pucStreamBufferStorageArea );
 281:Generated_Source\PSoC6\pdl\rtos\FreeRTOS\10.0.1\Source/stream_buffer.c **** 		configASSERT( pxStaticStreamBuffer );
 282:Generated_Source\PSoC6\pdl\rtos\FreeRTOS\10.0.1\Source/stream_buffer.c **** 		configASSERT( xTriggerLevelBytes <= xBufferSizeBytes );
 283:Generated_Source\PSoC6\pdl\rtos\FreeRTOS\10.0.1\Source/stream_buffer.c **** 
 284:Generated_Source\PSoC6\pdl\rtos\FreeRTOS\10.0.1\Source/stream_buffer.c **** 		/* A trigger level of 0 would cause a waiting task to unblock even when
 285:Generated_Source\PSoC6\pdl\rtos\FreeRTOS\10.0.1\Source/stream_buffer.c **** 		the buffer was empty. */
 286:Generated_Source\PSoC6\pdl\rtos\FreeRTOS\10.0.1\Source/stream_buffer.c **** 		if( xTriggerLevelBytes == ( size_t ) 0 )
 287:Generated_Source\PSoC6\pdl\rtos\FreeRTOS\10.0.1\Source/stream_buffer.c **** 		{
 288:Generated_Source\PSoC6\pdl\rtos\FreeRTOS\10.0.1\Source/stream_buffer.c **** 			xTriggerLevelBytes = ( size_t ) 1; /*lint !e9044 Function parameter deliberately modified to ens
 289:Generated_Source\PSoC6\pdl\rtos\FreeRTOS\10.0.1\Source/stream_buffer.c **** 		}
 290:Generated_Source\PSoC6\pdl\rtos\FreeRTOS\10.0.1\Source/stream_buffer.c **** 
 291:Generated_Source\PSoC6\pdl\rtos\FreeRTOS\10.0.1\Source/stream_buffer.c **** 		/* In case the stream buffer is going to be used as a message buffer
 292:Generated_Source\PSoC6\pdl\rtos\FreeRTOS\10.0.1\Source/stream_buffer.c **** 		(that is, it will hold discrete messages with a little meta data that
 293:Generated_Source\PSoC6\pdl\rtos\FreeRTOS\10.0.1\Source/stream_buffer.c **** 		says how big the next message is) check the buffer will be large enough
 294:Generated_Source\PSoC6\pdl\rtos\FreeRTOS\10.0.1\Source/stream_buffer.c **** 		to hold at least one message. */
 295:Generated_Source\PSoC6\pdl\rtos\FreeRTOS\10.0.1\Source/stream_buffer.c **** 		configASSERT( xBufferSizeBytes > sbBYTES_TO_STORE_MESSAGE_LENGTH );
 296:Generated_Source\PSoC6\pdl\rtos\FreeRTOS\10.0.1\Source/stream_buffer.c **** 
 297:Generated_Source\PSoC6\pdl\rtos\FreeRTOS\10.0.1\Source/stream_buffer.c **** 		#if( configASSERT_DEFINED == 1 )
 298:Generated_Source\PSoC6\pdl\rtos\FreeRTOS\10.0.1\Source/stream_buffer.c **** 		{
 299:Generated_Source\PSoC6\pdl\rtos\FreeRTOS\10.0.1\Source/stream_buffer.c **** 			/* Sanity check that the size of the structure used to declare a
 300:Generated_Source\PSoC6\pdl\rtos\FreeRTOS\10.0.1\Source/stream_buffer.c **** 			variable of type StaticStreamBuffer_t equals the size of the real
 301:Generated_Source\PSoC6\pdl\rtos\FreeRTOS\10.0.1\Source/stream_buffer.c **** 			message buffer structure. */
 302:Generated_Source\PSoC6\pdl\rtos\FreeRTOS\10.0.1\Source/stream_buffer.c **** 			volatile size_t xSize = sizeof( StaticStreamBuffer_t );
 303:Generated_Source\PSoC6\pdl\rtos\FreeRTOS\10.0.1\Source/stream_buffer.c **** 			configASSERT( xSize == sizeof( StreamBuffer_t ) );
 304:Generated_Source\PSoC6\pdl\rtos\FreeRTOS\10.0.1\Source/stream_buffer.c **** 		}
 305:Generated_Source\PSoC6\pdl\rtos\FreeRTOS\10.0.1\Source/stream_buffer.c **** 		#endif /* configASSERT_DEFINED */
 306:Generated_Source\PSoC6\pdl\rtos\FreeRTOS\10.0.1\Source/stream_buffer.c **** 
 307:Generated_Source\PSoC6\pdl\rtos\FreeRTOS\10.0.1\Source/stream_buffer.c **** 		if( ( pucStreamBufferStorageArea != NULL ) && ( pxStaticStreamBuffer != NULL ) )
 308:Generated_Source\PSoC6\pdl\rtos\FreeRTOS\10.0.1\Source/stream_buffer.c **** 		{
 309:Generated_Source\PSoC6\pdl\rtos\FreeRTOS\10.0.1\Source/stream_buffer.c **** 			prvInitialiseNewStreamBuffer( pxStreamBuffer,
 310:Generated_Source\PSoC6\pdl\rtos\FreeRTOS\10.0.1\Source/stream_buffer.c **** 										  pucStreamBufferStorageArea,
 311:Generated_Source\PSoC6\pdl\rtos\FreeRTOS\10.0.1\Source/stream_buffer.c **** 										  xBufferSizeBytes,
 312:Generated_Source\PSoC6\pdl\rtos\FreeRTOS\10.0.1\Source/stream_buffer.c **** 										  xTriggerLevelBytes,
 313:Generated_Source\PSoC6\pdl\rtos\FreeRTOS\10.0.1\Source/stream_buffer.c **** 										  xIsMessageBuffer );
 314:Generated_Source\PSoC6\pdl\rtos\FreeRTOS\10.0.1\Source/stream_buffer.c **** 
 315:Generated_Source\PSoC6\pdl\rtos\FreeRTOS\10.0.1\Source/stream_buffer.c **** 			/* Remember this was statically allocated in case it is ever deleted
ARM GAS  C:\Users\kateb\AppData\Local\Temp\cc9mC3XY.s 			page 7


 316:Generated_Source\PSoC6\pdl\rtos\FreeRTOS\10.0.1\Source/stream_buffer.c **** 			again. */
 317:Generated_Source\PSoC6\pdl\rtos\FreeRTOS\10.0.1\Source/stream_buffer.c **** 			pxStreamBuffer->ucFlags |= sbFLAGS_IS_STATICALLY_ALLOCATED;
 318:Generated_Source\PSoC6\pdl\rtos\FreeRTOS\10.0.1\Source/stream_buffer.c **** 
 319:Generated_Source\PSoC6\pdl\rtos\FreeRTOS\10.0.1\Source/stream_buffer.c **** 			traceSTREAM_BUFFER_CREATE( pxStreamBuffer, xIsMessageBuffer );
 320:Generated_Source\PSoC6\pdl\rtos\FreeRTOS\10.0.1\Source/stream_buffer.c **** 
 321:Generated_Source\PSoC6\pdl\rtos\FreeRTOS\10.0.1\Source/stream_buffer.c **** 			xReturn = ( StreamBufferHandle_t ) pxStaticStreamBuffer; /*lint !e9087 Data hiding requires cast
 322:Generated_Source\PSoC6\pdl\rtos\FreeRTOS\10.0.1\Source/stream_buffer.c **** 		}
 323:Generated_Source\PSoC6\pdl\rtos\FreeRTOS\10.0.1\Source/stream_buffer.c **** 		else
 324:Generated_Source\PSoC6\pdl\rtos\FreeRTOS\10.0.1\Source/stream_buffer.c **** 		{
 325:Generated_Source\PSoC6\pdl\rtos\FreeRTOS\10.0.1\Source/stream_buffer.c **** 			xReturn = NULL;
 326:Generated_Source\PSoC6\pdl\rtos\FreeRTOS\10.0.1\Source/stream_buffer.c **** 			traceSTREAM_BUFFER_CREATE_STATIC_FAILED( xReturn, xIsMessageBuffer );
 327:Generated_Source\PSoC6\pdl\rtos\FreeRTOS\10.0.1\Source/stream_buffer.c **** 		}
 328:Generated_Source\PSoC6\pdl\rtos\FreeRTOS\10.0.1\Source/stream_buffer.c **** 
 329:Generated_Source\PSoC6\pdl\rtos\FreeRTOS\10.0.1\Source/stream_buffer.c **** 		return xReturn;
 330:Generated_Source\PSoC6\pdl\rtos\FreeRTOS\10.0.1\Source/stream_buffer.c **** 	}
 331:Generated_Source\PSoC6\pdl\rtos\FreeRTOS\10.0.1\Source/stream_buffer.c **** 
 332:Generated_Source\PSoC6\pdl\rtos\FreeRTOS\10.0.1\Source/stream_buffer.c **** #endif /* ( configSUPPORT_STATIC_ALLOCATION == 1 ) */
 333:Generated_Source\PSoC6\pdl\rtos\FreeRTOS\10.0.1\Source/stream_buffer.c **** /*-----------------------------------------------------------*/
 334:Generated_Source\PSoC6\pdl\rtos\FreeRTOS\10.0.1\Source/stream_buffer.c **** 
 335:Generated_Source\PSoC6\pdl\rtos\FreeRTOS\10.0.1\Source/stream_buffer.c **** void vStreamBufferDelete( StreamBufferHandle_t xStreamBuffer )
 336:Generated_Source\PSoC6\pdl\rtos\FreeRTOS\10.0.1\Source/stream_buffer.c **** {
 337:Generated_Source\PSoC6\pdl\rtos\FreeRTOS\10.0.1\Source/stream_buffer.c **** StreamBuffer_t * pxStreamBuffer = ( StreamBuffer_t * ) xStreamBuffer; /*lint !e9087 !e9079 Safe cas
 338:Generated_Source\PSoC6\pdl\rtos\FreeRTOS\10.0.1\Source/stream_buffer.c **** 
 339:Generated_Source\PSoC6\pdl\rtos\FreeRTOS\10.0.1\Source/stream_buffer.c **** 	configASSERT( pxStreamBuffer );
 340:Generated_Source\PSoC6\pdl\rtos\FreeRTOS\10.0.1\Source/stream_buffer.c **** 
 341:Generated_Source\PSoC6\pdl\rtos\FreeRTOS\10.0.1\Source/stream_buffer.c **** 	traceSTREAM_BUFFER_DELETE( xStreamBuffer );
 342:Generated_Source\PSoC6\pdl\rtos\FreeRTOS\10.0.1\Source/stream_buffer.c **** 
 343:Generated_Source\PSoC6\pdl\rtos\FreeRTOS\10.0.1\Source/stream_buffer.c **** 	if( ( pxStreamBuffer->ucFlags & sbFLAGS_IS_STATICALLY_ALLOCATED ) == ( uint8_t ) pdFALSE )
 344:Generated_Source\PSoC6\pdl\rtos\FreeRTOS\10.0.1\Source/stream_buffer.c **** 	{
 345:Generated_Source\PSoC6\pdl\rtos\FreeRTOS\10.0.1\Source/stream_buffer.c **** 		#if( configSUPPORT_DYNAMIC_ALLOCATION == 1 )
 346:Generated_Source\PSoC6\pdl\rtos\FreeRTOS\10.0.1\Source/stream_buffer.c **** 		{
 347:Generated_Source\PSoC6\pdl\rtos\FreeRTOS\10.0.1\Source/stream_buffer.c **** 			/* Both the structure and the buffer were allocated using a single call
 348:Generated_Source\PSoC6\pdl\rtos\FreeRTOS\10.0.1\Source/stream_buffer.c **** 			to pvPortMalloc(), hence only one call to vPortFree() is required. */
 349:Generated_Source\PSoC6\pdl\rtos\FreeRTOS\10.0.1\Source/stream_buffer.c **** 			vPortFree( ( void * ) pxStreamBuffer ); /*lint !e9087 Standard free() semantics require void *, 
 350:Generated_Source\PSoC6\pdl\rtos\FreeRTOS\10.0.1\Source/stream_buffer.c **** 		}
 351:Generated_Source\PSoC6\pdl\rtos\FreeRTOS\10.0.1\Source/stream_buffer.c **** 		#else
 352:Generated_Source\PSoC6\pdl\rtos\FreeRTOS\10.0.1\Source/stream_buffer.c **** 		{
 353:Generated_Source\PSoC6\pdl\rtos\FreeRTOS\10.0.1\Source/stream_buffer.c **** 			/* Should not be possible to get here, ucFlags must be corrupt.
 354:Generated_Source\PSoC6\pdl\rtos\FreeRTOS\10.0.1\Source/stream_buffer.c **** 			Force an assert. */
 355:Generated_Source\PSoC6\pdl\rtos\FreeRTOS\10.0.1\Source/stream_buffer.c **** 			configASSERT( xStreamBuffer == ( StreamBufferHandle_t ) ~0 );
 356:Generated_Source\PSoC6\pdl\rtos\FreeRTOS\10.0.1\Source/stream_buffer.c **** 		}
 357:Generated_Source\PSoC6\pdl\rtos\FreeRTOS\10.0.1\Source/stream_buffer.c **** 		#endif
 358:Generated_Source\PSoC6\pdl\rtos\FreeRTOS\10.0.1\Source/stream_buffer.c **** 	}
 359:Generated_Source\PSoC6\pdl\rtos\FreeRTOS\10.0.1\Source/stream_buffer.c **** 	else
 360:Generated_Source\PSoC6\pdl\rtos\FreeRTOS\10.0.1\Source/stream_buffer.c **** 	{
 361:Generated_Source\PSoC6\pdl\rtos\FreeRTOS\10.0.1\Source/stream_buffer.c **** 		/* The structure and buffer were not allocated dynamically and cannot be
 362:Generated_Source\PSoC6\pdl\rtos\FreeRTOS\10.0.1\Source/stream_buffer.c **** 		freed - just scrub the structure so future use will assert. */
 363:Generated_Source\PSoC6\pdl\rtos\FreeRTOS\10.0.1\Source/stream_buffer.c **** 		memset( pxStreamBuffer, 0x00, sizeof( StreamBuffer_t ) );
 364:Generated_Source\PSoC6\pdl\rtos\FreeRTOS\10.0.1\Source/stream_buffer.c **** 	}
 365:Generated_Source\PSoC6\pdl\rtos\FreeRTOS\10.0.1\Source/stream_buffer.c **** }
 366:Generated_Source\PSoC6\pdl\rtos\FreeRTOS\10.0.1\Source/stream_buffer.c **** /*-----------------------------------------------------------*/
 367:Generated_Source\PSoC6\pdl\rtos\FreeRTOS\10.0.1\Source/stream_buffer.c **** 
 368:Generated_Source\PSoC6\pdl\rtos\FreeRTOS\10.0.1\Source/stream_buffer.c **** BaseType_t xStreamBufferReset( StreamBufferHandle_t xStreamBuffer )
 369:Generated_Source\PSoC6\pdl\rtos\FreeRTOS\10.0.1\Source/stream_buffer.c **** {
 370:Generated_Source\PSoC6\pdl\rtos\FreeRTOS\10.0.1\Source/stream_buffer.c **** StreamBuffer_t * const pxStreamBuffer = ( StreamBuffer_t * ) xStreamBuffer; /*lint !e9087 !e9079 Sa
 371:Generated_Source\PSoC6\pdl\rtos\FreeRTOS\10.0.1\Source/stream_buffer.c **** BaseType_t xReturn = pdFAIL, xIsMessageBuffer;
 372:Generated_Source\PSoC6\pdl\rtos\FreeRTOS\10.0.1\Source/stream_buffer.c **** 
ARM GAS  C:\Users\kateb\AppData\Local\Temp\cc9mC3XY.s 			page 8


 373:Generated_Source\PSoC6\pdl\rtos\FreeRTOS\10.0.1\Source/stream_buffer.c **** #if( configUSE_TRACE_FACILITY == 1 )
 374:Generated_Source\PSoC6\pdl\rtos\FreeRTOS\10.0.1\Source/stream_buffer.c **** 	UBaseType_t uxStreamBufferNumber;
 375:Generated_Source\PSoC6\pdl\rtos\FreeRTOS\10.0.1\Source/stream_buffer.c **** #endif
 376:Generated_Source\PSoC6\pdl\rtos\FreeRTOS\10.0.1\Source/stream_buffer.c **** 
 377:Generated_Source\PSoC6\pdl\rtos\FreeRTOS\10.0.1\Source/stream_buffer.c **** 	configASSERT( pxStreamBuffer );
 378:Generated_Source\PSoC6\pdl\rtos\FreeRTOS\10.0.1\Source/stream_buffer.c **** 
 379:Generated_Source\PSoC6\pdl\rtos\FreeRTOS\10.0.1\Source/stream_buffer.c **** 	#if( configUSE_TRACE_FACILITY == 1 )
 380:Generated_Source\PSoC6\pdl\rtos\FreeRTOS\10.0.1\Source/stream_buffer.c **** 	{
 381:Generated_Source\PSoC6\pdl\rtos\FreeRTOS\10.0.1\Source/stream_buffer.c **** 		/* Store the stream buffer number so it can be restored after the
 382:Generated_Source\PSoC6\pdl\rtos\FreeRTOS\10.0.1\Source/stream_buffer.c **** 		reset. */
 383:Generated_Source\PSoC6\pdl\rtos\FreeRTOS\10.0.1\Source/stream_buffer.c **** 		uxStreamBufferNumber = pxStreamBuffer->uxStreamBufferNumber;
 384:Generated_Source\PSoC6\pdl\rtos\FreeRTOS\10.0.1\Source/stream_buffer.c **** 	}
 385:Generated_Source\PSoC6\pdl\rtos\FreeRTOS\10.0.1\Source/stream_buffer.c **** 	#endif
 386:Generated_Source\PSoC6\pdl\rtos\FreeRTOS\10.0.1\Source/stream_buffer.c **** 
 387:Generated_Source\PSoC6\pdl\rtos\FreeRTOS\10.0.1\Source/stream_buffer.c **** 	/* Can only reset a message buffer if there are no tasks blocked on it. */
 388:Generated_Source\PSoC6\pdl\rtos\FreeRTOS\10.0.1\Source/stream_buffer.c **** 	if( pxStreamBuffer->xTaskWaitingToReceive == NULL )
 389:Generated_Source\PSoC6\pdl\rtos\FreeRTOS\10.0.1\Source/stream_buffer.c **** 	{
 390:Generated_Source\PSoC6\pdl\rtos\FreeRTOS\10.0.1\Source/stream_buffer.c **** 		if( pxStreamBuffer->xTaskWaitingToSend == NULL )
 391:Generated_Source\PSoC6\pdl\rtos\FreeRTOS\10.0.1\Source/stream_buffer.c **** 		{
 392:Generated_Source\PSoC6\pdl\rtos\FreeRTOS\10.0.1\Source/stream_buffer.c **** 			if( ( pxStreamBuffer->ucFlags & sbFLAGS_IS_MESSAGE_BUFFER ) != ( uint8_t ) 0 )
 393:Generated_Source\PSoC6\pdl\rtos\FreeRTOS\10.0.1\Source/stream_buffer.c **** 			{
 394:Generated_Source\PSoC6\pdl\rtos\FreeRTOS\10.0.1\Source/stream_buffer.c **** 				xIsMessageBuffer = pdTRUE;
 395:Generated_Source\PSoC6\pdl\rtos\FreeRTOS\10.0.1\Source/stream_buffer.c **** 			}
 396:Generated_Source\PSoC6\pdl\rtos\FreeRTOS\10.0.1\Source/stream_buffer.c **** 			else
 397:Generated_Source\PSoC6\pdl\rtos\FreeRTOS\10.0.1\Source/stream_buffer.c **** 			{
 398:Generated_Source\PSoC6\pdl\rtos\FreeRTOS\10.0.1\Source/stream_buffer.c **** 				xIsMessageBuffer = pdFALSE;
 399:Generated_Source\PSoC6\pdl\rtos\FreeRTOS\10.0.1\Source/stream_buffer.c **** 			}
 400:Generated_Source\PSoC6\pdl\rtos\FreeRTOS\10.0.1\Source/stream_buffer.c **** 
 401:Generated_Source\PSoC6\pdl\rtos\FreeRTOS\10.0.1\Source/stream_buffer.c **** 			prvInitialiseNewStreamBuffer( pxStreamBuffer,
 402:Generated_Source\PSoC6\pdl\rtos\FreeRTOS\10.0.1\Source/stream_buffer.c **** 										  pxStreamBuffer->pucBuffer,
 403:Generated_Source\PSoC6\pdl\rtos\FreeRTOS\10.0.1\Source/stream_buffer.c **** 										  pxStreamBuffer->xLength,
 404:Generated_Source\PSoC6\pdl\rtos\FreeRTOS\10.0.1\Source/stream_buffer.c **** 										  pxStreamBuffer->xTriggerLevelBytes,
 405:Generated_Source\PSoC6\pdl\rtos\FreeRTOS\10.0.1\Source/stream_buffer.c **** 										  xIsMessageBuffer );
 406:Generated_Source\PSoC6\pdl\rtos\FreeRTOS\10.0.1\Source/stream_buffer.c **** 			xReturn = pdPASS;
 407:Generated_Source\PSoC6\pdl\rtos\FreeRTOS\10.0.1\Source/stream_buffer.c **** 
 408:Generated_Source\PSoC6\pdl\rtos\FreeRTOS\10.0.1\Source/stream_buffer.c **** 			#if( configUSE_TRACE_FACILITY == 1 )
 409:Generated_Source\PSoC6\pdl\rtos\FreeRTOS\10.0.1\Source/stream_buffer.c **** 			{
 410:Generated_Source\PSoC6\pdl\rtos\FreeRTOS\10.0.1\Source/stream_buffer.c **** 				pxStreamBuffer->uxStreamBufferNumber = uxStreamBufferNumber;
 411:Generated_Source\PSoC6\pdl\rtos\FreeRTOS\10.0.1\Source/stream_buffer.c **** 			}
 412:Generated_Source\PSoC6\pdl\rtos\FreeRTOS\10.0.1\Source/stream_buffer.c **** 			#endif
 413:Generated_Source\PSoC6\pdl\rtos\FreeRTOS\10.0.1\Source/stream_buffer.c **** 
 414:Generated_Source\PSoC6\pdl\rtos\FreeRTOS\10.0.1\Source/stream_buffer.c **** 			traceSTREAM_BUFFER_RESET( xStreamBuffer );
 415:Generated_Source\PSoC6\pdl\rtos\FreeRTOS\10.0.1\Source/stream_buffer.c **** 		}
 416:Generated_Source\PSoC6\pdl\rtos\FreeRTOS\10.0.1\Source/stream_buffer.c **** 	}
 417:Generated_Source\PSoC6\pdl\rtos\FreeRTOS\10.0.1\Source/stream_buffer.c **** 
 418:Generated_Source\PSoC6\pdl\rtos\FreeRTOS\10.0.1\Source/stream_buffer.c **** 	return xReturn;
 419:Generated_Source\PSoC6\pdl\rtos\FreeRTOS\10.0.1\Source/stream_buffer.c **** }
 420:Generated_Source\PSoC6\pdl\rtos\FreeRTOS\10.0.1\Source/stream_buffer.c **** /*-----------------------------------------------------------*/
 421:Generated_Source\PSoC6\pdl\rtos\FreeRTOS\10.0.1\Source/stream_buffer.c **** 
 422:Generated_Source\PSoC6\pdl\rtos\FreeRTOS\10.0.1\Source/stream_buffer.c **** BaseType_t xStreamBufferSetTriggerLevel( StreamBufferHandle_t xStreamBuffer, size_t xTriggerLevel )
 423:Generated_Source\PSoC6\pdl\rtos\FreeRTOS\10.0.1\Source/stream_buffer.c **** {
 424:Generated_Source\PSoC6\pdl\rtos\FreeRTOS\10.0.1\Source/stream_buffer.c **** StreamBuffer_t * const pxStreamBuffer = ( StreamBuffer_t * ) xStreamBuffer; /*lint !e9087 !e9079 Sa
 425:Generated_Source\PSoC6\pdl\rtos\FreeRTOS\10.0.1\Source/stream_buffer.c **** BaseType_t xReturn;
 426:Generated_Source\PSoC6\pdl\rtos\FreeRTOS\10.0.1\Source/stream_buffer.c **** 
 427:Generated_Source\PSoC6\pdl\rtos\FreeRTOS\10.0.1\Source/stream_buffer.c **** 	configASSERT( pxStreamBuffer );
 428:Generated_Source\PSoC6\pdl\rtos\FreeRTOS\10.0.1\Source/stream_buffer.c **** 
 429:Generated_Source\PSoC6\pdl\rtos\FreeRTOS\10.0.1\Source/stream_buffer.c **** 	/* It is not valid for the trigger level to be 0. */
ARM GAS  C:\Users\kateb\AppData\Local\Temp\cc9mC3XY.s 			page 9


 430:Generated_Source\PSoC6\pdl\rtos\FreeRTOS\10.0.1\Source/stream_buffer.c **** 	if( xTriggerLevel == ( size_t ) 0 )
 431:Generated_Source\PSoC6\pdl\rtos\FreeRTOS\10.0.1\Source/stream_buffer.c **** 	{
 432:Generated_Source\PSoC6\pdl\rtos\FreeRTOS\10.0.1\Source/stream_buffer.c **** 		xTriggerLevel = ( size_t ) 1; /*lint !e9044 Parameter modified to ensure it doesn't have a danger
 433:Generated_Source\PSoC6\pdl\rtos\FreeRTOS\10.0.1\Source/stream_buffer.c **** 	}
 434:Generated_Source\PSoC6\pdl\rtos\FreeRTOS\10.0.1\Source/stream_buffer.c **** 
 435:Generated_Source\PSoC6\pdl\rtos\FreeRTOS\10.0.1\Source/stream_buffer.c **** 	/* The trigger level is the number of bytes that must be in the stream
 436:Generated_Source\PSoC6\pdl\rtos\FreeRTOS\10.0.1\Source/stream_buffer.c **** 	buffer before a task that is waiting for data is unblocked. */
 437:Generated_Source\PSoC6\pdl\rtos\FreeRTOS\10.0.1\Source/stream_buffer.c **** 	if( xTriggerLevel <= pxStreamBuffer->xLength )
 438:Generated_Source\PSoC6\pdl\rtos\FreeRTOS\10.0.1\Source/stream_buffer.c **** 	{
 439:Generated_Source\PSoC6\pdl\rtos\FreeRTOS\10.0.1\Source/stream_buffer.c **** 		pxStreamBuffer->xTriggerLevelBytes = xTriggerLevel;
 440:Generated_Source\PSoC6\pdl\rtos\FreeRTOS\10.0.1\Source/stream_buffer.c **** 		xReturn = pdPASS;
 441:Generated_Source\PSoC6\pdl\rtos\FreeRTOS\10.0.1\Source/stream_buffer.c **** 	}
 442:Generated_Source\PSoC6\pdl\rtos\FreeRTOS\10.0.1\Source/stream_buffer.c **** 	else
 443:Generated_Source\PSoC6\pdl\rtos\FreeRTOS\10.0.1\Source/stream_buffer.c **** 	{
 444:Generated_Source\PSoC6\pdl\rtos\FreeRTOS\10.0.1\Source/stream_buffer.c **** 		xReturn = pdFALSE;
 445:Generated_Source\PSoC6\pdl\rtos\FreeRTOS\10.0.1\Source/stream_buffer.c **** 	}
 446:Generated_Source\PSoC6\pdl\rtos\FreeRTOS\10.0.1\Source/stream_buffer.c **** 
 447:Generated_Source\PSoC6\pdl\rtos\FreeRTOS\10.0.1\Source/stream_buffer.c **** 	return xReturn;
 448:Generated_Source\PSoC6\pdl\rtos\FreeRTOS\10.0.1\Source/stream_buffer.c **** }
 449:Generated_Source\PSoC6\pdl\rtos\FreeRTOS\10.0.1\Source/stream_buffer.c **** /*-----------------------------------------------------------*/
 450:Generated_Source\PSoC6\pdl\rtos\FreeRTOS\10.0.1\Source/stream_buffer.c **** 
 451:Generated_Source\PSoC6\pdl\rtos\FreeRTOS\10.0.1\Source/stream_buffer.c **** size_t xStreamBufferSpacesAvailable( StreamBufferHandle_t xStreamBuffer )
 452:Generated_Source\PSoC6\pdl\rtos\FreeRTOS\10.0.1\Source/stream_buffer.c **** {
 453:Generated_Source\PSoC6\pdl\rtos\FreeRTOS\10.0.1\Source/stream_buffer.c **** const StreamBuffer_t * const pxStreamBuffer = ( StreamBuffer_t * ) xStreamBuffer; /*lint !e9087 !e9
 454:Generated_Source\PSoC6\pdl\rtos\FreeRTOS\10.0.1\Source/stream_buffer.c **** size_t xSpace;
 455:Generated_Source\PSoC6\pdl\rtos\FreeRTOS\10.0.1\Source/stream_buffer.c **** 
 456:Generated_Source\PSoC6\pdl\rtos\FreeRTOS\10.0.1\Source/stream_buffer.c **** 	configASSERT( pxStreamBuffer );
 457:Generated_Source\PSoC6\pdl\rtos\FreeRTOS\10.0.1\Source/stream_buffer.c **** 
 458:Generated_Source\PSoC6\pdl\rtos\FreeRTOS\10.0.1\Source/stream_buffer.c **** 	xSpace = pxStreamBuffer->xLength + pxStreamBuffer->xTail;
 459:Generated_Source\PSoC6\pdl\rtos\FreeRTOS\10.0.1\Source/stream_buffer.c **** 	xSpace -= pxStreamBuffer->xHead;
 460:Generated_Source\PSoC6\pdl\rtos\FreeRTOS\10.0.1\Source/stream_buffer.c **** 	xSpace -= ( size_t ) 1;
 461:Generated_Source\PSoC6\pdl\rtos\FreeRTOS\10.0.1\Source/stream_buffer.c **** 
 462:Generated_Source\PSoC6\pdl\rtos\FreeRTOS\10.0.1\Source/stream_buffer.c **** 	if( xSpace >= pxStreamBuffer->xLength )
 463:Generated_Source\PSoC6\pdl\rtos\FreeRTOS\10.0.1\Source/stream_buffer.c **** 	{
 464:Generated_Source\PSoC6\pdl\rtos\FreeRTOS\10.0.1\Source/stream_buffer.c **** 		xSpace -= pxStreamBuffer->xLength;
 465:Generated_Source\PSoC6\pdl\rtos\FreeRTOS\10.0.1\Source/stream_buffer.c **** 	}
 466:Generated_Source\PSoC6\pdl\rtos\FreeRTOS\10.0.1\Source/stream_buffer.c **** 	else
 467:Generated_Source\PSoC6\pdl\rtos\FreeRTOS\10.0.1\Source/stream_buffer.c **** 	{
 468:Generated_Source\PSoC6\pdl\rtos\FreeRTOS\10.0.1\Source/stream_buffer.c **** 		mtCOVERAGE_TEST_MARKER();
 469:Generated_Source\PSoC6\pdl\rtos\FreeRTOS\10.0.1\Source/stream_buffer.c **** 	}
 470:Generated_Source\PSoC6\pdl\rtos\FreeRTOS\10.0.1\Source/stream_buffer.c **** 
 471:Generated_Source\PSoC6\pdl\rtos\FreeRTOS\10.0.1\Source/stream_buffer.c **** 	return xSpace;
 472:Generated_Source\PSoC6\pdl\rtos\FreeRTOS\10.0.1\Source/stream_buffer.c **** }
 473:Generated_Source\PSoC6\pdl\rtos\FreeRTOS\10.0.1\Source/stream_buffer.c **** /*-----------------------------------------------------------*/
 474:Generated_Source\PSoC6\pdl\rtos\FreeRTOS\10.0.1\Source/stream_buffer.c **** 
 475:Generated_Source\PSoC6\pdl\rtos\FreeRTOS\10.0.1\Source/stream_buffer.c **** size_t xStreamBufferBytesAvailable( StreamBufferHandle_t xStreamBuffer )
 476:Generated_Source\PSoC6\pdl\rtos\FreeRTOS\10.0.1\Source/stream_buffer.c **** {
 477:Generated_Source\PSoC6\pdl\rtos\FreeRTOS\10.0.1\Source/stream_buffer.c **** const StreamBuffer_t * const pxStreamBuffer = ( StreamBuffer_t * ) xStreamBuffer; /*lint !e9087 !e9
 478:Generated_Source\PSoC6\pdl\rtos\FreeRTOS\10.0.1\Source/stream_buffer.c **** size_t xReturn;
 479:Generated_Source\PSoC6\pdl\rtos\FreeRTOS\10.0.1\Source/stream_buffer.c **** 
 480:Generated_Source\PSoC6\pdl\rtos\FreeRTOS\10.0.1\Source/stream_buffer.c **** 	configASSERT( pxStreamBuffer );
 481:Generated_Source\PSoC6\pdl\rtos\FreeRTOS\10.0.1\Source/stream_buffer.c **** 
 482:Generated_Source\PSoC6\pdl\rtos\FreeRTOS\10.0.1\Source/stream_buffer.c **** 	xReturn = prvBytesInBuffer( pxStreamBuffer );
 483:Generated_Source\PSoC6\pdl\rtos\FreeRTOS\10.0.1\Source/stream_buffer.c **** 	return xReturn;
 484:Generated_Source\PSoC6\pdl\rtos\FreeRTOS\10.0.1\Source/stream_buffer.c **** }
 485:Generated_Source\PSoC6\pdl\rtos\FreeRTOS\10.0.1\Source/stream_buffer.c **** /*-----------------------------------------------------------*/
 486:Generated_Source\PSoC6\pdl\rtos\FreeRTOS\10.0.1\Source/stream_buffer.c **** 
ARM GAS  C:\Users\kateb\AppData\Local\Temp\cc9mC3XY.s 			page 10


 487:Generated_Source\PSoC6\pdl\rtos\FreeRTOS\10.0.1\Source/stream_buffer.c **** size_t xStreamBufferSend( StreamBufferHandle_t xStreamBuffer,
 488:Generated_Source\PSoC6\pdl\rtos\FreeRTOS\10.0.1\Source/stream_buffer.c **** 						  const void *pvTxData,
 489:Generated_Source\PSoC6\pdl\rtos\FreeRTOS\10.0.1\Source/stream_buffer.c **** 						  size_t xDataLengthBytes,
 490:Generated_Source\PSoC6\pdl\rtos\FreeRTOS\10.0.1\Source/stream_buffer.c **** 						  TickType_t xTicksToWait )
 491:Generated_Source\PSoC6\pdl\rtos\FreeRTOS\10.0.1\Source/stream_buffer.c **** {
 492:Generated_Source\PSoC6\pdl\rtos\FreeRTOS\10.0.1\Source/stream_buffer.c **** StreamBuffer_t * const pxStreamBuffer = ( StreamBuffer_t * ) xStreamBuffer; /*lint !e9087 !e9079 Sa
 493:Generated_Source\PSoC6\pdl\rtos\FreeRTOS\10.0.1\Source/stream_buffer.c **** size_t xReturn, xSpace = 0;
 494:Generated_Source\PSoC6\pdl\rtos\FreeRTOS\10.0.1\Source/stream_buffer.c **** size_t xRequiredSpace = xDataLengthBytes;
 495:Generated_Source\PSoC6\pdl\rtos\FreeRTOS\10.0.1\Source/stream_buffer.c **** TimeOut_t xTimeOut;
 496:Generated_Source\PSoC6\pdl\rtos\FreeRTOS\10.0.1\Source/stream_buffer.c **** 
 497:Generated_Source\PSoC6\pdl\rtos\FreeRTOS\10.0.1\Source/stream_buffer.c **** 	configASSERT( pvTxData );
 498:Generated_Source\PSoC6\pdl\rtos\FreeRTOS\10.0.1\Source/stream_buffer.c **** 	configASSERT( pxStreamBuffer );
 499:Generated_Source\PSoC6\pdl\rtos\FreeRTOS\10.0.1\Source/stream_buffer.c **** 
 500:Generated_Source\PSoC6\pdl\rtos\FreeRTOS\10.0.1\Source/stream_buffer.c **** 	/* This send function is used to write to both message buffers and stream
 501:Generated_Source\PSoC6\pdl\rtos\FreeRTOS\10.0.1\Source/stream_buffer.c **** 	buffers.  If this is a message buffer then the space needed must be
 502:Generated_Source\PSoC6\pdl\rtos\FreeRTOS\10.0.1\Source/stream_buffer.c **** 	increased by the amount of bytes needed to store the length of the
 503:Generated_Source\PSoC6\pdl\rtos\FreeRTOS\10.0.1\Source/stream_buffer.c **** 	message. */
 504:Generated_Source\PSoC6\pdl\rtos\FreeRTOS\10.0.1\Source/stream_buffer.c **** 	if( ( pxStreamBuffer->ucFlags & sbFLAGS_IS_MESSAGE_BUFFER ) != ( uint8_t ) 0 )
 505:Generated_Source\PSoC6\pdl\rtos\FreeRTOS\10.0.1\Source/stream_buffer.c **** 	{
 506:Generated_Source\PSoC6\pdl\rtos\FreeRTOS\10.0.1\Source/stream_buffer.c **** 		xRequiredSpace += sbBYTES_TO_STORE_MESSAGE_LENGTH;
 507:Generated_Source\PSoC6\pdl\rtos\FreeRTOS\10.0.1\Source/stream_buffer.c **** 	}
 508:Generated_Source\PSoC6\pdl\rtos\FreeRTOS\10.0.1\Source/stream_buffer.c **** 	else
 509:Generated_Source\PSoC6\pdl\rtos\FreeRTOS\10.0.1\Source/stream_buffer.c **** 	{
 510:Generated_Source\PSoC6\pdl\rtos\FreeRTOS\10.0.1\Source/stream_buffer.c **** 		mtCOVERAGE_TEST_MARKER();
 511:Generated_Source\PSoC6\pdl\rtos\FreeRTOS\10.0.1\Source/stream_buffer.c **** 	}
 512:Generated_Source\PSoC6\pdl\rtos\FreeRTOS\10.0.1\Source/stream_buffer.c **** 
 513:Generated_Source\PSoC6\pdl\rtos\FreeRTOS\10.0.1\Source/stream_buffer.c **** 	if( xTicksToWait != ( TickType_t ) 0 )
 514:Generated_Source\PSoC6\pdl\rtos\FreeRTOS\10.0.1\Source/stream_buffer.c **** 	{
 515:Generated_Source\PSoC6\pdl\rtos\FreeRTOS\10.0.1\Source/stream_buffer.c **** 		vTaskSetTimeOutState( &xTimeOut );
 516:Generated_Source\PSoC6\pdl\rtos\FreeRTOS\10.0.1\Source/stream_buffer.c **** 
 517:Generated_Source\PSoC6\pdl\rtos\FreeRTOS\10.0.1\Source/stream_buffer.c **** 		do
 518:Generated_Source\PSoC6\pdl\rtos\FreeRTOS\10.0.1\Source/stream_buffer.c **** 		{
 519:Generated_Source\PSoC6\pdl\rtos\FreeRTOS\10.0.1\Source/stream_buffer.c **** 			/* Wait until the required number of bytes are free in the message
 520:Generated_Source\PSoC6\pdl\rtos\FreeRTOS\10.0.1\Source/stream_buffer.c **** 			buffer. */
 521:Generated_Source\PSoC6\pdl\rtos\FreeRTOS\10.0.1\Source/stream_buffer.c **** 			taskENTER_CRITICAL();
 522:Generated_Source\PSoC6\pdl\rtos\FreeRTOS\10.0.1\Source/stream_buffer.c **** 			{
 523:Generated_Source\PSoC6\pdl\rtos\FreeRTOS\10.0.1\Source/stream_buffer.c **** 				xSpace = xStreamBufferSpacesAvailable( pxStreamBuffer );
 524:Generated_Source\PSoC6\pdl\rtos\FreeRTOS\10.0.1\Source/stream_buffer.c **** 
 525:Generated_Source\PSoC6\pdl\rtos\FreeRTOS\10.0.1\Source/stream_buffer.c **** 				if( xSpace < xRequiredSpace )
 526:Generated_Source\PSoC6\pdl\rtos\FreeRTOS\10.0.1\Source/stream_buffer.c **** 				{
 527:Generated_Source\PSoC6\pdl\rtos\FreeRTOS\10.0.1\Source/stream_buffer.c **** 					/* Clear notification state as going to wait for space. */
 528:Generated_Source\PSoC6\pdl\rtos\FreeRTOS\10.0.1\Source/stream_buffer.c **** 					( void ) xTaskNotifyStateClear( NULL );
 529:Generated_Source\PSoC6\pdl\rtos\FreeRTOS\10.0.1\Source/stream_buffer.c **** 
 530:Generated_Source\PSoC6\pdl\rtos\FreeRTOS\10.0.1\Source/stream_buffer.c **** 					/* Should only be one writer. */
 531:Generated_Source\PSoC6\pdl\rtos\FreeRTOS\10.0.1\Source/stream_buffer.c **** 					configASSERT( pxStreamBuffer->xTaskWaitingToSend == NULL );
 532:Generated_Source\PSoC6\pdl\rtos\FreeRTOS\10.0.1\Source/stream_buffer.c **** 					pxStreamBuffer->xTaskWaitingToSend = xTaskGetCurrentTaskHandle();
 533:Generated_Source\PSoC6\pdl\rtos\FreeRTOS\10.0.1\Source/stream_buffer.c **** 				}
 534:Generated_Source\PSoC6\pdl\rtos\FreeRTOS\10.0.1\Source/stream_buffer.c **** 				else
 535:Generated_Source\PSoC6\pdl\rtos\FreeRTOS\10.0.1\Source/stream_buffer.c **** 				{
 536:Generated_Source\PSoC6\pdl\rtos\FreeRTOS\10.0.1\Source/stream_buffer.c **** 					taskEXIT_CRITICAL();
 537:Generated_Source\PSoC6\pdl\rtos\FreeRTOS\10.0.1\Source/stream_buffer.c **** 					break;
 538:Generated_Source\PSoC6\pdl\rtos\FreeRTOS\10.0.1\Source/stream_buffer.c **** 				}
 539:Generated_Source\PSoC6\pdl\rtos\FreeRTOS\10.0.1\Source/stream_buffer.c **** 			}
 540:Generated_Source\PSoC6\pdl\rtos\FreeRTOS\10.0.1\Source/stream_buffer.c **** 			taskEXIT_CRITICAL();
 541:Generated_Source\PSoC6\pdl\rtos\FreeRTOS\10.0.1\Source/stream_buffer.c **** 
 542:Generated_Source\PSoC6\pdl\rtos\FreeRTOS\10.0.1\Source/stream_buffer.c **** 			traceBLOCKING_ON_STREAM_BUFFER_SEND( xStreamBuffer );
 543:Generated_Source\PSoC6\pdl\rtos\FreeRTOS\10.0.1\Source/stream_buffer.c **** 			( void ) xTaskNotifyWait( ( uint32_t ) 0, UINT32_MAX, NULL, xTicksToWait );
ARM GAS  C:\Users\kateb\AppData\Local\Temp\cc9mC3XY.s 			page 11


 544:Generated_Source\PSoC6\pdl\rtos\FreeRTOS\10.0.1\Source/stream_buffer.c **** 			pxStreamBuffer->xTaskWaitingToSend = NULL;
 545:Generated_Source\PSoC6\pdl\rtos\FreeRTOS\10.0.1\Source/stream_buffer.c **** 
 546:Generated_Source\PSoC6\pdl\rtos\FreeRTOS\10.0.1\Source/stream_buffer.c **** 		} while( xTaskCheckForTimeOut( &xTimeOut, &xTicksToWait ) == pdFALSE );
 547:Generated_Source\PSoC6\pdl\rtos\FreeRTOS\10.0.1\Source/stream_buffer.c **** 	}
 548:Generated_Source\PSoC6\pdl\rtos\FreeRTOS\10.0.1\Source/stream_buffer.c **** 	else
 549:Generated_Source\PSoC6\pdl\rtos\FreeRTOS\10.0.1\Source/stream_buffer.c **** 	{
 550:Generated_Source\PSoC6\pdl\rtos\FreeRTOS\10.0.1\Source/stream_buffer.c **** 		mtCOVERAGE_TEST_MARKER();
 551:Generated_Source\PSoC6\pdl\rtos\FreeRTOS\10.0.1\Source/stream_buffer.c **** 	}
 552:Generated_Source\PSoC6\pdl\rtos\FreeRTOS\10.0.1\Source/stream_buffer.c **** 
 553:Generated_Source\PSoC6\pdl\rtos\FreeRTOS\10.0.1\Source/stream_buffer.c **** 	if( xSpace == ( size_t ) 0 )
 554:Generated_Source\PSoC6\pdl\rtos\FreeRTOS\10.0.1\Source/stream_buffer.c **** 	{
 555:Generated_Source\PSoC6\pdl\rtos\FreeRTOS\10.0.1\Source/stream_buffer.c **** 		xSpace = xStreamBufferSpacesAvailable( pxStreamBuffer );
 556:Generated_Source\PSoC6\pdl\rtos\FreeRTOS\10.0.1\Source/stream_buffer.c **** 	}
 557:Generated_Source\PSoC6\pdl\rtos\FreeRTOS\10.0.1\Source/stream_buffer.c **** 	else
 558:Generated_Source\PSoC6\pdl\rtos\FreeRTOS\10.0.1\Source/stream_buffer.c **** 	{
 559:Generated_Source\PSoC6\pdl\rtos\FreeRTOS\10.0.1\Source/stream_buffer.c **** 		mtCOVERAGE_TEST_MARKER();
 560:Generated_Source\PSoC6\pdl\rtos\FreeRTOS\10.0.1\Source/stream_buffer.c **** 	}
 561:Generated_Source\PSoC6\pdl\rtos\FreeRTOS\10.0.1\Source/stream_buffer.c **** 
 562:Generated_Source\PSoC6\pdl\rtos\FreeRTOS\10.0.1\Source/stream_buffer.c **** 	xReturn = prvWriteMessageToBuffer( pxStreamBuffer, pvTxData, xDataLengthBytes, xSpace, xRequiredSp
 563:Generated_Source\PSoC6\pdl\rtos\FreeRTOS\10.0.1\Source/stream_buffer.c **** 
 564:Generated_Source\PSoC6\pdl\rtos\FreeRTOS\10.0.1\Source/stream_buffer.c **** 	if( xReturn > ( size_t ) 0 )
 565:Generated_Source\PSoC6\pdl\rtos\FreeRTOS\10.0.1\Source/stream_buffer.c **** 	{
 566:Generated_Source\PSoC6\pdl\rtos\FreeRTOS\10.0.1\Source/stream_buffer.c **** 		traceSTREAM_BUFFER_SEND( xStreamBuffer, xReturn );
 567:Generated_Source\PSoC6\pdl\rtos\FreeRTOS\10.0.1\Source/stream_buffer.c **** 
 568:Generated_Source\PSoC6\pdl\rtos\FreeRTOS\10.0.1\Source/stream_buffer.c **** 		/* Was a task waiting for the data? */
 569:Generated_Source\PSoC6\pdl\rtos\FreeRTOS\10.0.1\Source/stream_buffer.c **** 		if( prvBytesInBuffer( pxStreamBuffer ) >= pxStreamBuffer->xTriggerLevelBytes )
 570:Generated_Source\PSoC6\pdl\rtos\FreeRTOS\10.0.1\Source/stream_buffer.c **** 		{
 571:Generated_Source\PSoC6\pdl\rtos\FreeRTOS\10.0.1\Source/stream_buffer.c **** 			sbSEND_COMPLETED( pxStreamBuffer );
 572:Generated_Source\PSoC6\pdl\rtos\FreeRTOS\10.0.1\Source/stream_buffer.c **** 		}
 573:Generated_Source\PSoC6\pdl\rtos\FreeRTOS\10.0.1\Source/stream_buffer.c **** 		else
 574:Generated_Source\PSoC6\pdl\rtos\FreeRTOS\10.0.1\Source/stream_buffer.c **** 		{
 575:Generated_Source\PSoC6\pdl\rtos\FreeRTOS\10.0.1\Source/stream_buffer.c **** 			mtCOVERAGE_TEST_MARKER();
 576:Generated_Source\PSoC6\pdl\rtos\FreeRTOS\10.0.1\Source/stream_buffer.c **** 		}
 577:Generated_Source\PSoC6\pdl\rtos\FreeRTOS\10.0.1\Source/stream_buffer.c **** 	}
 578:Generated_Source\PSoC6\pdl\rtos\FreeRTOS\10.0.1\Source/stream_buffer.c **** 	else
 579:Generated_Source\PSoC6\pdl\rtos\FreeRTOS\10.0.1\Source/stream_buffer.c **** 	{
 580:Generated_Source\PSoC6\pdl\rtos\FreeRTOS\10.0.1\Source/stream_buffer.c **** 		mtCOVERAGE_TEST_MARKER();
 581:Generated_Source\PSoC6\pdl\rtos\FreeRTOS\10.0.1\Source/stream_buffer.c **** 		traceSTREAM_BUFFER_SEND_FAILED( xStreamBuffer );
 582:Generated_Source\PSoC6\pdl\rtos\FreeRTOS\10.0.1\Source/stream_buffer.c **** 	}
 583:Generated_Source\PSoC6\pdl\rtos\FreeRTOS\10.0.1\Source/stream_buffer.c **** 
 584:Generated_Source\PSoC6\pdl\rtos\FreeRTOS\10.0.1\Source/stream_buffer.c **** 	return xReturn;
 585:Generated_Source\PSoC6\pdl\rtos\FreeRTOS\10.0.1\Source/stream_buffer.c **** }
 586:Generated_Source\PSoC6\pdl\rtos\FreeRTOS\10.0.1\Source/stream_buffer.c **** /*-----------------------------------------------------------*/
 587:Generated_Source\PSoC6\pdl\rtos\FreeRTOS\10.0.1\Source/stream_buffer.c **** 
 588:Generated_Source\PSoC6\pdl\rtos\FreeRTOS\10.0.1\Source/stream_buffer.c **** size_t xStreamBufferSendFromISR( StreamBufferHandle_t xStreamBuffer,
 589:Generated_Source\PSoC6\pdl\rtos\FreeRTOS\10.0.1\Source/stream_buffer.c **** 								 const void *pvTxData,
 590:Generated_Source\PSoC6\pdl\rtos\FreeRTOS\10.0.1\Source/stream_buffer.c **** 								 size_t xDataLengthBytes,
 591:Generated_Source\PSoC6\pdl\rtos\FreeRTOS\10.0.1\Source/stream_buffer.c **** 								 BaseType_t * const pxHigherPriorityTaskWoken )
 592:Generated_Source\PSoC6\pdl\rtos\FreeRTOS\10.0.1\Source/stream_buffer.c **** {
 593:Generated_Source\PSoC6\pdl\rtos\FreeRTOS\10.0.1\Source/stream_buffer.c **** StreamBuffer_t * const pxStreamBuffer = ( StreamBuffer_t * ) xStreamBuffer; /*lint !e9087 !e9079 Sa
 594:Generated_Source\PSoC6\pdl\rtos\FreeRTOS\10.0.1\Source/stream_buffer.c **** size_t xReturn, xSpace;
 595:Generated_Source\PSoC6\pdl\rtos\FreeRTOS\10.0.1\Source/stream_buffer.c **** size_t xRequiredSpace = xDataLengthBytes;
 596:Generated_Source\PSoC6\pdl\rtos\FreeRTOS\10.0.1\Source/stream_buffer.c **** 
 597:Generated_Source\PSoC6\pdl\rtos\FreeRTOS\10.0.1\Source/stream_buffer.c **** 	configASSERT( pvTxData );
 598:Generated_Source\PSoC6\pdl\rtos\FreeRTOS\10.0.1\Source/stream_buffer.c **** 	configASSERT( pxStreamBuffer );
 599:Generated_Source\PSoC6\pdl\rtos\FreeRTOS\10.0.1\Source/stream_buffer.c **** 
 600:Generated_Source\PSoC6\pdl\rtos\FreeRTOS\10.0.1\Source/stream_buffer.c **** 	/* This send function is used to write to both message buffers and stream
ARM GAS  C:\Users\kateb\AppData\Local\Temp\cc9mC3XY.s 			page 12


 601:Generated_Source\PSoC6\pdl\rtos\FreeRTOS\10.0.1\Source/stream_buffer.c **** 	buffers.  If this is a message buffer then the space needed must be
 602:Generated_Source\PSoC6\pdl\rtos\FreeRTOS\10.0.1\Source/stream_buffer.c **** 	increased by the amount of bytes needed to store the length of the
 603:Generated_Source\PSoC6\pdl\rtos\FreeRTOS\10.0.1\Source/stream_buffer.c **** 	message. */
 604:Generated_Source\PSoC6\pdl\rtos\FreeRTOS\10.0.1\Source/stream_buffer.c **** 	if( ( pxStreamBuffer->ucFlags & sbFLAGS_IS_MESSAGE_BUFFER ) != ( uint8_t ) 0 )
 605:Generated_Source\PSoC6\pdl\rtos\FreeRTOS\10.0.1\Source/stream_buffer.c **** 	{
 606:Generated_Source\PSoC6\pdl\rtos\FreeRTOS\10.0.1\Source/stream_buffer.c **** 		xRequiredSpace += sbBYTES_TO_STORE_MESSAGE_LENGTH;
 607:Generated_Source\PSoC6\pdl\rtos\FreeRTOS\10.0.1\Source/stream_buffer.c **** 	}
 608:Generated_Source\PSoC6\pdl\rtos\FreeRTOS\10.0.1\Source/stream_buffer.c **** 	else
 609:Generated_Source\PSoC6\pdl\rtos\FreeRTOS\10.0.1\Source/stream_buffer.c **** 	{
 610:Generated_Source\PSoC6\pdl\rtos\FreeRTOS\10.0.1\Source/stream_buffer.c **** 		mtCOVERAGE_TEST_MARKER();
 611:Generated_Source\PSoC6\pdl\rtos\FreeRTOS\10.0.1\Source/stream_buffer.c **** 	}
 612:Generated_Source\PSoC6\pdl\rtos\FreeRTOS\10.0.1\Source/stream_buffer.c **** 
 613:Generated_Source\PSoC6\pdl\rtos\FreeRTOS\10.0.1\Source/stream_buffer.c **** 	xSpace = xStreamBufferSpacesAvailable( pxStreamBuffer );
 614:Generated_Source\PSoC6\pdl\rtos\FreeRTOS\10.0.1\Source/stream_buffer.c **** 	xReturn = prvWriteMessageToBuffer( pxStreamBuffer, pvTxData, xDataLengthBytes, xSpace, xRequiredSp
 615:Generated_Source\PSoC6\pdl\rtos\FreeRTOS\10.0.1\Source/stream_buffer.c **** 
 616:Generated_Source\PSoC6\pdl\rtos\FreeRTOS\10.0.1\Source/stream_buffer.c **** 	if( xReturn > ( size_t ) 0 )
 617:Generated_Source\PSoC6\pdl\rtos\FreeRTOS\10.0.1\Source/stream_buffer.c **** 	{
 618:Generated_Source\PSoC6\pdl\rtos\FreeRTOS\10.0.1\Source/stream_buffer.c **** 		/* Was a task waiting for the data? */
 619:Generated_Source\PSoC6\pdl\rtos\FreeRTOS\10.0.1\Source/stream_buffer.c **** 		if( prvBytesInBuffer( pxStreamBuffer ) >= pxStreamBuffer->xTriggerLevelBytes )
 620:Generated_Source\PSoC6\pdl\rtos\FreeRTOS\10.0.1\Source/stream_buffer.c **** 		{
 621:Generated_Source\PSoC6\pdl\rtos\FreeRTOS\10.0.1\Source/stream_buffer.c **** 			sbSEND_COMPLETE_FROM_ISR( pxStreamBuffer, pxHigherPriorityTaskWoken );
 622:Generated_Source\PSoC6\pdl\rtos\FreeRTOS\10.0.1\Source/stream_buffer.c **** 		}
 623:Generated_Source\PSoC6\pdl\rtos\FreeRTOS\10.0.1\Source/stream_buffer.c **** 		else
 624:Generated_Source\PSoC6\pdl\rtos\FreeRTOS\10.0.1\Source/stream_buffer.c **** 		{
 625:Generated_Source\PSoC6\pdl\rtos\FreeRTOS\10.0.1\Source/stream_buffer.c **** 			mtCOVERAGE_TEST_MARKER();
 626:Generated_Source\PSoC6\pdl\rtos\FreeRTOS\10.0.1\Source/stream_buffer.c **** 		}
 627:Generated_Source\PSoC6\pdl\rtos\FreeRTOS\10.0.1\Source/stream_buffer.c **** 	}
 628:Generated_Source\PSoC6\pdl\rtos\FreeRTOS\10.0.1\Source/stream_buffer.c **** 	else
 629:Generated_Source\PSoC6\pdl\rtos\FreeRTOS\10.0.1\Source/stream_buffer.c **** 	{
 630:Generated_Source\PSoC6\pdl\rtos\FreeRTOS\10.0.1\Source/stream_buffer.c **** 		mtCOVERAGE_TEST_MARKER();
 631:Generated_Source\PSoC6\pdl\rtos\FreeRTOS\10.0.1\Source/stream_buffer.c **** 	}
 632:Generated_Source\PSoC6\pdl\rtos\FreeRTOS\10.0.1\Source/stream_buffer.c **** 
 633:Generated_Source\PSoC6\pdl\rtos\FreeRTOS\10.0.1\Source/stream_buffer.c **** 	traceSTREAM_BUFFER_SEND_FROM_ISR( xStreamBuffer, xReturn );
 634:Generated_Source\PSoC6\pdl\rtos\FreeRTOS\10.0.1\Source/stream_buffer.c **** 
 635:Generated_Source\PSoC6\pdl\rtos\FreeRTOS\10.0.1\Source/stream_buffer.c **** 	return xReturn;
 636:Generated_Source\PSoC6\pdl\rtos\FreeRTOS\10.0.1\Source/stream_buffer.c **** }
 637:Generated_Source\PSoC6\pdl\rtos\FreeRTOS\10.0.1\Source/stream_buffer.c **** /*-----------------------------------------------------------*/
 638:Generated_Source\PSoC6\pdl\rtos\FreeRTOS\10.0.1\Source/stream_buffer.c **** 
 639:Generated_Source\PSoC6\pdl\rtos\FreeRTOS\10.0.1\Source/stream_buffer.c **** static size_t prvWriteMessageToBuffer( StreamBuffer_t * const pxStreamBuffer,
 640:Generated_Source\PSoC6\pdl\rtos\FreeRTOS\10.0.1\Source/stream_buffer.c **** 									   const void * pvTxData,
 641:Generated_Source\PSoC6\pdl\rtos\FreeRTOS\10.0.1\Source/stream_buffer.c **** 									   size_t xDataLengthBytes,
 642:Generated_Source\PSoC6\pdl\rtos\FreeRTOS\10.0.1\Source/stream_buffer.c **** 									   size_t xSpace,
 643:Generated_Source\PSoC6\pdl\rtos\FreeRTOS\10.0.1\Source/stream_buffer.c **** 									   size_t xRequiredSpace )
 644:Generated_Source\PSoC6\pdl\rtos\FreeRTOS\10.0.1\Source/stream_buffer.c **** {
 645:Generated_Source\PSoC6\pdl\rtos\FreeRTOS\10.0.1\Source/stream_buffer.c **** 	BaseType_t xShouldWrite;
 646:Generated_Source\PSoC6\pdl\rtos\FreeRTOS\10.0.1\Source/stream_buffer.c **** 	size_t xReturn;
 647:Generated_Source\PSoC6\pdl\rtos\FreeRTOS\10.0.1\Source/stream_buffer.c **** 
 648:Generated_Source\PSoC6\pdl\rtos\FreeRTOS\10.0.1\Source/stream_buffer.c **** 	if( xSpace == ( size_t ) 0 )
 649:Generated_Source\PSoC6\pdl\rtos\FreeRTOS\10.0.1\Source/stream_buffer.c **** 	{
 650:Generated_Source\PSoC6\pdl\rtos\FreeRTOS\10.0.1\Source/stream_buffer.c **** 		/* Doesn't matter if this is a stream buffer or a message buffer, there
 651:Generated_Source\PSoC6\pdl\rtos\FreeRTOS\10.0.1\Source/stream_buffer.c **** 		is no space to write. */
 652:Generated_Source\PSoC6\pdl\rtos\FreeRTOS\10.0.1\Source/stream_buffer.c **** 		xShouldWrite = pdFALSE;
 653:Generated_Source\PSoC6\pdl\rtos\FreeRTOS\10.0.1\Source/stream_buffer.c **** 	}
 654:Generated_Source\PSoC6\pdl\rtos\FreeRTOS\10.0.1\Source/stream_buffer.c **** 	else if( ( pxStreamBuffer->ucFlags & sbFLAGS_IS_MESSAGE_BUFFER ) == ( uint8_t ) 0 )
 655:Generated_Source\PSoC6\pdl\rtos\FreeRTOS\10.0.1\Source/stream_buffer.c **** 	{
 656:Generated_Source\PSoC6\pdl\rtos\FreeRTOS\10.0.1\Source/stream_buffer.c **** 		/* This is a stream buffer, as opposed to a message buffer, so writing a
 657:Generated_Source\PSoC6\pdl\rtos\FreeRTOS\10.0.1\Source/stream_buffer.c **** 		stream of bytes rather than discrete messages.  Write as many bytes as
ARM GAS  C:\Users\kateb\AppData\Local\Temp\cc9mC3XY.s 			page 13


 658:Generated_Source\PSoC6\pdl\rtos\FreeRTOS\10.0.1\Source/stream_buffer.c **** 		possible. */
 659:Generated_Source\PSoC6\pdl\rtos\FreeRTOS\10.0.1\Source/stream_buffer.c **** 		xShouldWrite = pdTRUE;
 660:Generated_Source\PSoC6\pdl\rtos\FreeRTOS\10.0.1\Source/stream_buffer.c **** 		xDataLengthBytes = configMIN( xDataLengthBytes, xSpace ); /*lint !e9044 Function parameter modifi
 661:Generated_Source\PSoC6\pdl\rtos\FreeRTOS\10.0.1\Source/stream_buffer.c **** 	}
 662:Generated_Source\PSoC6\pdl\rtos\FreeRTOS\10.0.1\Source/stream_buffer.c **** 	else if( xSpace >= xRequiredSpace )
 663:Generated_Source\PSoC6\pdl\rtos\FreeRTOS\10.0.1\Source/stream_buffer.c **** 	{
 664:Generated_Source\PSoC6\pdl\rtos\FreeRTOS\10.0.1\Source/stream_buffer.c **** 		/* This is a message buffer, as opposed to a stream buffer, and there
 665:Generated_Source\PSoC6\pdl\rtos\FreeRTOS\10.0.1\Source/stream_buffer.c **** 		is enough space to write both the message length and the message itself
 666:Generated_Source\PSoC6\pdl\rtos\FreeRTOS\10.0.1\Source/stream_buffer.c **** 		into the buffer.  Start by writing the length of the data, the data
 667:Generated_Source\PSoC6\pdl\rtos\FreeRTOS\10.0.1\Source/stream_buffer.c **** 		itself will be written later in this function. */
 668:Generated_Source\PSoC6\pdl\rtos\FreeRTOS\10.0.1\Source/stream_buffer.c **** 		xShouldWrite = pdTRUE;
 669:Generated_Source\PSoC6\pdl\rtos\FreeRTOS\10.0.1\Source/stream_buffer.c **** 		( void ) prvWriteBytesToBuffer( pxStreamBuffer, ( const uint8_t * ) &( xDataLengthBytes ), sbBYTE
 670:Generated_Source\PSoC6\pdl\rtos\FreeRTOS\10.0.1\Source/stream_buffer.c **** 	}
 671:Generated_Source\PSoC6\pdl\rtos\FreeRTOS\10.0.1\Source/stream_buffer.c **** 	else
 672:Generated_Source\PSoC6\pdl\rtos\FreeRTOS\10.0.1\Source/stream_buffer.c **** 	{
 673:Generated_Source\PSoC6\pdl\rtos\FreeRTOS\10.0.1\Source/stream_buffer.c **** 		/* There is space available, but not enough space. */
 674:Generated_Source\PSoC6\pdl\rtos\FreeRTOS\10.0.1\Source/stream_buffer.c **** 		xShouldWrite = pdFALSE;
 675:Generated_Source\PSoC6\pdl\rtos\FreeRTOS\10.0.1\Source/stream_buffer.c **** 	}
 676:Generated_Source\PSoC6\pdl\rtos\FreeRTOS\10.0.1\Source/stream_buffer.c **** 
 677:Generated_Source\PSoC6\pdl\rtos\FreeRTOS\10.0.1\Source/stream_buffer.c **** 	if( xShouldWrite != pdFALSE )
 678:Generated_Source\PSoC6\pdl\rtos\FreeRTOS\10.0.1\Source/stream_buffer.c **** 	{
 679:Generated_Source\PSoC6\pdl\rtos\FreeRTOS\10.0.1\Source/stream_buffer.c **** 		/* Writes the data itself. */
 680:Generated_Source\PSoC6\pdl\rtos\FreeRTOS\10.0.1\Source/stream_buffer.c **** 		xReturn = prvWriteBytesToBuffer( pxStreamBuffer, ( const uint8_t * ) pvTxData, xDataLengthBytes )
 681:Generated_Source\PSoC6\pdl\rtos\FreeRTOS\10.0.1\Source/stream_buffer.c **** 	}
 682:Generated_Source\PSoC6\pdl\rtos\FreeRTOS\10.0.1\Source/stream_buffer.c **** 	else
 683:Generated_Source\PSoC6\pdl\rtos\FreeRTOS\10.0.1\Source/stream_buffer.c **** 	{
 684:Generated_Source\PSoC6\pdl\rtos\FreeRTOS\10.0.1\Source/stream_buffer.c **** 		xReturn = 0;
 685:Generated_Source\PSoC6\pdl\rtos\FreeRTOS\10.0.1\Source/stream_buffer.c **** 	}
 686:Generated_Source\PSoC6\pdl\rtos\FreeRTOS\10.0.1\Source/stream_buffer.c **** 
 687:Generated_Source\PSoC6\pdl\rtos\FreeRTOS\10.0.1\Source/stream_buffer.c **** 	return xReturn;
 688:Generated_Source\PSoC6\pdl\rtos\FreeRTOS\10.0.1\Source/stream_buffer.c **** }
 689:Generated_Source\PSoC6\pdl\rtos\FreeRTOS\10.0.1\Source/stream_buffer.c **** /*-----------------------------------------------------------*/
 690:Generated_Source\PSoC6\pdl\rtos\FreeRTOS\10.0.1\Source/stream_buffer.c **** 
 691:Generated_Source\PSoC6\pdl\rtos\FreeRTOS\10.0.1\Source/stream_buffer.c **** size_t xStreamBufferReceive( StreamBufferHandle_t xStreamBuffer,
 692:Generated_Source\PSoC6\pdl\rtos\FreeRTOS\10.0.1\Source/stream_buffer.c **** 							 void *pvRxData,
 693:Generated_Source\PSoC6\pdl\rtos\FreeRTOS\10.0.1\Source/stream_buffer.c **** 							 size_t xBufferLengthBytes,
 694:Generated_Source\PSoC6\pdl\rtos\FreeRTOS\10.0.1\Source/stream_buffer.c **** 							 TickType_t xTicksToWait )
 695:Generated_Source\PSoC6\pdl\rtos\FreeRTOS\10.0.1\Source/stream_buffer.c **** {
 696:Generated_Source\PSoC6\pdl\rtos\FreeRTOS\10.0.1\Source/stream_buffer.c **** StreamBuffer_t * const pxStreamBuffer = ( StreamBuffer_t * ) xStreamBuffer; /*lint !e9087 !e9079 Sa
 697:Generated_Source\PSoC6\pdl\rtos\FreeRTOS\10.0.1\Source/stream_buffer.c **** size_t xReceivedLength = 0, xBytesAvailable, xBytesToStoreMessageLength;
 698:Generated_Source\PSoC6\pdl\rtos\FreeRTOS\10.0.1\Source/stream_buffer.c **** 
 699:Generated_Source\PSoC6\pdl\rtos\FreeRTOS\10.0.1\Source/stream_buffer.c **** 	configASSERT( pvRxData );
 700:Generated_Source\PSoC6\pdl\rtos\FreeRTOS\10.0.1\Source/stream_buffer.c **** 	configASSERT( pxStreamBuffer );
 701:Generated_Source\PSoC6\pdl\rtos\FreeRTOS\10.0.1\Source/stream_buffer.c **** 
 702:Generated_Source\PSoC6\pdl\rtos\FreeRTOS\10.0.1\Source/stream_buffer.c **** 	/* This receive function is used by both message buffers, which store
 703:Generated_Source\PSoC6\pdl\rtos\FreeRTOS\10.0.1\Source/stream_buffer.c **** 	discrete messages, and stream buffers, which store a continuous stream of
 704:Generated_Source\PSoC6\pdl\rtos\FreeRTOS\10.0.1\Source/stream_buffer.c **** 	bytes.  Discrete messages include an additional
 705:Generated_Source\PSoC6\pdl\rtos\FreeRTOS\10.0.1\Source/stream_buffer.c **** 	sbBYTES_TO_STORE_MESSAGE_LENGTH bytes that hold the length of the
 706:Generated_Source\PSoC6\pdl\rtos\FreeRTOS\10.0.1\Source/stream_buffer.c **** 	message. */
 707:Generated_Source\PSoC6\pdl\rtos\FreeRTOS\10.0.1\Source/stream_buffer.c **** 	if( ( pxStreamBuffer->ucFlags & sbFLAGS_IS_MESSAGE_BUFFER ) != ( uint8_t ) 0 )
 708:Generated_Source\PSoC6\pdl\rtos\FreeRTOS\10.0.1\Source/stream_buffer.c **** 	{
 709:Generated_Source\PSoC6\pdl\rtos\FreeRTOS\10.0.1\Source/stream_buffer.c **** 		xBytesToStoreMessageLength = sbBYTES_TO_STORE_MESSAGE_LENGTH;
 710:Generated_Source\PSoC6\pdl\rtos\FreeRTOS\10.0.1\Source/stream_buffer.c **** 	}
 711:Generated_Source\PSoC6\pdl\rtos\FreeRTOS\10.0.1\Source/stream_buffer.c **** 	else
 712:Generated_Source\PSoC6\pdl\rtos\FreeRTOS\10.0.1\Source/stream_buffer.c **** 	{
 713:Generated_Source\PSoC6\pdl\rtos\FreeRTOS\10.0.1\Source/stream_buffer.c **** 		xBytesToStoreMessageLength = 0;
 714:Generated_Source\PSoC6\pdl\rtos\FreeRTOS\10.0.1\Source/stream_buffer.c **** 	}
ARM GAS  C:\Users\kateb\AppData\Local\Temp\cc9mC3XY.s 			page 14


 715:Generated_Source\PSoC6\pdl\rtos\FreeRTOS\10.0.1\Source/stream_buffer.c **** 
 716:Generated_Source\PSoC6\pdl\rtos\FreeRTOS\10.0.1\Source/stream_buffer.c **** 	if( xTicksToWait != ( TickType_t ) 0 )
 717:Generated_Source\PSoC6\pdl\rtos\FreeRTOS\10.0.1\Source/stream_buffer.c **** 	{
 718:Generated_Source\PSoC6\pdl\rtos\FreeRTOS\10.0.1\Source/stream_buffer.c **** 		/* Checking if there is data and clearing the notification state must be
 719:Generated_Source\PSoC6\pdl\rtos\FreeRTOS\10.0.1\Source/stream_buffer.c **** 		performed atomically. */
 720:Generated_Source\PSoC6\pdl\rtos\FreeRTOS\10.0.1\Source/stream_buffer.c **** 		taskENTER_CRITICAL();
 721:Generated_Source\PSoC6\pdl\rtos\FreeRTOS\10.0.1\Source/stream_buffer.c **** 		{
 722:Generated_Source\PSoC6\pdl\rtos\FreeRTOS\10.0.1\Source/stream_buffer.c **** 			xBytesAvailable = prvBytesInBuffer( pxStreamBuffer );
 723:Generated_Source\PSoC6\pdl\rtos\FreeRTOS\10.0.1\Source/stream_buffer.c **** 
 724:Generated_Source\PSoC6\pdl\rtos\FreeRTOS\10.0.1\Source/stream_buffer.c **** 			/* If this function was invoked by a message buffer read then
 725:Generated_Source\PSoC6\pdl\rtos\FreeRTOS\10.0.1\Source/stream_buffer.c **** 			xBytesToStoreMessageLength holds the number of bytes used to hold
 726:Generated_Source\PSoC6\pdl\rtos\FreeRTOS\10.0.1\Source/stream_buffer.c **** 			the length of the next discrete message.  If this function was
 727:Generated_Source\PSoC6\pdl\rtos\FreeRTOS\10.0.1\Source/stream_buffer.c **** 			invoked by a stream buffer read then xBytesToStoreMessageLength will
 728:Generated_Source\PSoC6\pdl\rtos\FreeRTOS\10.0.1\Source/stream_buffer.c **** 			be 0. */
 729:Generated_Source\PSoC6\pdl\rtos\FreeRTOS\10.0.1\Source/stream_buffer.c **** 			if( xBytesAvailable <= xBytesToStoreMessageLength )
 730:Generated_Source\PSoC6\pdl\rtos\FreeRTOS\10.0.1\Source/stream_buffer.c **** 			{
 731:Generated_Source\PSoC6\pdl\rtos\FreeRTOS\10.0.1\Source/stream_buffer.c **** 				/* Clear notification state as going to wait for data. */
 732:Generated_Source\PSoC6\pdl\rtos\FreeRTOS\10.0.1\Source/stream_buffer.c **** 				( void ) xTaskNotifyStateClear( NULL );
 733:Generated_Source\PSoC6\pdl\rtos\FreeRTOS\10.0.1\Source/stream_buffer.c **** 
 734:Generated_Source\PSoC6\pdl\rtos\FreeRTOS\10.0.1\Source/stream_buffer.c **** 				/* Should only be one reader. */
 735:Generated_Source\PSoC6\pdl\rtos\FreeRTOS\10.0.1\Source/stream_buffer.c **** 				configASSERT( pxStreamBuffer->xTaskWaitingToReceive == NULL );
 736:Generated_Source\PSoC6\pdl\rtos\FreeRTOS\10.0.1\Source/stream_buffer.c **** 				pxStreamBuffer->xTaskWaitingToReceive = xTaskGetCurrentTaskHandle();
 737:Generated_Source\PSoC6\pdl\rtos\FreeRTOS\10.0.1\Source/stream_buffer.c **** 			}
 738:Generated_Source\PSoC6\pdl\rtos\FreeRTOS\10.0.1\Source/stream_buffer.c **** 			else
 739:Generated_Source\PSoC6\pdl\rtos\FreeRTOS\10.0.1\Source/stream_buffer.c **** 			{
 740:Generated_Source\PSoC6\pdl\rtos\FreeRTOS\10.0.1\Source/stream_buffer.c **** 				mtCOVERAGE_TEST_MARKER();
 741:Generated_Source\PSoC6\pdl\rtos\FreeRTOS\10.0.1\Source/stream_buffer.c **** 			}
 742:Generated_Source\PSoC6\pdl\rtos\FreeRTOS\10.0.1\Source/stream_buffer.c **** 		}
 743:Generated_Source\PSoC6\pdl\rtos\FreeRTOS\10.0.1\Source/stream_buffer.c **** 		taskEXIT_CRITICAL();
 744:Generated_Source\PSoC6\pdl\rtos\FreeRTOS\10.0.1\Source/stream_buffer.c **** 
 745:Generated_Source\PSoC6\pdl\rtos\FreeRTOS\10.0.1\Source/stream_buffer.c **** 		if( xBytesAvailable <= xBytesToStoreMessageLength )
 746:Generated_Source\PSoC6\pdl\rtos\FreeRTOS\10.0.1\Source/stream_buffer.c **** 		{
 747:Generated_Source\PSoC6\pdl\rtos\FreeRTOS\10.0.1\Source/stream_buffer.c **** 			/* Wait for data to be available. */
 748:Generated_Source\PSoC6\pdl\rtos\FreeRTOS\10.0.1\Source/stream_buffer.c **** 			traceBLOCKING_ON_STREAM_BUFFER_RECEIVE( xStreamBuffer );
 749:Generated_Source\PSoC6\pdl\rtos\FreeRTOS\10.0.1\Source/stream_buffer.c **** 			( void ) xTaskNotifyWait( ( uint32_t ) 0, UINT32_MAX, NULL, xTicksToWait );
 750:Generated_Source\PSoC6\pdl\rtos\FreeRTOS\10.0.1\Source/stream_buffer.c **** 			pxStreamBuffer->xTaskWaitingToReceive = NULL;
 751:Generated_Source\PSoC6\pdl\rtos\FreeRTOS\10.0.1\Source/stream_buffer.c **** 
 752:Generated_Source\PSoC6\pdl\rtos\FreeRTOS\10.0.1\Source/stream_buffer.c **** 			/* Recheck the data available after blocking. */
 753:Generated_Source\PSoC6\pdl\rtos\FreeRTOS\10.0.1\Source/stream_buffer.c **** 			xBytesAvailable = prvBytesInBuffer( pxStreamBuffer );
 754:Generated_Source\PSoC6\pdl\rtos\FreeRTOS\10.0.1\Source/stream_buffer.c **** 		}
 755:Generated_Source\PSoC6\pdl\rtos\FreeRTOS\10.0.1\Source/stream_buffer.c **** 		else
 756:Generated_Source\PSoC6\pdl\rtos\FreeRTOS\10.0.1\Source/stream_buffer.c **** 		{
 757:Generated_Source\PSoC6\pdl\rtos\FreeRTOS\10.0.1\Source/stream_buffer.c **** 			mtCOVERAGE_TEST_MARKER();
 758:Generated_Source\PSoC6\pdl\rtos\FreeRTOS\10.0.1\Source/stream_buffer.c **** 		}
 759:Generated_Source\PSoC6\pdl\rtos\FreeRTOS\10.0.1\Source/stream_buffer.c **** 	}
 760:Generated_Source\PSoC6\pdl\rtos\FreeRTOS\10.0.1\Source/stream_buffer.c **** 	else
 761:Generated_Source\PSoC6\pdl\rtos\FreeRTOS\10.0.1\Source/stream_buffer.c **** 	{
 762:Generated_Source\PSoC6\pdl\rtos\FreeRTOS\10.0.1\Source/stream_buffer.c **** 		xBytesAvailable = prvBytesInBuffer( pxStreamBuffer );
 763:Generated_Source\PSoC6\pdl\rtos\FreeRTOS\10.0.1\Source/stream_buffer.c **** 	}
 764:Generated_Source\PSoC6\pdl\rtos\FreeRTOS\10.0.1\Source/stream_buffer.c **** 
 765:Generated_Source\PSoC6\pdl\rtos\FreeRTOS\10.0.1\Source/stream_buffer.c **** 	/* Whether receiving a discrete message (where xBytesToStoreMessageLength
 766:Generated_Source\PSoC6\pdl\rtos\FreeRTOS\10.0.1\Source/stream_buffer.c **** 	holds the number of bytes used to store the message length) or a stream of
 767:Generated_Source\PSoC6\pdl\rtos\FreeRTOS\10.0.1\Source/stream_buffer.c **** 	bytes (where xBytesToStoreMessageLength is zero), the number of bytes
 768:Generated_Source\PSoC6\pdl\rtos\FreeRTOS\10.0.1\Source/stream_buffer.c **** 	available must be greater than xBytesToStoreMessageLength to be able to
 769:Generated_Source\PSoC6\pdl\rtos\FreeRTOS\10.0.1\Source/stream_buffer.c **** 	read bytes from the buffer. */
 770:Generated_Source\PSoC6\pdl\rtos\FreeRTOS\10.0.1\Source/stream_buffer.c **** 	if( xBytesAvailable > xBytesToStoreMessageLength )
 771:Generated_Source\PSoC6\pdl\rtos\FreeRTOS\10.0.1\Source/stream_buffer.c **** 	{
ARM GAS  C:\Users\kateb\AppData\Local\Temp\cc9mC3XY.s 			page 15


 772:Generated_Source\PSoC6\pdl\rtos\FreeRTOS\10.0.1\Source/stream_buffer.c **** 		xReceivedLength = prvReadMessageFromBuffer( pxStreamBuffer, pvRxData, xBufferLengthBytes, xBytesA
 773:Generated_Source\PSoC6\pdl\rtos\FreeRTOS\10.0.1\Source/stream_buffer.c **** 
 774:Generated_Source\PSoC6\pdl\rtos\FreeRTOS\10.0.1\Source/stream_buffer.c **** 		/* Was a task waiting for space in the buffer? */
 775:Generated_Source\PSoC6\pdl\rtos\FreeRTOS\10.0.1\Source/stream_buffer.c **** 		if( xReceivedLength != ( size_t ) 0 )
 776:Generated_Source\PSoC6\pdl\rtos\FreeRTOS\10.0.1\Source/stream_buffer.c **** 		{
 777:Generated_Source\PSoC6\pdl\rtos\FreeRTOS\10.0.1\Source/stream_buffer.c **** 			traceSTREAM_BUFFER_RECEIVE( xStreamBuffer, xReceivedLength );
 778:Generated_Source\PSoC6\pdl\rtos\FreeRTOS\10.0.1\Source/stream_buffer.c **** 			sbRECEIVE_COMPLETED( pxStreamBuffer );
 779:Generated_Source\PSoC6\pdl\rtos\FreeRTOS\10.0.1\Source/stream_buffer.c **** 		}
 780:Generated_Source\PSoC6\pdl\rtos\FreeRTOS\10.0.1\Source/stream_buffer.c **** 		else
 781:Generated_Source\PSoC6\pdl\rtos\FreeRTOS\10.0.1\Source/stream_buffer.c **** 		{
 782:Generated_Source\PSoC6\pdl\rtos\FreeRTOS\10.0.1\Source/stream_buffer.c **** 			mtCOVERAGE_TEST_MARKER();
 783:Generated_Source\PSoC6\pdl\rtos\FreeRTOS\10.0.1\Source/stream_buffer.c **** 		}
 784:Generated_Source\PSoC6\pdl\rtos\FreeRTOS\10.0.1\Source/stream_buffer.c **** 	}
 785:Generated_Source\PSoC6\pdl\rtos\FreeRTOS\10.0.1\Source/stream_buffer.c **** 	else
 786:Generated_Source\PSoC6\pdl\rtos\FreeRTOS\10.0.1\Source/stream_buffer.c **** 	{
 787:Generated_Source\PSoC6\pdl\rtos\FreeRTOS\10.0.1\Source/stream_buffer.c **** 		traceSTREAM_BUFFER_RECEIVE_FAILED( xStreamBuffer );
 788:Generated_Source\PSoC6\pdl\rtos\FreeRTOS\10.0.1\Source/stream_buffer.c **** 		mtCOVERAGE_TEST_MARKER();
 789:Generated_Source\PSoC6\pdl\rtos\FreeRTOS\10.0.1\Source/stream_buffer.c **** 	}
 790:Generated_Source\PSoC6\pdl\rtos\FreeRTOS\10.0.1\Source/stream_buffer.c **** 
 791:Generated_Source\PSoC6\pdl\rtos\FreeRTOS\10.0.1\Source/stream_buffer.c **** 	return xReceivedLength;
 792:Generated_Source\PSoC6\pdl\rtos\FreeRTOS\10.0.1\Source/stream_buffer.c **** }
 793:Generated_Source\PSoC6\pdl\rtos\FreeRTOS\10.0.1\Source/stream_buffer.c **** /*-----------------------------------------------------------*/
 794:Generated_Source\PSoC6\pdl\rtos\FreeRTOS\10.0.1\Source/stream_buffer.c **** 
 795:Generated_Source\PSoC6\pdl\rtos\FreeRTOS\10.0.1\Source/stream_buffer.c **** size_t xStreamBufferReceiveFromISR( StreamBufferHandle_t xStreamBuffer,
 796:Generated_Source\PSoC6\pdl\rtos\FreeRTOS\10.0.1\Source/stream_buffer.c **** 									void *pvRxData,
 797:Generated_Source\PSoC6\pdl\rtos\FreeRTOS\10.0.1\Source/stream_buffer.c **** 									size_t xBufferLengthBytes,
 798:Generated_Source\PSoC6\pdl\rtos\FreeRTOS\10.0.1\Source/stream_buffer.c **** 									BaseType_t * const pxHigherPriorityTaskWoken )
 799:Generated_Source\PSoC6\pdl\rtos\FreeRTOS\10.0.1\Source/stream_buffer.c **** {
 800:Generated_Source\PSoC6\pdl\rtos\FreeRTOS\10.0.1\Source/stream_buffer.c **** StreamBuffer_t * const pxStreamBuffer = ( StreamBuffer_t * ) xStreamBuffer; /*lint !e9087 !e9079 Sa
 801:Generated_Source\PSoC6\pdl\rtos\FreeRTOS\10.0.1\Source/stream_buffer.c **** size_t xReceivedLength = 0, xBytesAvailable, xBytesToStoreMessageLength;
 802:Generated_Source\PSoC6\pdl\rtos\FreeRTOS\10.0.1\Source/stream_buffer.c **** 
 803:Generated_Source\PSoC6\pdl\rtos\FreeRTOS\10.0.1\Source/stream_buffer.c **** 	configASSERT( pvRxData );
 804:Generated_Source\PSoC6\pdl\rtos\FreeRTOS\10.0.1\Source/stream_buffer.c **** 	configASSERT( pxStreamBuffer );
 805:Generated_Source\PSoC6\pdl\rtos\FreeRTOS\10.0.1\Source/stream_buffer.c **** 
 806:Generated_Source\PSoC6\pdl\rtos\FreeRTOS\10.0.1\Source/stream_buffer.c **** 	/* This receive function is used by both message buffers, which store
 807:Generated_Source\PSoC6\pdl\rtos\FreeRTOS\10.0.1\Source/stream_buffer.c **** 	discrete messages, and stream buffers, which store a continuous stream of
 808:Generated_Source\PSoC6\pdl\rtos\FreeRTOS\10.0.1\Source/stream_buffer.c **** 	bytes.  Discrete messages include an additional
 809:Generated_Source\PSoC6\pdl\rtos\FreeRTOS\10.0.1\Source/stream_buffer.c **** 	sbBYTES_TO_STORE_MESSAGE_LENGTH bytes that hold the length of the
 810:Generated_Source\PSoC6\pdl\rtos\FreeRTOS\10.0.1\Source/stream_buffer.c **** 	message. */
 811:Generated_Source\PSoC6\pdl\rtos\FreeRTOS\10.0.1\Source/stream_buffer.c **** 	if( ( pxStreamBuffer->ucFlags & sbFLAGS_IS_MESSAGE_BUFFER ) != ( uint8_t ) 0 )
 812:Generated_Source\PSoC6\pdl\rtos\FreeRTOS\10.0.1\Source/stream_buffer.c **** 	{
 813:Generated_Source\PSoC6\pdl\rtos\FreeRTOS\10.0.1\Source/stream_buffer.c **** 		xBytesToStoreMessageLength = sbBYTES_TO_STORE_MESSAGE_LENGTH;
 814:Generated_Source\PSoC6\pdl\rtos\FreeRTOS\10.0.1\Source/stream_buffer.c **** 	}
 815:Generated_Source\PSoC6\pdl\rtos\FreeRTOS\10.0.1\Source/stream_buffer.c **** 	else
 816:Generated_Source\PSoC6\pdl\rtos\FreeRTOS\10.0.1\Source/stream_buffer.c **** 	{
 817:Generated_Source\PSoC6\pdl\rtos\FreeRTOS\10.0.1\Source/stream_buffer.c **** 		xBytesToStoreMessageLength = 0;
 818:Generated_Source\PSoC6\pdl\rtos\FreeRTOS\10.0.1\Source/stream_buffer.c **** 	}
 819:Generated_Source\PSoC6\pdl\rtos\FreeRTOS\10.0.1\Source/stream_buffer.c **** 
 820:Generated_Source\PSoC6\pdl\rtos\FreeRTOS\10.0.1\Source/stream_buffer.c **** 	xBytesAvailable = prvBytesInBuffer( pxStreamBuffer );
 821:Generated_Source\PSoC6\pdl\rtos\FreeRTOS\10.0.1\Source/stream_buffer.c **** 
 822:Generated_Source\PSoC6\pdl\rtos\FreeRTOS\10.0.1\Source/stream_buffer.c **** 	/* Whether receiving a discrete message (where xBytesToStoreMessageLength
 823:Generated_Source\PSoC6\pdl\rtos\FreeRTOS\10.0.1\Source/stream_buffer.c **** 	holds the number of bytes used to store the message length) or a stream of
 824:Generated_Source\PSoC6\pdl\rtos\FreeRTOS\10.0.1\Source/stream_buffer.c **** 	bytes (where xBytesToStoreMessageLength is zero), the number of bytes
 825:Generated_Source\PSoC6\pdl\rtos\FreeRTOS\10.0.1\Source/stream_buffer.c **** 	available must be greater than xBytesToStoreMessageLength to be able to
 826:Generated_Source\PSoC6\pdl\rtos\FreeRTOS\10.0.1\Source/stream_buffer.c **** 	read bytes from the buffer. */
 827:Generated_Source\PSoC6\pdl\rtos\FreeRTOS\10.0.1\Source/stream_buffer.c **** 	if( xBytesAvailable > xBytesToStoreMessageLength )
 828:Generated_Source\PSoC6\pdl\rtos\FreeRTOS\10.0.1\Source/stream_buffer.c **** 	{
ARM GAS  C:\Users\kateb\AppData\Local\Temp\cc9mC3XY.s 			page 16


 829:Generated_Source\PSoC6\pdl\rtos\FreeRTOS\10.0.1\Source/stream_buffer.c **** 		xReceivedLength = prvReadMessageFromBuffer( pxStreamBuffer, pvRxData, xBufferLengthBytes, xBytesA
 830:Generated_Source\PSoC6\pdl\rtos\FreeRTOS\10.0.1\Source/stream_buffer.c **** 
 831:Generated_Source\PSoC6\pdl\rtos\FreeRTOS\10.0.1\Source/stream_buffer.c **** 		/* Was a task waiting for space in the buffer? */
 832:Generated_Source\PSoC6\pdl\rtos\FreeRTOS\10.0.1\Source/stream_buffer.c **** 		if( xReceivedLength != ( size_t ) 0 )
 833:Generated_Source\PSoC6\pdl\rtos\FreeRTOS\10.0.1\Source/stream_buffer.c **** 		{
 834:Generated_Source\PSoC6\pdl\rtos\FreeRTOS\10.0.1\Source/stream_buffer.c **** 			sbRECEIVE_COMPLETED_FROM_ISR( pxStreamBuffer, pxHigherPriorityTaskWoken );
 835:Generated_Source\PSoC6\pdl\rtos\FreeRTOS\10.0.1\Source/stream_buffer.c **** 		}
 836:Generated_Source\PSoC6\pdl\rtos\FreeRTOS\10.0.1\Source/stream_buffer.c **** 		else
 837:Generated_Source\PSoC6\pdl\rtos\FreeRTOS\10.0.1\Source/stream_buffer.c **** 		{
 838:Generated_Source\PSoC6\pdl\rtos\FreeRTOS\10.0.1\Source/stream_buffer.c **** 			mtCOVERAGE_TEST_MARKER();
 839:Generated_Source\PSoC6\pdl\rtos\FreeRTOS\10.0.1\Source/stream_buffer.c **** 		}
 840:Generated_Source\PSoC6\pdl\rtos\FreeRTOS\10.0.1\Source/stream_buffer.c **** 	}
 841:Generated_Source\PSoC6\pdl\rtos\FreeRTOS\10.0.1\Source/stream_buffer.c **** 	else
 842:Generated_Source\PSoC6\pdl\rtos\FreeRTOS\10.0.1\Source/stream_buffer.c **** 	{
 843:Generated_Source\PSoC6\pdl\rtos\FreeRTOS\10.0.1\Source/stream_buffer.c **** 		mtCOVERAGE_TEST_MARKER();
 844:Generated_Source\PSoC6\pdl\rtos\FreeRTOS\10.0.1\Source/stream_buffer.c **** 	}
 845:Generated_Source\PSoC6\pdl\rtos\FreeRTOS\10.0.1\Source/stream_buffer.c **** 
 846:Generated_Source\PSoC6\pdl\rtos\FreeRTOS\10.0.1\Source/stream_buffer.c **** 	traceSTREAM_BUFFER_RECEIVE_FROM_ISR( xStreamBuffer, xReceivedLength );
 847:Generated_Source\PSoC6\pdl\rtos\FreeRTOS\10.0.1\Source/stream_buffer.c **** 
 848:Generated_Source\PSoC6\pdl\rtos\FreeRTOS\10.0.1\Source/stream_buffer.c **** 	return xReceivedLength;
 849:Generated_Source\PSoC6\pdl\rtos\FreeRTOS\10.0.1\Source/stream_buffer.c **** }
 850:Generated_Source\PSoC6\pdl\rtos\FreeRTOS\10.0.1\Source/stream_buffer.c **** /*-----------------------------------------------------------*/
 851:Generated_Source\PSoC6\pdl\rtos\FreeRTOS\10.0.1\Source/stream_buffer.c **** 
 852:Generated_Source\PSoC6\pdl\rtos\FreeRTOS\10.0.1\Source/stream_buffer.c **** static size_t prvReadMessageFromBuffer( StreamBuffer_t *pxStreamBuffer,
 853:Generated_Source\PSoC6\pdl\rtos\FreeRTOS\10.0.1\Source/stream_buffer.c **** 										void *pvRxData,
 854:Generated_Source\PSoC6\pdl\rtos\FreeRTOS\10.0.1\Source/stream_buffer.c **** 										size_t xBufferLengthBytes,
 855:Generated_Source\PSoC6\pdl\rtos\FreeRTOS\10.0.1\Source/stream_buffer.c **** 										size_t xBytesAvailable,
 856:Generated_Source\PSoC6\pdl\rtos\FreeRTOS\10.0.1\Source/stream_buffer.c **** 										size_t xBytesToStoreMessageLength )
 857:Generated_Source\PSoC6\pdl\rtos\FreeRTOS\10.0.1\Source/stream_buffer.c **** {
 858:Generated_Source\PSoC6\pdl\rtos\FreeRTOS\10.0.1\Source/stream_buffer.c **** size_t xOriginalTail, xReceivedLength, xNextMessageLength;
 859:Generated_Source\PSoC6\pdl\rtos\FreeRTOS\10.0.1\Source/stream_buffer.c **** 
 860:Generated_Source\PSoC6\pdl\rtos\FreeRTOS\10.0.1\Source/stream_buffer.c **** 	if( xBytesToStoreMessageLength != ( size_t ) 0 )
 861:Generated_Source\PSoC6\pdl\rtos\FreeRTOS\10.0.1\Source/stream_buffer.c **** 	{
 862:Generated_Source\PSoC6\pdl\rtos\FreeRTOS\10.0.1\Source/stream_buffer.c **** 		/* A discrete message is being received.  First receive the length
 863:Generated_Source\PSoC6\pdl\rtos\FreeRTOS\10.0.1\Source/stream_buffer.c **** 		of the message.  A copy of the tail is stored so the buffer can be
 864:Generated_Source\PSoC6\pdl\rtos\FreeRTOS\10.0.1\Source/stream_buffer.c **** 		returned to its prior state if the length of the message is too
 865:Generated_Source\PSoC6\pdl\rtos\FreeRTOS\10.0.1\Source/stream_buffer.c **** 		large for the provided buffer. */
 866:Generated_Source\PSoC6\pdl\rtos\FreeRTOS\10.0.1\Source/stream_buffer.c **** 		xOriginalTail = pxStreamBuffer->xTail;
 867:Generated_Source\PSoC6\pdl\rtos\FreeRTOS\10.0.1\Source/stream_buffer.c **** 		( void ) prvReadBytesFromBuffer( pxStreamBuffer, ( uint8_t * ) &xNextMessageLength, xBytesToStore
 868:Generated_Source\PSoC6\pdl\rtos\FreeRTOS\10.0.1\Source/stream_buffer.c **** 
 869:Generated_Source\PSoC6\pdl\rtos\FreeRTOS\10.0.1\Source/stream_buffer.c **** 		/* Reduce the number of bytes available by the number of bytes just
 870:Generated_Source\PSoC6\pdl\rtos\FreeRTOS\10.0.1\Source/stream_buffer.c **** 		read out. */
 871:Generated_Source\PSoC6\pdl\rtos\FreeRTOS\10.0.1\Source/stream_buffer.c **** 		xBytesAvailable -= xBytesToStoreMessageLength;
 872:Generated_Source\PSoC6\pdl\rtos\FreeRTOS\10.0.1\Source/stream_buffer.c **** 
 873:Generated_Source\PSoC6\pdl\rtos\FreeRTOS\10.0.1\Source/stream_buffer.c **** 		/* Check there is enough space in the buffer provided by the
 874:Generated_Source\PSoC6\pdl\rtos\FreeRTOS\10.0.1\Source/stream_buffer.c **** 		user. */
 875:Generated_Source\PSoC6\pdl\rtos\FreeRTOS\10.0.1\Source/stream_buffer.c **** 		if( xNextMessageLength > xBufferLengthBytes )
 876:Generated_Source\PSoC6\pdl\rtos\FreeRTOS\10.0.1\Source/stream_buffer.c **** 		{
 877:Generated_Source\PSoC6\pdl\rtos\FreeRTOS\10.0.1\Source/stream_buffer.c **** 			/* The user has provided insufficient space to read the message
 878:Generated_Source\PSoC6\pdl\rtos\FreeRTOS\10.0.1\Source/stream_buffer.c **** 			so return the buffer to its previous state (so the length of
 879:Generated_Source\PSoC6\pdl\rtos\FreeRTOS\10.0.1\Source/stream_buffer.c **** 			the message is in the buffer again). */
 880:Generated_Source\PSoC6\pdl\rtos\FreeRTOS\10.0.1\Source/stream_buffer.c **** 			pxStreamBuffer->xTail = xOriginalTail;
 881:Generated_Source\PSoC6\pdl\rtos\FreeRTOS\10.0.1\Source/stream_buffer.c **** 			xNextMessageLength = 0;
 882:Generated_Source\PSoC6\pdl\rtos\FreeRTOS\10.0.1\Source/stream_buffer.c **** 		}
 883:Generated_Source\PSoC6\pdl\rtos\FreeRTOS\10.0.1\Source/stream_buffer.c **** 		else
 884:Generated_Source\PSoC6\pdl\rtos\FreeRTOS\10.0.1\Source/stream_buffer.c **** 		{
 885:Generated_Source\PSoC6\pdl\rtos\FreeRTOS\10.0.1\Source/stream_buffer.c **** 			mtCOVERAGE_TEST_MARKER();
ARM GAS  C:\Users\kateb\AppData\Local\Temp\cc9mC3XY.s 			page 17


 886:Generated_Source\PSoC6\pdl\rtos\FreeRTOS\10.0.1\Source/stream_buffer.c **** 		}
 887:Generated_Source\PSoC6\pdl\rtos\FreeRTOS\10.0.1\Source/stream_buffer.c **** 	}
 888:Generated_Source\PSoC6\pdl\rtos\FreeRTOS\10.0.1\Source/stream_buffer.c **** 	else
 889:Generated_Source\PSoC6\pdl\rtos\FreeRTOS\10.0.1\Source/stream_buffer.c **** 	{
 890:Generated_Source\PSoC6\pdl\rtos\FreeRTOS\10.0.1\Source/stream_buffer.c **** 		/* A stream of bytes is being received (as opposed to a discrete
 891:Generated_Source\PSoC6\pdl\rtos\FreeRTOS\10.0.1\Source/stream_buffer.c **** 		message), so read as many bytes as possible. */
 892:Generated_Source\PSoC6\pdl\rtos\FreeRTOS\10.0.1\Source/stream_buffer.c **** 		xNextMessageLength = xBufferLengthBytes;
 893:Generated_Source\PSoC6\pdl\rtos\FreeRTOS\10.0.1\Source/stream_buffer.c **** 	}
 894:Generated_Source\PSoC6\pdl\rtos\FreeRTOS\10.0.1\Source/stream_buffer.c **** 
 895:Generated_Source\PSoC6\pdl\rtos\FreeRTOS\10.0.1\Source/stream_buffer.c **** 	/* Read the actual data. */
 896:Generated_Source\PSoC6\pdl\rtos\FreeRTOS\10.0.1\Source/stream_buffer.c **** 	xReceivedLength = prvReadBytesFromBuffer( pxStreamBuffer, ( uint8_t * ) pvRxData, xNextMessageLeng
 897:Generated_Source\PSoC6\pdl\rtos\FreeRTOS\10.0.1\Source/stream_buffer.c **** 
 898:Generated_Source\PSoC6\pdl\rtos\FreeRTOS\10.0.1\Source/stream_buffer.c **** 	return xReceivedLength;
 899:Generated_Source\PSoC6\pdl\rtos\FreeRTOS\10.0.1\Source/stream_buffer.c **** }
 900:Generated_Source\PSoC6\pdl\rtos\FreeRTOS\10.0.1\Source/stream_buffer.c **** /*-----------------------------------------------------------*/
 901:Generated_Source\PSoC6\pdl\rtos\FreeRTOS\10.0.1\Source/stream_buffer.c **** 
 902:Generated_Source\PSoC6\pdl\rtos\FreeRTOS\10.0.1\Source/stream_buffer.c **** BaseType_t xStreamBufferIsEmpty( StreamBufferHandle_t xStreamBuffer )
 903:Generated_Source\PSoC6\pdl\rtos\FreeRTOS\10.0.1\Source/stream_buffer.c **** {
 904:Generated_Source\PSoC6\pdl\rtos\FreeRTOS\10.0.1\Source/stream_buffer.c **** const StreamBuffer_t * const pxStreamBuffer = ( StreamBuffer_t * ) xStreamBuffer; /*lint !e9087 !e9
 905:Generated_Source\PSoC6\pdl\rtos\FreeRTOS\10.0.1\Source/stream_buffer.c **** BaseType_t xReturn;
 906:Generated_Source\PSoC6\pdl\rtos\FreeRTOS\10.0.1\Source/stream_buffer.c **** size_t xTail;
 907:Generated_Source\PSoC6\pdl\rtos\FreeRTOS\10.0.1\Source/stream_buffer.c **** 
 908:Generated_Source\PSoC6\pdl\rtos\FreeRTOS\10.0.1\Source/stream_buffer.c **** 	configASSERT( pxStreamBuffer );
 909:Generated_Source\PSoC6\pdl\rtos\FreeRTOS\10.0.1\Source/stream_buffer.c **** 
 910:Generated_Source\PSoC6\pdl\rtos\FreeRTOS\10.0.1\Source/stream_buffer.c **** 	/* True if no bytes are available. */
 911:Generated_Source\PSoC6\pdl\rtos\FreeRTOS\10.0.1\Source/stream_buffer.c **** 	xTail = pxStreamBuffer->xTail;
 912:Generated_Source\PSoC6\pdl\rtos\FreeRTOS\10.0.1\Source/stream_buffer.c **** 	if( pxStreamBuffer->xHead == xTail )
 913:Generated_Source\PSoC6\pdl\rtos\FreeRTOS\10.0.1\Source/stream_buffer.c **** 	{
 914:Generated_Source\PSoC6\pdl\rtos\FreeRTOS\10.0.1\Source/stream_buffer.c **** 		xReturn = pdTRUE;
 915:Generated_Source\PSoC6\pdl\rtos\FreeRTOS\10.0.1\Source/stream_buffer.c **** 	}
 916:Generated_Source\PSoC6\pdl\rtos\FreeRTOS\10.0.1\Source/stream_buffer.c **** 	else
 917:Generated_Source\PSoC6\pdl\rtos\FreeRTOS\10.0.1\Source/stream_buffer.c **** 	{
 918:Generated_Source\PSoC6\pdl\rtos\FreeRTOS\10.0.1\Source/stream_buffer.c **** 		xReturn = pdFALSE;
 919:Generated_Source\PSoC6\pdl\rtos\FreeRTOS\10.0.1\Source/stream_buffer.c **** 	}
 920:Generated_Source\PSoC6\pdl\rtos\FreeRTOS\10.0.1\Source/stream_buffer.c **** 
 921:Generated_Source\PSoC6\pdl\rtos\FreeRTOS\10.0.1\Source/stream_buffer.c **** 	return xReturn;
 922:Generated_Source\PSoC6\pdl\rtos\FreeRTOS\10.0.1\Source/stream_buffer.c **** }
 923:Generated_Source\PSoC6\pdl\rtos\FreeRTOS\10.0.1\Source/stream_buffer.c **** /*-----------------------------------------------------------*/
 924:Generated_Source\PSoC6\pdl\rtos\FreeRTOS\10.0.1\Source/stream_buffer.c **** 
 925:Generated_Source\PSoC6\pdl\rtos\FreeRTOS\10.0.1\Source/stream_buffer.c **** BaseType_t xStreamBufferIsFull( StreamBufferHandle_t xStreamBuffer )
 926:Generated_Source\PSoC6\pdl\rtos\FreeRTOS\10.0.1\Source/stream_buffer.c **** {
 927:Generated_Source\PSoC6\pdl\rtos\FreeRTOS\10.0.1\Source/stream_buffer.c **** BaseType_t xReturn;
 928:Generated_Source\PSoC6\pdl\rtos\FreeRTOS\10.0.1\Source/stream_buffer.c **** size_t xBytesToStoreMessageLength;
 929:Generated_Source\PSoC6\pdl\rtos\FreeRTOS\10.0.1\Source/stream_buffer.c **** const StreamBuffer_t * const pxStreamBuffer = ( StreamBuffer_t * ) xStreamBuffer; /*lint !e9087 !e9
 930:Generated_Source\PSoC6\pdl\rtos\FreeRTOS\10.0.1\Source/stream_buffer.c **** 
 931:Generated_Source\PSoC6\pdl\rtos\FreeRTOS\10.0.1\Source/stream_buffer.c **** 	configASSERT( pxStreamBuffer );
 932:Generated_Source\PSoC6\pdl\rtos\FreeRTOS\10.0.1\Source/stream_buffer.c **** 
 933:Generated_Source\PSoC6\pdl\rtos\FreeRTOS\10.0.1\Source/stream_buffer.c **** 	/* This generic version of the receive function is used by both message
 934:Generated_Source\PSoC6\pdl\rtos\FreeRTOS\10.0.1\Source/stream_buffer.c **** 	buffers, which store discrete messages, and stream buffers, which store a
 935:Generated_Source\PSoC6\pdl\rtos\FreeRTOS\10.0.1\Source/stream_buffer.c **** 	continuous stream of bytes.  Discrete messages include an additional
 936:Generated_Source\PSoC6\pdl\rtos\FreeRTOS\10.0.1\Source/stream_buffer.c **** 	sbBYTES_TO_STORE_MESSAGE_LENGTH bytes that hold the length of the message. */
 937:Generated_Source\PSoC6\pdl\rtos\FreeRTOS\10.0.1\Source/stream_buffer.c **** 	if( ( pxStreamBuffer->ucFlags & sbFLAGS_IS_MESSAGE_BUFFER ) != ( uint8_t ) 0 )
 938:Generated_Source\PSoC6\pdl\rtos\FreeRTOS\10.0.1\Source/stream_buffer.c **** 	{
 939:Generated_Source\PSoC6\pdl\rtos\FreeRTOS\10.0.1\Source/stream_buffer.c **** 		xBytesToStoreMessageLength = sbBYTES_TO_STORE_MESSAGE_LENGTH;
 940:Generated_Source\PSoC6\pdl\rtos\FreeRTOS\10.0.1\Source/stream_buffer.c **** 	}
 941:Generated_Source\PSoC6\pdl\rtos\FreeRTOS\10.0.1\Source/stream_buffer.c **** 	else
 942:Generated_Source\PSoC6\pdl\rtos\FreeRTOS\10.0.1\Source/stream_buffer.c **** 	{
ARM GAS  C:\Users\kateb\AppData\Local\Temp\cc9mC3XY.s 			page 18


 943:Generated_Source\PSoC6\pdl\rtos\FreeRTOS\10.0.1\Source/stream_buffer.c **** 		xBytesToStoreMessageLength = 0;
 944:Generated_Source\PSoC6\pdl\rtos\FreeRTOS\10.0.1\Source/stream_buffer.c **** 	}
 945:Generated_Source\PSoC6\pdl\rtos\FreeRTOS\10.0.1\Source/stream_buffer.c **** 
 946:Generated_Source\PSoC6\pdl\rtos\FreeRTOS\10.0.1\Source/stream_buffer.c **** 	/* True if the available space equals zero. */
 947:Generated_Source\PSoC6\pdl\rtos\FreeRTOS\10.0.1\Source/stream_buffer.c **** 	if( xStreamBufferSpacesAvailable( xStreamBuffer ) <= xBytesToStoreMessageLength )
 948:Generated_Source\PSoC6\pdl\rtos\FreeRTOS\10.0.1\Source/stream_buffer.c **** 	{
 949:Generated_Source\PSoC6\pdl\rtos\FreeRTOS\10.0.1\Source/stream_buffer.c **** 		xReturn = pdTRUE;
 950:Generated_Source\PSoC6\pdl\rtos\FreeRTOS\10.0.1\Source/stream_buffer.c **** 	}
 951:Generated_Source\PSoC6\pdl\rtos\FreeRTOS\10.0.1\Source/stream_buffer.c **** 	else
 952:Generated_Source\PSoC6\pdl\rtos\FreeRTOS\10.0.1\Source/stream_buffer.c **** 	{
 953:Generated_Source\PSoC6\pdl\rtos\FreeRTOS\10.0.1\Source/stream_buffer.c **** 		xReturn = pdFALSE;
 954:Generated_Source\PSoC6\pdl\rtos\FreeRTOS\10.0.1\Source/stream_buffer.c **** 	}
 955:Generated_Source\PSoC6\pdl\rtos\FreeRTOS\10.0.1\Source/stream_buffer.c **** 
 956:Generated_Source\PSoC6\pdl\rtos\FreeRTOS\10.0.1\Source/stream_buffer.c **** 	return xReturn;
 957:Generated_Source\PSoC6\pdl\rtos\FreeRTOS\10.0.1\Source/stream_buffer.c **** }
 958:Generated_Source\PSoC6\pdl\rtos\FreeRTOS\10.0.1\Source/stream_buffer.c **** /*-----------------------------------------------------------*/
 959:Generated_Source\PSoC6\pdl\rtos\FreeRTOS\10.0.1\Source/stream_buffer.c **** 
 960:Generated_Source\PSoC6\pdl\rtos\FreeRTOS\10.0.1\Source/stream_buffer.c **** BaseType_t xStreamBufferSendCompletedFromISR( StreamBufferHandle_t xStreamBuffer, BaseType_t *pxHig
 961:Generated_Source\PSoC6\pdl\rtos\FreeRTOS\10.0.1\Source/stream_buffer.c **** {
 962:Generated_Source\PSoC6\pdl\rtos\FreeRTOS\10.0.1\Source/stream_buffer.c **** StreamBuffer_t * const pxStreamBuffer = ( StreamBuffer_t * ) xStreamBuffer; /*lint !e9087 !e9079 Sa
 963:Generated_Source\PSoC6\pdl\rtos\FreeRTOS\10.0.1\Source/stream_buffer.c **** BaseType_t xReturn;
 964:Generated_Source\PSoC6\pdl\rtos\FreeRTOS\10.0.1\Source/stream_buffer.c **** UBaseType_t uxSavedInterruptStatus;
 965:Generated_Source\PSoC6\pdl\rtos\FreeRTOS\10.0.1\Source/stream_buffer.c **** 
 966:Generated_Source\PSoC6\pdl\rtos\FreeRTOS\10.0.1\Source/stream_buffer.c **** 	configASSERT( pxStreamBuffer );
 967:Generated_Source\PSoC6\pdl\rtos\FreeRTOS\10.0.1\Source/stream_buffer.c **** 
 968:Generated_Source\PSoC6\pdl\rtos\FreeRTOS\10.0.1\Source/stream_buffer.c **** 	uxSavedInterruptStatus = ( UBaseType_t ) portSET_INTERRUPT_MASK_FROM_ISR();
 969:Generated_Source\PSoC6\pdl\rtos\FreeRTOS\10.0.1\Source/stream_buffer.c **** 	{
 970:Generated_Source\PSoC6\pdl\rtos\FreeRTOS\10.0.1\Source/stream_buffer.c **** 		if( ( pxStreamBuffer )->xTaskWaitingToReceive != NULL )
 971:Generated_Source\PSoC6\pdl\rtos\FreeRTOS\10.0.1\Source/stream_buffer.c **** 		{
 972:Generated_Source\PSoC6\pdl\rtos\FreeRTOS\10.0.1\Source/stream_buffer.c **** 			( void ) xTaskNotifyFromISR( ( pxStreamBuffer )->xTaskWaitingToReceive,
 973:Generated_Source\PSoC6\pdl\rtos\FreeRTOS\10.0.1\Source/stream_buffer.c **** 										 ( uint32_t ) 0,
 974:Generated_Source\PSoC6\pdl\rtos\FreeRTOS\10.0.1\Source/stream_buffer.c **** 										 eNoAction,
 975:Generated_Source\PSoC6\pdl\rtos\FreeRTOS\10.0.1\Source/stream_buffer.c **** 										 pxHigherPriorityTaskWoken );
 976:Generated_Source\PSoC6\pdl\rtos\FreeRTOS\10.0.1\Source/stream_buffer.c **** 			( pxStreamBuffer )->xTaskWaitingToReceive = NULL;
 977:Generated_Source\PSoC6\pdl\rtos\FreeRTOS\10.0.1\Source/stream_buffer.c **** 			xReturn = pdTRUE;
 978:Generated_Source\PSoC6\pdl\rtos\FreeRTOS\10.0.1\Source/stream_buffer.c **** 		}
 979:Generated_Source\PSoC6\pdl\rtos\FreeRTOS\10.0.1\Source/stream_buffer.c **** 		else
 980:Generated_Source\PSoC6\pdl\rtos\FreeRTOS\10.0.1\Source/stream_buffer.c **** 		{
 981:Generated_Source\PSoC6\pdl\rtos\FreeRTOS\10.0.1\Source/stream_buffer.c **** 			xReturn = pdFALSE;
 982:Generated_Source\PSoC6\pdl\rtos\FreeRTOS\10.0.1\Source/stream_buffer.c **** 		}
 983:Generated_Source\PSoC6\pdl\rtos\FreeRTOS\10.0.1\Source/stream_buffer.c **** 	}
 984:Generated_Source\PSoC6\pdl\rtos\FreeRTOS\10.0.1\Source/stream_buffer.c **** 	portCLEAR_INTERRUPT_MASK_FROM_ISR( uxSavedInterruptStatus );
 985:Generated_Source\PSoC6\pdl\rtos\FreeRTOS\10.0.1\Source/stream_buffer.c **** 
 986:Generated_Source\PSoC6\pdl\rtos\FreeRTOS\10.0.1\Source/stream_buffer.c **** 	return xReturn;
 987:Generated_Source\PSoC6\pdl\rtos\FreeRTOS\10.0.1\Source/stream_buffer.c **** }
 988:Generated_Source\PSoC6\pdl\rtos\FreeRTOS\10.0.1\Source/stream_buffer.c **** /*-----------------------------------------------------------*/
 989:Generated_Source\PSoC6\pdl\rtos\FreeRTOS\10.0.1\Source/stream_buffer.c **** 
 990:Generated_Source\PSoC6\pdl\rtos\FreeRTOS\10.0.1\Source/stream_buffer.c **** BaseType_t xStreamBufferReceiveCompletedFromISR( StreamBufferHandle_t xStreamBuffer, BaseType_t *px
 991:Generated_Source\PSoC6\pdl\rtos\FreeRTOS\10.0.1\Source/stream_buffer.c **** {
 992:Generated_Source\PSoC6\pdl\rtos\FreeRTOS\10.0.1\Source/stream_buffer.c **** StreamBuffer_t * const pxStreamBuffer = ( StreamBuffer_t * ) xStreamBuffer; /*lint !e9087 !e9079 Sa
 993:Generated_Source\PSoC6\pdl\rtos\FreeRTOS\10.0.1\Source/stream_buffer.c **** BaseType_t xReturn;
 994:Generated_Source\PSoC6\pdl\rtos\FreeRTOS\10.0.1\Source/stream_buffer.c **** UBaseType_t uxSavedInterruptStatus;
 995:Generated_Source\PSoC6\pdl\rtos\FreeRTOS\10.0.1\Source/stream_buffer.c **** 
 996:Generated_Source\PSoC6\pdl\rtos\FreeRTOS\10.0.1\Source/stream_buffer.c **** 	configASSERT( pxStreamBuffer );
 997:Generated_Source\PSoC6\pdl\rtos\FreeRTOS\10.0.1\Source/stream_buffer.c **** 
 998:Generated_Source\PSoC6\pdl\rtos\FreeRTOS\10.0.1\Source/stream_buffer.c **** 	uxSavedInterruptStatus = ( UBaseType_t ) portSET_INTERRUPT_MASK_FROM_ISR();
 999:Generated_Source\PSoC6\pdl\rtos\FreeRTOS\10.0.1\Source/stream_buffer.c **** 	{
ARM GAS  C:\Users\kateb\AppData\Local\Temp\cc9mC3XY.s 			page 19


1000:Generated_Source\PSoC6\pdl\rtos\FreeRTOS\10.0.1\Source/stream_buffer.c **** 		if( ( pxStreamBuffer )->xTaskWaitingToSend != NULL )
1001:Generated_Source\PSoC6\pdl\rtos\FreeRTOS\10.0.1\Source/stream_buffer.c **** 		{
1002:Generated_Source\PSoC6\pdl\rtos\FreeRTOS\10.0.1\Source/stream_buffer.c **** 			( void ) xTaskNotifyFromISR( ( pxStreamBuffer )->xTaskWaitingToSend,
1003:Generated_Source\PSoC6\pdl\rtos\FreeRTOS\10.0.1\Source/stream_buffer.c **** 										 ( uint32_t ) 0,
1004:Generated_Source\PSoC6\pdl\rtos\FreeRTOS\10.0.1\Source/stream_buffer.c **** 										 eNoAction,
1005:Generated_Source\PSoC6\pdl\rtos\FreeRTOS\10.0.1\Source/stream_buffer.c **** 										 pxHigherPriorityTaskWoken );
1006:Generated_Source\PSoC6\pdl\rtos\FreeRTOS\10.0.1\Source/stream_buffer.c **** 			( pxStreamBuffer )->xTaskWaitingToSend = NULL;
1007:Generated_Source\PSoC6\pdl\rtos\FreeRTOS\10.0.1\Source/stream_buffer.c **** 			xReturn = pdTRUE;
1008:Generated_Source\PSoC6\pdl\rtos\FreeRTOS\10.0.1\Source/stream_buffer.c **** 		}
1009:Generated_Source\PSoC6\pdl\rtos\FreeRTOS\10.0.1\Source/stream_buffer.c **** 		else
1010:Generated_Source\PSoC6\pdl\rtos\FreeRTOS\10.0.1\Source/stream_buffer.c **** 		{
1011:Generated_Source\PSoC6\pdl\rtos\FreeRTOS\10.0.1\Source/stream_buffer.c **** 			xReturn = pdFALSE;
1012:Generated_Source\PSoC6\pdl\rtos\FreeRTOS\10.0.1\Source/stream_buffer.c **** 		}
1013:Generated_Source\PSoC6\pdl\rtos\FreeRTOS\10.0.1\Source/stream_buffer.c **** 	}
1014:Generated_Source\PSoC6\pdl\rtos\FreeRTOS\10.0.1\Source/stream_buffer.c **** 	portCLEAR_INTERRUPT_MASK_FROM_ISR( uxSavedInterruptStatus );
1015:Generated_Source\PSoC6\pdl\rtos\FreeRTOS\10.0.1\Source/stream_buffer.c **** 
1016:Generated_Source\PSoC6\pdl\rtos\FreeRTOS\10.0.1\Source/stream_buffer.c **** 	return xReturn;
1017:Generated_Source\PSoC6\pdl\rtos\FreeRTOS\10.0.1\Source/stream_buffer.c **** }
1018:Generated_Source\PSoC6\pdl\rtos\FreeRTOS\10.0.1\Source/stream_buffer.c **** /*-----------------------------------------------------------*/
1019:Generated_Source\PSoC6\pdl\rtos\FreeRTOS\10.0.1\Source/stream_buffer.c **** 
1020:Generated_Source\PSoC6\pdl\rtos\FreeRTOS\10.0.1\Source/stream_buffer.c **** static size_t prvWriteBytesToBuffer( StreamBuffer_t * const pxStreamBuffer, const uint8_t *pucData,
1021:Generated_Source\PSoC6\pdl\rtos\FreeRTOS\10.0.1\Source/stream_buffer.c **** {
1022:Generated_Source\PSoC6\pdl\rtos\FreeRTOS\10.0.1\Source/stream_buffer.c **** size_t xNextHead, xFirstLength;
1023:Generated_Source\PSoC6\pdl\rtos\FreeRTOS\10.0.1\Source/stream_buffer.c **** 
1024:Generated_Source\PSoC6\pdl\rtos\FreeRTOS\10.0.1\Source/stream_buffer.c **** 	configASSERT( xCount > ( size_t ) 0 );
1025:Generated_Source\PSoC6\pdl\rtos\FreeRTOS\10.0.1\Source/stream_buffer.c **** 
1026:Generated_Source\PSoC6\pdl\rtos\FreeRTOS\10.0.1\Source/stream_buffer.c **** 	xNextHead = pxStreamBuffer->xHead;
1027:Generated_Source\PSoC6\pdl\rtos\FreeRTOS\10.0.1\Source/stream_buffer.c **** 
1028:Generated_Source\PSoC6\pdl\rtos\FreeRTOS\10.0.1\Source/stream_buffer.c **** 	/* Calculate the number of bytes that can be added in the first write -
1029:Generated_Source\PSoC6\pdl\rtos\FreeRTOS\10.0.1\Source/stream_buffer.c **** 	which may be less than the total number of bytes that need to be added if
1030:Generated_Source\PSoC6\pdl\rtos\FreeRTOS\10.0.1\Source/stream_buffer.c **** 	the buffer will wrap back to the beginning. */
1031:Generated_Source\PSoC6\pdl\rtos\FreeRTOS\10.0.1\Source/stream_buffer.c **** 	xFirstLength = configMIN( pxStreamBuffer->xLength - xNextHead, xCount );
1032:Generated_Source\PSoC6\pdl\rtos\FreeRTOS\10.0.1\Source/stream_buffer.c **** 
1033:Generated_Source\PSoC6\pdl\rtos\FreeRTOS\10.0.1\Source/stream_buffer.c **** 	/* Write as many bytes as can be written in the first write. */
1034:Generated_Source\PSoC6\pdl\rtos\FreeRTOS\10.0.1\Source/stream_buffer.c **** 	configASSERT( ( xNextHead + xFirstLength ) <= pxStreamBuffer->xLength );
1035:Generated_Source\PSoC6\pdl\rtos\FreeRTOS\10.0.1\Source/stream_buffer.c **** 	memcpy( ( void* ) ( &( pxStreamBuffer->pucBuffer[ xNextHead ] ) ), ( const void * ) pucData, xFirs
1036:Generated_Source\PSoC6\pdl\rtos\FreeRTOS\10.0.1\Source/stream_buffer.c **** 
1037:Generated_Source\PSoC6\pdl\rtos\FreeRTOS\10.0.1\Source/stream_buffer.c **** 	/* If the number of bytes written was less than the number that could be
1038:Generated_Source\PSoC6\pdl\rtos\FreeRTOS\10.0.1\Source/stream_buffer.c **** 	written in the first write... */
1039:Generated_Source\PSoC6\pdl\rtos\FreeRTOS\10.0.1\Source/stream_buffer.c **** 	if( xCount > xFirstLength )
1040:Generated_Source\PSoC6\pdl\rtos\FreeRTOS\10.0.1\Source/stream_buffer.c **** 	{
1041:Generated_Source\PSoC6\pdl\rtos\FreeRTOS\10.0.1\Source/stream_buffer.c **** 		/* ...then write the remaining bytes to the start of the buffer. */
1042:Generated_Source\PSoC6\pdl\rtos\FreeRTOS\10.0.1\Source/stream_buffer.c **** 		configASSERT( ( xCount - xFirstLength ) <= pxStreamBuffer->xLength );
1043:Generated_Source\PSoC6\pdl\rtos\FreeRTOS\10.0.1\Source/stream_buffer.c **** 		memcpy( ( void * ) pxStreamBuffer->pucBuffer, ( const void * ) &( pucData[ xFirstLength ] ), xCou
1044:Generated_Source\PSoC6\pdl\rtos\FreeRTOS\10.0.1\Source/stream_buffer.c **** 	}
1045:Generated_Source\PSoC6\pdl\rtos\FreeRTOS\10.0.1\Source/stream_buffer.c **** 	else
1046:Generated_Source\PSoC6\pdl\rtos\FreeRTOS\10.0.1\Source/stream_buffer.c **** 	{
1047:Generated_Source\PSoC6\pdl\rtos\FreeRTOS\10.0.1\Source/stream_buffer.c **** 		mtCOVERAGE_TEST_MARKER();
1048:Generated_Source\PSoC6\pdl\rtos\FreeRTOS\10.0.1\Source/stream_buffer.c **** 	}
1049:Generated_Source\PSoC6\pdl\rtos\FreeRTOS\10.0.1\Source/stream_buffer.c **** 
1050:Generated_Source\PSoC6\pdl\rtos\FreeRTOS\10.0.1\Source/stream_buffer.c **** 	xNextHead += xCount;
1051:Generated_Source\PSoC6\pdl\rtos\FreeRTOS\10.0.1\Source/stream_buffer.c **** 	if( xNextHead >= pxStreamBuffer->xLength )
1052:Generated_Source\PSoC6\pdl\rtos\FreeRTOS\10.0.1\Source/stream_buffer.c **** 	{
1053:Generated_Source\PSoC6\pdl\rtos\FreeRTOS\10.0.1\Source/stream_buffer.c **** 		xNextHead -= pxStreamBuffer->xLength;
1054:Generated_Source\PSoC6\pdl\rtos\FreeRTOS\10.0.1\Source/stream_buffer.c **** 	}
1055:Generated_Source\PSoC6\pdl\rtos\FreeRTOS\10.0.1\Source/stream_buffer.c **** 	else
1056:Generated_Source\PSoC6\pdl\rtos\FreeRTOS\10.0.1\Source/stream_buffer.c **** 	{
ARM GAS  C:\Users\kateb\AppData\Local\Temp\cc9mC3XY.s 			page 20


1057:Generated_Source\PSoC6\pdl\rtos\FreeRTOS\10.0.1\Source/stream_buffer.c **** 		mtCOVERAGE_TEST_MARKER();
1058:Generated_Source\PSoC6\pdl\rtos\FreeRTOS\10.0.1\Source/stream_buffer.c **** 	}
1059:Generated_Source\PSoC6\pdl\rtos\FreeRTOS\10.0.1\Source/stream_buffer.c **** 
1060:Generated_Source\PSoC6\pdl\rtos\FreeRTOS\10.0.1\Source/stream_buffer.c **** 	pxStreamBuffer->xHead = xNextHead;
1061:Generated_Source\PSoC6\pdl\rtos\FreeRTOS\10.0.1\Source/stream_buffer.c **** 
1062:Generated_Source\PSoC6\pdl\rtos\FreeRTOS\10.0.1\Source/stream_buffer.c **** 	return xCount;
1063:Generated_Source\PSoC6\pdl\rtos\FreeRTOS\10.0.1\Source/stream_buffer.c **** }
1064:Generated_Source\PSoC6\pdl\rtos\FreeRTOS\10.0.1\Source/stream_buffer.c **** /*-----------------------------------------------------------*/
1065:Generated_Source\PSoC6\pdl\rtos\FreeRTOS\10.0.1\Source/stream_buffer.c **** 
1066:Generated_Source\PSoC6\pdl\rtos\FreeRTOS\10.0.1\Source/stream_buffer.c **** static size_t prvReadBytesFromBuffer( StreamBuffer_t *pxStreamBuffer, uint8_t *pucData, size_t xMax
1067:Generated_Source\PSoC6\pdl\rtos\FreeRTOS\10.0.1\Source/stream_buffer.c **** {
1068:Generated_Source\PSoC6\pdl\rtos\FreeRTOS\10.0.1\Source/stream_buffer.c **** size_t xCount, xFirstLength, xNextTail;
1069:Generated_Source\PSoC6\pdl\rtos\FreeRTOS\10.0.1\Source/stream_buffer.c **** 
1070:Generated_Source\PSoC6\pdl\rtos\FreeRTOS\10.0.1\Source/stream_buffer.c **** 	/* Use the minimum of the wanted bytes and the available bytes. */
1071:Generated_Source\PSoC6\pdl\rtos\FreeRTOS\10.0.1\Source/stream_buffer.c **** 	xCount = configMIN( xBytesAvailable, xMaxCount );
1072:Generated_Source\PSoC6\pdl\rtos\FreeRTOS\10.0.1\Source/stream_buffer.c **** 
1073:Generated_Source\PSoC6\pdl\rtos\FreeRTOS\10.0.1\Source/stream_buffer.c **** 	if( xCount > ( size_t ) 0 )
1074:Generated_Source\PSoC6\pdl\rtos\FreeRTOS\10.0.1\Source/stream_buffer.c **** 	{
1075:Generated_Source\PSoC6\pdl\rtos\FreeRTOS\10.0.1\Source/stream_buffer.c **** 		xNextTail = pxStreamBuffer->xTail;
1076:Generated_Source\PSoC6\pdl\rtos\FreeRTOS\10.0.1\Source/stream_buffer.c **** 
1077:Generated_Source\PSoC6\pdl\rtos\FreeRTOS\10.0.1\Source/stream_buffer.c **** 		/* Calculate the number of bytes that can be read - which may be
1078:Generated_Source\PSoC6\pdl\rtos\FreeRTOS\10.0.1\Source/stream_buffer.c **** 		less than the number wanted if the data wraps around to the start of
1079:Generated_Source\PSoC6\pdl\rtos\FreeRTOS\10.0.1\Source/stream_buffer.c **** 		the buffer. */
1080:Generated_Source\PSoC6\pdl\rtos\FreeRTOS\10.0.1\Source/stream_buffer.c **** 		xFirstLength = configMIN( pxStreamBuffer->xLength - xNextTail, xCount );
1081:Generated_Source\PSoC6\pdl\rtos\FreeRTOS\10.0.1\Source/stream_buffer.c **** 
1082:Generated_Source\PSoC6\pdl\rtos\FreeRTOS\10.0.1\Source/stream_buffer.c **** 		/* Obtain the number of bytes it is possible to obtain in the first
1083:Generated_Source\PSoC6\pdl\rtos\FreeRTOS\10.0.1\Source/stream_buffer.c **** 		read.  Asserts check bounds of read and write. */
1084:Generated_Source\PSoC6\pdl\rtos\FreeRTOS\10.0.1\Source/stream_buffer.c **** 		configASSERT( xFirstLength <= xMaxCount );
1085:Generated_Source\PSoC6\pdl\rtos\FreeRTOS\10.0.1\Source/stream_buffer.c **** 		configASSERT( ( xNextTail + xFirstLength ) <= pxStreamBuffer->xLength );
1086:Generated_Source\PSoC6\pdl\rtos\FreeRTOS\10.0.1\Source/stream_buffer.c **** 		memcpy( ( void * ) pucData, ( const void * ) &( pxStreamBuffer->pucBuffer[ xNextTail ] ), xFirstL
1087:Generated_Source\PSoC6\pdl\rtos\FreeRTOS\10.0.1\Source/stream_buffer.c **** 
1088:Generated_Source\PSoC6\pdl\rtos\FreeRTOS\10.0.1\Source/stream_buffer.c **** 		/* If the total number of wanted bytes is greater than the number
1089:Generated_Source\PSoC6\pdl\rtos\FreeRTOS\10.0.1\Source/stream_buffer.c **** 		that could be read in the first read... */
1090:Generated_Source\PSoC6\pdl\rtos\FreeRTOS\10.0.1\Source/stream_buffer.c **** 		if( xCount > xFirstLength )
1091:Generated_Source\PSoC6\pdl\rtos\FreeRTOS\10.0.1\Source/stream_buffer.c **** 		{
1092:Generated_Source\PSoC6\pdl\rtos\FreeRTOS\10.0.1\Source/stream_buffer.c **** 			/*...then read the remaining bytes from the start of the buffer. */
1093:Generated_Source\PSoC6\pdl\rtos\FreeRTOS\10.0.1\Source/stream_buffer.c **** 			configASSERT( xCount <= xMaxCount );
1094:Generated_Source\PSoC6\pdl\rtos\FreeRTOS\10.0.1\Source/stream_buffer.c **** 			memcpy( ( void * ) &( pucData[ xFirstLength ] ), ( void * ) ( pxStreamBuffer->pucBuffer ), xCoun
1095:Generated_Source\PSoC6\pdl\rtos\FreeRTOS\10.0.1\Source/stream_buffer.c **** 		}
1096:Generated_Source\PSoC6\pdl\rtos\FreeRTOS\10.0.1\Source/stream_buffer.c **** 		else
1097:Generated_Source\PSoC6\pdl\rtos\FreeRTOS\10.0.1\Source/stream_buffer.c **** 		{
1098:Generated_Source\PSoC6\pdl\rtos\FreeRTOS\10.0.1\Source/stream_buffer.c **** 			mtCOVERAGE_TEST_MARKER();
1099:Generated_Source\PSoC6\pdl\rtos\FreeRTOS\10.0.1\Source/stream_buffer.c **** 		}
1100:Generated_Source\PSoC6\pdl\rtos\FreeRTOS\10.0.1\Source/stream_buffer.c **** 
1101:Generated_Source\PSoC6\pdl\rtos\FreeRTOS\10.0.1\Source/stream_buffer.c **** 		/* Move the tail pointer to effectively remove the data read from
1102:Generated_Source\PSoC6\pdl\rtos\FreeRTOS\10.0.1\Source/stream_buffer.c **** 		the buffer. */
1103:Generated_Source\PSoC6\pdl\rtos\FreeRTOS\10.0.1\Source/stream_buffer.c **** 		xNextTail += xCount;
1104:Generated_Source\PSoC6\pdl\rtos\FreeRTOS\10.0.1\Source/stream_buffer.c **** 
1105:Generated_Source\PSoC6\pdl\rtos\FreeRTOS\10.0.1\Source/stream_buffer.c **** 		if( xNextTail >= pxStreamBuffer->xLength )
1106:Generated_Source\PSoC6\pdl\rtos\FreeRTOS\10.0.1\Source/stream_buffer.c **** 		{
1107:Generated_Source\PSoC6\pdl\rtos\FreeRTOS\10.0.1\Source/stream_buffer.c **** 			xNextTail -= pxStreamBuffer->xLength;
1108:Generated_Source\PSoC6\pdl\rtos\FreeRTOS\10.0.1\Source/stream_buffer.c **** 		}
1109:Generated_Source\PSoC6\pdl\rtos\FreeRTOS\10.0.1\Source/stream_buffer.c **** 
1110:Generated_Source\PSoC6\pdl\rtos\FreeRTOS\10.0.1\Source/stream_buffer.c **** 		pxStreamBuffer->xTail = xNextTail;
1111:Generated_Source\PSoC6\pdl\rtos\FreeRTOS\10.0.1\Source/stream_buffer.c **** 	}
1112:Generated_Source\PSoC6\pdl\rtos\FreeRTOS\10.0.1\Source/stream_buffer.c **** 	else
1113:Generated_Source\PSoC6\pdl\rtos\FreeRTOS\10.0.1\Source/stream_buffer.c **** 	{
ARM GAS  C:\Users\kateb\AppData\Local\Temp\cc9mC3XY.s 			page 21


1114:Generated_Source\PSoC6\pdl\rtos\FreeRTOS\10.0.1\Source/stream_buffer.c **** 		mtCOVERAGE_TEST_MARKER();
1115:Generated_Source\PSoC6\pdl\rtos\FreeRTOS\10.0.1\Source/stream_buffer.c **** 	}
1116:Generated_Source\PSoC6\pdl\rtos\FreeRTOS\10.0.1\Source/stream_buffer.c **** 
1117:Generated_Source\PSoC6\pdl\rtos\FreeRTOS\10.0.1\Source/stream_buffer.c **** 	return xCount;
1118:Generated_Source\PSoC6\pdl\rtos\FreeRTOS\10.0.1\Source/stream_buffer.c **** }
1119:Generated_Source\PSoC6\pdl\rtos\FreeRTOS\10.0.1\Source/stream_buffer.c **** /*-----------------------------------------------------------*/
1120:Generated_Source\PSoC6\pdl\rtos\FreeRTOS\10.0.1\Source/stream_buffer.c **** 
1121:Generated_Source\PSoC6\pdl\rtos\FreeRTOS\10.0.1\Source/stream_buffer.c **** static size_t prvBytesInBuffer( const StreamBuffer_t * const pxStreamBuffer )
1122:Generated_Source\PSoC6\pdl\rtos\FreeRTOS\10.0.1\Source/stream_buffer.c **** {
  28              		.loc 1 1122 0
  29              		.cfi_startproc
  30              		@ args = 0, pretend = 0, frame = 0
  31              		@ frame_needed = 0, uses_anonymous_args = 0
  32              		@ link register save eliminated.
  33              	.LVL0:
1123:Generated_Source\PSoC6\pdl\rtos\FreeRTOS\10.0.1\Source/stream_buffer.c **** /* Returns the distance between xTail and xHead. */
1124:Generated_Source\PSoC6\pdl\rtos\FreeRTOS\10.0.1\Source/stream_buffer.c **** size_t xCount;
1125:Generated_Source\PSoC6\pdl\rtos\FreeRTOS\10.0.1\Source/stream_buffer.c **** 
1126:Generated_Source\PSoC6\pdl\rtos\FreeRTOS\10.0.1\Source/stream_buffer.c **** 	xCount = pxStreamBuffer->xLength + pxStreamBuffer->xHead;
  34              		.loc 1 1126 0
  35 0000 8268     		ldr	r2, [r0, #8]
  36 0002 4368     		ldr	r3, [r0, #4]
  37 0004 1344     		add	r3, r3, r2
  38              	.LVL1:
1127:Generated_Source\PSoC6\pdl\rtos\FreeRTOS\10.0.1\Source/stream_buffer.c **** 	xCount -= pxStreamBuffer->xTail;
  39              		.loc 1 1127 0
  40 0006 0068     		ldr	r0, [r0]
  41              	.LVL2:
  42 0008 181A     		subs	r0, r3, r0
  43              	.LVL3:
1128:Generated_Source\PSoC6\pdl\rtos\FreeRTOS\10.0.1\Source/stream_buffer.c **** 	if ( xCount >= pxStreamBuffer->xLength )
  44              		.loc 1 1128 0
  45 000a 8242     		cmp	r2, r0
  46 000c 00D8     		bhi	.L2
1129:Generated_Source\PSoC6\pdl\rtos\FreeRTOS\10.0.1\Source/stream_buffer.c **** 	{
1130:Generated_Source\PSoC6\pdl\rtos\FreeRTOS\10.0.1\Source/stream_buffer.c **** 		xCount -= pxStreamBuffer->xLength;
  47              		.loc 1 1130 0
  48 000e 801A     		subs	r0, r0, r2
  49              	.LVL4:
  50              	.L2:
1131:Generated_Source\PSoC6\pdl\rtos\FreeRTOS\10.0.1\Source/stream_buffer.c **** 	}
1132:Generated_Source\PSoC6\pdl\rtos\FreeRTOS\10.0.1\Source/stream_buffer.c **** 	else
1133:Generated_Source\PSoC6\pdl\rtos\FreeRTOS\10.0.1\Source/stream_buffer.c **** 	{
1134:Generated_Source\PSoC6\pdl\rtos\FreeRTOS\10.0.1\Source/stream_buffer.c **** 		mtCOVERAGE_TEST_MARKER();
1135:Generated_Source\PSoC6\pdl\rtos\FreeRTOS\10.0.1\Source/stream_buffer.c **** 	}
1136:Generated_Source\PSoC6\pdl\rtos\FreeRTOS\10.0.1\Source/stream_buffer.c **** 
1137:Generated_Source\PSoC6\pdl\rtos\FreeRTOS\10.0.1\Source/stream_buffer.c **** 	return xCount;
1138:Generated_Source\PSoC6\pdl\rtos\FreeRTOS\10.0.1\Source/stream_buffer.c **** }
  51              		.loc 1 1138 0
  52 0010 7047     		bx	lr
  53              		.cfi_endproc
  54              	.LFE613:
  55              		.size	prvBytesInBuffer, .-prvBytesInBuffer
  56 0012 00BF     		.section	.text.prvInitialiseNewStreamBuffer,"ax",%progbits
  57              		.align	2
  58              		.thumb
  59              		.thumb_func
ARM GAS  C:\Users\kateb\AppData\Local\Temp\cc9mC3XY.s 			page 22


  60              		.type	prvInitialiseNewStreamBuffer, %function
  61              	prvInitialiseNewStreamBuffer:
  62              	.LFB614:
1139:Generated_Source\PSoC6\pdl\rtos\FreeRTOS\10.0.1\Source/stream_buffer.c **** /*-----------------------------------------------------------*/
1140:Generated_Source\PSoC6\pdl\rtos\FreeRTOS\10.0.1\Source/stream_buffer.c **** 
1141:Generated_Source\PSoC6\pdl\rtos\FreeRTOS\10.0.1\Source/stream_buffer.c **** static void prvInitialiseNewStreamBuffer( StreamBuffer_t * const pxStreamBuffer,
1142:Generated_Source\PSoC6\pdl\rtos\FreeRTOS\10.0.1\Source/stream_buffer.c **** 										  uint8_t * const pucBuffer,
1143:Generated_Source\PSoC6\pdl\rtos\FreeRTOS\10.0.1\Source/stream_buffer.c **** 										  size_t xBufferSizeBytes,
1144:Generated_Source\PSoC6\pdl\rtos\FreeRTOS\10.0.1\Source/stream_buffer.c **** 										  size_t xTriggerLevelBytes,
1145:Generated_Source\PSoC6\pdl\rtos\FreeRTOS\10.0.1\Source/stream_buffer.c **** 										  BaseType_t xIsMessageBuffer )
1146:Generated_Source\PSoC6\pdl\rtos\FreeRTOS\10.0.1\Source/stream_buffer.c **** {
  63              		.loc 1 1146 0
  64              		.cfi_startproc
  65              		@ args = 4, pretend = 0, frame = 0
  66              		@ frame_needed = 0, uses_anonymous_args = 0
  67              	.LVL5:
  68 0000 F8B5     		push	{r3, r4, r5, r6, r7, lr}
  69              		.cfi_def_cfa_offset 24
  70              		.cfi_offset 3, -24
  71              		.cfi_offset 4, -20
  72              		.cfi_offset 5, -16
  73              		.cfi_offset 6, -12
  74              		.cfi_offset 7, -8
  75              		.cfi_offset 14, -4
  76 0002 0446     		mov	r4, r0
  77 0004 0D46     		mov	r5, r1
  78 0006 1646     		mov	r6, r2
  79 0008 1F46     		mov	r7, r3
  80              	.LVL6:
  81              	.LBB77:
1147:Generated_Source\PSoC6\pdl\rtos\FreeRTOS\10.0.1\Source/stream_buffer.c **** 	/* Assert here is deliberately writing to the entire buffer to ensure it can
1148:Generated_Source\PSoC6\pdl\rtos\FreeRTOS\10.0.1\Source/stream_buffer.c **** 	be written to without generating exceptions, and is setting the buffer to a
1149:Generated_Source\PSoC6\pdl\rtos\FreeRTOS\10.0.1\Source/stream_buffer.c **** 	known value to assist in development/debugging. */
1150:Generated_Source\PSoC6\pdl\rtos\FreeRTOS\10.0.1\Source/stream_buffer.c **** 	#if( configASSERT_DEFINED == 1 )
1151:Generated_Source\PSoC6\pdl\rtos\FreeRTOS\10.0.1\Source/stream_buffer.c **** 	{
1152:Generated_Source\PSoC6\pdl\rtos\FreeRTOS\10.0.1\Source/stream_buffer.c **** 		/* The value written just has to be identifiable when looking at the
1153:Generated_Source\PSoC6\pdl\rtos\FreeRTOS\10.0.1\Source/stream_buffer.c **** 		memory.  Don't use 0xA5 as that is the stack fill value and could
1154:Generated_Source\PSoC6\pdl\rtos\FreeRTOS\10.0.1\Source/stream_buffer.c **** 		result in confusion as to what is actually being observed. */
1155:Generated_Source\PSoC6\pdl\rtos\FreeRTOS\10.0.1\Source/stream_buffer.c **** 		const BaseType_t xWriteValue = 0x55;
1156:Generated_Source\PSoC6\pdl\rtos\FreeRTOS\10.0.1\Source/stream_buffer.c **** 		configASSERT( memset( pucBuffer, ( int ) xWriteValue, xBufferSizeBytes ) == pucBuffer );
  82              		.loc 1 1156 0
  83 000a 5521     		movs	r1, #85
  84              	.LVL7:
  85 000c 2846     		mov	r0, r5
  86              	.LVL8:
  87 000e FFF7FEFF 		bl	memset
  88              	.LVL9:
  89 0012 8542     		cmp	r5, r0
  90 0014 08D0     		beq	.L4
  91              	.LBB78:
  92              	.LBB79:
  93              		.file 2 "Generated_Source\\PSoC6\\pdl\\rtos/FreeRTOS/10.0.1/Source/portable/GCC/CM4F/portmacro.h"
   1:Generated_Source\PSoC6\pdl\rtos/FreeRTOS/10.0.1/Source/portable/GCC/CM4F/portmacro.h **** /*
   2:Generated_Source\PSoC6\pdl\rtos/FreeRTOS/10.0.1/Source/portable/GCC/CM4F/portmacro.h ****  * FreeRTOS Kernel V10.0.1
   3:Generated_Source\PSoC6\pdl\rtos/FreeRTOS/10.0.1/Source/portable/GCC/CM4F/portmacro.h ****  * Copyright (C) 2017 Amazon.com, Inc. or its affiliates.  All Rights Reserved.
   4:Generated_Source\PSoC6\pdl\rtos/FreeRTOS/10.0.1/Source/portable/GCC/CM4F/portmacro.h ****  *
   5:Generated_Source\PSoC6\pdl\rtos/FreeRTOS/10.0.1/Source/portable/GCC/CM4F/portmacro.h ****  * Permission is hereby granted, free of charge, to any person obtaining a copy of
ARM GAS  C:\Users\kateb\AppData\Local\Temp\cc9mC3XY.s 			page 23


   6:Generated_Source\PSoC6\pdl\rtos/FreeRTOS/10.0.1/Source/portable/GCC/CM4F/portmacro.h ****  * this software and associated documentation files (the "Software"), to deal in
   7:Generated_Source\PSoC6\pdl\rtos/FreeRTOS/10.0.1/Source/portable/GCC/CM4F/portmacro.h ****  * the Software without restriction, including without limitation the rights to
   8:Generated_Source\PSoC6\pdl\rtos/FreeRTOS/10.0.1/Source/portable/GCC/CM4F/portmacro.h ****  * use, copy, modify, merge, publish, distribute, sublicense, and/or sell copies of
   9:Generated_Source\PSoC6\pdl\rtos/FreeRTOS/10.0.1/Source/portable/GCC/CM4F/portmacro.h ****  * the Software, and to permit persons to whom the Software is furnished to do so,
  10:Generated_Source\PSoC6\pdl\rtos/FreeRTOS/10.0.1/Source/portable/GCC/CM4F/portmacro.h ****  * subject to the following conditions:
  11:Generated_Source\PSoC6\pdl\rtos/FreeRTOS/10.0.1/Source/portable/GCC/CM4F/portmacro.h ****  *
  12:Generated_Source\PSoC6\pdl\rtos/FreeRTOS/10.0.1/Source/portable/GCC/CM4F/portmacro.h ****  * The above copyright notice and this permission notice shall be included in all
  13:Generated_Source\PSoC6\pdl\rtos/FreeRTOS/10.0.1/Source/portable/GCC/CM4F/portmacro.h ****  * copies or substantial portions of the Software.
  14:Generated_Source\PSoC6\pdl\rtos/FreeRTOS/10.0.1/Source/portable/GCC/CM4F/portmacro.h ****  *
  15:Generated_Source\PSoC6\pdl\rtos/FreeRTOS/10.0.1/Source/portable/GCC/CM4F/portmacro.h ****  * THE SOFTWARE IS PROVIDED "AS IS", WITHOUT WARRANTY OF ANY KIND, EXPRESS OR
  16:Generated_Source\PSoC6\pdl\rtos/FreeRTOS/10.0.1/Source/portable/GCC/CM4F/portmacro.h ****  * IMPLIED, INCLUDING BUT NOT LIMITED TO THE WARRANTIES OF MERCHANTABILITY, FITNESS
  17:Generated_Source\PSoC6\pdl\rtos/FreeRTOS/10.0.1/Source/portable/GCC/CM4F/portmacro.h ****  * FOR A PARTICULAR PURPOSE AND NONINFRINGEMENT. IN NO EVENT SHALL THE AUTHORS OR
  18:Generated_Source\PSoC6\pdl\rtos/FreeRTOS/10.0.1/Source/portable/GCC/CM4F/portmacro.h ****  * COPYRIGHT HOLDERS BE LIABLE FOR ANY CLAIM, DAMAGES OR OTHER LIABILITY, WHETHER
  19:Generated_Source\PSoC6\pdl\rtos/FreeRTOS/10.0.1/Source/portable/GCC/CM4F/portmacro.h ****  * IN AN ACTION OF CONTRACT, TORT OR OTHERWISE, ARISING FROM, OUT OF OR IN
  20:Generated_Source\PSoC6\pdl\rtos/FreeRTOS/10.0.1/Source/portable/GCC/CM4F/portmacro.h ****  * CONNECTION WITH THE SOFTWARE OR THE USE OR OTHER DEALINGS IN THE SOFTWARE.
  21:Generated_Source\PSoC6\pdl\rtos/FreeRTOS/10.0.1/Source/portable/GCC/CM4F/portmacro.h ****  *
  22:Generated_Source\PSoC6\pdl\rtos/FreeRTOS/10.0.1/Source/portable/GCC/CM4F/portmacro.h ****  * http://www.FreeRTOS.org
  23:Generated_Source\PSoC6\pdl\rtos/FreeRTOS/10.0.1/Source/portable/GCC/CM4F/portmacro.h ****  * http://aws.amazon.com/freertos
  24:Generated_Source\PSoC6\pdl\rtos/FreeRTOS/10.0.1/Source/portable/GCC/CM4F/portmacro.h ****  *
  25:Generated_Source\PSoC6\pdl\rtos/FreeRTOS/10.0.1/Source/portable/GCC/CM4F/portmacro.h ****  * 1 tab == 4 spaces!
  26:Generated_Source\PSoC6\pdl\rtos/FreeRTOS/10.0.1/Source/portable/GCC/CM4F/portmacro.h ****  */
  27:Generated_Source\PSoC6\pdl\rtos/FreeRTOS/10.0.1/Source/portable/GCC/CM4F/portmacro.h **** 
  28:Generated_Source\PSoC6\pdl\rtos/FreeRTOS/10.0.1/Source/portable/GCC/CM4F/portmacro.h **** 
  29:Generated_Source\PSoC6\pdl\rtos/FreeRTOS/10.0.1/Source/portable/GCC/CM4F/portmacro.h **** #ifndef PORTMACRO_H
  30:Generated_Source\PSoC6\pdl\rtos/FreeRTOS/10.0.1/Source/portable/GCC/CM4F/portmacro.h **** #define PORTMACRO_H
  31:Generated_Source\PSoC6\pdl\rtos/FreeRTOS/10.0.1/Source/portable/GCC/CM4F/portmacro.h **** 
  32:Generated_Source\PSoC6\pdl\rtos/FreeRTOS/10.0.1/Source/portable/GCC/CM4F/portmacro.h **** #ifdef __cplusplus
  33:Generated_Source\PSoC6\pdl\rtos/FreeRTOS/10.0.1/Source/portable/GCC/CM4F/portmacro.h **** extern "C" {
  34:Generated_Source\PSoC6\pdl\rtos/FreeRTOS/10.0.1/Source/portable/GCC/CM4F/portmacro.h **** #endif
  35:Generated_Source\PSoC6\pdl\rtos/FreeRTOS/10.0.1/Source/portable/GCC/CM4F/portmacro.h **** 
  36:Generated_Source\PSoC6\pdl\rtos/FreeRTOS/10.0.1/Source/portable/GCC/CM4F/portmacro.h **** /*-----------------------------------------------------------
  37:Generated_Source\PSoC6\pdl\rtos/FreeRTOS/10.0.1/Source/portable/GCC/CM4F/portmacro.h ****  * Port specific definitions.
  38:Generated_Source\PSoC6\pdl\rtos/FreeRTOS/10.0.1/Source/portable/GCC/CM4F/portmacro.h ****  *
  39:Generated_Source\PSoC6\pdl\rtos/FreeRTOS/10.0.1/Source/portable/GCC/CM4F/portmacro.h ****  * The settings in this file configure FreeRTOS correctly for the
  40:Generated_Source\PSoC6\pdl\rtos/FreeRTOS/10.0.1/Source/portable/GCC/CM4F/portmacro.h ****  * given hardware and compiler.
  41:Generated_Source\PSoC6\pdl\rtos/FreeRTOS/10.0.1/Source/portable/GCC/CM4F/portmacro.h ****  *
  42:Generated_Source\PSoC6\pdl\rtos/FreeRTOS/10.0.1/Source/portable/GCC/CM4F/portmacro.h ****  * These settings should not be altered.
  43:Generated_Source\PSoC6\pdl\rtos/FreeRTOS/10.0.1/Source/portable/GCC/CM4F/portmacro.h ****  *-----------------------------------------------------------
  44:Generated_Source\PSoC6\pdl\rtos/FreeRTOS/10.0.1/Source/portable/GCC/CM4F/portmacro.h ****  */
  45:Generated_Source\PSoC6\pdl\rtos/FreeRTOS/10.0.1/Source/portable/GCC/CM4F/portmacro.h **** 
  46:Generated_Source\PSoC6\pdl\rtos/FreeRTOS/10.0.1/Source/portable/GCC/CM4F/portmacro.h **** /* Type definitions. */
  47:Generated_Source\PSoC6\pdl\rtos/FreeRTOS/10.0.1/Source/portable/GCC/CM4F/portmacro.h **** #define portCHAR		char
  48:Generated_Source\PSoC6\pdl\rtos/FreeRTOS/10.0.1/Source/portable/GCC/CM4F/portmacro.h **** #define portFLOAT		float
  49:Generated_Source\PSoC6\pdl\rtos/FreeRTOS/10.0.1/Source/portable/GCC/CM4F/portmacro.h **** #define portDOUBLE		double
  50:Generated_Source\PSoC6\pdl\rtos/FreeRTOS/10.0.1/Source/portable/GCC/CM4F/portmacro.h **** #define portLONG		long
  51:Generated_Source\PSoC6\pdl\rtos/FreeRTOS/10.0.1/Source/portable/GCC/CM4F/portmacro.h **** #define portSHORT		short
  52:Generated_Source\PSoC6\pdl\rtos/FreeRTOS/10.0.1/Source/portable/GCC/CM4F/portmacro.h **** #define portSTACK_TYPE	uint32_t
  53:Generated_Source\PSoC6\pdl\rtos/FreeRTOS/10.0.1/Source/portable/GCC/CM4F/portmacro.h **** #define portBASE_TYPE	long
  54:Generated_Source\PSoC6\pdl\rtos/FreeRTOS/10.0.1/Source/portable/GCC/CM4F/portmacro.h **** 
  55:Generated_Source\PSoC6\pdl\rtos/FreeRTOS/10.0.1/Source/portable/GCC/CM4F/portmacro.h **** typedef portSTACK_TYPE StackType_t;
  56:Generated_Source\PSoC6\pdl\rtos/FreeRTOS/10.0.1/Source/portable/GCC/CM4F/portmacro.h **** typedef long BaseType_t;
  57:Generated_Source\PSoC6\pdl\rtos/FreeRTOS/10.0.1/Source/portable/GCC/CM4F/portmacro.h **** typedef unsigned long UBaseType_t;
  58:Generated_Source\PSoC6\pdl\rtos/FreeRTOS/10.0.1/Source/portable/GCC/CM4F/portmacro.h **** 
  59:Generated_Source\PSoC6\pdl\rtos/FreeRTOS/10.0.1/Source/portable/GCC/CM4F/portmacro.h **** #if( configUSE_16_BIT_TICKS == 1 )
  60:Generated_Source\PSoC6\pdl\rtos/FreeRTOS/10.0.1/Source/portable/GCC/CM4F/portmacro.h **** 	typedef uint16_t TickType_t;
  61:Generated_Source\PSoC6\pdl\rtos/FreeRTOS/10.0.1/Source/portable/GCC/CM4F/portmacro.h **** 	#define portMAX_DELAY ( TickType_t ) 0xffff
  62:Generated_Source\PSoC6\pdl\rtos/FreeRTOS/10.0.1/Source/portable/GCC/CM4F/portmacro.h **** #else
ARM GAS  C:\Users\kateb\AppData\Local\Temp\cc9mC3XY.s 			page 24


  63:Generated_Source\PSoC6\pdl\rtos/FreeRTOS/10.0.1/Source/portable/GCC/CM4F/portmacro.h **** 	typedef uint32_t TickType_t;
  64:Generated_Source\PSoC6\pdl\rtos/FreeRTOS/10.0.1/Source/portable/GCC/CM4F/portmacro.h **** 	#define portMAX_DELAY ( TickType_t ) 0xffffffffUL
  65:Generated_Source\PSoC6\pdl\rtos/FreeRTOS/10.0.1/Source/portable/GCC/CM4F/portmacro.h **** 
  66:Generated_Source\PSoC6\pdl\rtos/FreeRTOS/10.0.1/Source/portable/GCC/CM4F/portmacro.h **** 	/* 32-bit tick type on a 32-bit architecture, so reads of the tick count do
  67:Generated_Source\PSoC6\pdl\rtos/FreeRTOS/10.0.1/Source/portable/GCC/CM4F/portmacro.h **** 	not need to be guarded with a critical section. */
  68:Generated_Source\PSoC6\pdl\rtos/FreeRTOS/10.0.1/Source/portable/GCC/CM4F/portmacro.h **** 	#define portTICK_TYPE_IS_ATOMIC 1
  69:Generated_Source\PSoC6\pdl\rtos/FreeRTOS/10.0.1/Source/portable/GCC/CM4F/portmacro.h **** #endif
  70:Generated_Source\PSoC6\pdl\rtos/FreeRTOS/10.0.1/Source/portable/GCC/CM4F/portmacro.h **** /*-----------------------------------------------------------*/
  71:Generated_Source\PSoC6\pdl\rtos/FreeRTOS/10.0.1/Source/portable/GCC/CM4F/portmacro.h **** 
  72:Generated_Source\PSoC6\pdl\rtos/FreeRTOS/10.0.1/Source/portable/GCC/CM4F/portmacro.h **** /* Architecture specifics. */
  73:Generated_Source\PSoC6\pdl\rtos/FreeRTOS/10.0.1/Source/portable/GCC/CM4F/portmacro.h **** #define portSTACK_GROWTH			( -1 )
  74:Generated_Source\PSoC6\pdl\rtos/FreeRTOS/10.0.1/Source/portable/GCC/CM4F/portmacro.h **** #define portTICK_PERIOD_MS			( ( TickType_t ) 1000 / configTICK_RATE_HZ )
  75:Generated_Source\PSoC6\pdl\rtos/FreeRTOS/10.0.1/Source/portable/GCC/CM4F/portmacro.h **** #define portBYTE_ALIGNMENT			8
  76:Generated_Source\PSoC6\pdl\rtos/FreeRTOS/10.0.1/Source/portable/GCC/CM4F/portmacro.h **** /*-----------------------------------------------------------*/
  77:Generated_Source\PSoC6\pdl\rtos/FreeRTOS/10.0.1/Source/portable/GCC/CM4F/portmacro.h **** 
  78:Generated_Source\PSoC6\pdl\rtos/FreeRTOS/10.0.1/Source/portable/GCC/CM4F/portmacro.h **** /* Scheduler utilities. */
  79:Generated_Source\PSoC6\pdl\rtos/FreeRTOS/10.0.1/Source/portable/GCC/CM4F/portmacro.h **** #define portYIELD() 															\
  80:Generated_Source\PSoC6\pdl\rtos/FreeRTOS/10.0.1/Source/portable/GCC/CM4F/portmacro.h **** {																				\
  81:Generated_Source\PSoC6\pdl\rtos/FreeRTOS/10.0.1/Source/portable/GCC/CM4F/portmacro.h **** 	/* Set a PendSV to request a context switch. */								\
  82:Generated_Source\PSoC6\pdl\rtos/FreeRTOS/10.0.1/Source/portable/GCC/CM4F/portmacro.h **** 	portNVIC_INT_CTRL_REG = portNVIC_PENDSVSET_BIT;								\
  83:Generated_Source\PSoC6\pdl\rtos/FreeRTOS/10.0.1/Source/portable/GCC/CM4F/portmacro.h **** 																				\
  84:Generated_Source\PSoC6\pdl\rtos/FreeRTOS/10.0.1/Source/portable/GCC/CM4F/portmacro.h **** 	/* Barriers are normally not required but do ensure the code is completely	\
  85:Generated_Source\PSoC6\pdl\rtos/FreeRTOS/10.0.1/Source/portable/GCC/CM4F/portmacro.h **** 	within the specified behaviour for the architecture. */						\
  86:Generated_Source\PSoC6\pdl\rtos/FreeRTOS/10.0.1/Source/portable/GCC/CM4F/portmacro.h **** 	__asm volatile( "dsb" ::: "memory" );										\
  87:Generated_Source\PSoC6\pdl\rtos/FreeRTOS/10.0.1/Source/portable/GCC/CM4F/portmacro.h **** 	__asm volatile( "isb" );													\
  88:Generated_Source\PSoC6\pdl\rtos/FreeRTOS/10.0.1/Source/portable/GCC/CM4F/portmacro.h **** }
  89:Generated_Source\PSoC6\pdl\rtos/FreeRTOS/10.0.1/Source/portable/GCC/CM4F/portmacro.h **** 
  90:Generated_Source\PSoC6\pdl\rtos/FreeRTOS/10.0.1/Source/portable/GCC/CM4F/portmacro.h **** #define portNVIC_INT_CTRL_REG		( * ( ( volatile uint32_t * ) 0xe000ed04 ) )
  91:Generated_Source\PSoC6\pdl\rtos/FreeRTOS/10.0.1/Source/portable/GCC/CM4F/portmacro.h **** #define portNVIC_PENDSVSET_BIT		( 1UL << 28UL )
  92:Generated_Source\PSoC6\pdl\rtos/FreeRTOS/10.0.1/Source/portable/GCC/CM4F/portmacro.h **** #define portEND_SWITCHING_ISR( xSwitchRequired ) if( xSwitchRequired != pdFALSE ) portYIELD()
  93:Generated_Source\PSoC6\pdl\rtos/FreeRTOS/10.0.1/Source/portable/GCC/CM4F/portmacro.h **** #define portYIELD_FROM_ISR( x ) portEND_SWITCHING_ISR( x )
  94:Generated_Source\PSoC6\pdl\rtos/FreeRTOS/10.0.1/Source/portable/GCC/CM4F/portmacro.h **** /*-----------------------------------------------------------*/
  95:Generated_Source\PSoC6\pdl\rtos/FreeRTOS/10.0.1/Source/portable/GCC/CM4F/portmacro.h **** 
  96:Generated_Source\PSoC6\pdl\rtos/FreeRTOS/10.0.1/Source/portable/GCC/CM4F/portmacro.h **** /* Critical section management. */
  97:Generated_Source\PSoC6\pdl\rtos/FreeRTOS/10.0.1/Source/portable/GCC/CM4F/portmacro.h **** extern void vPortEnterCritical( void );
  98:Generated_Source\PSoC6\pdl\rtos/FreeRTOS/10.0.1/Source/portable/GCC/CM4F/portmacro.h **** extern void vPortExitCritical( void );
  99:Generated_Source\PSoC6\pdl\rtos/FreeRTOS/10.0.1/Source/portable/GCC/CM4F/portmacro.h **** #define portSET_INTERRUPT_MASK_FROM_ISR()		ulPortRaiseBASEPRI()
 100:Generated_Source\PSoC6\pdl\rtos/FreeRTOS/10.0.1/Source/portable/GCC/CM4F/portmacro.h **** #define portCLEAR_INTERRUPT_MASK_FROM_ISR(x)	vPortSetBASEPRI(x)
 101:Generated_Source\PSoC6\pdl\rtos/FreeRTOS/10.0.1/Source/portable/GCC/CM4F/portmacro.h **** #define portDISABLE_INTERRUPTS()				vPortRaiseBASEPRI()
 102:Generated_Source\PSoC6\pdl\rtos/FreeRTOS/10.0.1/Source/portable/GCC/CM4F/portmacro.h **** #define portENABLE_INTERRUPTS()					vPortSetBASEPRI(0)
 103:Generated_Source\PSoC6\pdl\rtos/FreeRTOS/10.0.1/Source/portable/GCC/CM4F/portmacro.h **** #define portENTER_CRITICAL()					vPortEnterCritical()
 104:Generated_Source\PSoC6\pdl\rtos/FreeRTOS/10.0.1/Source/portable/GCC/CM4F/portmacro.h **** #define portEXIT_CRITICAL()						vPortExitCritical()
 105:Generated_Source\PSoC6\pdl\rtos/FreeRTOS/10.0.1/Source/portable/GCC/CM4F/portmacro.h **** 
 106:Generated_Source\PSoC6\pdl\rtos/FreeRTOS/10.0.1/Source/portable/GCC/CM4F/portmacro.h **** /*-----------------------------------------------------------*/
 107:Generated_Source\PSoC6\pdl\rtos/FreeRTOS/10.0.1/Source/portable/GCC/CM4F/portmacro.h **** 
 108:Generated_Source\PSoC6\pdl\rtos/FreeRTOS/10.0.1/Source/portable/GCC/CM4F/portmacro.h **** /* Task function macros as described on the FreeRTOS.org WEB site.  These are
 109:Generated_Source\PSoC6\pdl\rtos/FreeRTOS/10.0.1/Source/portable/GCC/CM4F/portmacro.h **** not necessary for to use this port.  They are defined so the common demo files
 110:Generated_Source\PSoC6\pdl\rtos/FreeRTOS/10.0.1/Source/portable/GCC/CM4F/portmacro.h **** (which build with all the ports) will build. */
 111:Generated_Source\PSoC6\pdl\rtos/FreeRTOS/10.0.1/Source/portable/GCC/CM4F/portmacro.h **** #define portTASK_FUNCTION_PROTO( vFunction, pvParameters ) void vFunction( void *pvParameters )
 112:Generated_Source\PSoC6\pdl\rtos/FreeRTOS/10.0.1/Source/portable/GCC/CM4F/portmacro.h **** #define portTASK_FUNCTION( vFunction, pvParameters ) void vFunction( void *pvParameters )
 113:Generated_Source\PSoC6\pdl\rtos/FreeRTOS/10.0.1/Source/portable/GCC/CM4F/portmacro.h **** 
 114:Generated_Source\PSoC6\pdl\rtos/FreeRTOS/10.0.1/Source/portable/GCC/CM4F/portmacro.h **** /*-----------------------------------------------------------*/
 115:Generated_Source\PSoC6\pdl\rtos/FreeRTOS/10.0.1/Source/portable/GCC/CM4F/portmacro.h **** 
 116:Generated_Source\PSoC6\pdl\rtos/FreeRTOS/10.0.1/Source/portable/GCC/CM4F/portmacro.h **** #ifdef configASSERT
 117:Generated_Source\PSoC6\pdl\rtos/FreeRTOS/10.0.1/Source/portable/GCC/CM4F/portmacro.h **** 	void vPortValidateInterruptPriority( void );
 118:Generated_Source\PSoC6\pdl\rtos/FreeRTOS/10.0.1/Source/portable/GCC/CM4F/portmacro.h **** 	#define portASSERT_IF_INTERRUPT_PRIORITY_INVALID() 	vPortValidateInterruptPriority()
 119:Generated_Source\PSoC6\pdl\rtos/FreeRTOS/10.0.1/Source/portable/GCC/CM4F/portmacro.h **** #endif
ARM GAS  C:\Users\kateb\AppData\Local\Temp\cc9mC3XY.s 			page 25


 120:Generated_Source\PSoC6\pdl\rtos/FreeRTOS/10.0.1/Source/portable/GCC/CM4F/portmacro.h **** 
 121:Generated_Source\PSoC6\pdl\rtos/FreeRTOS/10.0.1/Source/portable/GCC/CM4F/portmacro.h **** /* portNOP() is not required by this port. */
 122:Generated_Source\PSoC6\pdl\rtos/FreeRTOS/10.0.1/Source/portable/GCC/CM4F/portmacro.h **** #define portNOP()
 123:Generated_Source\PSoC6\pdl\rtos/FreeRTOS/10.0.1/Source/portable/GCC/CM4F/portmacro.h **** 
 124:Generated_Source\PSoC6\pdl\rtos/FreeRTOS/10.0.1/Source/portable/GCC/CM4F/portmacro.h **** #define portINLINE	__inline
 125:Generated_Source\PSoC6\pdl\rtos/FreeRTOS/10.0.1/Source/portable/GCC/CM4F/portmacro.h **** 
 126:Generated_Source\PSoC6\pdl\rtos/FreeRTOS/10.0.1/Source/portable/GCC/CM4F/portmacro.h **** #ifndef portFORCE_INLINE
 127:Generated_Source\PSoC6\pdl\rtos/FreeRTOS/10.0.1/Source/portable/GCC/CM4F/portmacro.h **** 	#define portFORCE_INLINE inline __attribute__(( always_inline))
 128:Generated_Source\PSoC6\pdl\rtos/FreeRTOS/10.0.1/Source/portable/GCC/CM4F/portmacro.h **** #endif
 129:Generated_Source\PSoC6\pdl\rtos/FreeRTOS/10.0.1/Source/portable/GCC/CM4F/portmacro.h **** 
 130:Generated_Source\PSoC6\pdl\rtos/FreeRTOS/10.0.1/Source/portable/GCC/CM4F/portmacro.h **** portFORCE_INLINE static BaseType_t xPortIsInsideInterrupt( void )
 131:Generated_Source\PSoC6\pdl\rtos/FreeRTOS/10.0.1/Source/portable/GCC/CM4F/portmacro.h **** {
 132:Generated_Source\PSoC6\pdl\rtos/FreeRTOS/10.0.1/Source/portable/GCC/CM4F/portmacro.h **** uint32_t ulCurrentInterrupt;
 133:Generated_Source\PSoC6\pdl\rtos/FreeRTOS/10.0.1/Source/portable/GCC/CM4F/portmacro.h **** BaseType_t xReturn;
 134:Generated_Source\PSoC6\pdl\rtos/FreeRTOS/10.0.1/Source/portable/GCC/CM4F/portmacro.h **** 
 135:Generated_Source\PSoC6\pdl\rtos/FreeRTOS/10.0.1/Source/portable/GCC/CM4F/portmacro.h **** 	/* Obtain the number of the currently executing interrupt. */
 136:Generated_Source\PSoC6\pdl\rtos/FreeRTOS/10.0.1/Source/portable/GCC/CM4F/portmacro.h **** 	__asm volatile( "mrs %0, ipsr" : "=r"( ulCurrentInterrupt ) :: "memory" );
 137:Generated_Source\PSoC6\pdl\rtos/FreeRTOS/10.0.1/Source/portable/GCC/CM4F/portmacro.h **** 
 138:Generated_Source\PSoC6\pdl\rtos/FreeRTOS/10.0.1/Source/portable/GCC/CM4F/portmacro.h **** 	if( ulCurrentInterrupt == 0 )
 139:Generated_Source\PSoC6\pdl\rtos/FreeRTOS/10.0.1/Source/portable/GCC/CM4F/portmacro.h **** 	{
 140:Generated_Source\PSoC6\pdl\rtos/FreeRTOS/10.0.1/Source/portable/GCC/CM4F/portmacro.h **** 		xReturn = pdFALSE;
 141:Generated_Source\PSoC6\pdl\rtos/FreeRTOS/10.0.1/Source/portable/GCC/CM4F/portmacro.h **** 	}
 142:Generated_Source\PSoC6\pdl\rtos/FreeRTOS/10.0.1/Source/portable/GCC/CM4F/portmacro.h **** 	else
 143:Generated_Source\PSoC6\pdl\rtos/FreeRTOS/10.0.1/Source/portable/GCC/CM4F/portmacro.h **** 	{
 144:Generated_Source\PSoC6\pdl\rtos/FreeRTOS/10.0.1/Source/portable/GCC/CM4F/portmacro.h **** 		xReturn = pdTRUE;
 145:Generated_Source\PSoC6\pdl\rtos/FreeRTOS/10.0.1/Source/portable/GCC/CM4F/portmacro.h **** 	}
 146:Generated_Source\PSoC6\pdl\rtos/FreeRTOS/10.0.1/Source/portable/GCC/CM4F/portmacro.h **** 
 147:Generated_Source\PSoC6\pdl\rtos/FreeRTOS/10.0.1/Source/portable/GCC/CM4F/portmacro.h **** 	return xReturn;
 148:Generated_Source\PSoC6\pdl\rtos/FreeRTOS/10.0.1/Source/portable/GCC/CM4F/portmacro.h **** }
 149:Generated_Source\PSoC6\pdl\rtos/FreeRTOS/10.0.1/Source/portable/GCC/CM4F/portmacro.h **** 
 150:Generated_Source\PSoC6\pdl\rtos/FreeRTOS/10.0.1/Source/portable/GCC/CM4F/portmacro.h **** /*-----------------------------------------------------------*/
 151:Generated_Source\PSoC6\pdl\rtos/FreeRTOS/10.0.1/Source/portable/GCC/CM4F/portmacro.h **** 
 152:Generated_Source\PSoC6\pdl\rtos/FreeRTOS/10.0.1/Source/portable/GCC/CM4F/portmacro.h **** portFORCE_INLINE static void vPortRaiseBASEPRI( void )
 153:Generated_Source\PSoC6\pdl\rtos/FreeRTOS/10.0.1/Source/portable/GCC/CM4F/portmacro.h **** {
 154:Generated_Source\PSoC6\pdl\rtos/FreeRTOS/10.0.1/Source/portable/GCC/CM4F/portmacro.h **** uint32_t ulNewBASEPRI;
 155:Generated_Source\PSoC6\pdl\rtos/FreeRTOS/10.0.1/Source/portable/GCC/CM4F/portmacro.h **** 
 156:Generated_Source\PSoC6\pdl\rtos/FreeRTOS/10.0.1/Source/portable/GCC/CM4F/portmacro.h **** 	__asm volatile
  94              		.loc 2 156 0
  95              		.syntax unified
  96              	@ 156 "Generated_Source\PSoC6\pdl\rtos/FreeRTOS/10.0.1/Source/portable/GCC/CM4F/portmacro.h" 1
  97 0016 4FF02F03 			mov r3, #47												
  98 001a 83F31188 		msr basepri, r3											
  99 001e BFF36F8F 		isb														
 100 0022 BFF34F8F 		dsb														
 101              	
 102              	@ 0 "" 2
 103              	.LVL10:
 104              		.thumb
 105              		.syntax unified
 106              	.L5:
 107 0026 FEE7     		b	.L5
 108              	.L4:
 109              	.LBE79:
 110              	.LBE78:
 111              	.LBE77:
1157:Generated_Source\PSoC6\pdl\rtos\FreeRTOS\10.0.1\Source/stream_buffer.c **** 	}
1158:Generated_Source\PSoC6\pdl\rtos\FreeRTOS\10.0.1\Source/stream_buffer.c **** 	#endif
ARM GAS  C:\Users\kateb\AppData\Local\Temp\cc9mC3XY.s 			page 26


1159:Generated_Source\PSoC6\pdl\rtos\FreeRTOS\10.0.1\Source/stream_buffer.c **** 
1160:Generated_Source\PSoC6\pdl\rtos\FreeRTOS\10.0.1\Source/stream_buffer.c **** 	memset( ( void * ) pxStreamBuffer, 0x00, sizeof( StreamBuffer_t ) ); /*lint !e9087 memset() requir
 112              		.loc 1 1160 0
 113 0028 2022     		movs	r2, #32
 114 002a 0021     		movs	r1, #0
 115 002c 2046     		mov	r0, r4
 116 002e FFF7FEFF 		bl	memset
 117              	.LVL11:
1161:Generated_Source\PSoC6\pdl\rtos\FreeRTOS\10.0.1\Source/stream_buffer.c **** 	pxStreamBuffer->pucBuffer = pucBuffer;
 118              		.loc 1 1161 0
 119 0032 A561     		str	r5, [r4, #24]
1162:Generated_Source\PSoC6\pdl\rtos\FreeRTOS\10.0.1\Source/stream_buffer.c **** 	pxStreamBuffer->xLength = xBufferSizeBytes;
 120              		.loc 1 1162 0
 121 0034 A660     		str	r6, [r4, #8]
1163:Generated_Source\PSoC6\pdl\rtos\FreeRTOS\10.0.1\Source/stream_buffer.c **** 	pxStreamBuffer->xTriggerLevelBytes = xTriggerLevelBytes;
 122              		.loc 1 1163 0
 123 0036 E760     		str	r7, [r4, #12]
1164:Generated_Source\PSoC6\pdl\rtos\FreeRTOS\10.0.1\Source/stream_buffer.c **** 
1165:Generated_Source\PSoC6\pdl\rtos\FreeRTOS\10.0.1\Source/stream_buffer.c **** 	if( xIsMessageBuffer != pdFALSE )
 124              		.loc 1 1165 0
 125 0038 069B     		ldr	r3, [sp, #24]
 126 003a 1BB1     		cbz	r3, .L3
1166:Generated_Source\PSoC6\pdl\rtos\FreeRTOS\10.0.1\Source/stream_buffer.c **** 	{
1167:Generated_Source\PSoC6\pdl\rtos\FreeRTOS\10.0.1\Source/stream_buffer.c **** 		pxStreamBuffer->ucFlags |= sbFLAGS_IS_MESSAGE_BUFFER;
 127              		.loc 1 1167 0
 128 003c 237F     		ldrb	r3, [r4, #28]	@ zero_extendqisi2
 129 003e 43F00103 		orr	r3, r3, #1
 130 0042 2377     		strb	r3, [r4, #28]
 131              	.L3:
 132 0044 F8BD     		pop	{r3, r4, r5, r6, r7, pc}
 133              		.cfi_endproc
 134              	.LFE614:
 135              		.size	prvInitialiseNewStreamBuffer, .-prvInitialiseNewStreamBuffer
 136 0046 00BF     		.section	.text.prvWriteBytesToBuffer,"ax",%progbits
 137              		.align	2
 138              		.thumb
 139              		.thumb_func
 140              		.type	prvWriteBytesToBuffer, %function
 141              	prvWriteBytesToBuffer:
 142              	.LFB611:
1021:Generated_Source\PSoC6\pdl\rtos\FreeRTOS\10.0.1\Source/stream_buffer.c **** size_t xNextHead, xFirstLength;
 143              		.loc 1 1021 0
 144              		.cfi_startproc
 145              		@ args = 0, pretend = 0, frame = 0
 146              		@ frame_needed = 0, uses_anonymous_args = 0
 147              	.LVL12:
1024:Generated_Source\PSoC6\pdl\rtos\FreeRTOS\10.0.1\Source/stream_buffer.c **** 
 148              		.loc 1 1024 0
 149 0000 42B9     		cbnz	r2, .L9
 150              	.LBB80:
 151              	.LBB81:
 152              		.loc 2 156 0
 153              		.syntax unified
 154              	@ 156 "Generated_Source\PSoC6\pdl\rtos/FreeRTOS/10.0.1/Source/portable/GCC/CM4F/portmacro.h" 1
 155 0002 4FF02F03 			mov r3, #47												
 156 0006 83F31188 		msr basepri, r3											
 157 000a BFF36F8F 		isb														
ARM GAS  C:\Users\kateb\AppData\Local\Temp\cc9mC3XY.s 			page 27


 158 000e BFF34F8F 		dsb														
 159              	
 160              	@ 0 "" 2
 161              	.LVL13:
 162              		.thumb
 163              		.syntax unified
 164              	.L10:
 165 0012 FEE7     		b	.L10
 166              	.L9:
 167              	.LBE81:
 168              	.LBE80:
1021:Generated_Source\PSoC6\pdl\rtos\FreeRTOS\10.0.1\Source/stream_buffer.c **** size_t xNextHead, xFirstLength;
 169              		.loc 1 1021 0
 170 0014 2DE9F041 		push	{r4, r5, r6, r7, r8, lr}
 171              		.cfi_def_cfa_offset 24
 172              		.cfi_offset 4, -24
 173              		.cfi_offset 5, -20
 174              		.cfi_offset 6, -16
 175              		.cfi_offset 7, -12
 176              		.cfi_offset 8, -8
 177              		.cfi_offset 14, -4
 178 0018 1746     		mov	r7, r2
1026:Generated_Source\PSoC6\pdl\rtos\FreeRTOS\10.0.1\Source/stream_buffer.c **** 
 179              		.loc 1 1026 0
 180 001a 4668     		ldr	r6, [r0, #4]
 181              	.LVL14:
1031:Generated_Source\PSoC6\pdl\rtos\FreeRTOS\10.0.1\Source/stream_buffer.c **** 
 182              		.loc 1 1031 0
 183 001c 8368     		ldr	r3, [r0, #8]
 184 001e C6EB0308 		rsb	r8, r6, r3
 185 0022 9045     		cmp	r8, r2
 186 0024 28BF     		it	cs
 187 0026 9046     		movcs	r8, r2
 188              	.LVL15:
1034:Generated_Source\PSoC6\pdl\rtos\FreeRTOS\10.0.1\Source/stream_buffer.c **** 	memcpy( ( void* ) ( &( pxStreamBuffer->pucBuffer[ xNextHead ] ) ), ( const void * ) pucData, xFirs
 189              		.loc 1 1034 0
 190 0028 06EB0802 		add	r2, r6, r8
 191              	.LVL16:
 192 002c 9342     		cmp	r3, r2
 193 002e 08D2     		bcs	.L11
 194              	.LBB82:
 195              	.LBB83:
 196              		.loc 2 156 0
 197              		.syntax unified
 198              	@ 156 "Generated_Source\PSoC6\pdl\rtos/FreeRTOS/10.0.1/Source/portable/GCC/CM4F/portmacro.h" 1
 199 0030 4FF02F03 			mov r3, #47												
 200 0034 83F31188 		msr basepri, r3											
 201 0038 BFF36F8F 		isb														
 202 003c BFF34F8F 		dsb														
 203              	
 204              	@ 0 "" 2
 205              	.LVL17:
 206              		.thumb
 207              		.syntax unified
 208              	.L12:
 209 0040 FEE7     		b	.L12
 210              	.L11:
ARM GAS  C:\Users\kateb\AppData\Local\Temp\cc9mC3XY.s 			page 28


 211 0042 0D46     		mov	r5, r1
 212 0044 0446     		mov	r4, r0
 213              	.LBE83:
 214              	.LBE82:
1035:Generated_Source\PSoC6\pdl\rtos\FreeRTOS\10.0.1\Source/stream_buffer.c **** 
 215              		.loc 1 1035 0
 216 0046 8069     		ldr	r0, [r0, #24]
 217              	.LVL18:
 218 0048 4246     		mov	r2, r8
 219 004a 3044     		add	r0, r0, r6
 220 004c FFF7FEFF 		bl	memcpy
 221              	.LVL19:
1039:Generated_Source\PSoC6\pdl\rtos\FreeRTOS\10.0.1\Source/stream_buffer.c **** 	{
 222              		.loc 1 1039 0
 223 0050 4745     		cmp	r7, r8
 224 0052 12D9     		bls	.L13
1042:Generated_Source\PSoC6\pdl\rtos\FreeRTOS\10.0.1\Source/stream_buffer.c **** 		memcpy( ( void * ) pxStreamBuffer->pucBuffer, ( const void * ) &( pucData[ xFirstLength ] ), xCou
 225              		.loc 1 1042 0
 226 0054 C8EB0702 		rsb	r2, r8, r7
 227 0058 A368     		ldr	r3, [r4, #8]
 228 005a 9A42     		cmp	r2, r3
 229 005c 08D9     		bls	.L14
 230              	.LBB84:
 231              	.LBB85:
 232              		.loc 2 156 0
 233              		.syntax unified
 234              	@ 156 "Generated_Source\PSoC6\pdl\rtos/FreeRTOS/10.0.1/Source/portable/GCC/CM4F/portmacro.h" 1
 235 005e 4FF02F03 			mov r3, #47												
 236 0062 83F31188 		msr basepri, r3											
 237 0066 BFF36F8F 		isb														
 238 006a BFF34F8F 		dsb														
 239              	
 240              	@ 0 "" 2
 241              	.LVL20:
 242              		.thumb
 243              		.syntax unified
 244              	.L15:
 245 006e FEE7     		b	.L15
 246              	.L14:
 247              	.LBE85:
 248              	.LBE84:
1043:Generated_Source\PSoC6\pdl\rtos\FreeRTOS\10.0.1\Source/stream_buffer.c **** 	}
 249              		.loc 1 1043 0
 250 0070 05EB0801 		add	r1, r5, r8
 251 0074 A069     		ldr	r0, [r4, #24]
 252 0076 FFF7FEFF 		bl	memcpy
 253              	.LVL21:
 254              	.L13:
1050:Generated_Source\PSoC6\pdl\rtos\FreeRTOS\10.0.1\Source/stream_buffer.c **** 	if( xNextHead >= pxStreamBuffer->xLength )
 255              		.loc 1 1050 0
 256 007a BB19     		adds	r3, r7, r6
 257              	.LVL22:
1051:Generated_Source\PSoC6\pdl\rtos\FreeRTOS\10.0.1\Source/stream_buffer.c **** 	{
 258              		.loc 1 1051 0
 259 007c A268     		ldr	r2, [r4, #8]
 260 007e 9342     		cmp	r3, r2
 261 0080 00D3     		bcc	.L16
ARM GAS  C:\Users\kateb\AppData\Local\Temp\cc9mC3XY.s 			page 29


1053:Generated_Source\PSoC6\pdl\rtos\FreeRTOS\10.0.1\Source/stream_buffer.c **** 	}
 262              		.loc 1 1053 0
 263 0082 9B1A     		subs	r3, r3, r2
 264              	.LVL23:
 265              	.L16:
1060:Generated_Source\PSoC6\pdl\rtos\FreeRTOS\10.0.1\Source/stream_buffer.c **** 
 266              		.loc 1 1060 0
 267 0084 6360     		str	r3, [r4, #4]
1063:Generated_Source\PSoC6\pdl\rtos\FreeRTOS\10.0.1\Source/stream_buffer.c **** /*-----------------------------------------------------------*/
 268              		.loc 1 1063 0
 269 0086 3846     		mov	r0, r7
 270 0088 BDE8F081 		pop	{r4, r5, r6, r7, r8, pc}
 271              		.cfi_endproc
 272              	.LFE611:
 273              		.size	prvWriteBytesToBuffer, .-prvWriteBytesToBuffer
 274              		.section	.text.prvWriteMessageToBuffer,"ax",%progbits
 275              		.align	2
 276              		.thumb
 277              		.thumb_func
 278              		.type	prvWriteMessageToBuffer, %function
 279              	prvWriteMessageToBuffer:
 280              	.LFB603:
 644:Generated_Source\PSoC6\pdl\rtos\FreeRTOS\10.0.1\Source/stream_buffer.c **** 	BaseType_t xShouldWrite;
 281              		.loc 1 644 0
 282              		.cfi_startproc
 283              		@ args = 4, pretend = 0, frame = 8
 284              		@ frame_needed = 0, uses_anonymous_args = 0
 285              	.LVL24:
 286 0000 30B5     		push	{r4, r5, lr}
 287              		.cfi_def_cfa_offset 12
 288              		.cfi_offset 4, -12
 289              		.cfi_offset 5, -8
 290              		.cfi_offset 14, -4
 291 0002 83B0     		sub	sp, sp, #12
 292              		.cfi_def_cfa_offset 24
 293 0004 0446     		mov	r4, r0
 294 0006 0D46     		mov	r5, r1
 295 0008 0192     		str	r2, [sp, #4]
 648:Generated_Source\PSoC6\pdl\rtos\FreeRTOS\10.0.1\Source/stream_buffer.c **** 	{
 296              		.loc 1 648 0
 297 000a ABB1     		cbz	r3, .L22
 298 000c 1A46     		mov	r2, r3
 299              	.LVL25:
 654:Generated_Source\PSoC6\pdl\rtos\FreeRTOS\10.0.1\Source/stream_buffer.c **** 	{
 300              		.loc 1 654 0
 301 000e 037F     		ldrb	r3, [r0, #28]	@ zero_extendqisi2
 302              	.LVL26:
 303 0010 13F0010F 		tst	r3, #1
 304 0014 06D1     		bne	.L20
 305              	.LVL27:
 660:Generated_Source\PSoC6\pdl\rtos\FreeRTOS\10.0.1\Source/stream_buffer.c **** 	}
 306              		.loc 1 660 0
 307 0016 019B     		ldr	r3, [sp, #4]
 308 0018 9A42     		cmp	r2, r3
 309 001a 28BF     		it	cs
 310 001c 1A46     		movcs	r2, r3
 311              	.LVL28:
ARM GAS  C:\Users\kateb\AppData\Local\Temp\cc9mC3XY.s 			page 30


 312 001e 0192     		str	r2, [sp, #4]
 313              	.LVL29:
 659:Generated_Source\PSoC6\pdl\rtos\FreeRTOS\10.0.1\Source/stream_buffer.c **** 		xDataLengthBytes = configMIN( xDataLengthBytes, xSpace ); /*lint !e9044 Function parameter modifi
 314              		.loc 1 659 0
 315 0020 0123     		movs	r3, #1
 316              	.LVL30:
 317 0022 0CE0     		b	.L19
 318              	.LVL31:
 319              	.L20:
 662:Generated_Source\PSoC6\pdl\rtos\FreeRTOS\10.0.1\Source/stream_buffer.c **** 	{
 320              		.loc 1 662 0
 321 0024 069B     		ldr	r3, [sp, #24]
 322 0026 9A42     		cmp	r2, r3
 323 0028 08D3     		bcc	.L23
 324              	.LVL32:
 669:Generated_Source\PSoC6\pdl\rtos\FreeRTOS\10.0.1\Source/stream_buffer.c **** 	}
 325              		.loc 1 669 0
 326 002a 0422     		movs	r2, #4
 327              	.LVL33:
 328 002c 0DEB0201 		add	r1, sp, r2
 329              	.LVL34:
 330 0030 FFF7FEFF 		bl	prvWriteBytesToBuffer
 331              	.LVL35:
 668:Generated_Source\PSoC6\pdl\rtos\FreeRTOS\10.0.1\Source/stream_buffer.c **** 		( void ) prvWriteBytesToBuffer( pxStreamBuffer, ( const uint8_t * ) &( xDataLengthBytes ), sbBYTE
 332              		.loc 1 668 0
 333 0034 0123     		movs	r3, #1
 334 0036 02E0     		b	.L19
 335              	.LVL36:
 336              	.L22:
 652:Generated_Source\PSoC6\pdl\rtos\FreeRTOS\10.0.1\Source/stream_buffer.c **** 	}
 337              		.loc 1 652 0
 338 0038 0023     		movs	r3, #0
 339              	.LVL37:
 340 003a 00E0     		b	.L19
 341              	.LVL38:
 342              	.L23:
 674:Generated_Source\PSoC6\pdl\rtos\FreeRTOS\10.0.1\Source/stream_buffer.c **** 	}
 343              		.loc 1 674 0
 344 003c 0023     		movs	r3, #0
 345              	.LVL39:
 346              	.L19:
 677:Generated_Source\PSoC6\pdl\rtos\FreeRTOS\10.0.1\Source/stream_buffer.c **** 	{
 347              		.loc 1 677 0
 348 003e 2BB1     		cbz	r3, .L24
 680:Generated_Source\PSoC6\pdl\rtos\FreeRTOS\10.0.1\Source/stream_buffer.c **** 	}
 349              		.loc 1 680 0
 350 0040 019A     		ldr	r2, [sp, #4]
 351 0042 2946     		mov	r1, r5
 352 0044 2046     		mov	r0, r4
 353 0046 FFF7FEFF 		bl	prvWriteBytesToBuffer
 354              	.LVL40:
 355 004a 00E0     		b	.L21
 356              	.LVL41:
 357              	.L24:
 684:Generated_Source\PSoC6\pdl\rtos\FreeRTOS\10.0.1\Source/stream_buffer.c **** 	}
 358              		.loc 1 684 0
 359 004c 0020     		movs	r0, #0
ARM GAS  C:\Users\kateb\AppData\Local\Temp\cc9mC3XY.s 			page 31


 360              	.LVL42:
 361              	.L21:
 688:Generated_Source\PSoC6\pdl\rtos\FreeRTOS\10.0.1\Source/stream_buffer.c **** /*-----------------------------------------------------------*/
 362              		.loc 1 688 0
 363 004e 03B0     		add	sp, sp, #12
 364              		.cfi_def_cfa_offset 12
 365              		@ sp needed
 366 0050 30BD     		pop	{r4, r5, pc}
 367              		.cfi_endproc
 368              	.LFE603:
 369              		.size	prvWriteMessageToBuffer, .-prvWriteMessageToBuffer
 370 0052 00BF     		.section	.text.prvReadBytesFromBuffer,"ax",%progbits
 371              		.align	2
 372              		.thumb
 373              		.thumb_func
 374              		.type	prvReadBytesFromBuffer, %function
 375              	prvReadBytesFromBuffer:
 376              	.LFB612:
1067:Generated_Source\PSoC6\pdl\rtos\FreeRTOS\10.0.1\Source/stream_buffer.c **** size_t xCount, xFirstLength, xNextTail;
 377              		.loc 1 1067 0
 378              		.cfi_startproc
 379              		@ args = 0, pretend = 0, frame = 0
 380              		@ frame_needed = 0, uses_anonymous_args = 0
 381              	.LVL43:
 382 0000 2DE9F843 		push	{r3, r4, r5, r6, r7, r8, r9, lr}
 383              		.cfi_def_cfa_offset 32
 384              		.cfi_offset 3, -32
 385              		.cfi_offset 4, -28
 386              		.cfi_offset 5, -24
 387              		.cfi_offset 6, -20
 388              		.cfi_offset 7, -16
 389              		.cfi_offset 8, -12
 390              		.cfi_offset 9, -8
 391              		.cfi_offset 14, -4
1071:Generated_Source\PSoC6\pdl\rtos\FreeRTOS\10.0.1\Source/stream_buffer.c **** 
 392              		.loc 1 1071 0
 393 0004 9046     		mov	r8, r2
 394 0006 9A42     		cmp	r2, r3
 395 0008 28BF     		it	cs
 396 000a 9846     		movcs	r8, r3
 397              	.LVL44:
1073:Generated_Source\PSoC6\pdl\rtos\FreeRTOS\10.0.1\Source/stream_buffer.c **** 	{
 398              		.loc 1 1073 0
 399 000c B8F1000F 		cmp	r8, #0
 400 0010 3ED0     		beq	.L27
1075:Generated_Source\PSoC6\pdl\rtos\FreeRTOS\10.0.1\Source/stream_buffer.c **** 
 401              		.loc 1 1075 0
 402 0012 0468     		ldr	r4, [r0]
 403              	.LVL45:
1080:Generated_Source\PSoC6\pdl\rtos\FreeRTOS\10.0.1\Source/stream_buffer.c **** 
 404              		.loc 1 1080 0
 405 0014 8368     		ldr	r3, [r0, #8]
 406              	.LVL46:
 407 0016 1F1B     		subs	r7, r3, r4
 408 0018 4745     		cmp	r7, r8
 409 001a 28BF     		it	cs
 410 001c 4746     		movcs	r7, r8
ARM GAS  C:\Users\kateb\AppData\Local\Temp\cc9mC3XY.s 			page 32


 411              	.LVL47:
1084:Generated_Source\PSoC6\pdl\rtos\FreeRTOS\10.0.1\Source/stream_buffer.c **** 		configASSERT( ( xNextTail + xFirstLength ) <= pxStreamBuffer->xLength );
 412              		.loc 1 1084 0
 413 001e BA42     		cmp	r2, r7
 414 0020 08D2     		bcs	.L28
 415              	.LBB86:
 416              	.LBB87:
 417              		.loc 2 156 0
 418              		.syntax unified
 419              	@ 156 "Generated_Source\PSoC6\pdl\rtos/FreeRTOS/10.0.1/Source/portable/GCC/CM4F/portmacro.h" 1
 420 0022 4FF02F03 			mov r3, #47												
 421 0026 83F31188 		msr basepri, r3											
 422 002a BFF36F8F 		isb														
 423 002e BFF34F8F 		dsb														
 424              	
 425              	@ 0 "" 2
 426              	.LVL48:
 427              		.thumb
 428              		.syntax unified
 429              	.L29:
 430 0032 FEE7     		b	.L29
 431              	.L28:
 432              	.LBE87:
 433              	.LBE86:
1085:Generated_Source\PSoC6\pdl\rtos\FreeRTOS\10.0.1\Source/stream_buffer.c **** 		memcpy( ( void * ) pucData, ( const void * ) &( pxStreamBuffer->pucBuffer[ xNextTail ] ), xFirstL
 434              		.loc 1 1085 0
 435 0034 E519     		adds	r5, r4, r7
 436 0036 AB42     		cmp	r3, r5
 437 0038 08D2     		bcs	.L30
 438              	.LBB88:
 439              	.LBB89:
 440              		.loc 2 156 0
 441              		.syntax unified
 442              	@ 156 "Generated_Source\PSoC6\pdl\rtos/FreeRTOS/10.0.1/Source/portable/GCC/CM4F/portmacro.h" 1
 443 003a 4FF02F03 			mov r3, #47												
 444 003e 83F31188 		msr basepri, r3											
 445 0042 BFF36F8F 		isb														
 446 0046 BFF34F8F 		dsb														
 447              	
 448              	@ 0 "" 2
 449              	.LVL49:
 450              		.thumb
 451              		.syntax unified
 452              	.L31:
 453 004a FEE7     		b	.L31
 454              	.L30:
 455 004c 9146     		mov	r9, r2
 456 004e 0E46     		mov	r6, r1
 457 0050 0546     		mov	r5, r0
 458              	.LBE89:
 459              	.LBE88:
1086:Generated_Source\PSoC6\pdl\rtos\FreeRTOS\10.0.1\Source/stream_buffer.c **** 
 460              		.loc 1 1086 0
 461 0052 8169     		ldr	r1, [r0, #24]
 462              	.LVL50:
 463 0054 3A46     		mov	r2, r7
 464              	.LVL51:
ARM GAS  C:\Users\kateb\AppData\Local\Temp\cc9mC3XY.s 			page 33


 465 0056 2144     		add	r1, r1, r4
 466 0058 3046     		mov	r0, r6
 467              	.LVL52:
 468 005a FFF7FEFF 		bl	memcpy
 469              	.LVL53:
1090:Generated_Source\PSoC6\pdl\rtos\FreeRTOS\10.0.1\Source/stream_buffer.c **** 		{
 470              		.loc 1 1090 0
 471 005e B845     		cmp	r8, r7
 472 0060 10D9     		bls	.L32
1093:Generated_Source\PSoC6\pdl\rtos\FreeRTOS\10.0.1\Source/stream_buffer.c **** 			memcpy( ( void * ) &( pucData[ xFirstLength ] ), ( void * ) ( pxStreamBuffer->pucBuffer ), xCoun
 473              		.loc 1 1093 0
 474 0062 C145     		cmp	r9, r8
 475 0064 08D2     		bcs	.L33
 476              	.LBB90:
 477              	.LBB91:
 478              		.loc 2 156 0
 479              		.syntax unified
 480              	@ 156 "Generated_Source\PSoC6\pdl\rtos/FreeRTOS/10.0.1/Source/portable/GCC/CM4F/portmacro.h" 1
 481 0066 4FF02F03 			mov r3, #47												
 482 006a 83F31188 		msr basepri, r3											
 483 006e BFF36F8F 		isb														
 484 0072 BFF34F8F 		dsb														
 485              	
 486              	@ 0 "" 2
 487              	.LVL54:
 488              		.thumb
 489              		.syntax unified
 490              	.L34:
 491 0076 FEE7     		b	.L34
 492              	.L33:
 493              	.LBE91:
 494              	.LBE90:
1094:Generated_Source\PSoC6\pdl\rtos\FreeRTOS\10.0.1\Source/stream_buffer.c **** 		}
 495              		.loc 1 1094 0
 496 0078 C7EB0802 		rsb	r2, r7, r8
 497 007c A969     		ldr	r1, [r5, #24]
 498 007e F019     		adds	r0, r6, r7
 499 0080 FFF7FEFF 		bl	memcpy
 500              	.LVL55:
 501              	.L32:
1103:Generated_Source\PSoC6\pdl\rtos\FreeRTOS\10.0.1\Source/stream_buffer.c **** 
 502              		.loc 1 1103 0
 503 0084 4444     		add	r4, r4, r8
 504              	.LVL56:
1105:Generated_Source\PSoC6\pdl\rtos\FreeRTOS\10.0.1\Source/stream_buffer.c **** 		{
 505              		.loc 1 1105 0
 506 0086 AB68     		ldr	r3, [r5, #8]
 507 0088 9C42     		cmp	r4, r3
 508 008a 00D3     		bcc	.L35
1107:Generated_Source\PSoC6\pdl\rtos\FreeRTOS\10.0.1\Source/stream_buffer.c **** 		}
 509              		.loc 1 1107 0
 510 008c E41A     		subs	r4, r4, r3
 511              	.LVL57:
 512              	.L35:
1110:Generated_Source\PSoC6\pdl\rtos\FreeRTOS\10.0.1\Source/stream_buffer.c **** 	}
 513              		.loc 1 1110 0
 514 008e 2C60     		str	r4, [r5]
ARM GAS  C:\Users\kateb\AppData\Local\Temp\cc9mC3XY.s 			page 34


 515              	.LVL58:
 516              	.L27:
1118:Generated_Source\PSoC6\pdl\rtos\FreeRTOS\10.0.1\Source/stream_buffer.c **** /*-----------------------------------------------------------*/
 517              		.loc 1 1118 0
 518 0090 4046     		mov	r0, r8
 519 0092 BDE8F883 		pop	{r3, r4, r5, r6, r7, r8, r9, pc}
 520              		.cfi_endproc
 521              	.LFE612:
 522              		.size	prvReadBytesFromBuffer, .-prvReadBytesFromBuffer
 523 0096 00BF     		.section	.text.prvReadMessageFromBuffer,"ax",%progbits
 524              		.align	2
 525              		.thumb
 526              		.thumb_func
 527              		.type	prvReadMessageFromBuffer, %function
 528              	prvReadMessageFromBuffer:
 529              	.LFB606:
 857:Generated_Source\PSoC6\pdl\rtos\FreeRTOS\10.0.1\Source/stream_buffer.c **** size_t xOriginalTail, xReceivedLength, xNextMessageLength;
 530              		.loc 1 857 0
 531              		.cfi_startproc
 532              		@ args = 4, pretend = 0, frame = 8
 533              		@ frame_needed = 0, uses_anonymous_args = 0
 534              	.LVL59:
 535 0000 2DE9F043 		push	{r4, r5, r6, r7, r8, r9, lr}
 536              		.cfi_def_cfa_offset 28
 537              		.cfi_offset 4, -28
 538              		.cfi_offset 5, -24
 539              		.cfi_offset 6, -20
 540              		.cfi_offset 7, -16
 541              		.cfi_offset 8, -12
 542              		.cfi_offset 9, -8
 543              		.cfi_offset 14, -4
 544 0004 83B0     		sub	sp, sp, #12
 545              		.cfi_def_cfa_offset 40
 546 0006 0546     		mov	r5, r0
 547 0008 0F46     		mov	r7, r1
 548 000a 9046     		mov	r8, r2
 549 000c 1C46     		mov	r4, r3
 550 000e 0A9E     		ldr	r6, [sp, #40]
 860:Generated_Source\PSoC6\pdl\rtos\FreeRTOS\10.0.1\Source/stream_buffer.c **** 	{
 551              		.loc 1 860 0
 552 0010 76B1     		cbz	r6, .L38
 866:Generated_Source\PSoC6\pdl\rtos\FreeRTOS\10.0.1\Source/stream_buffer.c **** 		( void ) prvReadBytesFromBuffer( pxStreamBuffer, ( uint8_t * ) &xNextMessageLength, xBytesToStore
 553              		.loc 1 866 0
 554 0012 D0F80090 		ldr	r9, [r0]
 555              	.LVL60:
 867:Generated_Source\PSoC6\pdl\rtos\FreeRTOS\10.0.1\Source/stream_buffer.c **** 
 556              		.loc 1 867 0
 557 0016 3246     		mov	r2, r6
 558              	.LVL61:
 559 0018 01A9     		add	r1, sp, #4
 560              	.LVL62:
 561 001a FFF7FEFF 		bl	prvReadBytesFromBuffer
 562              	.LVL63:
 871:Generated_Source\PSoC6\pdl\rtos\FreeRTOS\10.0.1\Source/stream_buffer.c **** 
 563              		.loc 1 871 0
 564 001e A41B     		subs	r4, r4, r6
 565              	.LVL64:
ARM GAS  C:\Users\kateb\AppData\Local\Temp\cc9mC3XY.s 			page 35


 875:Generated_Source\PSoC6\pdl\rtos\FreeRTOS\10.0.1\Source/stream_buffer.c **** 		{
 566              		.loc 1 875 0
 567 0020 019B     		ldr	r3, [sp, #4]
 568 0022 4345     		cmp	r3, r8
 569 0024 05D9     		bls	.L39
 880:Generated_Source\PSoC6\pdl\rtos\FreeRTOS\10.0.1\Source/stream_buffer.c **** 			xNextMessageLength = 0;
 570              		.loc 1 880 0
 571 0026 C5F80090 		str	r9, [r5]
 881:Generated_Source\PSoC6\pdl\rtos\FreeRTOS\10.0.1\Source/stream_buffer.c **** 		}
 572              		.loc 1 881 0
 573 002a 0023     		movs	r3, #0
 574 002c 0193     		str	r3, [sp, #4]
 575 002e 00E0     		b	.L39
 576              	.LVL65:
 577              	.L38:
 892:Generated_Source\PSoC6\pdl\rtos\FreeRTOS\10.0.1\Source/stream_buffer.c **** 	}
 578              		.loc 1 892 0
 579 0030 0192     		str	r2, [sp, #4]
 580              	.LVL66:
 581              	.L39:
 896:Generated_Source\PSoC6\pdl\rtos\FreeRTOS\10.0.1\Source/stream_buffer.c **** 
 582              		.loc 1 896 0
 583 0032 2346     		mov	r3, r4
 584 0034 019A     		ldr	r2, [sp, #4]
 585 0036 3946     		mov	r1, r7
 586 0038 2846     		mov	r0, r5
 587 003a FFF7FEFF 		bl	prvReadBytesFromBuffer
 588              	.LVL67:
 899:Generated_Source\PSoC6\pdl\rtos\FreeRTOS\10.0.1\Source/stream_buffer.c **** /*-----------------------------------------------------------*/
 589              		.loc 1 899 0
 590 003e 03B0     		add	sp, sp, #12
 591              		.cfi_def_cfa_offset 28
 592              		@ sp needed
 593 0040 BDE8F083 		pop	{r4, r5, r6, r7, r8, r9, pc}
 594              		.cfi_endproc
 595              	.LFE606:
 596              		.size	prvReadMessageFromBuffer, .-prvReadMessageFromBuffer
 597              		.section	.text.xStreamBufferGenericCreate,"ax",%progbits
 598              		.align	2
 599              		.global	xStreamBufferGenericCreate
 600              		.thumb
 601              		.thumb_func
 602              		.type	xStreamBufferGenericCreate, %function
 603              	xStreamBufferGenericCreate:
 604              	.LFB595:
 220:Generated_Source\PSoC6\pdl\rtos\FreeRTOS\10.0.1\Source/stream_buffer.c **** 	uint8_t *pucAllocatedMemory;
 605              		.loc 1 220 0
 606              		.cfi_startproc
 607              		@ args = 0, pretend = 0, frame = 0
 608              		@ frame_needed = 0, uses_anonymous_args = 0
 609              	.LVL68:
 227:Generated_Source\PSoC6\pdl\rtos\FreeRTOS\10.0.1\Source/stream_buffer.c **** 		configASSERT( xTriggerLevelBytes <= xBufferSizeBytes );
 610              		.loc 1 227 0
 611 0000 0428     		cmp	r0, #4
 612 0002 08D8     		bhi	.L42
 613              	.LBB92:
 614              	.LBB93:
ARM GAS  C:\Users\kateb\AppData\Local\Temp\cc9mC3XY.s 			page 36


 615              		.loc 2 156 0
 616              		.syntax unified
 617              	@ 156 "Generated_Source\PSoC6\pdl\rtos/FreeRTOS/10.0.1/Source/portable/GCC/CM4F/portmacro.h" 1
 618 0004 4FF02F03 			mov r3, #47												
 619 0008 83F31188 		msr basepri, r3											
 620 000c BFF36F8F 		isb														
 621 0010 BFF34F8F 		dsb														
 622              	
 623              	@ 0 "" 2
 624              	.LVL69:
 625              		.thumb
 626              		.syntax unified
 627              	.L43:
 628 0014 FEE7     		b	.L43
 629              	.L42:
 630              	.LBE93:
 631              	.LBE92:
 220:Generated_Source\PSoC6\pdl\rtos\FreeRTOS\10.0.1\Source/stream_buffer.c **** 	uint8_t *pucAllocatedMemory;
 632              		.loc 1 220 0
 633 0016 F0B5     		push	{r4, r5, r6, r7, lr}
 634              		.cfi_def_cfa_offset 20
 635              		.cfi_offset 4, -20
 636              		.cfi_offset 5, -16
 637              		.cfi_offset 6, -12
 638              		.cfi_offset 7, -8
 639              		.cfi_offset 14, -4
 640 0018 83B0     		sub	sp, sp, #12
 641              		.cfi_def_cfa_offset 32
 642 001a 0C46     		mov	r4, r1
 643 001c 1746     		mov	r7, r2
 228:Generated_Source\PSoC6\pdl\rtos\FreeRTOS\10.0.1\Source/stream_buffer.c **** 
 644              		.loc 1 228 0
 645 001e 8842     		cmp	r0, r1
 646 0020 08D2     		bcs	.L44
 647              	.LBB94:
 648              	.LBB95:
 649              		.loc 2 156 0
 650              		.syntax unified
 651              	@ 156 "Generated_Source\PSoC6\pdl\rtos/FreeRTOS/10.0.1/Source/portable/GCC/CM4F/portmacro.h" 1
 652 0022 4FF02F03 			mov r3, #47												
 653 0026 83F31188 		msr basepri, r3											
 654 002a BFF36F8F 		isb														
 655 002e BFF34F8F 		dsb														
 656              	
 657              	@ 0 "" 2
 658              	.LVL70:
 659              		.thumb
 660              		.syntax unified
 661              	.L45:
 662 0032 FEE7     		b	.L45
 663              	.L44:
 664              	.LBE95:
 665              	.LBE94:
 232:Generated_Source\PSoC6\pdl\rtos\FreeRTOS\10.0.1\Source/stream_buffer.c **** 		{
 666              		.loc 1 232 0
 667 0034 01B9     		cbnz	r1, .L46
 234:Generated_Source\PSoC6\pdl\rtos\FreeRTOS\10.0.1\Source/stream_buffer.c **** 		}
ARM GAS  C:\Users\kateb\AppData\Local\Temp\cc9mC3XY.s 			page 37


 668              		.loc 1 234 0
 669 0036 0124     		movs	r4, #1
 670              	.L46:
 671              	.LVL71:
 245:Generated_Source\PSoC6\pdl\rtos\FreeRTOS\10.0.1\Source/stream_buffer.c **** 		pucAllocatedMemory = ( uint8_t * ) pvPortMalloc( xBufferSizeBytes + sizeof( StreamBuffer_t ) ); /
 672              		.loc 1 245 0
 673 0038 461C     		adds	r6, r0, #1
 674              	.LVL72:
 246:Generated_Source\PSoC6\pdl\rtos\FreeRTOS\10.0.1\Source/stream_buffer.c **** 
 675              		.loc 1 246 0
 676 003a 2130     		adds	r0, r0, #33
 677 003c FFF7FEFF 		bl	pvPortMalloc
 678              	.LVL73:
 248:Generated_Source\PSoC6\pdl\rtos\FreeRTOS\10.0.1\Source/stream_buffer.c **** 		{
 679              		.loc 1 248 0
 680 0040 0546     		mov	r5, r0
 681 0042 30B1     		cbz	r0, .L47
 250:Generated_Source\PSoC6\pdl\rtos\FreeRTOS\10.0.1\Source/stream_buffer.c **** 										   pucAllocatedMemory + sizeof( StreamBuffer_t ),  /* Storage area follows. */ /*lint !e9
 682              		.loc 1 250 0
 683 0044 0097     		str	r7, [sp]
 684 0046 2346     		mov	r3, r4
 685 0048 3246     		mov	r2, r6
 686 004a 00F12001 		add	r1, r0, #32
 687 004e FFF7FEFF 		bl	prvInitialiseNewStreamBuffer
 688              	.LVL74:
 689              	.L47:
 264:Generated_Source\PSoC6\pdl\rtos\FreeRTOS\10.0.1\Source/stream_buffer.c **** 
 690              		.loc 1 264 0
 691 0052 2846     		mov	r0, r5
 692 0054 03B0     		add	sp, sp, #12
 693              		.cfi_def_cfa_offset 20
 694              		@ sp needed
 695 0056 F0BD     		pop	{r4, r5, r6, r7, pc}
 696              		.cfi_endproc
 697              	.LFE595:
 698              		.size	xStreamBufferGenericCreate, .-xStreamBufferGenericCreate
 699              		.section	.text.vStreamBufferDelete,"ax",%progbits
 700              		.align	2
 701              		.global	vStreamBufferDelete
 702              		.thumb
 703              		.thumb_func
 704              		.type	vStreamBufferDelete, %function
 705              	vStreamBufferDelete:
 706              	.LFB596:
 336:Generated_Source\PSoC6\pdl\rtos\FreeRTOS\10.0.1\Source/stream_buffer.c **** StreamBuffer_t * pxStreamBuffer = ( StreamBuffer_t * ) xStreamBuffer; /*lint !e9087 !e9079 Safe cas
 707              		.loc 1 336 0
 708              		.cfi_startproc
 709              		@ args = 0, pretend = 0, frame = 0
 710              		@ frame_needed = 0, uses_anonymous_args = 0
 711              	.LVL75:
 712 0000 08B5     		push	{r3, lr}
 713              		.cfi_def_cfa_offset 8
 714              		.cfi_offset 3, -8
 715              		.cfi_offset 14, -4
 716              	.LVL76:
 339:Generated_Source\PSoC6\pdl\rtos\FreeRTOS\10.0.1\Source/stream_buffer.c **** 
 717              		.loc 1 339 0
ARM GAS  C:\Users\kateb\AppData\Local\Temp\cc9mC3XY.s 			page 38


 718 0002 40B9     		cbnz	r0, .L51
 719              	.LBB96:
 720              	.LBB97:
 721              		.loc 2 156 0
 722              		.syntax unified
 723              	@ 156 "Generated_Source\PSoC6\pdl\rtos/FreeRTOS/10.0.1/Source/portable/GCC/CM4F/portmacro.h" 1
 724 0004 4FF02F03 			mov r3, #47												
 725 0008 83F31188 		msr basepri, r3											
 726 000c BFF36F8F 		isb														
 727 0010 BFF34F8F 		dsb														
 728              	
 729              	@ 0 "" 2
 730              	.LVL77:
 731              		.thumb
 732              		.syntax unified
 733              	.L52:
 734 0014 FEE7     		b	.L52
 735              	.L51:
 736              	.LBE97:
 737              	.LBE96:
 343:Generated_Source\PSoC6\pdl\rtos\FreeRTOS\10.0.1\Source/stream_buffer.c **** 	{
 738              		.loc 1 343 0
 739 0016 037F     		ldrb	r3, [r0, #28]	@ zero_extendqisi2
 740 0018 13F0020F 		tst	r3, #2
 741 001c 02D1     		bne	.L53
 349:Generated_Source\PSoC6\pdl\rtos\FreeRTOS\10.0.1\Source/stream_buffer.c **** 		}
 742              		.loc 1 349 0
 743 001e FFF7FEFF 		bl	vPortFree
 744              	.LVL78:
 745 0022 08BD     		pop	{r3, pc}
 746              	.LVL79:
 747              	.L53:
 363:Generated_Source\PSoC6\pdl\rtos\FreeRTOS\10.0.1\Source/stream_buffer.c **** 	}
 748              		.loc 1 363 0
 749 0024 2022     		movs	r2, #32
 750 0026 0021     		movs	r1, #0
 751 0028 FFF7FEFF 		bl	memset
 752              	.LVL80:
 753 002c 08BD     		pop	{r3, pc}
 754              		.cfi_endproc
 755              	.LFE596:
 756              		.size	vStreamBufferDelete, .-vStreamBufferDelete
 757 002e 00BF     		.section	.text.xStreamBufferReset,"ax",%progbits
 758              		.align	2
 759              		.global	xStreamBufferReset
 760              		.thumb
 761              		.thumb_func
 762              		.type	xStreamBufferReset, %function
 763              	xStreamBufferReset:
 764              	.LFB597:
 369:Generated_Source\PSoC6\pdl\rtos\FreeRTOS\10.0.1\Source/stream_buffer.c **** StreamBuffer_t * const pxStreamBuffer = ( StreamBuffer_t * ) xStreamBuffer; /*lint !e9087 !e9079 Sa
 765              		.loc 1 369 0
 766              		.cfi_startproc
 767              		@ args = 0, pretend = 0, frame = 0
 768              		@ frame_needed = 0, uses_anonymous_args = 0
 769              	.LVL81:
 377:Generated_Source\PSoC6\pdl\rtos\FreeRTOS\10.0.1\Source/stream_buffer.c **** 
ARM GAS  C:\Users\kateb\AppData\Local\Temp\cc9mC3XY.s 			page 39


 770              		.loc 1 377 0
 771 0000 40B9     		cbnz	r0, .L57
 772              	.LBB98:
 773              	.LBB99:
 774              		.loc 2 156 0
 775              		.syntax unified
 776              	@ 156 "Generated_Source\PSoC6\pdl\rtos/FreeRTOS/10.0.1/Source/portable/GCC/CM4F/portmacro.h" 1
 777 0002 4FF02F03 			mov r3, #47												
 778 0006 83F31188 		msr basepri, r3											
 779 000a BFF36F8F 		isb														
 780 000e BFF34F8F 		dsb														
 781              	
 782              	@ 0 "" 2
 783              	.LVL82:
 784              		.thumb
 785              		.syntax unified
 786              	.L58:
 787 0012 FEE7     		b	.L58
 788              	.L57:
 789 0014 0346     		mov	r3, r0
 790              	.LBE99:
 791              	.LBE98:
 388:Generated_Source\PSoC6\pdl\rtos\FreeRTOS\10.0.1\Source/stream_buffer.c **** 	{
 792              		.loc 1 388 0
 793 0016 0269     		ldr	r2, [r0, #16]
 794 0018 9AB9     		cbnz	r2, .L61
 390:Generated_Source\PSoC6\pdl\rtos\FreeRTOS\10.0.1\Source/stream_buffer.c **** 		{
 795              		.loc 1 390 0
 796 001a 4269     		ldr	r2, [r0, #20]
 797 001c 9AB9     		cbnz	r2, .L62
 369:Generated_Source\PSoC6\pdl\rtos\FreeRTOS\10.0.1\Source/stream_buffer.c **** StreamBuffer_t * const pxStreamBuffer = ( StreamBuffer_t * ) xStreamBuffer; /*lint !e9087 !e9079 Sa
 798              		.loc 1 369 0
 799 001e 10B5     		push	{r4, lr}
 800              		.cfi_def_cfa_offset 8
 801              		.cfi_offset 4, -8
 802              		.cfi_offset 14, -4
 803 0020 82B0     		sub	sp, sp, #8
 804              		.cfi_def_cfa_offset 16
 392:Generated_Source\PSoC6\pdl\rtos\FreeRTOS\10.0.1\Source/stream_buffer.c **** 			{
 805              		.loc 1 392 0
 806 0022 027F     		ldrb	r2, [r0, #28]	@ zero_extendqisi2
 807 0024 12F0010F 		tst	r2, #1
 808 0028 01D0     		beq	.L63
 394:Generated_Source\PSoC6\pdl\rtos\FreeRTOS\10.0.1\Source/stream_buffer.c **** 			}
 809              		.loc 1 394 0
 810 002a 0124     		movs	r4, #1
 811 002c 00E0     		b	.L60
 812              	.L63:
 398:Generated_Source\PSoC6\pdl\rtos\FreeRTOS\10.0.1\Source/stream_buffer.c **** 			}
 813              		.loc 1 398 0
 814 002e 0024     		movs	r4, #0
 815              	.L60:
 816 0030 1846     		mov	r0, r3
 817              	.LVL83:
 401:Generated_Source\PSoC6\pdl\rtos\FreeRTOS\10.0.1\Source/stream_buffer.c **** 										  pxStreamBuffer->pucBuffer,
 818              		.loc 1 401 0
 819 0032 DB68     		ldr	r3, [r3, #12]
ARM GAS  C:\Users\kateb\AppData\Local\Temp\cc9mC3XY.s 			page 40


 820              	.LVL84:
 821 0034 8268     		ldr	r2, [r0, #8]
 822 0036 8169     		ldr	r1, [r0, #24]
 823 0038 0094     		str	r4, [sp]
 824 003a FFF7FEFF 		bl	prvInitialiseNewStreamBuffer
 825              	.LVL85:
 406:Generated_Source\PSoC6\pdl\rtos\FreeRTOS\10.0.1\Source/stream_buffer.c **** 
 826              		.loc 1 406 0
 827 003e 0120     		movs	r0, #1
 828 0040 03E0     		b	.L59
 829              	.LVL86:
 830              	.L61:
 831              		.cfi_def_cfa_offset 0
 832              		.cfi_restore 4
 833              		.cfi_restore 14
 371:Generated_Source\PSoC6\pdl\rtos\FreeRTOS\10.0.1\Source/stream_buffer.c **** 
 834              		.loc 1 371 0
 835 0042 0020     		movs	r0, #0
 836              	.LVL87:
 837 0044 7047     		bx	lr
 838              	.LVL88:
 839              	.L62:
 840 0046 0020     		movs	r0, #0
 841              	.LVL89:
 842 0048 7047     		bx	lr
 843              	.LVL90:
 844              	.L59:
 845              		.cfi_def_cfa_offset 16
 846              		.cfi_offset 4, -8
 847              		.cfi_offset 14, -4
 419:Generated_Source\PSoC6\pdl\rtos\FreeRTOS\10.0.1\Source/stream_buffer.c **** /*-----------------------------------------------------------*/
 848              		.loc 1 419 0
 849 004a 02B0     		add	sp, sp, #8
 850              		.cfi_def_cfa_offset 8
 851              		@ sp needed
 852 004c 10BD     		pop	{r4, pc}
 853              		.cfi_endproc
 854              	.LFE597:
 855              		.size	xStreamBufferReset, .-xStreamBufferReset
 856 004e 00BF     		.section	.text.xStreamBufferSetTriggerLevel,"ax",%progbits
 857              		.align	2
 858              		.global	xStreamBufferSetTriggerLevel
 859              		.thumb
 860              		.thumb_func
 861              		.type	xStreamBufferSetTriggerLevel, %function
 862              	xStreamBufferSetTriggerLevel:
 863              	.LFB598:
 423:Generated_Source\PSoC6\pdl\rtos\FreeRTOS\10.0.1\Source/stream_buffer.c **** StreamBuffer_t * const pxStreamBuffer = ( StreamBuffer_t * ) xStreamBuffer; /*lint !e9087 !e9079 Sa
 864              		.loc 1 423 0
 865              		.cfi_startproc
 866              		@ args = 0, pretend = 0, frame = 0
 867              		@ frame_needed = 0, uses_anonymous_args = 0
 868              		@ link register save eliminated.
 869              	.LVL91:
 427:Generated_Source\PSoC6\pdl\rtos\FreeRTOS\10.0.1\Source/stream_buffer.c **** 
 870              		.loc 1 427 0
 871 0000 0346     		mov	r3, r0
ARM GAS  C:\Users\kateb\AppData\Local\Temp\cc9mC3XY.s 			page 41


 872 0002 40B9     		cbnz	r0, .L67
 873              	.LBB100:
 874              	.LBB101:
 875              		.loc 2 156 0
 876              		.syntax unified
 877              	@ 156 "Generated_Source\PSoC6\pdl\rtos/FreeRTOS/10.0.1/Source/portable/GCC/CM4F/portmacro.h" 1
 878 0004 4FF02F03 			mov r3, #47												
 879 0008 83F31188 		msr basepri, r3											
 880 000c BFF36F8F 		isb														
 881 0010 BFF34F8F 		dsb														
 882              	
 883              	@ 0 "" 2
 884              	.LVL92:
 885              		.thumb
 886              		.syntax unified
 887              	.L68:
 888 0014 FEE7     		b	.L68
 889              	.L67:
 890              	.LBE101:
 891              	.LBE100:
 430:Generated_Source\PSoC6\pdl\rtos\FreeRTOS\10.0.1\Source/stream_buffer.c **** 	{
 892              		.loc 1 430 0
 893 0016 01B9     		cbnz	r1, .L69
 432:Generated_Source\PSoC6\pdl\rtos\FreeRTOS\10.0.1\Source/stream_buffer.c **** 	}
 894              		.loc 1 432 0
 895 0018 0121     		movs	r1, #1
 896              	.LVL93:
 897              	.L69:
 437:Generated_Source\PSoC6\pdl\rtos\FreeRTOS\10.0.1\Source/stream_buffer.c **** 	{
 898              		.loc 1 437 0
 899 001a 9A68     		ldr	r2, [r3, #8]
 900 001c 9142     		cmp	r1, r2
 901 001e 02D8     		bhi	.L72
 439:Generated_Source\PSoC6\pdl\rtos\FreeRTOS\10.0.1\Source/stream_buffer.c **** 		xReturn = pdPASS;
 902              		.loc 1 439 0
 903 0020 D960     		str	r1, [r3, #12]
 904              	.LVL94:
 440:Generated_Source\PSoC6\pdl\rtos\FreeRTOS\10.0.1\Source/stream_buffer.c **** 	}
 905              		.loc 1 440 0
 906 0022 0120     		movs	r0, #1
 907              	.LVL95:
 908 0024 7047     		bx	lr
 909              	.LVL96:
 910              	.L72:
 444:Generated_Source\PSoC6\pdl\rtos\FreeRTOS\10.0.1\Source/stream_buffer.c **** 	}
 911              		.loc 1 444 0
 912 0026 0020     		movs	r0, #0
 913              	.LVL97:
 448:Generated_Source\PSoC6\pdl\rtos\FreeRTOS\10.0.1\Source/stream_buffer.c **** /*-----------------------------------------------------------*/
 914              		.loc 1 448 0
 915 0028 7047     		bx	lr
 916              		.cfi_endproc
 917              	.LFE598:
 918              		.size	xStreamBufferSetTriggerLevel, .-xStreamBufferSetTriggerLevel
 919 002a 00BF     		.section	.text.xStreamBufferSpacesAvailable,"ax",%progbits
 920              		.align	2
 921              		.global	xStreamBufferSpacesAvailable
ARM GAS  C:\Users\kateb\AppData\Local\Temp\cc9mC3XY.s 			page 42


 922              		.thumb
 923              		.thumb_func
 924              		.type	xStreamBufferSpacesAvailable, %function
 925              	xStreamBufferSpacesAvailable:
 926              	.LFB599:
 452:Generated_Source\PSoC6\pdl\rtos\FreeRTOS\10.0.1\Source/stream_buffer.c **** const StreamBuffer_t * const pxStreamBuffer = ( StreamBuffer_t * ) xStreamBuffer; /*lint !e9087 !e9
 927              		.loc 1 452 0
 928              		.cfi_startproc
 929              		@ args = 0, pretend = 0, frame = 0
 930              		@ frame_needed = 0, uses_anonymous_args = 0
 931              		@ link register save eliminated.
 932              	.LVL98:
 456:Generated_Source\PSoC6\pdl\rtos\FreeRTOS\10.0.1\Source/stream_buffer.c **** 
 933              		.loc 1 456 0
 934 0000 40B9     		cbnz	r0, .L74
 935              	.LBB102:
 936              	.LBB103:
 937              		.loc 2 156 0
 938              		.syntax unified
 939              	@ 156 "Generated_Source\PSoC6\pdl\rtos/FreeRTOS/10.0.1/Source/portable/GCC/CM4F/portmacro.h" 1
 940 0002 4FF02F03 			mov r3, #47												
 941 0006 83F31188 		msr basepri, r3											
 942 000a BFF36F8F 		isb														
 943 000e BFF34F8F 		dsb														
 944              	
 945              	@ 0 "" 2
 946              	.LVL99:
 947              		.thumb
 948              		.syntax unified
 949              	.L75:
 950 0012 FEE7     		b	.L75
 951              	.L74:
 952              	.LBE103:
 953              	.LBE102:
 458:Generated_Source\PSoC6\pdl\rtos\FreeRTOS\10.0.1\Source/stream_buffer.c **** 	xSpace -= pxStreamBuffer->xHead;
 954              		.loc 1 458 0
 955 0014 8268     		ldr	r2, [r0, #8]
 956 0016 0368     		ldr	r3, [r0]
 957 0018 1344     		add	r3, r3, r2
 958              	.LVL100:
 459:Generated_Source\PSoC6\pdl\rtos\FreeRTOS\10.0.1\Source/stream_buffer.c **** 	xSpace -= ( size_t ) 1;
 959              		.loc 1 459 0
 960 001a 4068     		ldr	r0, [r0, #4]
 961              	.LVL101:
 962 001c 181A     		subs	r0, r3, r0
 963              	.LVL102:
 460:Generated_Source\PSoC6\pdl\rtos\FreeRTOS\10.0.1\Source/stream_buffer.c **** 
 964              		.loc 1 460 0
 965 001e 0138     		subs	r0, r0, #1
 966              	.LVL103:
 462:Generated_Source\PSoC6\pdl\rtos\FreeRTOS\10.0.1\Source/stream_buffer.c **** 	{
 967              		.loc 1 462 0
 968 0020 8242     		cmp	r2, r0
 969 0022 00D8     		bhi	.L76
 464:Generated_Source\PSoC6\pdl\rtos\FreeRTOS\10.0.1\Source/stream_buffer.c **** 	}
 970              		.loc 1 464 0
 971 0024 801A     		subs	r0, r0, r2
ARM GAS  C:\Users\kateb\AppData\Local\Temp\cc9mC3XY.s 			page 43


 972              	.LVL104:
 973              	.L76:
 472:Generated_Source\PSoC6\pdl\rtos\FreeRTOS\10.0.1\Source/stream_buffer.c **** /*-----------------------------------------------------------*/
 974              		.loc 1 472 0
 975 0026 7047     		bx	lr
 976              		.cfi_endproc
 977              	.LFE599:
 978              		.size	xStreamBufferSpacesAvailable, .-xStreamBufferSpacesAvailable
 979              		.section	.text.xStreamBufferBytesAvailable,"ax",%progbits
 980              		.align	2
 981              		.global	xStreamBufferBytesAvailable
 982              		.thumb
 983              		.thumb_func
 984              		.type	xStreamBufferBytesAvailable, %function
 985              	xStreamBufferBytesAvailable:
 986              	.LFB600:
 476:Generated_Source\PSoC6\pdl\rtos\FreeRTOS\10.0.1\Source/stream_buffer.c **** const StreamBuffer_t * const pxStreamBuffer = ( StreamBuffer_t * ) xStreamBuffer; /*lint !e9087 !e9
 987              		.loc 1 476 0
 988              		.cfi_startproc
 989              		@ args = 0, pretend = 0, frame = 0
 990              		@ frame_needed = 0, uses_anonymous_args = 0
 991              	.LVL105:
 992 0000 08B5     		push	{r3, lr}
 993              		.cfi_def_cfa_offset 8
 994              		.cfi_offset 3, -8
 995              		.cfi_offset 14, -4
 996              	.LVL106:
 480:Generated_Source\PSoC6\pdl\rtos\FreeRTOS\10.0.1\Source/stream_buffer.c **** 
 997              		.loc 1 480 0
 998 0002 40B9     		cbnz	r0, .L78
 999              	.LBB104:
 1000              	.LBB105:
 1001              		.loc 2 156 0
 1002              		.syntax unified
 1003              	@ 156 "Generated_Source\PSoC6\pdl\rtos/FreeRTOS/10.0.1/Source/portable/GCC/CM4F/portmacro.h" 1
 1004 0004 4FF02F03 			mov r3, #47												
 1005 0008 83F31188 		msr basepri, r3											
 1006 000c BFF36F8F 		isb														
 1007 0010 BFF34F8F 		dsb														
 1008              	
 1009              	@ 0 "" 2
 1010              	.LVL107:
 1011              		.thumb
 1012              		.syntax unified
 1013              	.L79:
 1014 0014 FEE7     		b	.L79
 1015              	.L78:
 1016              	.LBE105:
 1017              	.LBE104:
 482:Generated_Source\PSoC6\pdl\rtos\FreeRTOS\10.0.1\Source/stream_buffer.c **** 	return xReturn;
 1018              		.loc 1 482 0
 1019 0016 FFF7FEFF 		bl	prvBytesInBuffer
 1020              	.LVL108:
 484:Generated_Source\PSoC6\pdl\rtos\FreeRTOS\10.0.1\Source/stream_buffer.c **** /*-----------------------------------------------------------*/
 1021              		.loc 1 484 0
 1022 001a 08BD     		pop	{r3, pc}
 1023              		.cfi_endproc
ARM GAS  C:\Users\kateb\AppData\Local\Temp\cc9mC3XY.s 			page 44


 1024              	.LFE600:
 1025              		.size	xStreamBufferBytesAvailable, .-xStreamBufferBytesAvailable
 1026              		.section	.text.xStreamBufferSend,"ax",%progbits
 1027              		.align	2
 1028              		.global	xStreamBufferSend
 1029              		.thumb
 1030              		.thumb_func
 1031              		.type	xStreamBufferSend, %function
 1032              	xStreamBufferSend:
 1033              	.LFB601:
 491:Generated_Source\PSoC6\pdl\rtos\FreeRTOS\10.0.1\Source/stream_buffer.c **** StreamBuffer_t * const pxStreamBuffer = ( StreamBuffer_t * ) xStreamBuffer; /*lint !e9087 !e9079 Sa
 1034              		.loc 1 491 0
 1035              		.cfi_startproc
 1036              		@ args = 0, pretend = 0, frame = 16
 1037              		@ frame_needed = 0, uses_anonymous_args = 0
 1038              	.LVL109:
 1039 0000 2DE9F043 		push	{r4, r5, r6, r7, r8, r9, lr}
 1040              		.cfi_def_cfa_offset 28
 1041              		.cfi_offset 4, -28
 1042              		.cfi_offset 5, -24
 1043              		.cfi_offset 6, -20
 1044              		.cfi_offset 7, -16
 1045              		.cfi_offset 8, -12
 1046              		.cfi_offset 9, -8
 1047              		.cfi_offset 14, -4
 1048 0004 87B0     		sub	sp, sp, #28
 1049              		.cfi_def_cfa_offset 56
 1050 0006 0393     		str	r3, [sp, #12]
 1051              	.LVL110:
 497:Generated_Source\PSoC6\pdl\rtos\FreeRTOS\10.0.1\Source/stream_buffer.c **** 	configASSERT( pxStreamBuffer );
 1052              		.loc 1 497 0
 1053 0008 41B9     		cbnz	r1, .L82
 1054              	.LBB106:
 1055              	.LBB107:
 1056              		.loc 2 156 0
 1057              		.syntax unified
 1058              	@ 156 "Generated_Source\PSoC6\pdl\rtos/FreeRTOS/10.0.1/Source/portable/GCC/CM4F/portmacro.h" 1
 1059 000a 4FF02F03 			mov r3, #47												
 1060 000e 83F31188 		msr basepri, r3											
 1061 0012 BFF36F8F 		isb														
 1062 0016 BFF34F8F 		dsb														
 1063              	
 1064              	@ 0 "" 2
 1065              	.LVL111:
 1066              		.thumb
 1067              		.syntax unified
 1068              	.L83:
 1069 001a FEE7     		b	.L83
 1070              	.LVL112:
 1071              	.L82:
 1072 001c 0F46     		mov	r7, r1
 1073              	.LBE107:
 1074              	.LBE106:
 498:Generated_Source\PSoC6\pdl\rtos\FreeRTOS\10.0.1\Source/stream_buffer.c **** 
 1075              		.loc 1 498 0
 1076 001e 40B9     		cbnz	r0, .L84
 1077              	.LBB108:
ARM GAS  C:\Users\kateb\AppData\Local\Temp\cc9mC3XY.s 			page 45


 1078              	.LBB109:
 1079              		.loc 2 156 0
 1080              		.syntax unified
 1081              	@ 156 "Generated_Source\PSoC6\pdl\rtos/FreeRTOS/10.0.1/Source/portable/GCC/CM4F/portmacro.h" 1
 1082 0020 4FF02F03 			mov r3, #47												
 1083 0024 83F31188 		msr basepri, r3											
 1084 0028 BFF36F8F 		isb														
 1085 002c BFF34F8F 		dsb														
 1086              	
 1087              	@ 0 "" 2
 1088              	.LVL113:
 1089              		.thumb
 1090              		.syntax unified
 1091              	.L85:
 1092 0030 FEE7     		b	.L85
 1093              	.LVL114:
 1094              	.L84:
 1095              	.LBE109:
 1096              	.LBE108:
 504:Generated_Source\PSoC6\pdl\rtos\FreeRTOS\10.0.1\Source/stream_buffer.c **** 	{
 1097              		.loc 1 504 0
 1098 0032 037F     		ldrb	r3, [r0, #28]	@ zero_extendqisi2
 1099              	.LVL115:
 1100 0034 13F0010F 		tst	r3, #1
 1101 0038 02D0     		beq	.L95
 506:Generated_Source\PSoC6\pdl\rtos\FreeRTOS\10.0.1\Source/stream_buffer.c **** 	}
 1102              		.loc 1 506 0
 1103 003a 02F10408 		add	r8, r2, #4
 1104              	.LVL116:
 1105 003e 00E0     		b	.L86
 1106              	.LVL117:
 1107              	.L95:
 494:Generated_Source\PSoC6\pdl\rtos\FreeRTOS\10.0.1\Source/stream_buffer.c **** TimeOut_t xTimeOut;
 1108              		.loc 1 494 0
 1109 0040 9046     		mov	r8, r2
 1110              	.LVL118:
 1111              	.L86:
 1112 0042 1646     		mov	r6, r2
 1113 0044 0446     		mov	r4, r0
 513:Generated_Source\PSoC6\pdl\rtos\FreeRTOS\10.0.1\Source/stream_buffer.c **** 	{
 1114              		.loc 1 513 0
 1115 0046 039B     		ldr	r3, [sp, #12]
 1116 0048 9BB3     		cbz	r3, .L96
 515:Generated_Source\PSoC6\pdl\rtos\FreeRTOS\10.0.1\Source/stream_buffer.c **** 
 1117              		.loc 1 515 0
 1118 004a 04A8     		add	r0, sp, #16
 1119              	.LVL119:
 1120 004c FFF7FEFF 		bl	vTaskSetTimeOutState
 1121              	.LVL120:
 1122              	.L91:
 521:Generated_Source\PSoC6\pdl\rtos\FreeRTOS\10.0.1\Source/stream_buffer.c **** 			{
 1123              		.loc 1 521 0
 1124 0050 FFF7FEFF 		bl	vPortEnterCritical
 1125              	.LVL121:
 523:Generated_Source\PSoC6\pdl\rtos\FreeRTOS\10.0.1\Source/stream_buffer.c **** 
 1126              		.loc 1 523 0
 1127 0054 2046     		mov	r0, r4
ARM GAS  C:\Users\kateb\AppData\Local\Temp\cc9mC3XY.s 			page 46


 1128 0056 FFF7FEFF 		bl	xStreamBufferSpacesAvailable
 1129              	.LVL122:
 1130 005a 0546     		mov	r5, r0
 1131              	.LVL123:
 525:Generated_Source\PSoC6\pdl\rtos\FreeRTOS\10.0.1\Source/stream_buffer.c **** 				{
 1132              		.loc 1 525 0
 1133 005c 8045     		cmp	r8, r0
 1134 005e 25D9     		bls	.L88
 528:Generated_Source\PSoC6\pdl\rtos\FreeRTOS\10.0.1\Source/stream_buffer.c **** 
 1135              		.loc 1 528 0
 1136 0060 0020     		movs	r0, #0
 1137              	.LVL124:
 1138 0062 FFF7FEFF 		bl	xTaskNotifyStateClear
 1139              	.LVL125:
 531:Generated_Source\PSoC6\pdl\rtos\FreeRTOS\10.0.1\Source/stream_buffer.c **** 					pxStreamBuffer->xTaskWaitingToSend = xTaskGetCurrentTaskHandle();
 1140              		.loc 1 531 0
 1141 0066 6369     		ldr	r3, [r4, #20]
 1142 0068 43B1     		cbz	r3, .L89
 1143              	.LBB110:
 1144              	.LBB111:
 1145              		.loc 2 156 0
 1146              		.syntax unified
 1147              	@ 156 "Generated_Source\PSoC6\pdl\rtos/FreeRTOS/10.0.1/Source/portable/GCC/CM4F/portmacro.h" 1
 1148 006a 4FF02F03 			mov r3, #47												
 1149 006e 83F31188 		msr basepri, r3											
 1150 0072 BFF36F8F 		isb														
 1151 0076 BFF34F8F 		dsb														
 1152              	
 1153              	@ 0 "" 2
 1154              	.LVL126:
 1155              		.thumb
 1156              		.syntax unified
 1157              	.L90:
 1158 007a FEE7     		b	.L90
 1159              	.L89:
 1160              	.LBE111:
 1161              	.LBE110:
 532:Generated_Source\PSoC6\pdl\rtos\FreeRTOS\10.0.1\Source/stream_buffer.c **** 				}
 1162              		.loc 1 532 0
 1163 007c FFF7FEFF 		bl	xTaskGetCurrentTaskHandle
 1164              	.LVL127:
 1165 0080 6061     		str	r0, [r4, #20]
 540:Generated_Source\PSoC6\pdl\rtos\FreeRTOS\10.0.1\Source/stream_buffer.c **** 
 1166              		.loc 1 540 0
 1167 0082 FFF7FEFF 		bl	vPortExitCritical
 1168              	.LVL128:
 543:Generated_Source\PSoC6\pdl\rtos\FreeRTOS\10.0.1\Source/stream_buffer.c **** 			pxStreamBuffer->xTaskWaitingToSend = NULL;
 1169              		.loc 1 543 0
 1170 0086 0DF11809 		add	r9, sp, #24
 1171 008a 59F80C3D 		ldr	r3, [r9, #-12]!
 1172 008e 0022     		movs	r2, #0
 1173 0090 4FF0FF31 		mov	r1, #-1
 1174 0094 1046     		mov	r0, r2
 1175 0096 FFF7FEFF 		bl	xTaskNotifyWait
 1176              	.LVL129:
 544:Generated_Source\PSoC6\pdl\rtos\FreeRTOS\10.0.1\Source/stream_buffer.c **** 
 1177              		.loc 1 544 0
ARM GAS  C:\Users\kateb\AppData\Local\Temp\cc9mC3XY.s 			page 47


 1178 009a 0023     		movs	r3, #0
 1179 009c 6361     		str	r3, [r4, #20]
 546:Generated_Source\PSoC6\pdl\rtos\FreeRTOS\10.0.1\Source/stream_buffer.c **** 	}
 1180              		.loc 1 546 0
 1181 009e 4946     		mov	r1, r9
 1182 00a0 04A8     		add	r0, sp, #16
 1183 00a2 FFF7FEFF 		bl	xTaskCheckForTimeOut
 1184              	.LVL130:
 1185 00a6 0028     		cmp	r0, #0
 1186 00a8 D2D0     		beq	.L91
 1187 00aa 03E0     		b	.L87
 1188              	.LVL131:
 1189              	.L88:
 536:Generated_Source\PSoC6\pdl\rtos\FreeRTOS\10.0.1\Source/stream_buffer.c **** 					break;
 1190              		.loc 1 536 0
 1191 00ac FFF7FEFF 		bl	vPortExitCritical
 1192              	.LVL132:
 537:Generated_Source\PSoC6\pdl\rtos\FreeRTOS\10.0.1\Source/stream_buffer.c **** 				}
 1193              		.loc 1 537 0
 1194 00b0 00E0     		b	.L87
 1195              	.LVL133:
 1196              	.L96:
 493:Generated_Source\PSoC6\pdl\rtos\FreeRTOS\10.0.1\Source/stream_buffer.c **** size_t xRequiredSpace = xDataLengthBytes;
 1197              		.loc 1 493 0
 1198 00b2 0025     		movs	r5, #0
 1199              	.LVL134:
 1200              	.L87:
 553:Generated_Source\PSoC6\pdl\rtos\FreeRTOS\10.0.1\Source/stream_buffer.c **** 	{
 1201              		.loc 1 553 0
 1202 00b4 1DB9     		cbnz	r5, .L92
 555:Generated_Source\PSoC6\pdl\rtos\FreeRTOS\10.0.1\Source/stream_buffer.c **** 	}
 1203              		.loc 1 555 0
 1204 00b6 2046     		mov	r0, r4
 1205 00b8 FFF7FEFF 		bl	xStreamBufferSpacesAvailable
 1206              	.LVL135:
 1207 00bc 0546     		mov	r5, r0
 1208              	.LVL136:
 1209              	.L92:
 562:Generated_Source\PSoC6\pdl\rtos\FreeRTOS\10.0.1\Source/stream_buffer.c **** 
 1210              		.loc 1 562 0
 1211 00be CDF80080 		str	r8, [sp]
 1212 00c2 2B46     		mov	r3, r5
 1213 00c4 3246     		mov	r2, r6
 1214 00c6 3946     		mov	r1, r7
 1215 00c8 2046     		mov	r0, r4
 1216 00ca FFF7FEFF 		bl	prvWriteMessageToBuffer
 1217              	.LVL137:
 564:Generated_Source\PSoC6\pdl\rtos\FreeRTOS\10.0.1\Source/stream_buffer.c **** 	{
 1218              		.loc 1 564 0
 1219 00ce 0546     		mov	r5, r0
 1220              	.LVL138:
 1221 00d0 98B1     		cbz	r0, .L93
 569:Generated_Source\PSoC6\pdl\rtos\FreeRTOS\10.0.1\Source/stream_buffer.c **** 		{
 1222              		.loc 1 569 0
 1223 00d2 2046     		mov	r0, r4
 1224              	.LVL139:
 1225 00d4 FFF7FEFF 		bl	prvBytesInBuffer
ARM GAS  C:\Users\kateb\AppData\Local\Temp\cc9mC3XY.s 			page 48


 1226              	.LVL140:
 1227 00d8 E368     		ldr	r3, [r4, #12]
 1228 00da 9842     		cmp	r0, r3
 1229 00dc 0DD3     		bcc	.L93
 571:Generated_Source\PSoC6\pdl\rtos\FreeRTOS\10.0.1\Source/stream_buffer.c **** 		}
 1230              		.loc 1 571 0
 1231 00de FFF7FEFF 		bl	vTaskSuspendAll
 1232              	.LVL141:
 1233 00e2 2369     		ldr	r3, [r4, #16]
 1234 00e4 3BB1     		cbz	r3, .L94
 571:Generated_Source\PSoC6\pdl\rtos\FreeRTOS\10.0.1\Source/stream_buffer.c **** 		}
 1235              		.loc 1 571 0 is_stmt 0 discriminator 1
 1236 00e6 2069     		ldr	r0, [r4, #16]
 1237 00e8 0023     		movs	r3, #0
 1238 00ea 1A46     		mov	r2, r3
 1239 00ec 1946     		mov	r1, r3
 1240 00ee FFF7FEFF 		bl	xTaskGenericNotify
 1241              	.LVL142:
 1242 00f2 0023     		movs	r3, #0
 1243 00f4 2361     		str	r3, [r4, #16]
 1244              	.L94:
 571:Generated_Source\PSoC6\pdl\rtos\FreeRTOS\10.0.1\Source/stream_buffer.c **** 		}
 1245              		.loc 1 571 0 discriminator 3
 1246 00f6 FFF7FEFF 		bl	xTaskResumeAll
 1247              	.LVL143:
 1248              	.L93:
 585:Generated_Source\PSoC6\pdl\rtos\FreeRTOS\10.0.1\Source/stream_buffer.c **** /*-----------------------------------------------------------*/
 1249              		.loc 1 585 0 is_stmt 1
 1250 00fa 2846     		mov	r0, r5
 1251 00fc 07B0     		add	sp, sp, #28
 1252              		.cfi_def_cfa_offset 28
 1253              		@ sp needed
 1254 00fe BDE8F083 		pop	{r4, r5, r6, r7, r8, r9, pc}
 1255              		.cfi_endproc
 1256              	.LFE601:
 1257              		.size	xStreamBufferSend, .-xStreamBufferSend
 1258 0102 00BF     		.section	.text.xStreamBufferSendFromISR,"ax",%progbits
 1259              		.align	2
 1260              		.global	xStreamBufferSendFromISR
 1261              		.thumb
 1262              		.thumb_func
 1263              		.type	xStreamBufferSendFromISR, %function
 1264              	xStreamBufferSendFromISR:
 1265              	.LFB602:
 592:Generated_Source\PSoC6\pdl\rtos\FreeRTOS\10.0.1\Source/stream_buffer.c **** StreamBuffer_t * const pxStreamBuffer = ( StreamBuffer_t * ) xStreamBuffer; /*lint !e9087 !e9079 Sa
 1266              		.loc 1 592 0
 1267              		.cfi_startproc
 1268              		@ args = 0, pretend = 0, frame = 0
 1269              		@ frame_needed = 0, uses_anonymous_args = 0
 1270              	.LVL144:
 597:Generated_Source\PSoC6\pdl\rtos\FreeRTOS\10.0.1\Source/stream_buffer.c **** 	configASSERT( pxStreamBuffer );
 1271              		.loc 1 597 0
 1272 0000 41B9     		cbnz	r1, .L99
 1273              	.LBB112:
 1274              	.LBB113:
 1275              		.loc 2 156 0
 1276              		.syntax unified
ARM GAS  C:\Users\kateb\AppData\Local\Temp\cc9mC3XY.s 			page 49


 1277              	@ 156 "Generated_Source\PSoC6\pdl\rtos/FreeRTOS/10.0.1/Source/portable/GCC/CM4F/portmacro.h" 1
 1278 0002 4FF02F03 			mov r3, #47												
 1279 0006 83F31188 		msr basepri, r3											
 1280 000a BFF36F8F 		isb														
 1281 000e BFF34F8F 		dsb														
 1282              	
 1283              	@ 0 "" 2
 1284              	.LVL145:
 1285              		.thumb
 1286              		.syntax unified
 1287              	.L100:
 1288 0012 FEE7     		b	.L100
 1289              	.LVL146:
 1290              	.L99:
 1291              	.LBE113:
 1292              	.LBE112:
 592:Generated_Source\PSoC6\pdl\rtos\FreeRTOS\10.0.1\Source/stream_buffer.c **** StreamBuffer_t * const pxStreamBuffer = ( StreamBuffer_t * ) xStreamBuffer; /*lint !e9087 !e9079 Sa
 1293              		.loc 1 592 0
 1294 0014 2DE9F041 		push	{r4, r5, r6, r7, r8, lr}
 1295              		.cfi_def_cfa_offset 24
 1296              		.cfi_offset 4, -24
 1297              		.cfi_offset 5, -20
 1298              		.cfi_offset 6, -16
 1299              		.cfi_offset 7, -12
 1300              		.cfi_offset 8, -8
 1301              		.cfi_offset 14, -4
 1302 0018 82B0     		sub	sp, sp, #8
 1303              		.cfi_def_cfa_offset 32
 1304 001a 0E46     		mov	r6, r1
 598:Generated_Source\PSoC6\pdl\rtos\FreeRTOS\10.0.1\Source/stream_buffer.c **** 
 1305              		.loc 1 598 0
 1306 001c 40B9     		cbnz	r0, .L101
 1307              	.LBB114:
 1308              	.LBB115:
 1309              		.loc 2 156 0
 1310              		.syntax unified
 1311              	@ 156 "Generated_Source\PSoC6\pdl\rtos/FreeRTOS/10.0.1/Source/portable/GCC/CM4F/portmacro.h" 1
 1312 001e 4FF02F03 			mov r3, #47												
 1313 0022 83F31188 		msr basepri, r3											
 1314 0026 BFF36F8F 		isb														
 1315 002a BFF34F8F 		dsb														
 1316              	
 1317              	@ 0 "" 2
 1318              	.LVL147:
 1319              		.thumb
 1320              		.syntax unified
 1321              	.L102:
 1322 002e FEE7     		b	.L102
 1323              	.LVL148:
 1324              	.L101:
 1325              	.LBE115:
 1326              	.LBE114:
 604:Generated_Source\PSoC6\pdl\rtos\FreeRTOS\10.0.1\Source/stream_buffer.c **** 	{
 1327              		.loc 1 604 0
 1328 0030 017F     		ldrb	r1, [r0, #28]	@ zero_extendqisi2
 1329              	.LVL149:
 1330 0032 11F0010F 		tst	r1, #1
ARM GAS  C:\Users\kateb\AppData\Local\Temp\cc9mC3XY.s 			page 50


 1331 0036 02D0     		beq	.L106
 606:Generated_Source\PSoC6\pdl\rtos\FreeRTOS\10.0.1\Source/stream_buffer.c **** 	}
 1332              		.loc 1 606 0
 1333 0038 02F10408 		add	r8, r2, #4
 1334              	.LVL150:
 1335 003c 00E0     		b	.L103
 1336              	.LVL151:
 1337              	.L106:
 595:Generated_Source\PSoC6\pdl\rtos\FreeRTOS\10.0.1\Source/stream_buffer.c **** 
 1338              		.loc 1 595 0
 1339 003e 9046     		mov	r8, r2
 1340              	.LVL152:
 1341              	.L103:
 1342 0040 1F46     		mov	r7, r3
 1343 0042 1546     		mov	r5, r2
 1344 0044 0446     		mov	r4, r0
 613:Generated_Source\PSoC6\pdl\rtos\FreeRTOS\10.0.1\Source/stream_buffer.c **** 	xReturn = prvWriteMessageToBuffer( pxStreamBuffer, pvTxData, xDataLengthBytes, xSpace, xRequiredSp
 1345              		.loc 1 613 0
 1346 0046 FFF7FEFF 		bl	xStreamBufferSpacesAvailable
 1347              	.LVL153:
 614:Generated_Source\PSoC6\pdl\rtos\FreeRTOS\10.0.1\Source/stream_buffer.c **** 
 1348              		.loc 1 614 0
 1349 004a CDF80080 		str	r8, [sp]
 1350 004e 0346     		mov	r3, r0
 1351 0050 2A46     		mov	r2, r5
 1352 0052 3146     		mov	r1, r6
 1353 0054 2046     		mov	r0, r4
 1354              	.LVL154:
 1355 0056 FFF7FEFF 		bl	prvWriteMessageToBuffer
 1356              	.LVL155:
 616:Generated_Source\PSoC6\pdl\rtos\FreeRTOS\10.0.1\Source/stream_buffer.c **** 	{
 1357              		.loc 1 616 0
 1358 005a 0546     		mov	r5, r0
 1359              	.LVL156:
 1360 005c E0B1     		cbz	r0, .L104
 619:Generated_Source\PSoC6\pdl\rtos\FreeRTOS\10.0.1\Source/stream_buffer.c **** 		{
 1361              		.loc 1 619 0
 1362 005e 2046     		mov	r0, r4
 1363              	.LVL157:
 1364 0060 FFF7FEFF 		bl	prvBytesInBuffer
 1365              	.LVL158:
 1366 0064 E368     		ldr	r3, [r4, #12]
 1367 0066 9842     		cmp	r0, r3
 1368 0068 16D3     		bcc	.L104
 1369              	.LBB116:
 1370              	.LBB117:
 1371              	.LBB118:
 157:Generated_Source\PSoC6\pdl\rtos/FreeRTOS/10.0.1/Source/portable/GCC/CM4F/portmacro.h **** 	(
 158:Generated_Source\PSoC6\pdl\rtos/FreeRTOS/10.0.1/Source/portable/GCC/CM4F/portmacro.h **** 		"	mov %0, %1												\n"	\
 159:Generated_Source\PSoC6\pdl\rtos/FreeRTOS/10.0.1/Source/portable/GCC/CM4F/portmacro.h **** 		"	msr basepri, %0											\n" \
 160:Generated_Source\PSoC6\pdl\rtos/FreeRTOS/10.0.1/Source/portable/GCC/CM4F/portmacro.h **** 		"	isb														\n" \
 161:Generated_Source\PSoC6\pdl\rtos/FreeRTOS/10.0.1/Source/portable/GCC/CM4F/portmacro.h **** 		"	dsb														\n" \
 162:Generated_Source\PSoC6\pdl\rtos/FreeRTOS/10.0.1/Source/portable/GCC/CM4F/portmacro.h **** 		:"=r" (ulNewBASEPRI) : "i" ( configMAX_SYSCALL_INTERRUPT_PRIORITY ) : "memory"
 163:Generated_Source\PSoC6\pdl\rtos/FreeRTOS/10.0.1/Source/portable/GCC/CM4F/portmacro.h **** 	);
 164:Generated_Source\PSoC6\pdl\rtos/FreeRTOS/10.0.1/Source/portable/GCC/CM4F/portmacro.h **** }
 165:Generated_Source\PSoC6\pdl\rtos/FreeRTOS/10.0.1/Source/portable/GCC/CM4F/portmacro.h **** 
 166:Generated_Source\PSoC6\pdl\rtos/FreeRTOS/10.0.1/Source/portable/GCC/CM4F/portmacro.h **** /*-----------------------------------------------------------*/
ARM GAS  C:\Users\kateb\AppData\Local\Temp\cc9mC3XY.s 			page 51


 167:Generated_Source\PSoC6\pdl\rtos/FreeRTOS/10.0.1/Source/portable/GCC/CM4F/portmacro.h **** 
 168:Generated_Source\PSoC6\pdl\rtos/FreeRTOS/10.0.1/Source/portable/GCC/CM4F/portmacro.h **** portFORCE_INLINE static uint32_t ulPortRaiseBASEPRI( void )
 169:Generated_Source\PSoC6\pdl\rtos/FreeRTOS/10.0.1/Source/portable/GCC/CM4F/portmacro.h **** {
 170:Generated_Source\PSoC6\pdl\rtos/FreeRTOS/10.0.1/Source/portable/GCC/CM4F/portmacro.h **** uint32_t ulOriginalBASEPRI, ulNewBASEPRI;
 171:Generated_Source\PSoC6\pdl\rtos/FreeRTOS/10.0.1/Source/portable/GCC/CM4F/portmacro.h **** 
 172:Generated_Source\PSoC6\pdl\rtos/FreeRTOS/10.0.1/Source/portable/GCC/CM4F/portmacro.h **** 	__asm volatile
 1372              		.loc 2 172 0
 1373              		.syntax unified
 1374              	@ 172 "Generated_Source\PSoC6\pdl\rtos/FreeRTOS/10.0.1/Source/portable/GCC/CM4F/portmacro.h" 1
 1375 006a EFF31186 			mrs r6, basepri											
 1376 006e 4FF02F03 		mov r3, #47												
 1377 0072 83F31188 		msr basepri, r3											
 1378 0076 BFF36F8F 		isb														
 1379 007a BFF34F8F 		dsb														
 1380              	
 1381              	@ 0 "" 2
 1382              	.LVL159:
 1383              		.thumb
 1384              		.syntax unified
 1385              	.LBE118:
 1386              	.LBE117:
 621:Generated_Source\PSoC6\pdl\rtos\FreeRTOS\10.0.1\Source/stream_buffer.c **** 		}
 1387              		.loc 1 621 0
 1388 007e 2369     		ldr	r3, [r4, #16]
 1389 0080 43B1     		cbz	r3, .L105
 621:Generated_Source\PSoC6\pdl\rtos\FreeRTOS\10.0.1\Source/stream_buffer.c **** 		}
 1390              		.loc 1 621 0 is_stmt 0 discriminator 1
 1391 0082 2069     		ldr	r0, [r4, #16]
 1392 0084 0097     		str	r7, [sp]
 1393 0086 0023     		movs	r3, #0
 1394 0088 1A46     		mov	r2, r3
 1395 008a 1946     		mov	r1, r3
 1396 008c FFF7FEFF 		bl	xTaskGenericNotifyFromISR
 1397              	.LVL160:
 1398 0090 0023     		movs	r3, #0
 1399 0092 2361     		str	r3, [r4, #16]
 1400              	.L105:
 1401              	.LVL161:
 1402              	.LBB119:
 1403              	.LBB120:
 173:Generated_Source\PSoC6\pdl\rtos/FreeRTOS/10.0.1/Source/portable/GCC/CM4F/portmacro.h **** 	(
 174:Generated_Source\PSoC6\pdl\rtos/FreeRTOS/10.0.1/Source/portable/GCC/CM4F/portmacro.h **** 		"	mrs %0, basepri											\n" \
 175:Generated_Source\PSoC6\pdl\rtos/FreeRTOS/10.0.1/Source/portable/GCC/CM4F/portmacro.h **** 		"	mov %1, %2												\n"	\
 176:Generated_Source\PSoC6\pdl\rtos/FreeRTOS/10.0.1/Source/portable/GCC/CM4F/portmacro.h **** 		"	msr basepri, %1											\n" \
 177:Generated_Source\PSoC6\pdl\rtos/FreeRTOS/10.0.1/Source/portable/GCC/CM4F/portmacro.h **** 		"	isb														\n" \
 178:Generated_Source\PSoC6\pdl\rtos/FreeRTOS/10.0.1/Source/portable/GCC/CM4F/portmacro.h **** 		"	dsb														\n" \
 179:Generated_Source\PSoC6\pdl\rtos/FreeRTOS/10.0.1/Source/portable/GCC/CM4F/portmacro.h **** 		:"=r" (ulOriginalBASEPRI), "=r" (ulNewBASEPRI) : "i" ( configMAX_SYSCALL_INTERRUPT_PRIORITY ) : "
 180:Generated_Source\PSoC6\pdl\rtos/FreeRTOS/10.0.1/Source/portable/GCC/CM4F/portmacro.h **** 	);
 181:Generated_Source\PSoC6\pdl\rtos/FreeRTOS/10.0.1/Source/portable/GCC/CM4F/portmacro.h **** 
 182:Generated_Source\PSoC6\pdl\rtos/FreeRTOS/10.0.1/Source/portable/GCC/CM4F/portmacro.h **** 	/* This return will not be reached but is necessary to prevent compiler
 183:Generated_Source\PSoC6\pdl\rtos/FreeRTOS/10.0.1/Source/portable/GCC/CM4F/portmacro.h **** 	warnings. */
 184:Generated_Source\PSoC6\pdl\rtos/FreeRTOS/10.0.1/Source/portable/GCC/CM4F/portmacro.h **** 	return ulOriginalBASEPRI;
 185:Generated_Source\PSoC6\pdl\rtos/FreeRTOS/10.0.1/Source/portable/GCC/CM4F/portmacro.h **** }
 186:Generated_Source\PSoC6\pdl\rtos/FreeRTOS/10.0.1/Source/portable/GCC/CM4F/portmacro.h **** /*-----------------------------------------------------------*/
 187:Generated_Source\PSoC6\pdl\rtos/FreeRTOS/10.0.1/Source/portable/GCC/CM4F/portmacro.h **** 
 188:Generated_Source\PSoC6\pdl\rtos/FreeRTOS/10.0.1/Source/portable/GCC/CM4F/portmacro.h **** portFORCE_INLINE static void vPortSetBASEPRI( uint32_t ulNewMaskValue )
 189:Generated_Source\PSoC6\pdl\rtos/FreeRTOS/10.0.1/Source/portable/GCC/CM4F/portmacro.h **** {
ARM GAS  C:\Users\kateb\AppData\Local\Temp\cc9mC3XY.s 			page 52


 190:Generated_Source\PSoC6\pdl\rtos/FreeRTOS/10.0.1/Source/portable/GCC/CM4F/portmacro.h **** 	__asm volatile
 1404              		.loc 2 190 0 is_stmt 1 discriminator 3
 1405              		.syntax unified
 1406              	@ 190 "Generated_Source\PSoC6\pdl\rtos/FreeRTOS/10.0.1/Source/portable/GCC/CM4F/portmacro.h" 1
 1407 0094 86F31188 			msr basepri, r6	
 1408              	@ 0 "" 2
 1409              	.LVL162:
 1410              		.thumb
 1411              		.syntax unified
 1412              	.L104:
 1413              	.LBE120:
 1414              	.LBE119:
 1415              	.LBE116:
 636:Generated_Source\PSoC6\pdl\rtos\FreeRTOS\10.0.1\Source/stream_buffer.c **** /*-----------------------------------------------------------*/
 1416              		.loc 1 636 0
 1417 0098 2846     		mov	r0, r5
 1418 009a 02B0     		add	sp, sp, #8
 1419              		.cfi_def_cfa_offset 24
 1420              		@ sp needed
 1421 009c BDE8F081 		pop	{r4, r5, r6, r7, r8, pc}
 1422              		.cfi_endproc
 1423              	.LFE602:
 1424              		.size	xStreamBufferSendFromISR, .-xStreamBufferSendFromISR
 1425              		.section	.text.xStreamBufferReceive,"ax",%progbits
 1426              		.align	2
 1427              		.global	xStreamBufferReceive
 1428              		.thumb
 1429              		.thumb_func
 1430              		.type	xStreamBufferReceive, %function
 1431              	xStreamBufferReceive:
 1432              	.LFB604:
 695:Generated_Source\PSoC6\pdl\rtos\FreeRTOS\10.0.1\Source/stream_buffer.c **** StreamBuffer_t * const pxStreamBuffer = ( StreamBuffer_t * ) xStreamBuffer; /*lint !e9087 !e9079 Sa
 1433              		.loc 1 695 0
 1434              		.cfi_startproc
 1435              		@ args = 0, pretend = 0, frame = 0
 1436              		@ frame_needed = 0, uses_anonymous_args = 0
 1437              	.LVL163:
 699:Generated_Source\PSoC6\pdl\rtos\FreeRTOS\10.0.1\Source/stream_buffer.c **** 	configASSERT( pxStreamBuffer );
 1438              		.loc 1 699 0
 1439 0000 41B9     		cbnz	r1, .L109
 1440              	.LBB121:
 1441              	.LBB122:
 156:Generated_Source\PSoC6\pdl\rtos/FreeRTOS/10.0.1/Source/portable/GCC/CM4F/portmacro.h **** 	(
 1442              		.loc 2 156 0
 1443              		.syntax unified
 1444              	@ 156 "Generated_Source\PSoC6\pdl\rtos/FreeRTOS/10.0.1/Source/portable/GCC/CM4F/portmacro.h" 1
 1445 0002 4FF02F03 			mov r3, #47												
 1446 0006 83F31188 		msr basepri, r3											
 1447 000a BFF36F8F 		isb														
 1448 000e BFF34F8F 		dsb														
 1449              	
 1450              	@ 0 "" 2
 1451              	.LVL164:
 1452              		.thumb
 1453              		.syntax unified
 1454              	.L110:
 1455 0012 FEE7     		b	.L110
ARM GAS  C:\Users\kateb\AppData\Local\Temp\cc9mC3XY.s 			page 53


 1456              	.LVL165:
 1457              	.L109:
 1458              	.LBE122:
 1459              	.LBE121:
 695:Generated_Source\PSoC6\pdl\rtos\FreeRTOS\10.0.1\Source/stream_buffer.c **** StreamBuffer_t * const pxStreamBuffer = ( StreamBuffer_t * ) xStreamBuffer; /*lint !e9087 !e9079 Sa
 1460              		.loc 1 695 0
 1461 0014 2DE9F043 		push	{r4, r5, r6, r7, r8, r9, lr}
 1462              		.cfi_def_cfa_offset 28
 1463              		.cfi_offset 4, -28
 1464              		.cfi_offset 5, -24
 1465              		.cfi_offset 6, -20
 1466              		.cfi_offset 7, -16
 1467              		.cfi_offset 8, -12
 1468              		.cfi_offset 9, -8
 1469              		.cfi_offset 14, -4
 1470 0018 83B0     		sub	sp, sp, #12
 1471              		.cfi_def_cfa_offset 40
 1472 001a 8846     		mov	r8, r1
 700:Generated_Source\PSoC6\pdl\rtos\FreeRTOS\10.0.1\Source/stream_buffer.c **** 
 1473              		.loc 1 700 0
 1474 001c 40B9     		cbnz	r0, .L111
 1475              	.LBB123:
 1476              	.LBB124:
 156:Generated_Source\PSoC6\pdl\rtos/FreeRTOS/10.0.1/Source/portable/GCC/CM4F/portmacro.h **** 	(
 1477              		.loc 2 156 0
 1478              		.syntax unified
 1479              	@ 156 "Generated_Source\PSoC6\pdl\rtos/FreeRTOS/10.0.1/Source/portable/GCC/CM4F/portmacro.h" 1
 1480 001e 4FF02F03 			mov r3, #47												
 1481 0022 83F31188 		msr basepri, r3											
 1482 0026 BFF36F8F 		isb														
 1483 002a BFF34F8F 		dsb														
 1484              	
 1485              	@ 0 "" 2
 1486              	.LVL166:
 1487              		.thumb
 1488              		.syntax unified
 1489              	.L112:
 1490 002e FEE7     		b	.L112
 1491              	.LVL167:
 1492              	.L111:
 1493              	.LBE124:
 1494              	.LBE123:
 707:Generated_Source\PSoC6\pdl\rtos\FreeRTOS\10.0.1\Source/stream_buffer.c **** 	{
 1495              		.loc 1 707 0
 1496 0030 017F     		ldrb	r1, [r0, #28]	@ zero_extendqisi2
 1497              	.LVL168:
 1498 0032 11F0010F 		tst	r1, #1
 1499 0036 01D0     		beq	.L121
 709:Generated_Source\PSoC6\pdl\rtos\FreeRTOS\10.0.1\Source/stream_buffer.c **** 	}
 1500              		.loc 1 709 0
 1501 0038 0426     		movs	r6, #4
 1502 003a 00E0     		b	.L113
 1503              	.L121:
 713:Generated_Source\PSoC6\pdl\rtos\FreeRTOS\10.0.1\Source/stream_buffer.c **** 	}
 1504              		.loc 1 713 0
 1505 003c 0026     		movs	r6, #0
 1506              	.L113:
ARM GAS  C:\Users\kateb\AppData\Local\Temp\cc9mC3XY.s 			page 54


 1507 003e 1F46     		mov	r7, r3
 1508 0040 9146     		mov	r9, r2
 1509 0042 0446     		mov	r4, r0
 1510              	.LVL169:
 716:Generated_Source\PSoC6\pdl\rtos\FreeRTOS\10.0.1\Source/stream_buffer.c **** 	{
 1511              		.loc 1 716 0
 1512 0044 53B3     		cbz	r3, .L114
 720:Generated_Source\PSoC6\pdl\rtos\FreeRTOS\10.0.1\Source/stream_buffer.c **** 		{
 1513              		.loc 1 720 0
 1514 0046 FFF7FEFF 		bl	vPortEnterCritical
 1515              	.LVL170:
 722:Generated_Source\PSoC6\pdl\rtos\FreeRTOS\10.0.1\Source/stream_buffer.c **** 
 1516              		.loc 1 722 0
 1517 004a 2046     		mov	r0, r4
 1518 004c FFF7FEFF 		bl	prvBytesInBuffer
 1519              	.LVL171:
 1520 0050 0546     		mov	r5, r0
 1521              	.LVL172:
 729:Generated_Source\PSoC6\pdl\rtos\FreeRTOS\10.0.1\Source/stream_buffer.c **** 			{
 1522              		.loc 1 729 0
 1523 0052 8642     		cmp	r6, r0
 1524 0054 10D3     		bcc	.L115
 732:Generated_Source\PSoC6\pdl\rtos\FreeRTOS\10.0.1\Source/stream_buffer.c **** 
 1525              		.loc 1 732 0
 1526 0056 0020     		movs	r0, #0
 1527              	.LVL173:
 1528 0058 FFF7FEFF 		bl	xTaskNotifyStateClear
 1529              	.LVL174:
 735:Generated_Source\PSoC6\pdl\rtos\FreeRTOS\10.0.1\Source/stream_buffer.c **** 				pxStreamBuffer->xTaskWaitingToReceive = xTaskGetCurrentTaskHandle();
 1530              		.loc 1 735 0
 1531 005c 2369     		ldr	r3, [r4, #16]
 1532 005e 43B1     		cbz	r3, .L116
 1533              	.LBB125:
 1534              	.LBB126:
 156:Generated_Source\PSoC6\pdl\rtos/FreeRTOS/10.0.1/Source/portable/GCC/CM4F/portmacro.h **** 	(
 1535              		.loc 2 156 0
 1536              		.syntax unified
 1537              	@ 156 "Generated_Source\PSoC6\pdl\rtos/FreeRTOS/10.0.1/Source/portable/GCC/CM4F/portmacro.h" 1
 1538 0060 4FF02F03 			mov r3, #47												
 1539 0064 83F31188 		msr basepri, r3											
 1540 0068 BFF36F8F 		isb														
 1541 006c BFF34F8F 		dsb														
 1542              	
 1543              	@ 0 "" 2
 1544              	.LVL175:
 1545              		.thumb
 1546              		.syntax unified
 1547              	.L117:
 1548 0070 FEE7     		b	.L117
 1549              	.L116:
 1550              	.LBE126:
 1551              	.LBE125:
 736:Generated_Source\PSoC6\pdl\rtos\FreeRTOS\10.0.1\Source/stream_buffer.c **** 			}
 1552              		.loc 1 736 0
 1553 0072 FFF7FEFF 		bl	xTaskGetCurrentTaskHandle
 1554              	.LVL176:
 1555 0076 2061     		str	r0, [r4, #16]
ARM GAS  C:\Users\kateb\AppData\Local\Temp\cc9mC3XY.s 			page 55


 1556              	.L115:
 743:Generated_Source\PSoC6\pdl\rtos\FreeRTOS\10.0.1\Source/stream_buffer.c **** 
 1557              		.loc 1 743 0
 1558 0078 FFF7FEFF 		bl	vPortExitCritical
 1559              	.LVL177:
 745:Generated_Source\PSoC6\pdl\rtos\FreeRTOS\10.0.1\Source/stream_buffer.c **** 		{
 1560              		.loc 1 745 0
 1561 007c AE42     		cmp	r6, r5
 1562 007e 10D3     		bcc	.L118
 749:Generated_Source\PSoC6\pdl\rtos\FreeRTOS\10.0.1\Source/stream_buffer.c **** 			pxStreamBuffer->xTaskWaitingToReceive = NULL;
 1563              		.loc 1 749 0
 1564 0080 3B46     		mov	r3, r7
 1565 0082 0022     		movs	r2, #0
 1566 0084 4FF0FF31 		mov	r1, #-1
 1567 0088 1046     		mov	r0, r2
 1568 008a FFF7FEFF 		bl	xTaskNotifyWait
 1569              	.LVL178:
 750:Generated_Source\PSoC6\pdl\rtos\FreeRTOS\10.0.1\Source/stream_buffer.c **** 
 1570              		.loc 1 750 0
 1571 008e 0023     		movs	r3, #0
 1572 0090 2361     		str	r3, [r4, #16]
 753:Generated_Source\PSoC6\pdl\rtos\FreeRTOS\10.0.1\Source/stream_buffer.c **** 		}
 1573              		.loc 1 753 0
 1574 0092 2046     		mov	r0, r4
 1575 0094 FFF7FEFF 		bl	prvBytesInBuffer
 1576              	.LVL179:
 1577 0098 0546     		mov	r5, r0
 1578              	.LVL180:
 1579 009a 02E0     		b	.L118
 1580              	.LVL181:
 1581              	.L114:
 762:Generated_Source\PSoC6\pdl\rtos\FreeRTOS\10.0.1\Source/stream_buffer.c **** 	}
 1582              		.loc 1 762 0
 1583 009c FFF7FEFF 		bl	prvBytesInBuffer
 1584              	.LVL182:
 1585 00a0 0546     		mov	r5, r0
 1586              	.LVL183:
 1587              	.L118:
 770:Generated_Source\PSoC6\pdl\rtos\FreeRTOS\10.0.1\Source/stream_buffer.c **** 	{
 1588              		.loc 1 770 0
 1589 00a2 B542     		cmp	r5, r6
 1590 00a4 17D9     		bls	.L122
 772:Generated_Source\PSoC6\pdl\rtos\FreeRTOS\10.0.1\Source/stream_buffer.c **** 
 1591              		.loc 1 772 0
 1592 00a6 0096     		str	r6, [sp]
 1593 00a8 2B46     		mov	r3, r5
 1594 00aa 4A46     		mov	r2, r9
 1595 00ac 4146     		mov	r1, r8
 1596 00ae 2046     		mov	r0, r4
 1597 00b0 FFF7FEFF 		bl	prvReadMessageFromBuffer
 1598              	.LVL184:
 775:Generated_Source\PSoC6\pdl\rtos\FreeRTOS\10.0.1\Source/stream_buffer.c **** 		{
 1599              		.loc 1 775 0
 1600 00b4 0546     		mov	r5, r0
 1601              	.LVL185:
 1602 00b6 78B1     		cbz	r0, .L119
 778:Generated_Source\PSoC6\pdl\rtos\FreeRTOS\10.0.1\Source/stream_buffer.c **** 		}
ARM GAS  C:\Users\kateb\AppData\Local\Temp\cc9mC3XY.s 			page 56


 1603              		.loc 1 778 0
 1604 00b8 FFF7FEFF 		bl	vTaskSuspendAll
 1605              	.LVL186:
 1606 00bc 6369     		ldr	r3, [r4, #20]
 1607 00be 3BB1     		cbz	r3, .L120
 778:Generated_Source\PSoC6\pdl\rtos\FreeRTOS\10.0.1\Source/stream_buffer.c **** 		}
 1608              		.loc 1 778 0 is_stmt 0 discriminator 1
 1609 00c0 6069     		ldr	r0, [r4, #20]
 1610 00c2 0023     		movs	r3, #0
 1611 00c4 1A46     		mov	r2, r3
 1612 00c6 1946     		mov	r1, r3
 1613 00c8 FFF7FEFF 		bl	xTaskGenericNotify
 1614              	.LVL187:
 1615 00cc 0023     		movs	r3, #0
 1616 00ce 6361     		str	r3, [r4, #20]
 1617              	.L120:
 778:Generated_Source\PSoC6\pdl\rtos\FreeRTOS\10.0.1\Source/stream_buffer.c **** 		}
 1618              		.loc 1 778 0 discriminator 3
 1619 00d0 FFF7FEFF 		bl	xTaskResumeAll
 1620              	.LVL188:
 1621 00d4 00E0     		b	.L119
 1622              	.LVL189:
 1623              	.L122:
 697:Generated_Source\PSoC6\pdl\rtos\FreeRTOS\10.0.1\Source/stream_buffer.c **** 
 1624              		.loc 1 697 0 is_stmt 1
 1625 00d6 0025     		movs	r5, #0
 1626              	.LVL190:
 1627              	.L119:
 792:Generated_Source\PSoC6\pdl\rtos\FreeRTOS\10.0.1\Source/stream_buffer.c **** /*-----------------------------------------------------------*/
 1628              		.loc 1 792 0
 1629 00d8 2846     		mov	r0, r5
 1630 00da 03B0     		add	sp, sp, #12
 1631              		.cfi_def_cfa_offset 28
 1632              		@ sp needed
 1633 00dc BDE8F083 		pop	{r4, r5, r6, r7, r8, r9, pc}
 1634              		.cfi_endproc
 1635              	.LFE604:
 1636              		.size	xStreamBufferReceive, .-xStreamBufferReceive
 1637              		.section	.text.xStreamBufferReceiveFromISR,"ax",%progbits
 1638              		.align	2
 1639              		.global	xStreamBufferReceiveFromISR
 1640              		.thumb
 1641              		.thumb_func
 1642              		.type	xStreamBufferReceiveFromISR, %function
 1643              	xStreamBufferReceiveFromISR:
 1644              	.LFB605:
 799:Generated_Source\PSoC6\pdl\rtos\FreeRTOS\10.0.1\Source/stream_buffer.c **** StreamBuffer_t * const pxStreamBuffer = ( StreamBuffer_t * ) xStreamBuffer; /*lint !e9087 !e9079 Sa
 1645              		.loc 1 799 0
 1646              		.cfi_startproc
 1647              		@ args = 0, pretend = 0, frame = 0
 1648              		@ frame_needed = 0, uses_anonymous_args = 0
 1649              	.LVL191:
 803:Generated_Source\PSoC6\pdl\rtos\FreeRTOS\10.0.1\Source/stream_buffer.c **** 	configASSERT( pxStreamBuffer );
 1650              		.loc 1 803 0
 1651 0000 41B9     		cbnz	r1, .L125
 1652              	.LBB127:
 1653              	.LBB128:
ARM GAS  C:\Users\kateb\AppData\Local\Temp\cc9mC3XY.s 			page 57


 156:Generated_Source\PSoC6\pdl\rtos/FreeRTOS/10.0.1/Source/portable/GCC/CM4F/portmacro.h **** 	(
 1654              		.loc 2 156 0
 1655              		.syntax unified
 1656              	@ 156 "Generated_Source\PSoC6\pdl\rtos/FreeRTOS/10.0.1/Source/portable/GCC/CM4F/portmacro.h" 1
 1657 0002 4FF02F03 			mov r3, #47												
 1658 0006 83F31188 		msr basepri, r3											
 1659 000a BFF36F8F 		isb														
 1660 000e BFF34F8F 		dsb														
 1661              	
 1662              	@ 0 "" 2
 1663              	.LVL192:
 1664              		.thumb
 1665              		.syntax unified
 1666              	.L126:
 1667 0012 FEE7     		b	.L126
 1668              	.LVL193:
 1669              	.L125:
 1670              	.LBE128:
 1671              	.LBE127:
 799:Generated_Source\PSoC6\pdl\rtos\FreeRTOS\10.0.1\Source/stream_buffer.c **** StreamBuffer_t * const pxStreamBuffer = ( StreamBuffer_t * ) xStreamBuffer; /*lint !e9087 !e9079 Sa
 1672              		.loc 1 799 0
 1673 0014 2DE9F041 		push	{r4, r5, r6, r7, r8, lr}
 1674              		.cfi_def_cfa_offset 24
 1675              		.cfi_offset 4, -24
 1676              		.cfi_offset 5, -20
 1677              		.cfi_offset 6, -16
 1678              		.cfi_offset 7, -12
 1679              		.cfi_offset 8, -8
 1680              		.cfi_offset 14, -4
 1681 0018 82B0     		sub	sp, sp, #8
 1682              		.cfi_def_cfa_offset 32
 1683 001a 0D46     		mov	r5, r1
 804:Generated_Source\PSoC6\pdl\rtos\FreeRTOS\10.0.1\Source/stream_buffer.c **** 
 1684              		.loc 1 804 0
 1685 001c 40B9     		cbnz	r0, .L127
 1686              	.LBB129:
 1687              	.LBB130:
 156:Generated_Source\PSoC6\pdl\rtos/FreeRTOS/10.0.1/Source/portable/GCC/CM4F/portmacro.h **** 	(
 1688              		.loc 2 156 0
 1689              		.syntax unified
 1690              	@ 156 "Generated_Source\PSoC6\pdl\rtos/FreeRTOS/10.0.1/Source/portable/GCC/CM4F/portmacro.h" 1
 1691 001e 4FF02F03 			mov r3, #47												
 1692 0022 83F31188 		msr basepri, r3											
 1693 0026 BFF36F8F 		isb														
 1694 002a BFF34F8F 		dsb														
 1695              	
 1696              	@ 0 "" 2
 1697              	.LVL194:
 1698              		.thumb
 1699              		.syntax unified
 1700              	.L128:
 1701 002e FEE7     		b	.L128
 1702              	.LVL195:
 1703              	.L127:
 1704              	.LBE130:
 1705              	.LBE129:
 811:Generated_Source\PSoC6\pdl\rtos\FreeRTOS\10.0.1\Source/stream_buffer.c **** 	{
ARM GAS  C:\Users\kateb\AppData\Local\Temp\cc9mC3XY.s 			page 58


 1706              		.loc 1 811 0
 1707 0030 017F     		ldrb	r1, [r0, #28]	@ zero_extendqisi2
 1708              	.LVL196:
 1709 0032 11F0010F 		tst	r1, #1
 1710 0036 01D0     		beq	.L132
 813:Generated_Source\PSoC6\pdl\rtos\FreeRTOS\10.0.1\Source/stream_buffer.c **** 	}
 1711              		.loc 1 813 0
 1712 0038 0427     		movs	r7, #4
 1713 003a 00E0     		b	.L129
 1714              	.L132:
 817:Generated_Source\PSoC6\pdl\rtos\FreeRTOS\10.0.1\Source/stream_buffer.c **** 	}
 1715              		.loc 1 817 0
 1716 003c 0027     		movs	r7, #0
 1717              	.L129:
 1718 003e 9846     		mov	r8, r3
 1719 0040 1646     		mov	r6, r2
 1720 0042 0446     		mov	r4, r0
 1721              	.LVL197:
 820:Generated_Source\PSoC6\pdl\rtos\FreeRTOS\10.0.1\Source/stream_buffer.c **** 
 1722              		.loc 1 820 0
 1723 0044 FFF7FEFF 		bl	prvBytesInBuffer
 1724              	.LVL198:
 1725 0048 0346     		mov	r3, r0
 1726              	.LVL199:
 827:Generated_Source\PSoC6\pdl\rtos\FreeRTOS\10.0.1\Source/stream_buffer.c **** 	{
 1727              		.loc 1 827 0
 1728 004a 8742     		cmp	r7, r0
 1729 004c 20D2     		bcs	.L133
 829:Generated_Source\PSoC6\pdl\rtos\FreeRTOS\10.0.1\Source/stream_buffer.c **** 
 1730              		.loc 1 829 0
 1731 004e 0097     		str	r7, [sp]
 1732 0050 3246     		mov	r2, r6
 1733 0052 2946     		mov	r1, r5
 1734 0054 2046     		mov	r0, r4
 1735              	.LVL200:
 1736 0056 FFF7FEFF 		bl	prvReadMessageFromBuffer
 1737              	.LVL201:
 832:Generated_Source\PSoC6\pdl\rtos\FreeRTOS\10.0.1\Source/stream_buffer.c **** 		{
 1738              		.loc 1 832 0
 1739 005a 0546     		mov	r5, r0
 1740              	.LVL202:
 1741 005c C8B1     		cbz	r0, .L130
 1742              	.LBB131:
 1743              	.LBB132:
 1744              	.LBB133:
 172:Generated_Source\PSoC6\pdl\rtos/FreeRTOS/10.0.1/Source/portable/GCC/CM4F/portmacro.h **** 	(
 1745              		.loc 2 172 0
 1746              		.syntax unified
 1747              	@ 172 "Generated_Source\PSoC6\pdl\rtos/FreeRTOS/10.0.1/Source/portable/GCC/CM4F/portmacro.h" 1
 1748 005e EFF31186 			mrs r6, basepri											
 1749 0062 4FF02F03 		mov r3, #47												
 1750 0066 83F31188 		msr basepri, r3											
 1751 006a BFF36F8F 		isb														
 1752 006e BFF34F8F 		dsb														
 1753              	
 1754              	@ 0 "" 2
 1755              	.LVL203:
ARM GAS  C:\Users\kateb\AppData\Local\Temp\cc9mC3XY.s 			page 59


 1756              		.thumb
 1757              		.syntax unified
 1758              	.LBE133:
 1759              	.LBE132:
 834:Generated_Source\PSoC6\pdl\rtos\FreeRTOS\10.0.1\Source/stream_buffer.c **** 		}
 1760              		.loc 1 834 0
 1761 0072 6369     		ldr	r3, [r4, #20]
 1762 0074 4BB1     		cbz	r3, .L131
 834:Generated_Source\PSoC6\pdl\rtos\FreeRTOS\10.0.1\Source/stream_buffer.c **** 		}
 1763              		.loc 1 834 0 is_stmt 0 discriminator 1
 1764 0076 6069     		ldr	r0, [r4, #20]
 1765              	.LVL204:
 1766 0078 CDF80080 		str	r8, [sp]
 1767 007c 0023     		movs	r3, #0
 1768 007e 1A46     		mov	r2, r3
 1769 0080 1946     		mov	r1, r3
 1770 0082 FFF7FEFF 		bl	xTaskGenericNotifyFromISR
 1771              	.LVL205:
 1772 0086 0023     		movs	r3, #0
 1773 0088 6361     		str	r3, [r4, #20]
 1774              	.L131:
 1775              	.LVL206:
 1776              	.LBB134:
 1777              	.LBB135:
 1778              		.loc 2 190 0 is_stmt 1 discriminator 3
 1779              		.syntax unified
 1780              	@ 190 "Generated_Source\PSoC6\pdl\rtos/FreeRTOS/10.0.1/Source/portable/GCC/CM4F/portmacro.h" 1
 1781 008a 86F31188 			msr basepri, r6	
 1782              	@ 0 "" 2
 1783              		.thumb
 1784              		.syntax unified
 1785 008e 00E0     		b	.L130
 1786              	.LVL207:
 1787              	.L133:
 1788              	.LBE135:
 1789              	.LBE134:
 1790              	.LBE131:
 801:Generated_Source\PSoC6\pdl\rtos\FreeRTOS\10.0.1\Source/stream_buffer.c **** 
 1791              		.loc 1 801 0
 1792 0090 0025     		movs	r5, #0
 1793              	.LVL208:
 1794              	.L130:
 849:Generated_Source\PSoC6\pdl\rtos\FreeRTOS\10.0.1\Source/stream_buffer.c **** /*-----------------------------------------------------------*/
 1795              		.loc 1 849 0
 1796 0092 2846     		mov	r0, r5
 1797 0094 02B0     		add	sp, sp, #8
 1798              		.cfi_def_cfa_offset 24
 1799              		@ sp needed
 1800 0096 BDE8F081 		pop	{r4, r5, r6, r7, r8, pc}
 1801              		.cfi_endproc
 1802              	.LFE605:
 1803              		.size	xStreamBufferReceiveFromISR, .-xStreamBufferReceiveFromISR
 1804 009a 00BF     		.section	.text.xStreamBufferIsEmpty,"ax",%progbits
 1805              		.align	2
 1806              		.global	xStreamBufferIsEmpty
 1807              		.thumb
 1808              		.thumb_func
ARM GAS  C:\Users\kateb\AppData\Local\Temp\cc9mC3XY.s 			page 60


 1809              		.type	xStreamBufferIsEmpty, %function
 1810              	xStreamBufferIsEmpty:
 1811              	.LFB607:
 903:Generated_Source\PSoC6\pdl\rtos\FreeRTOS\10.0.1\Source/stream_buffer.c **** const StreamBuffer_t * const pxStreamBuffer = ( StreamBuffer_t * ) xStreamBuffer; /*lint !e9087 !e9
 1812              		.loc 1 903 0
 1813              		.cfi_startproc
 1814              		@ args = 0, pretend = 0, frame = 0
 1815              		@ frame_needed = 0, uses_anonymous_args = 0
 1816              		@ link register save eliminated.
 1817              	.LVL209:
 908:Generated_Source\PSoC6\pdl\rtos\FreeRTOS\10.0.1\Source/stream_buffer.c **** 
 1818              		.loc 1 908 0
 1819 0000 40B9     		cbnz	r0, .L136
 1820              	.LBB136:
 1821              	.LBB137:
 156:Generated_Source\PSoC6\pdl\rtos/FreeRTOS/10.0.1/Source/portable/GCC/CM4F/portmacro.h **** 	(
 1822              		.loc 2 156 0
 1823              		.syntax unified
 1824              	@ 156 "Generated_Source\PSoC6\pdl\rtos/FreeRTOS/10.0.1/Source/portable/GCC/CM4F/portmacro.h" 1
 1825 0002 4FF02F03 			mov r3, #47												
 1826 0006 83F31188 		msr basepri, r3											
 1827 000a BFF36F8F 		isb														
 1828 000e BFF34F8F 		dsb														
 1829              	
 1830              	@ 0 "" 2
 1831              	.LVL210:
 1832              		.thumb
 1833              		.syntax unified
 1834              	.L137:
 1835 0012 FEE7     		b	.L137
 1836              	.L136:
 1837              	.LBE137:
 1838              	.LBE136:
 911:Generated_Source\PSoC6\pdl\rtos\FreeRTOS\10.0.1\Source/stream_buffer.c **** 	if( pxStreamBuffer->xHead == xTail )
 1839              		.loc 1 911 0
 1840 0014 0268     		ldr	r2, [r0]
 1841              	.LVL211:
 912:Generated_Source\PSoC6\pdl\rtos\FreeRTOS\10.0.1\Source/stream_buffer.c **** 	{
 1842              		.loc 1 912 0
 1843 0016 4368     		ldr	r3, [r0, #4]
 1844 0018 9A42     		cmp	r2, r3
 1845 001a 01D1     		bne	.L139
 914:Generated_Source\PSoC6\pdl\rtos\FreeRTOS\10.0.1\Source/stream_buffer.c **** 	}
 1846              		.loc 1 914 0
 1847 001c 0120     		movs	r0, #1
 1848              	.LVL212:
 1849 001e 7047     		bx	lr
 1850              	.LVL213:
 1851              	.L139:
 918:Generated_Source\PSoC6\pdl\rtos\FreeRTOS\10.0.1\Source/stream_buffer.c **** 	}
 1852              		.loc 1 918 0
 1853 0020 0020     		movs	r0, #0
 1854              	.LVL214:
 922:Generated_Source\PSoC6\pdl\rtos\FreeRTOS\10.0.1\Source/stream_buffer.c **** /*-----------------------------------------------------------*/
 1855              		.loc 1 922 0
 1856 0022 7047     		bx	lr
 1857              		.cfi_endproc
ARM GAS  C:\Users\kateb\AppData\Local\Temp\cc9mC3XY.s 			page 61


 1858              	.LFE607:
 1859              		.size	xStreamBufferIsEmpty, .-xStreamBufferIsEmpty
 1860              		.section	.text.xStreamBufferIsFull,"ax",%progbits
 1861              		.align	2
 1862              		.global	xStreamBufferIsFull
 1863              		.thumb
 1864              		.thumb_func
 1865              		.type	xStreamBufferIsFull, %function
 1866              	xStreamBufferIsFull:
 1867              	.LFB608:
 926:Generated_Source\PSoC6\pdl\rtos\FreeRTOS\10.0.1\Source/stream_buffer.c **** BaseType_t xReturn;
 1868              		.loc 1 926 0
 1869              		.cfi_startproc
 1870              		@ args = 0, pretend = 0, frame = 0
 1871              		@ frame_needed = 0, uses_anonymous_args = 0
 1872              	.LVL215:
 931:Generated_Source\PSoC6\pdl\rtos\FreeRTOS\10.0.1\Source/stream_buffer.c **** 
 1873              		.loc 1 931 0
 1874 0000 40B9     		cbnz	r0, .L141
 1875              	.LBB138:
 1876              	.LBB139:
 156:Generated_Source\PSoC6\pdl\rtos/FreeRTOS/10.0.1/Source/portable/GCC/CM4F/portmacro.h **** 	(
 1877              		.loc 2 156 0
 1878              		.syntax unified
 1879              	@ 156 "Generated_Source\PSoC6\pdl\rtos/FreeRTOS/10.0.1/Source/portable/GCC/CM4F/portmacro.h" 1
 1880 0002 4FF02F03 			mov r3, #47												
 1881 0006 83F31188 		msr basepri, r3											
 1882 000a BFF36F8F 		isb														
 1883 000e BFF34F8F 		dsb														
 1884              	
 1885              	@ 0 "" 2
 1886              	.LVL216:
 1887              		.thumb
 1888              		.syntax unified
 1889              	.L142:
 1890 0012 FEE7     		b	.L142
 1891              	.L141:
 1892              	.LBE139:
 1893              	.LBE138:
 926:Generated_Source\PSoC6\pdl\rtos\FreeRTOS\10.0.1\Source/stream_buffer.c **** BaseType_t xReturn;
 1894              		.loc 1 926 0
 1895 0014 10B5     		push	{r4, lr}
 1896              		.cfi_def_cfa_offset 8
 1897              		.cfi_offset 4, -8
 1898              		.cfi_offset 14, -4
 1899 0016 0346     		mov	r3, r0
 937:Generated_Source\PSoC6\pdl\rtos\FreeRTOS\10.0.1\Source/stream_buffer.c **** 	{
 1900              		.loc 1 937 0
 1901 0018 027F     		ldrb	r2, [r0, #28]	@ zero_extendqisi2
 1902 001a 12F0010F 		tst	r2, #1
 1903 001e 01D0     		beq	.L145
 939:Generated_Source\PSoC6\pdl\rtos\FreeRTOS\10.0.1\Source/stream_buffer.c **** 	}
 1904              		.loc 1 939 0
 1905 0020 0424     		movs	r4, #4
 1906 0022 00E0     		b	.L143
 1907              	.L145:
 943:Generated_Source\PSoC6\pdl\rtos\FreeRTOS\10.0.1\Source/stream_buffer.c **** 	}
ARM GAS  C:\Users\kateb\AppData\Local\Temp\cc9mC3XY.s 			page 62


 1908              		.loc 1 943 0
 1909 0024 0024     		movs	r4, #0
 1910              	.L143:
 1911 0026 1846     		mov	r0, r3
 1912              	.LVL217:
 947:Generated_Source\PSoC6\pdl\rtos\FreeRTOS\10.0.1\Source/stream_buffer.c **** 	{
 1913              		.loc 1 947 0
 1914 0028 FFF7FEFF 		bl	xStreamBufferSpacesAvailable
 1915              	.LVL218:
 1916 002c 8442     		cmp	r4, r0
 1917 002e 01D3     		bcc	.L146
 949:Generated_Source\PSoC6\pdl\rtos\FreeRTOS\10.0.1\Source/stream_buffer.c **** 	}
 1918              		.loc 1 949 0
 1919 0030 0120     		movs	r0, #1
 1920 0032 10BD     		pop	{r4, pc}
 1921              	.LVL219:
 1922              	.L146:
 953:Generated_Source\PSoC6\pdl\rtos\FreeRTOS\10.0.1\Source/stream_buffer.c **** 	}
 1923              		.loc 1 953 0
 1924 0034 0020     		movs	r0, #0
 1925              	.LVL220:
 957:Generated_Source\PSoC6\pdl\rtos\FreeRTOS\10.0.1\Source/stream_buffer.c **** /*-----------------------------------------------------------*/
 1926              		.loc 1 957 0
 1927 0036 10BD     		pop	{r4, pc}
 1928              		.cfi_endproc
 1929              	.LFE608:
 1930              		.size	xStreamBufferIsFull, .-xStreamBufferIsFull
 1931              		.section	.text.xStreamBufferSendCompletedFromISR,"ax",%progbits
 1932              		.align	2
 1933              		.global	xStreamBufferSendCompletedFromISR
 1934              		.thumb
 1935              		.thumb_func
 1936              		.type	xStreamBufferSendCompletedFromISR, %function
 1937              	xStreamBufferSendCompletedFromISR:
 1938              	.LFB609:
 961:Generated_Source\PSoC6\pdl\rtos\FreeRTOS\10.0.1\Source/stream_buffer.c **** StreamBuffer_t * const pxStreamBuffer = ( StreamBuffer_t * ) xStreamBuffer; /*lint !e9087 !e9079 Sa
 1939              		.loc 1 961 0
 1940              		.cfi_startproc
 1941              		@ args = 0, pretend = 0, frame = 0
 1942              		@ frame_needed = 0, uses_anonymous_args = 0
 1943              	.LVL221:
 966:Generated_Source\PSoC6\pdl\rtos\FreeRTOS\10.0.1\Source/stream_buffer.c **** 
 1944              		.loc 1 966 0
 1945 0000 40B9     		cbnz	r0, .L149
 1946              	.LBB140:
 1947              	.LBB141:
 156:Generated_Source\PSoC6\pdl\rtos/FreeRTOS/10.0.1/Source/portable/GCC/CM4F/portmacro.h **** 	(
 1948              		.loc 2 156 0
 1949              		.syntax unified
 1950              	@ 156 "Generated_Source\PSoC6\pdl\rtos/FreeRTOS/10.0.1/Source/portable/GCC/CM4F/portmacro.h" 1
 1951 0002 4FF02F03 			mov r3, #47												
 1952 0006 83F31188 		msr basepri, r3											
 1953 000a BFF36F8F 		isb														
 1954 000e BFF34F8F 		dsb														
 1955              	
 1956              	@ 0 "" 2
 1957              	.LVL222:
ARM GAS  C:\Users\kateb\AppData\Local\Temp\cc9mC3XY.s 			page 63


 1958              		.thumb
 1959              		.syntax unified
 1960              	.L150:
 1961 0012 FEE7     		b	.L150
 1962              	.L149:
 1963              	.LBE141:
 1964              	.LBE140:
 961:Generated_Source\PSoC6\pdl\rtos\FreeRTOS\10.0.1\Source/stream_buffer.c **** StreamBuffer_t * const pxStreamBuffer = ( StreamBuffer_t * ) xStreamBuffer; /*lint !e9087 !e9079 Sa
 1965              		.loc 1 961 0
 1966 0014 30B5     		push	{r4, r5, lr}
 1967              		.cfi_def_cfa_offset 12
 1968              		.cfi_offset 4, -12
 1969              		.cfi_offset 5, -8
 1970              		.cfi_offset 14, -4
 1971 0016 83B0     		sub	sp, sp, #12
 1972              		.cfi_def_cfa_offset 24
 1973 0018 0446     		mov	r4, r0
 1974              	.LBB142:
 1975              	.LBB143:
 172:Generated_Source\PSoC6\pdl\rtos/FreeRTOS/10.0.1/Source/portable/GCC/CM4F/portmacro.h **** 	(
 1976              		.loc 2 172 0
 1977              		.syntax unified
 1978              	@ 172 "Generated_Source\PSoC6\pdl\rtos/FreeRTOS/10.0.1/Source/portable/GCC/CM4F/portmacro.h" 1
 1979 001a EFF31185 			mrs r5, basepri											
 1980 001e 4FF02F03 		mov r3, #47												
 1981 0022 83F31188 		msr basepri, r3											
 1982 0026 BFF36F8F 		isb														
 1983 002a BFF34F8F 		dsb														
 1984              	
 1985              	@ 0 "" 2
 1986              		.thumb
 1987              		.syntax unified
 1988              	.LBE143:
 1989              	.LBE142:
 970:Generated_Source\PSoC6\pdl\rtos\FreeRTOS\10.0.1\Source/stream_buffer.c **** 		{
 1990              		.loc 1 970 0
 1991 002e 0369     		ldr	r3, [r0, #16]
 1992 0030 53B1     		cbz	r3, .L152
 972:Generated_Source\PSoC6\pdl\rtos\FreeRTOS\10.0.1\Source/stream_buffer.c **** 										 ( uint32_t ) 0,
 1993              		.loc 1 972 0
 1994 0032 0069     		ldr	r0, [r0, #16]
 1995              	.LVL223:
 1996 0034 0091     		str	r1, [sp]
 1997 0036 0023     		movs	r3, #0
 1998 0038 1A46     		mov	r2, r3
 1999 003a 1946     		mov	r1, r3
 2000              	.LVL224:
 2001 003c FFF7FEFF 		bl	xTaskGenericNotifyFromISR
 2002              	.LVL225:
 976:Generated_Source\PSoC6\pdl\rtos\FreeRTOS\10.0.1\Source/stream_buffer.c **** 			xReturn = pdTRUE;
 2003              		.loc 1 976 0
 2004 0040 0023     		movs	r3, #0
 2005 0042 2361     		str	r3, [r4, #16]
 2006              	.LVL226:
 977:Generated_Source\PSoC6\pdl\rtos\FreeRTOS\10.0.1\Source/stream_buffer.c **** 		}
 2007              		.loc 1 977 0
 2008 0044 0120     		movs	r0, #1
ARM GAS  C:\Users\kateb\AppData\Local\Temp\cc9mC3XY.s 			page 64


 2009 0046 00E0     		b	.L151
 2010              	.LVL227:
 2011              	.L152:
 981:Generated_Source\PSoC6\pdl\rtos\FreeRTOS\10.0.1\Source/stream_buffer.c **** 		}
 2012              		.loc 1 981 0
 2013 0048 0020     		movs	r0, #0
 2014              	.LVL228:
 2015              	.L151:
 2016              	.LBB144:
 2017              	.LBB145:
 2018              		.loc 2 190 0
 2019              		.syntax unified
 2020              	@ 190 "Generated_Source\PSoC6\pdl\rtos/FreeRTOS/10.0.1/Source/portable/GCC/CM4F/portmacro.h" 1
 2021 004a 85F31188 			msr basepri, r5	
 2022              	@ 0 "" 2
 2023              	.LVL229:
 2024              		.thumb
 2025              		.syntax unified
 2026              	.LBE145:
 2027              	.LBE144:
 987:Generated_Source\PSoC6\pdl\rtos\FreeRTOS\10.0.1\Source/stream_buffer.c **** /*-----------------------------------------------------------*/
 2028              		.loc 1 987 0
 2029 004e 03B0     		add	sp, sp, #12
 2030              		.cfi_def_cfa_offset 12
 2031              		@ sp needed
 2032 0050 30BD     		pop	{r4, r5, pc}
 2033              		.cfi_endproc
 2034              	.LFE609:
 2035              		.size	xStreamBufferSendCompletedFromISR, .-xStreamBufferSendCompletedFromISR
 2036 0052 00BF     		.section	.text.xStreamBufferReceiveCompletedFromISR,"ax",%progbits
 2037              		.align	2
 2038              		.global	xStreamBufferReceiveCompletedFromISR
 2039              		.thumb
 2040              		.thumb_func
 2041              		.type	xStreamBufferReceiveCompletedFromISR, %function
 2042              	xStreamBufferReceiveCompletedFromISR:
 2043              	.LFB610:
 991:Generated_Source\PSoC6\pdl\rtos\FreeRTOS\10.0.1\Source/stream_buffer.c **** StreamBuffer_t * const pxStreamBuffer = ( StreamBuffer_t * ) xStreamBuffer; /*lint !e9087 !e9079 Sa
 2044              		.loc 1 991 0
 2045              		.cfi_startproc
 2046              		@ args = 0, pretend = 0, frame = 0
 2047              		@ frame_needed = 0, uses_anonymous_args = 0
 2048              	.LVL230:
 996:Generated_Source\PSoC6\pdl\rtos\FreeRTOS\10.0.1\Source/stream_buffer.c **** 
 2049              		.loc 1 996 0
 2050 0000 40B9     		cbnz	r0, .L155
 2051              	.LBB146:
 2052              	.LBB147:
 156:Generated_Source\PSoC6\pdl\rtos/FreeRTOS/10.0.1/Source/portable/GCC/CM4F/portmacro.h **** 	(
 2053              		.loc 2 156 0
 2054              		.syntax unified
 2055              	@ 156 "Generated_Source\PSoC6\pdl\rtos/FreeRTOS/10.0.1/Source/portable/GCC/CM4F/portmacro.h" 1
 2056 0002 4FF02F03 			mov r3, #47												
 2057 0006 83F31188 		msr basepri, r3											
 2058 000a BFF36F8F 		isb														
 2059 000e BFF34F8F 		dsb														
 2060              	
ARM GAS  C:\Users\kateb\AppData\Local\Temp\cc9mC3XY.s 			page 65


 2061              	@ 0 "" 2
 2062              	.LVL231:
 2063              		.thumb
 2064              		.syntax unified
 2065              	.L156:
 2066 0012 FEE7     		b	.L156
 2067              	.L155:
 2068              	.LBE147:
 2069              	.LBE146:
 991:Generated_Source\PSoC6\pdl\rtos\FreeRTOS\10.0.1\Source/stream_buffer.c **** StreamBuffer_t * const pxStreamBuffer = ( StreamBuffer_t * ) xStreamBuffer; /*lint !e9087 !e9079 Sa
 2070              		.loc 1 991 0
 2071 0014 30B5     		push	{r4, r5, lr}
 2072              		.cfi_def_cfa_offset 12
 2073              		.cfi_offset 4, -12
 2074              		.cfi_offset 5, -8
 2075              		.cfi_offset 14, -4
 2076 0016 83B0     		sub	sp, sp, #12
 2077              		.cfi_def_cfa_offset 24
 2078 0018 0446     		mov	r4, r0
 2079              	.LBB148:
 2080              	.LBB149:
 172:Generated_Source\PSoC6\pdl\rtos/FreeRTOS/10.0.1/Source/portable/GCC/CM4F/portmacro.h **** 	(
 2081              		.loc 2 172 0
 2082              		.syntax unified
 2083              	@ 172 "Generated_Source\PSoC6\pdl\rtos/FreeRTOS/10.0.1/Source/portable/GCC/CM4F/portmacro.h" 1
 2084 001a EFF31185 			mrs r5, basepri											
 2085 001e 4FF02F03 		mov r3, #47												
 2086 0022 83F31188 		msr basepri, r3											
 2087 0026 BFF36F8F 		isb														
 2088 002a BFF34F8F 		dsb														
 2089              	
 2090              	@ 0 "" 2
 2091              		.thumb
 2092              		.syntax unified
 2093              	.LBE149:
 2094              	.LBE148:
1000:Generated_Source\PSoC6\pdl\rtos\FreeRTOS\10.0.1\Source/stream_buffer.c **** 		{
 2095              		.loc 1 1000 0
 2096 002e 4369     		ldr	r3, [r0, #20]
 2097 0030 53B1     		cbz	r3, .L158
1002:Generated_Source\PSoC6\pdl\rtos\FreeRTOS\10.0.1\Source/stream_buffer.c **** 										 ( uint32_t ) 0,
 2098              		.loc 1 1002 0
 2099 0032 4069     		ldr	r0, [r0, #20]
 2100              	.LVL232:
 2101 0034 0091     		str	r1, [sp]
 2102 0036 0023     		movs	r3, #0
 2103 0038 1A46     		mov	r2, r3
 2104 003a 1946     		mov	r1, r3
 2105              	.LVL233:
 2106 003c FFF7FEFF 		bl	xTaskGenericNotifyFromISR
 2107              	.LVL234:
1006:Generated_Source\PSoC6\pdl\rtos\FreeRTOS\10.0.1\Source/stream_buffer.c **** 			xReturn = pdTRUE;
 2108              		.loc 1 1006 0
 2109 0040 0023     		movs	r3, #0
 2110 0042 6361     		str	r3, [r4, #20]
 2111              	.LVL235:
1007:Generated_Source\PSoC6\pdl\rtos\FreeRTOS\10.0.1\Source/stream_buffer.c **** 		}
ARM GAS  C:\Users\kateb\AppData\Local\Temp\cc9mC3XY.s 			page 66


 2112              		.loc 1 1007 0
 2113 0044 0120     		movs	r0, #1
 2114 0046 00E0     		b	.L157
 2115              	.LVL236:
 2116              	.L158:
1011:Generated_Source\PSoC6\pdl\rtos\FreeRTOS\10.0.1\Source/stream_buffer.c **** 		}
 2117              		.loc 1 1011 0
 2118 0048 0020     		movs	r0, #0
 2119              	.LVL237:
 2120              	.L157:
 2121              	.LBB150:
 2122              	.LBB151:
 2123              		.loc 2 190 0
 2124              		.syntax unified
 2125              	@ 190 "Generated_Source\PSoC6\pdl\rtos/FreeRTOS/10.0.1/Source/portable/GCC/CM4F/portmacro.h" 1
 2126 004a 85F31188 			msr basepri, r5	
 2127              	@ 0 "" 2
 2128              	.LVL238:
 2129              		.thumb
 2130              		.syntax unified
 2131              	.LBE151:
 2132              	.LBE150:
1017:Generated_Source\PSoC6\pdl\rtos\FreeRTOS\10.0.1\Source/stream_buffer.c **** /*-----------------------------------------------------------*/
 2133              		.loc 1 1017 0
 2134 004e 03B0     		add	sp, sp, #12
 2135              		.cfi_def_cfa_offset 12
 2136              		@ sp needed
 2137 0050 30BD     		pop	{r4, r5, pc}
 2138              		.cfi_endproc
 2139              	.LFE610:
 2140              		.size	xStreamBufferReceiveCompletedFromISR, .-xStreamBufferReceiveCompletedFromISR
 2141 0052 00BF     		.text
 2142              	.Letext0:
 2143              		.file 3 "c:\\program files (x86)\\cypress\\psoc creator\\4.2\\psoc creator\\import\\gnu\\arm\\5.4.
 2144              		.file 4 "c:\\program files (x86)\\cypress\\psoc creator\\4.2\\psoc creator\\import\\gnu\\arm\\5.4.
 2145              		.file 5 "c:\\program files (x86)\\cypress\\psoc creator\\4.2\\psoc creator\\import\\gnu\\arm\\5.4.
 2146              		.file 6 "Generated_Source\\PSoC6\\pdl\\drivers/peripheral/rtc/cy_rtc.h"
 2147              		.file 7 "Generated_Source\\PSoC6\\pdl\\drivers/peripheral/scb/cy_scb_spi.h"
 2148              		.file 8 "Generated_Source\\PSoC6\\pdl\\drivers/peripheral/scb/cy_scb_uart.h"
 2149              		.file 9 "Generated_Source\\PSoC6\\pdl\\drivers/peripheral/sar/cy_sar.h"
 2150              		.file 10 "Generated_Source\\PSoC6\\pdl\\middleware/ble/cy_ble_stack_host_main.h"
 2151              		.file 11 "Generated_Source\\PSoC6\\pdl\\middleware/ble/cy_ble_gap.h"
 2152              		.file 12 "Generated_Source\\PSoC6/ADC.h"
 2153              		.file 13 "Generated_Source\\PSoC6\\pdl\\rtos/FreeRTOS/10.0.1/Source/include/task.h"
 2154              		.file 14 "Generated_Source\\PSoC6\\pdl\\rtos/FreeRTOS/10.0.1/Source/include/stream_buffer.h"
 2155              		.file 15 "Generated_Source\\PSoC6\\pdl\\cmsis/include/core_cm4.h"
 2156              		.file 16 "Generated_Source\\PSoC6/DEBUG_UART.h"
 2157              		.file 17 "Generated_Source\\PSoC6/RTC.h"
 2158              		.file 18 "Generated_Source\\PSoC6/CY_EINK_SPIM.h"
 2159              		.file 19 "c:\\program files (x86)\\cypress\\psoc creator\\4.2\\psoc creator\\import\\gnu\\arm\\5.4
 2160              		.file 20 "Generated_Source\\PSoC6\\pdl\\rtos/FreeRTOS/10.0.1/Source/include/portable.h"
 2161              		.section	.debug_info,"",%progbits
 2162              	.Ldebug_info0:
 2163 0000 001B0000 		.4byte	0x1b00
 2164 0004 0400     		.2byte	0x4
 2165 0006 00000000 		.4byte	.Ldebug_abbrev0
 2166 000a 04       		.byte	0x4
ARM GAS  C:\Users\kateb\AppData\Local\Temp\cc9mC3XY.s 			page 67


 2167 000b 01       		.uleb128 0x1
 2168 000c 05080000 		.4byte	.LASF204
 2169 0010 0C       		.byte	0xc
 2170 0011 D70A0000 		.4byte	.LASF205
 2171 0015 16070000 		.4byte	.LASF206
 2172 0019 00000000 		.4byte	.Ldebug_ranges0+0
 2173 001d 00000000 		.4byte	0
 2174 0021 00000000 		.4byte	.Ldebug_line0
 2175 0025 02       		.uleb128 0x2
 2176 0026 01       		.byte	0x1
 2177 0027 06       		.byte	0x6
 2178 0028 CF010000 		.4byte	.LASF0
 2179 002c 03       		.uleb128 0x3
 2180 002d B4000000 		.4byte	.LASF4
 2181 0031 03       		.byte	0x3
 2182 0032 1D       		.byte	0x1d
 2183 0033 37000000 		.4byte	0x37
 2184 0037 02       		.uleb128 0x2
 2185 0038 01       		.byte	0x1
 2186 0039 08       		.byte	0x8
 2187 003a 9F090000 		.4byte	.LASF1
 2188 003e 02       		.uleb128 0x2
 2189 003f 02       		.byte	0x2
 2190 0040 05       		.byte	0x5
 2191 0041 BA090000 		.4byte	.LASF2
 2192 0045 02       		.uleb128 0x2
 2193 0046 02       		.byte	0x2
 2194 0047 07       		.byte	0x7
 2195 0048 61050000 		.4byte	.LASF3
 2196 004c 03       		.uleb128 0x3
 2197 004d 7D0B0000 		.4byte	.LASF5
 2198 0051 03       		.byte	0x3
 2199 0052 3F       		.byte	0x3f
 2200 0053 57000000 		.4byte	0x57
 2201 0057 02       		.uleb128 0x2
 2202 0058 04       		.byte	0x4
 2203 0059 05       		.byte	0x5
 2204 005a F3000000 		.4byte	.LASF6
 2205 005e 03       		.uleb128 0x3
 2206 005f E3030000 		.4byte	.LASF7
 2207 0063 03       		.byte	0x3
 2208 0064 41       		.byte	0x41
 2209 0065 69000000 		.4byte	0x69
 2210 0069 02       		.uleb128 0x2
 2211 006a 04       		.byte	0x4
 2212 006b 07       		.byte	0x7
 2213 006c EC040000 		.4byte	.LASF8
 2214 0070 02       		.uleb128 0x2
 2215 0071 08       		.byte	0x8
 2216 0072 05       		.byte	0x5
 2217 0073 0F030000 		.4byte	.LASF9
 2218 0077 02       		.uleb128 0x2
 2219 0078 08       		.byte	0x8
 2220 0079 07       		.byte	0x7
 2221 007a 31010000 		.4byte	.LASF10
 2222 007e 04       		.uleb128 0x4
 2223 007f 04       		.byte	0x4
ARM GAS  C:\Users\kateb\AppData\Local\Temp\cc9mC3XY.s 			page 68


 2224 0080 05       		.byte	0x5
 2225 0081 696E7400 		.ascii	"int\000"
 2226 0085 02       		.uleb128 0x2
 2227 0086 04       		.byte	0x4
 2228 0087 07       		.byte	0x7
 2229 0088 8D040000 		.4byte	.LASF11
 2230 008c 03       		.uleb128 0x3
 2231 008d 340D0000 		.4byte	.LASF12
 2232 0091 04       		.byte	0x4
 2233 0092 18       		.byte	0x18
 2234 0093 2C000000 		.4byte	0x2c
 2235 0097 03       		.uleb128 0x3
 2236 0098 A4060000 		.4byte	.LASF13
 2237 009c 04       		.byte	0x4
 2238 009d 2C       		.byte	0x2c
 2239 009e 4C000000 		.4byte	0x4c
 2240 00a2 03       		.uleb128 0x3
 2241 00a3 610A0000 		.4byte	.LASF14
 2242 00a7 04       		.byte	0x4
 2243 00a8 30       		.byte	0x30
 2244 00a9 5E000000 		.4byte	0x5e
 2245 00ad 03       		.uleb128 0x3
 2246 00ae 76000000 		.4byte	.LASF15
 2247 00b2 05       		.byte	0x5
 2248 00b3 D8       		.byte	0xd8
 2249 00b4 85000000 		.4byte	0x85
 2250 00b8 02       		.uleb128 0x2
 2251 00b9 08       		.byte	0x8
 2252 00ba 04       		.byte	0x4
 2253 00bb 760A0000 		.4byte	.LASF16
 2254 00bf 02       		.uleb128 0x2
 2255 00c0 04       		.byte	0x4
 2256 00c1 07       		.byte	0x7
 2257 00c2 AC060000 		.4byte	.LASF17
 2258 00c6 05       		.uleb128 0x5
 2259 00c7 04       		.byte	0x4
 2260 00c8 02       		.uleb128 0x2
 2261 00c9 01       		.byte	0x1
 2262 00ca 08       		.byte	0x8
 2263 00cb A70A0000 		.4byte	.LASF18
 2264 00cf 06       		.uleb128 0x6
 2265 00d0 A2000000 		.4byte	0xa2
 2266 00d4 02       		.uleb128 0x2
 2267 00d5 04       		.byte	0x4
 2268 00d6 04       		.byte	0x4
 2269 00d7 DC080000 		.4byte	.LASF19
 2270 00db 02       		.uleb128 0x2
 2271 00dc 08       		.byte	0x8
 2272 00dd 04       		.byte	0x4
 2273 00de 3E030000 		.4byte	.LASF20
 2274 00e2 02       		.uleb128 0x2
 2275 00e3 01       		.byte	0x1
 2276 00e4 02       		.byte	0x2
 2277 00e5 8A090000 		.4byte	.LASF21
 2278 00e9 07       		.uleb128 0x7
 2279 00ea 01       		.byte	0x1
 2280 00eb 37000000 		.4byte	0x37
ARM GAS  C:\Users\kateb\AppData\Local\Temp\cc9mC3XY.s 			page 69


 2281 00ef 06       		.byte	0x6
 2282 00f0 6A01     		.2byte	0x16a
 2283 00f2 03010000 		.4byte	0x103
 2284 00f6 08       		.uleb128 0x8
 2285 00f7 A2010000 		.4byte	.LASF22
 2286 00fb 00       		.byte	0
 2287 00fc 08       		.uleb128 0x8
 2288 00fd AA020000 		.4byte	.LASF23
 2289 0101 01       		.byte	0x1
 2290 0102 00       		.byte	0
 2291 0103 09       		.uleb128 0x9
 2292 0104 0F060000 		.4byte	.LASF24
 2293 0108 06       		.byte	0x6
 2294 0109 6D01     		.2byte	0x16d
 2295 010b E9000000 		.4byte	0xe9
 2296 010f 0A       		.uleb128 0xa
 2297 0110 18       		.byte	0x18
 2298 0111 06       		.byte	0x6
 2299 0112 CE01     		.2byte	0x1ce
 2300 0114 67010000 		.4byte	0x167
 2301 0118 0B       		.uleb128 0xb
 2302 0119 EF090000 		.4byte	.LASF25
 2303 011d 06       		.byte	0x6
 2304 011e D001     		.2byte	0x1d0
 2305 0120 03010000 		.4byte	0x103
 2306 0124 00       		.byte	0
 2307 0125 0B       		.uleb128 0xb
 2308 0126 F2070000 		.4byte	.LASF26
 2309 012a 06       		.byte	0x6
 2310 012b D301     		.2byte	0x1d3
 2311 012d A2000000 		.4byte	0xa2
 2312 0131 04       		.byte	0x4
 2313 0132 0B       		.uleb128 0xb
 2314 0133 E2080000 		.4byte	.LASF27
 2315 0137 06       		.byte	0x6
 2316 0138 D501     		.2byte	0x1d5
 2317 013a A2000000 		.4byte	0xa2
 2318 013e 08       		.byte	0x8
 2319 013f 0B       		.uleb128 0xb
 2320 0140 6C010000 		.4byte	.LASF28
 2321 0144 06       		.byte	0x6
 2322 0145 D801     		.2byte	0x1d8
 2323 0147 A2000000 		.4byte	0xa2
 2324 014b 0C       		.byte	0xc
 2325 014c 0B       		.uleb128 0xb
 2326 014d 39060000 		.4byte	.LASF29
 2327 0151 06       		.byte	0x6
 2328 0152 DC01     		.2byte	0x1dc
 2329 0154 A2000000 		.4byte	0xa2
 2330 0158 10       		.byte	0x10
 2331 0159 0B       		.uleb128 0xb
 2332 015a 5B050000 		.4byte	.LASF30
 2333 015e 06       		.byte	0x6
 2334 015f E001     		.2byte	0x1e0
 2335 0161 A2000000 		.4byte	0xa2
 2336 0165 14       		.byte	0x14
 2337 0166 00       		.byte	0
ARM GAS  C:\Users\kateb\AppData\Local\Temp\cc9mC3XY.s 			page 70


 2338 0167 09       		.uleb128 0x9
 2339 0168 630C0000 		.4byte	.LASF31
 2340 016c 06       		.byte	0x6
 2341 016d E201     		.2byte	0x1e2
 2342 016f 0F010000 		.4byte	0x10f
 2343 0173 0A       		.uleb128 0xa
 2344 0174 30       		.byte	0x30
 2345 0175 06       		.byte	0x6
 2346 0176 E501     		.2byte	0x1e5
 2347 0178 97010000 		.4byte	0x197
 2348 017c 0B       		.uleb128 0xb
 2349 017d 7F020000 		.4byte	.LASF32
 2350 0181 06       		.byte	0x6
 2351 0182 E701     		.2byte	0x1e7
 2352 0184 67010000 		.4byte	0x167
 2353 0188 00       		.byte	0
 2354 0189 0B       		.uleb128 0xb
 2355 018a 070E0000 		.4byte	.LASF33
 2356 018e 06       		.byte	0x6
 2357 018f E801     		.2byte	0x1e8
 2358 0191 67010000 		.4byte	0x167
 2359 0195 18       		.byte	0x18
 2360 0196 00       		.byte	0
 2361 0197 09       		.uleb128 0x9
 2362 0198 CE020000 		.4byte	.LASF34
 2363 019c 06       		.byte	0x6
 2364 019d E901     		.2byte	0x1e9
 2365 019f 73010000 		.4byte	0x173
 2366 01a3 0C       		.uleb128 0xc
 2367 01a4 04       		.byte	0x4
 2368 01a5 A9010000 		.4byte	0x1a9
 2369 01a9 0D       		.uleb128 0xd
 2370 01aa B4010000 		.4byte	0x1b4
 2371 01ae 0E       		.uleb128 0xe
 2372 01af A2000000 		.4byte	0xa2
 2373 01b3 00       		.byte	0
 2374 01b4 0C       		.uleb128 0xc
 2375 01b5 04       		.byte	0x4
 2376 01b6 8C000000 		.4byte	0x8c
 2377 01ba 09       		.uleb128 0x9
 2378 01bb 61020000 		.4byte	.LASF35
 2379 01bf 07       		.byte	0x7
 2380 01c0 BF01     		.2byte	0x1bf
 2381 01c2 A3010000 		.4byte	0x1a3
 2382 01c6 0F       		.uleb128 0xf
 2383 01c7 DB010000 		.4byte	.LASF47
 2384 01cb 24       		.byte	0x24
 2385 01cc 07       		.byte	0x7
 2386 01cd 4102     		.2byte	0x241
 2387 01cf 49020000 		.4byte	0x249
 2388 01d3 0B       		.uleb128 0xb
 2389 01d4 E8090000 		.4byte	.LASF36
 2390 01d8 07       		.byte	0x7
 2391 01d9 4402     		.2byte	0x244
 2392 01db CF000000 		.4byte	0xcf
 2393 01df 00       		.byte	0
 2394 01e0 0B       		.uleb128 0xb
ARM GAS  C:\Users\kateb\AppData\Local\Temp\cc9mC3XY.s 			page 71


 2395 01e1 8B0C0000 		.4byte	.LASF37
 2396 01e5 07       		.byte	0x7
 2397 01e6 4602     		.2byte	0x246
 2398 01e8 C6000000 		.4byte	0xc6
 2399 01ec 04       		.byte	0x4
 2400 01ed 0B       		.uleb128 0xb
 2401 01ee 2F000000 		.4byte	.LASF38
 2402 01f2 07       		.byte	0x7
 2403 01f3 4702     		.2byte	0x247
 2404 01f5 A2000000 		.4byte	0xa2
 2405 01f9 08       		.byte	0x8
 2406 01fa 0B       		.uleb128 0xb
 2407 01fb 33040000 		.4byte	.LASF39
 2408 01ff 07       		.byte	0x7
 2409 0200 4802     		.2byte	0x248
 2410 0202 CF000000 		.4byte	0xcf
 2411 0206 0C       		.byte	0xc
 2412 0207 0B       		.uleb128 0xb
 2413 0208 66010000 		.4byte	.LASF40
 2414 020c 07       		.byte	0x7
 2415 020d 4A02     		.2byte	0x24a
 2416 020f C6000000 		.4byte	0xc6
 2417 0213 10       		.byte	0x10
 2418 0214 0B       		.uleb128 0xb
 2419 0215 67040000 		.4byte	.LASF41
 2420 0219 07       		.byte	0x7
 2421 021a 4B02     		.2byte	0x24b
 2422 021c A2000000 		.4byte	0xa2
 2423 0220 14       		.byte	0x14
 2424 0221 0B       		.uleb128 0xb
 2425 0222 D70E0000 		.4byte	.LASF42
 2426 0226 07       		.byte	0x7
 2427 0227 4C02     		.2byte	0x24c
 2428 0229 CF000000 		.4byte	0xcf
 2429 022d 18       		.byte	0x18
 2430 022e 0B       		.uleb128 0xb
 2431 022f 9B050000 		.4byte	.LASF43
 2432 0233 07       		.byte	0x7
 2433 0234 5202     		.2byte	0x252
 2434 0236 BA010000 		.4byte	0x1ba
 2435 023a 1C       		.byte	0x1c
 2436 023b 0B       		.uleb128 0xb
 2437 023c CF0E0000 		.4byte	.LASF44
 2438 0240 07       		.byte	0x7
 2439 0241 5502     		.2byte	0x255
 2440 0243 A2000000 		.4byte	0xa2
 2441 0247 20       		.byte	0x20
 2442 0248 00       		.byte	0
 2443 0249 09       		.uleb128 0x9
 2444 024a DA050000 		.4byte	.LASF45
 2445 024e 07       		.byte	0x7
 2446 024f 5802     		.2byte	0x258
 2447 0251 C6010000 		.4byte	0x1c6
 2448 0255 09       		.uleb128 0x9
 2449 0256 140C0000 		.4byte	.LASF46
 2450 025a 08       		.byte	0x8
 2451 025b AB01     		.2byte	0x1ab
ARM GAS  C:\Users\kateb\AppData\Local\Temp\cc9mC3XY.s 			page 72


 2452 025d A3010000 		.4byte	0x1a3
 2453 0261 0F       		.uleb128 0xf
 2454 0262 640E0000 		.4byte	.LASF48
 2455 0266 38       		.byte	0x38
 2456 0267 08       		.byte	0x8
 2457 0268 4702     		.2byte	0x247
 2458 026a 25030000 		.4byte	0x325
 2459 026e 0B       		.uleb128 0xb
 2460 026f 52050000 		.4byte	.LASF49
 2461 0273 08       		.byte	0x8
 2462 0274 4A02     		.2byte	0x24a
 2463 0276 CF000000 		.4byte	0xcf
 2464 027a 00       		.byte	0
 2465 027b 0B       		.uleb128 0xb
 2466 027c B2070000 		.4byte	.LASF50
 2467 0280 08       		.byte	0x8
 2468 0281 4B02     		.2byte	0x24b
 2469 0283 CF000000 		.4byte	0xcf
 2470 0287 04       		.byte	0x4
 2471 0288 0B       		.uleb128 0xb
 2472 0289 56010000 		.4byte	.LASF51
 2473 028d 08       		.byte	0x8
 2474 028e 4D02     		.2byte	0x24d
 2475 0290 C6000000 		.4byte	0xc6
 2476 0294 08       		.byte	0x8
 2477 0295 0B       		.uleb128 0xb
 2478 0296 CD0B0000 		.4byte	.LASF52
 2479 029a 08       		.byte	0x8
 2480 029b 4E02     		.2byte	0x24e
 2481 029d A2000000 		.4byte	0xa2
 2482 02a1 0C       		.byte	0xc
 2483 02a2 0B       		.uleb128 0xb
 2484 02a3 BF0B0000 		.4byte	.LASF53
 2485 02a7 08       		.byte	0x8
 2486 02a8 4F02     		.2byte	0x24f
 2487 02aa CF000000 		.4byte	0xcf
 2488 02ae 10       		.byte	0x10
 2489 02af 0B       		.uleb128 0xb
 2490 02b0 950D0000 		.4byte	.LASF54
 2491 02b4 08       		.byte	0x8
 2492 02b5 5002     		.2byte	0x250
 2493 02b7 CF000000 		.4byte	0xcf
 2494 02bb 14       		.byte	0x14
 2495 02bc 0B       		.uleb128 0xb
 2496 02bd 8B0C0000 		.4byte	.LASF37
 2497 02c1 08       		.byte	0x8
 2498 02c2 5202     		.2byte	0x252
 2499 02c4 C6000000 		.4byte	0xc6
 2500 02c8 18       		.byte	0x18
 2501 02c9 0B       		.uleb128 0xb
 2502 02ca 2F000000 		.4byte	.LASF38
 2503 02ce 08       		.byte	0x8
 2504 02cf 5302     		.2byte	0x253
 2505 02d1 A2000000 		.4byte	0xa2
 2506 02d5 1C       		.byte	0x1c
 2507 02d6 0B       		.uleb128 0xb
 2508 02d7 33040000 		.4byte	.LASF39
ARM GAS  C:\Users\kateb\AppData\Local\Temp\cc9mC3XY.s 			page 73


 2509 02db 08       		.byte	0x8
 2510 02dc 5402     		.2byte	0x254
 2511 02de CF000000 		.4byte	0xcf
 2512 02e2 20       		.byte	0x20
 2513 02e3 0B       		.uleb128 0xb
 2514 02e4 66010000 		.4byte	.LASF40
 2515 02e8 08       		.byte	0x8
 2516 02e9 5602     		.2byte	0x256
 2517 02eb C6000000 		.4byte	0xc6
 2518 02ef 24       		.byte	0x24
 2519 02f0 0B       		.uleb128 0xb
 2520 02f1 67040000 		.4byte	.LASF41
 2521 02f5 08       		.byte	0x8
 2522 02f6 5702     		.2byte	0x257
 2523 02f8 A2000000 		.4byte	0xa2
 2524 02fc 28       		.byte	0x28
 2525 02fd 0B       		.uleb128 0xb
 2526 02fe 37090000 		.4byte	.LASF55
 2527 0302 08       		.byte	0x8
 2528 0303 5802     		.2byte	0x258
 2529 0305 CF000000 		.4byte	0xcf
 2530 0309 2C       		.byte	0x2c
 2531 030a 0B       		.uleb128 0xb
 2532 030b 9B050000 		.4byte	.LASF43
 2533 030f 08       		.byte	0x8
 2534 0310 5D02     		.2byte	0x25d
 2535 0312 55020000 		.4byte	0x255
 2536 0316 30       		.byte	0x30
 2537 0317 0B       		.uleb128 0xb
 2538 0318 CF0E0000 		.4byte	.LASF44
 2539 031c 08       		.byte	0x8
 2540 031d 6002     		.2byte	0x260
 2541 031f A2000000 		.4byte	0xa2
 2542 0323 34       		.byte	0x34
 2543 0324 00       		.byte	0
 2544 0325 09       		.uleb128 0x9
 2545 0326 F2010000 		.4byte	.LASF56
 2546 032a 08       		.byte	0x8
 2547 032b 6302     		.2byte	0x263
 2548 032d 61020000 		.4byte	0x261
 2549 0331 07       		.uleb128 0x7
 2550 0332 01       		.byte	0x1
 2551 0333 37000000 		.4byte	0x37
 2552 0337 09       		.byte	0x9
 2553 0338 0504     		.2byte	0x405
 2554 033a 57030000 		.4byte	0x357
 2555 033e 08       		.uleb128 0x8
 2556 033f 4D0B0000 		.4byte	.LASF57
 2557 0343 00       		.byte	0
 2558 0344 08       		.uleb128 0x8
 2559 0345 AA050000 		.4byte	.LASF58
 2560 0349 01       		.byte	0x1
 2561 034a 08       		.uleb128 0x8
 2562 034b 26030000 		.4byte	.LASF59
 2563 034f 02       		.byte	0x2
 2564 0350 08       		.uleb128 0x8
 2565 0351 7B0D0000 		.4byte	.LASF60
ARM GAS  C:\Users\kateb\AppData\Local\Temp\cc9mC3XY.s 			page 74


 2566 0355 03       		.byte	0x3
 2567 0356 00       		.byte	0
 2568 0357 09       		.uleb128 0x9
 2569 0358 81060000 		.4byte	.LASF61
 2570 035c 09       		.byte	0x9
 2571 035d 0A04     		.2byte	0x40a
 2572 035f 31030000 		.4byte	0x331
 2573 0363 0A       		.uleb128 0xa
 2574 0364 78       		.byte	0x78
 2575 0365 09       		.byte	0x9
 2576 0366 F404     		.2byte	0x4f4
 2577 0368 30040000 		.4byte	0x430
 2578 036c 0B       		.uleb128 0xb
 2579 036d 3C040000 		.4byte	.LASF62
 2580 0371 09       		.byte	0x9
 2581 0372 F604     		.2byte	0x4f6
 2582 0374 A2000000 		.4byte	0xa2
 2583 0378 00       		.byte	0
 2584 0379 0B       		.uleb128 0xb
 2585 037a 100D0000 		.4byte	.LASF63
 2586 037e 09       		.byte	0x9
 2587 037f F704     		.2byte	0x4f7
 2588 0381 A2000000 		.4byte	0xa2
 2589 0385 04       		.byte	0x4
 2590 0386 0B       		.uleb128 0xb
 2591 0387 9C030000 		.4byte	.LASF64
 2592 038b 09       		.byte	0x9
 2593 038c F804     		.2byte	0x4f8
 2594 038e A2000000 		.4byte	0xa2
 2595 0392 08       		.byte	0x8
 2596 0393 0B       		.uleb128 0xb
 2597 0394 6E0D0000 		.4byte	.LASF65
 2598 0398 09       		.byte	0x9
 2599 0399 F904     		.2byte	0x4f9
 2600 039b A2000000 		.4byte	0xa2
 2601 039f 0C       		.byte	0xc
 2602 03a0 0B       		.uleb128 0xb
 2603 03a1 74050000 		.4byte	.LASF66
 2604 03a5 09       		.byte	0x9
 2605 03a6 FA04     		.2byte	0x4fa
 2606 03a8 A2000000 		.4byte	0xa2
 2607 03ac 10       		.byte	0x10
 2608 03ad 0B       		.uleb128 0xb
 2609 03ae A80C0000 		.4byte	.LASF67
 2610 03b2 09       		.byte	0x9
 2611 03b3 FB04     		.2byte	0x4fb
 2612 03b5 57030000 		.4byte	0x357
 2613 03b9 14       		.byte	0x14
 2614 03ba 0B       		.uleb128 0xb
 2615 03bb 48090000 		.4byte	.LASF68
 2616 03bf 09       		.byte	0x9
 2617 03c0 FC04     		.2byte	0x4fc
 2618 03c2 A2000000 		.4byte	0xa2
 2619 03c6 18       		.byte	0x18
 2620 03c7 0B       		.uleb128 0xb
 2621 03c8 CF050000 		.4byte	.LASF69
 2622 03cc 09       		.byte	0x9
ARM GAS  C:\Users\kateb\AppData\Local\Temp\cc9mC3XY.s 			page 75


 2623 03cd FD04     		.2byte	0x4fd
 2624 03cf 30040000 		.4byte	0x430
 2625 03d3 1C       		.byte	0x1c
 2626 03d4 0B       		.uleb128 0xb
 2627 03d5 CE090000 		.4byte	.LASF70
 2628 03d9 09       		.byte	0x9
 2629 03da FE04     		.2byte	0x4fe
 2630 03dc A2000000 		.4byte	0xa2
 2631 03e0 5C       		.byte	0x5c
 2632 03e1 0B       		.uleb128 0xb
 2633 03e2 BE000000 		.4byte	.LASF71
 2634 03e6 09       		.byte	0x9
 2635 03e7 FF04     		.2byte	0x4ff
 2636 03e9 A2000000 		.4byte	0xa2
 2637 03ed 60       		.byte	0x60
 2638 03ee 0B       		.uleb128 0xb
 2639 03ef F7070000 		.4byte	.LASF72
 2640 03f3 09       		.byte	0x9
 2641 03f4 0005     		.2byte	0x500
 2642 03f6 A2000000 		.4byte	0xa2
 2643 03fa 64       		.byte	0x64
 2644 03fb 0B       		.uleb128 0xb
 2645 03fc C4090000 		.4byte	.LASF73
 2646 0400 09       		.byte	0x9
 2647 0401 0105     		.2byte	0x501
 2648 0403 A2000000 		.4byte	0xa2
 2649 0407 68       		.byte	0x68
 2650 0408 0B       		.uleb128 0xb
 2651 0409 0F0E0000 		.4byte	.LASF74
 2652 040d 09       		.byte	0x9
 2653 040e 0205     		.2byte	0x502
 2654 0410 A2000000 		.4byte	0xa2
 2655 0414 6C       		.byte	0x6c
 2656 0415 0B       		.uleb128 0xb
 2657 0416 78070000 		.4byte	.LASF75
 2658 041a 09       		.byte	0x9
 2659 041b 0305     		.2byte	0x503
 2660 041d E2000000 		.4byte	0xe2
 2661 0421 70       		.byte	0x70
 2662 0422 0B       		.uleb128 0xb
 2663 0423 6A0A0000 		.4byte	.LASF76
 2664 0427 09       		.byte	0x9
 2665 0428 0405     		.2byte	0x504
 2666 042a A2000000 		.4byte	0xa2
 2667 042e 74       		.byte	0x74
 2668 042f 00       		.byte	0
 2669 0430 10       		.uleb128 0x10
 2670 0431 A2000000 		.4byte	0xa2
 2671 0435 40040000 		.4byte	0x440
 2672 0439 11       		.uleb128 0x11
 2673 043a BF000000 		.4byte	0xbf
 2674 043e 0F       		.byte	0xf
 2675 043f 00       		.byte	0
 2676 0440 09       		.uleb128 0x9
 2677 0441 E20D0000 		.4byte	.LASF77
 2678 0445 09       		.byte	0x9
 2679 0446 0505     		.2byte	0x505
ARM GAS  C:\Users\kateb\AppData\Local\Temp\cc9mC3XY.s 			page 76


 2680 0448 63030000 		.4byte	0x363
 2681 044c 0C       		.uleb128 0xc
 2682 044d 04       		.byte	0x4
 2683 044e 52040000 		.4byte	0x452
 2684 0452 12       		.uleb128 0x12
 2685 0453 8C000000 		.4byte	0x8c
 2686 0457 0A       		.uleb128 0xa
 2687 0458 02       		.byte	0x2
 2688 0459 0A       		.byte	0xa
 2689 045a 5B01     		.2byte	0x15b
 2690 045c 7B040000 		.4byte	0x47b
 2691 0460 0B       		.uleb128 0xb
 2692 0461 FE0D0000 		.4byte	.LASF78
 2693 0465 0A       		.byte	0xa
 2694 0466 6501     		.2byte	0x165
 2695 0468 8C000000 		.4byte	0x8c
 2696 046c 00       		.byte	0
 2697 046d 0B       		.uleb128 0xb
 2698 046e 5A060000 		.4byte	.LASF79
 2699 0472 0A       		.byte	0xa
 2700 0473 6901     		.2byte	0x169
 2701 0475 8C000000 		.4byte	0x8c
 2702 0479 01       		.byte	0x1
 2703 047a 00       		.byte	0
 2704 047b 09       		.uleb128 0x9
 2705 047c B6010000 		.4byte	.LASF80
 2706 0480 0A       		.byte	0xa
 2707 0481 6B01     		.2byte	0x16b
 2708 0483 57040000 		.4byte	0x457
 2709 0487 13       		.uleb128 0x13
 2710 0488 01       		.byte	0x1
 2711 0489 37000000 		.4byte	0x37
 2712 048d 0B       		.byte	0xb
 2713 048e 7E       		.byte	0x7e
 2714 048f AC040000 		.4byte	0x4ac
 2715 0493 08       		.uleb128 0x8
 2716 0494 1B0D0000 		.4byte	.LASF81
 2717 0498 00       		.byte	0
 2718 0499 08       		.uleb128 0x8
 2719 049a EC060000 		.4byte	.LASF82
 2720 049e 01       		.byte	0x1
 2721 049f 08       		.uleb128 0x8
 2722 04a0 F30C0000 		.4byte	.LASF83
 2723 04a4 02       		.byte	0x2
 2724 04a5 08       		.uleb128 0x8
 2725 04a6 41020000 		.4byte	.LASF84
 2726 04aa 03       		.byte	0x3
 2727 04ab 00       		.byte	0
 2728 04ac 03       		.uleb128 0x3
 2729 04ad 60000000 		.4byte	.LASF85
 2730 04b1 0B       		.byte	0xb
 2731 04b2 83       		.byte	0x83
 2732 04b3 87040000 		.4byte	0x487
 2733 04b7 13       		.uleb128 0x13
 2734 04b8 01       		.byte	0x1
 2735 04b9 37000000 		.4byte	0x37
 2736 04bd 0B       		.byte	0xb
ARM GAS  C:\Users\kateb\AppData\Local\Temp\cc9mC3XY.s 			page 77


 2737 04be 87       		.byte	0x87
 2738 04bf F4040000 		.4byte	0x4f4
 2739 04c3 08       		.uleb128 0x8
 2740 04c4 93070000 		.4byte	.LASF86
 2741 04c8 00       		.byte	0
 2742 04c9 08       		.uleb128 0x8
 2743 04ca 9E0E0000 		.4byte	.LASF87
 2744 04ce 01       		.byte	0x1
 2745 04cf 08       		.uleb128 0x8
 2746 04d0 9A040000 		.4byte	.LASF88
 2747 04d4 02       		.byte	0x2
 2748 04d5 08       		.uleb128 0x8
 2749 04d6 EA0B0000 		.4byte	.LASF89
 2750 04da 03       		.byte	0x3
 2751 04db 08       		.uleb128 0x8
 2752 04dc A9030000 		.4byte	.LASF90
 2753 04e0 04       		.byte	0x4
 2754 04e1 08       		.uleb128 0x8
 2755 04e2 4F090000 		.4byte	.LASF91
 2756 04e6 05       		.byte	0x5
 2757 04e7 08       		.uleb128 0x8
 2758 04e8 2F0A0000 		.4byte	.LASF92
 2759 04ec 06       		.byte	0x6
 2760 04ed 08       		.uleb128 0x8
 2761 04ee B8080000 		.4byte	.LASF93
 2762 04f2 07       		.byte	0x7
 2763 04f3 00       		.byte	0
 2764 04f4 03       		.uleb128 0x3
 2765 04f5 D5060000 		.4byte	.LASF94
 2766 04f9 0B       		.byte	0xb
 2767 04fa 90       		.byte	0x90
 2768 04fb B7040000 		.4byte	0x4b7
 2769 04ff 14       		.uleb128 0x14
 2770 0500 14       		.byte	0x14
 2771 0501 0C       		.byte	0xc
 2772 0502 3B       		.byte	0x3b
 2773 0503 44050000 		.4byte	0x544
 2774 0507 15       		.uleb128 0x15
 2775 0508 D60D0000 		.4byte	.LASF95
 2776 050c 0C       		.byte	0xc
 2777 050d 3D       		.byte	0x3d
 2778 050e A2000000 		.4byte	0xa2
 2779 0512 00       		.byte	0
 2780 0513 15       		.uleb128 0x15
 2781 0514 C3050000 		.4byte	.LASF96
 2782 0518 0C       		.byte	0xc
 2783 0519 3E       		.byte	0x3e
 2784 051a A2000000 		.4byte	0xa2
 2785 051e 04       		.byte	0x4
 2786 051f 15       		.uleb128 0x15
 2787 0520 10040000 		.4byte	.LASF97
 2788 0524 0C       		.byte	0xc
 2789 0525 3F       		.byte	0x3f
 2790 0526 44050000 		.4byte	0x544
 2791 052a 08       		.byte	0x8
 2792 052b 15       		.uleb128 0x15
 2793 052c B5060000 		.4byte	.LASF98
ARM GAS  C:\Users\kateb\AppData\Local\Temp\cc9mC3XY.s 			page 78


 2794 0530 0C       		.byte	0xc
 2795 0531 40       		.byte	0x40
 2796 0532 A2000000 		.4byte	0xa2
 2797 0536 0C       		.byte	0xc
 2798 0537 15       		.uleb128 0x15
 2799 0538 36020000 		.4byte	.LASF99
 2800 053c 0C       		.byte	0xc
 2801 053d 45       		.byte	0x45
 2802 053e A2000000 		.4byte	0xa2
 2803 0542 10       		.byte	0x10
 2804 0543 00       		.byte	0
 2805 0544 0C       		.uleb128 0xc
 2806 0545 04       		.byte	0x4
 2807 0546 4A050000 		.4byte	0x54a
 2808 054a 12       		.uleb128 0x12
 2809 054b 40040000 		.4byte	0x440
 2810 054f 03       		.uleb128 0x3
 2811 0550 72030000 		.4byte	.LASF100
 2812 0554 0C       		.byte	0xc
 2813 0555 48       		.byte	0x48
 2814 0556 FF040000 		.4byte	0x4ff
 2815 055a 03       		.uleb128 0x3
 2816 055b 45030000 		.4byte	.LASF101
 2817 055f 02       		.byte	0x2
 2818 0560 38       		.byte	0x38
 2819 0561 57000000 		.4byte	0x57
 2820 0565 03       		.uleb128 0x3
 2821 0566 2E0E0000 		.4byte	.LASF102
 2822 056a 02       		.byte	0x2
 2823 056b 39       		.byte	0x39
 2824 056c 69000000 		.4byte	0x69
 2825 0570 03       		.uleb128 0x3
 2826 0571 0B070000 		.4byte	.LASF103
 2827 0575 02       		.byte	0x2
 2828 0576 3F       		.byte	0x3f
 2829 0577 A2000000 		.4byte	0xa2
 2830 057b 03       		.uleb128 0x3
 2831 057c FB020000 		.4byte	.LASF104
 2832 0580 0D       		.byte	0xd
 2833 0581 3D       		.byte	0x3d
 2834 0582 C6000000 		.4byte	0xc6
 2835 0586 13       		.uleb128 0x13
 2836 0587 01       		.byte	0x1
 2837 0588 37000000 		.4byte	0x37
 2838 058c 0D       		.byte	0xd
 2839 058d 52       		.byte	0x52
 2840 058e B1050000 		.4byte	0x5b1
 2841 0592 08       		.uleb128 0x8
 2842 0593 640D0000 		.4byte	.LASF105
 2843 0597 00       		.byte	0
 2844 0598 08       		.uleb128 0x8
 2845 0599 F2020000 		.4byte	.LASF106
 2846 059d 01       		.byte	0x1
 2847 059e 08       		.uleb128 0x8
 2848 059f 60060000 		.4byte	.LASF107
 2849 05a3 02       		.byte	0x2
 2850 05a4 08       		.uleb128 0x8
ARM GAS  C:\Users\kateb\AppData\Local\Temp\cc9mC3XY.s 			page 79


 2851 05a5 D5040000 		.4byte	.LASF108
 2852 05a9 03       		.byte	0x3
 2853 05aa 08       		.uleb128 0x8
 2854 05ab D90C0000 		.4byte	.LASF109
 2855 05af 04       		.byte	0x4
 2856 05b0 00       		.byte	0
 2857 05b1 16       		.uleb128 0x16
 2858 05b2 1C040000 		.4byte	.LASF110
 2859 05b6 08       		.byte	0x8
 2860 05b7 0D       		.byte	0xd
 2861 05b8 5D       		.byte	0x5d
 2862 05b9 D6050000 		.4byte	0x5d6
 2863 05bd 15       		.uleb128 0x15
 2864 05be EE030000 		.4byte	.LASF111
 2865 05c2 0D       		.byte	0xd
 2866 05c3 5F       		.byte	0x5f
 2867 05c4 5A050000 		.4byte	0x55a
 2868 05c8 00       		.byte	0
 2869 05c9 15       		.uleb128 0x15
 2870 05ca BE040000 		.4byte	.LASF112
 2871 05ce 0D       		.byte	0xd
 2872 05cf 60       		.byte	0x60
 2873 05d0 70050000 		.4byte	0x570
 2874 05d4 04       		.byte	0x4
 2875 05d5 00       		.byte	0
 2876 05d6 03       		.uleb128 0x3
 2877 05d7 7D000000 		.4byte	.LASF113
 2878 05db 0D       		.byte	0xd
 2879 05dc 61       		.byte	0x61
 2880 05dd B1050000 		.4byte	0x5b1
 2881 05e1 03       		.uleb128 0x3
 2882 05e2 C0060000 		.4byte	.LASF114
 2883 05e6 0E       		.byte	0xe
 2884 05e7 40       		.byte	0x40
 2885 05e8 C6000000 		.4byte	0xc6
 2886 05ec 16       		.uleb128 0x16
 2887 05ed 90090000 		.4byte	.LASF115
 2888 05f1 20       		.byte	0x20
 2889 05f2 01       		.byte	0x1
 2890 05f3 8D       		.byte	0x8d
 2891 05f4 59060000 		.4byte	0x659
 2892 05f8 15       		.uleb128 0x15
 2893 05f9 A4050000 		.4byte	.LASF116
 2894 05fd 01       		.byte	0x1
 2895 05fe 8F       		.byte	0x8f
 2896 05ff 59060000 		.4byte	0x659
 2897 0603 00       		.byte	0
 2898 0604 15       		.uleb128 0x15
 2899 0605 60010000 		.4byte	.LASF117
 2900 0609 01       		.byte	0x1
 2901 060a 90       		.byte	0x90
 2902 060b 59060000 		.4byte	0x659
 2903 060f 04       		.byte	0x4
 2904 0610 15       		.uleb128 0x15
 2905 0611 F60D0000 		.4byte	.LASF118
 2906 0615 01       		.byte	0x1
 2907 0616 91       		.byte	0x91
ARM GAS  C:\Users\kateb\AppData\Local\Temp\cc9mC3XY.s 			page 80


 2908 0617 AD000000 		.4byte	0xad
 2909 061b 08       		.byte	0x8
 2910 061c 15       		.uleb128 0x15
 2911 061d 87000000 		.4byte	.LASF119
 2912 0621 01       		.byte	0x1
 2913 0622 92       		.byte	0x92
 2914 0623 AD000000 		.4byte	0xad
 2915 0627 0C       		.byte	0xc
 2916 0628 15       		.uleb128 0x15
 2917 0629 6B060000 		.4byte	.LASF120
 2918 062d 01       		.byte	0x1
 2919 062e 93       		.byte	0x93
 2920 062f 5E060000 		.4byte	0x65e
 2921 0633 10       		.byte	0x10
 2922 0634 15       		.uleb128 0x15
 2923 0635 FD030000 		.4byte	.LASF121
 2924 0639 01       		.byte	0x1
 2925 063a 94       		.byte	0x94
 2926 063b 5E060000 		.4byte	0x65e
 2927 063f 14       		.byte	0x14
 2928 0640 15       		.uleb128 0x15
 2929 0641 00000000 		.4byte	.LASF122
 2930 0645 01       		.byte	0x1
 2931 0646 95       		.byte	0x95
 2932 0647 B4010000 		.4byte	0x1b4
 2933 064b 18       		.byte	0x18
 2934 064c 15       		.uleb128 0x15
 2935 064d BE0D0000 		.4byte	.LASF123
 2936 0651 01       		.byte	0x1
 2937 0652 96       		.byte	0x96
 2938 0653 8C000000 		.4byte	0x8c
 2939 0657 1C       		.byte	0x1c
 2940 0658 00       		.byte	0
 2941 0659 06       		.uleb128 0x6
 2942 065a AD000000 		.4byte	0xad
 2943 065e 06       		.uleb128 0x6
 2944 065f 7B050000 		.4byte	0x57b
 2945 0663 03       		.uleb128 0x3
 2946 0664 1F0E0000 		.4byte	.LASF124
 2947 0668 01       		.byte	0x1
 2948 0669 9B       		.byte	0x9b
 2949 066a EC050000 		.4byte	0x5ec
 2950 066e 17       		.uleb128 0x17
 2951 066f FD050000 		.4byte	.LASF127
 2952 0673 02       		.byte	0x2
 2953 0674 98       		.byte	0x98
 2954 0675 03       		.byte	0x3
 2955 0676 86060000 		.4byte	0x686
 2956 067a 18       		.uleb128 0x18
 2957 067b 12010000 		.4byte	.LASF125
 2958 067f 02       		.byte	0x2
 2959 0680 9A       		.byte	0x9a
 2960 0681 A2000000 		.4byte	0xa2
 2961 0685 00       		.byte	0
 2962 0686 19       		.uleb128 0x19
 2963 0687 BB020000 		.4byte	.LASF207
 2964 068b 02       		.byte	0x2
ARM GAS  C:\Users\kateb\AppData\Local\Temp\cc9mC3XY.s 			page 81


 2965 068c A8       		.byte	0xa8
 2966 068d A2000000 		.4byte	0xa2
 2967 0691 03       		.byte	0x3
 2968 0692 AD060000 		.4byte	0x6ad
 2969 0696 18       		.uleb128 0x18
 2970 0697 0A000000 		.4byte	.LASF126
 2971 069b 02       		.byte	0x2
 2972 069c AA       		.byte	0xaa
 2973 069d A2000000 		.4byte	0xa2
 2974 06a1 18       		.uleb128 0x18
 2975 06a2 12010000 		.4byte	.LASF125
 2976 06a6 02       		.byte	0x2
 2977 06a7 AA       		.byte	0xaa
 2978 06a8 A2000000 		.4byte	0xa2
 2979 06ac 00       		.byte	0
 2980 06ad 17       		.uleb128 0x17
 2981 06ae BB070000 		.4byte	.LASF128
 2982 06b2 02       		.byte	0x2
 2983 06b3 BC       		.byte	0xbc
 2984 06b4 03       		.byte	0x3
 2985 06b5 C5060000 		.4byte	0x6c5
 2986 06b9 1A       		.uleb128 0x1a
 2987 06ba 71040000 		.4byte	.LASF208
 2988 06be 02       		.byte	0x2
 2989 06bf BC       		.byte	0xbc
 2990 06c0 A2000000 		.4byte	0xa2
 2991 06c4 00       		.byte	0
 2992 06c5 1B       		.uleb128 0x1b
 2993 06c6 14090000 		.4byte	.LASF134
 2994 06ca 01       		.byte	0x1
 2995 06cb 6104     		.2byte	0x461
 2996 06cd AD000000 		.4byte	0xad
 2997 06d1 00000000 		.4byte	.LFB613
 2998 06d5 12000000 		.4byte	.LFE613-.LFB613
 2999 06d9 01       		.uleb128 0x1
 3000 06da 9C       		.byte	0x9c
 3001 06db 00070000 		.4byte	0x700
 3002 06df 1C       		.uleb128 0x1c
 3003 06e0 84030000 		.4byte	.LASF129
 3004 06e4 01       		.byte	0x1
 3005 06e5 6104     		.2byte	0x461
 3006 06e7 0B070000 		.4byte	0x70b
 3007 06eb 00000000 		.4byte	.LLST0
 3008 06ef 1D       		.uleb128 0x1d
 3009 06f0 CE040000 		.4byte	.LASF132
 3010 06f4 01       		.byte	0x1
 3011 06f5 6404     		.2byte	0x464
 3012 06f7 AD000000 		.4byte	0xad
 3013 06fb 21000000 		.4byte	.LLST1
 3014 06ff 00       		.byte	0
 3015 0700 0C       		.uleb128 0xc
 3016 0701 04       		.byte	0x4
 3017 0702 06070000 		.4byte	0x706
 3018 0706 12       		.uleb128 0x12
 3019 0707 63060000 		.4byte	0x663
 3020 070b 12       		.uleb128 0x12
 3021 070c 00070000 		.4byte	0x700
ARM GAS  C:\Users\kateb\AppData\Local\Temp\cc9mC3XY.s 			page 82


 3022 0710 1E       		.uleb128 0x1e
 3023 0711 1B050000 		.4byte	.LASF209
 3024 0715 01       		.byte	0x1
 3025 0716 7504     		.2byte	0x475
 3026 0718 00000000 		.4byte	.LFB614
 3027 071c 46000000 		.4byte	.LFE614-.LFB614
 3028 0720 01       		.uleb128 0x1
 3029 0721 9C       		.byte	0x9c
 3030 0722 EC070000 		.4byte	0x7ec
 3031 0726 1C       		.uleb128 0x1c
 3032 0727 84030000 		.4byte	.LASF129
 3033 072b 01       		.byte	0x1
 3034 072c 7504     		.2byte	0x475
 3035 072e F2070000 		.4byte	0x7f2
 3036 0732 3F000000 		.4byte	.LLST2
 3037 0736 1C       		.uleb128 0x1c
 3038 0737 00000000 		.4byte	.LASF122
 3039 073b 01       		.byte	0x1
 3040 073c 7604     		.2byte	0x476
 3041 073e F7070000 		.4byte	0x7f7
 3042 0742 5D000000 		.4byte	.LLST3
 3043 0746 1C       		.uleb128 0x1c
 3044 0747 03090000 		.4byte	.LASF130
 3045 074b 01       		.byte	0x1
 3046 074c 7704     		.2byte	0x477
 3047 074e AD000000 		.4byte	0xad
 3048 0752 7B000000 		.4byte	.LLST4
 3049 0756 1C       		.uleb128 0x1c
 3050 0757 87000000 		.4byte	.LASF119
 3051 075b 01       		.byte	0x1
 3052 075c 7804     		.2byte	0x478
 3053 075e AD000000 		.4byte	0xad
 3054 0762 99000000 		.4byte	.LLST5
 3055 0766 1F       		.uleb128 0x1f
 3056 0767 99020000 		.4byte	.LASF131
 3057 076b 01       		.byte	0x1
 3058 076c 7904     		.2byte	0x479
 3059 076e 5A050000 		.4byte	0x55a
 3060 0772 02       		.uleb128 0x2
 3061 0773 91       		.byte	0x91
 3062 0774 00       		.sleb128 0
 3063 0775 20       		.uleb128 0x20
 3064 0776 0A000000 		.4byte	.LBB77
 3065 077a 1E000000 		.4byte	.LBE77-.LBB77
 3066 077e D0070000 		.4byte	0x7d0
 3067 0782 21       		.uleb128 0x21
 3068 0783 E6070000 		.4byte	.LASF133
 3069 0787 01       		.byte	0x1
 3070 0788 8304     		.2byte	0x483
 3071 078a FC070000 		.4byte	0x7fc
 3072 078e 55       		.byte	0x55
 3073 078f 22       		.uleb128 0x22
 3074 0790 6E060000 		.4byte	0x66e
 3075 0794 16000000 		.4byte	.LBB78
 3076 0798 12000000 		.4byte	.LBE78-.LBB78
 3077 079c 01       		.byte	0x1
 3078 079d 8404     		.2byte	0x484
ARM GAS  C:\Users\kateb\AppData\Local\Temp\cc9mC3XY.s 			page 83


 3079 079f B3070000 		.4byte	0x7b3
 3080 07a3 23       		.uleb128 0x23
 3081 07a4 16000000 		.4byte	.LBB79
 3082 07a8 12000000 		.4byte	.LBE79-.LBB79
 3083 07ac 24       		.uleb128 0x24
 3084 07ad 7A060000 		.4byte	0x67a
 3085 07b1 00       		.byte	0
 3086 07b2 00       		.byte	0
 3087 07b3 25       		.uleb128 0x25
 3088 07b4 12000000 		.4byte	.LVL9
 3089 07b8 4E1A0000 		.4byte	0x1a4e
 3090 07bc 26       		.uleb128 0x26
 3091 07bd 01       		.uleb128 0x1
 3092 07be 50       		.byte	0x50
 3093 07bf 02       		.uleb128 0x2
 3094 07c0 75       		.byte	0x75
 3095 07c1 00       		.sleb128 0
 3096 07c2 26       		.uleb128 0x26
 3097 07c3 01       		.uleb128 0x1
 3098 07c4 51       		.byte	0x51
 3099 07c5 02       		.uleb128 0x2
 3100 07c6 08       		.byte	0x8
 3101 07c7 55       		.byte	0x55
 3102 07c8 26       		.uleb128 0x26
 3103 07c9 01       		.uleb128 0x1
 3104 07ca 52       		.byte	0x52
 3105 07cb 02       		.uleb128 0x2
 3106 07cc 76       		.byte	0x76
 3107 07cd 00       		.sleb128 0
 3108 07ce 00       		.byte	0
 3109 07cf 00       		.byte	0
 3110 07d0 25       		.uleb128 0x25
 3111 07d1 32000000 		.4byte	.LVL11
 3112 07d5 591A0000 		.4byte	0x1a59
 3113 07d9 26       		.uleb128 0x26
 3114 07da 01       		.uleb128 0x1
 3115 07db 50       		.byte	0x50
 3116 07dc 02       		.uleb128 0x2
 3117 07dd 74       		.byte	0x74
 3118 07de 00       		.sleb128 0
 3119 07df 26       		.uleb128 0x26
 3120 07e0 01       		.uleb128 0x1
 3121 07e1 51       		.byte	0x51
 3122 07e2 01       		.uleb128 0x1
 3123 07e3 30       		.byte	0x30
 3124 07e4 26       		.uleb128 0x26
 3125 07e5 01       		.uleb128 0x1
 3126 07e6 52       		.byte	0x52
 3127 07e7 02       		.uleb128 0x2
 3128 07e8 08       		.byte	0x8
 3129 07e9 20       		.byte	0x20
 3130 07ea 00       		.byte	0
 3131 07eb 00       		.byte	0
 3132 07ec 0C       		.uleb128 0xc
 3133 07ed 04       		.byte	0x4
 3134 07ee 63060000 		.4byte	0x663
 3135 07f2 12       		.uleb128 0x12
ARM GAS  C:\Users\kateb\AppData\Local\Temp\cc9mC3XY.s 			page 84


 3136 07f3 EC070000 		.4byte	0x7ec
 3137 07f7 12       		.uleb128 0x12
 3138 07f8 B4010000 		.4byte	0x1b4
 3139 07fc 12       		.uleb128 0x12
 3140 07fd 5A050000 		.4byte	0x55a
 3141 0801 1B       		.uleb128 0x1b
 3142 0802 1E0B0000 		.4byte	.LASF135
 3143 0806 01       		.byte	0x1
 3144 0807 FC03     		.2byte	0x3fc
 3145 0809 AD000000 		.4byte	0xad
 3146 080d 00000000 		.4byte	.LFB611
 3147 0811 8C000000 		.4byte	.LFE611-.LFB611
 3148 0815 01       		.uleb128 0x1
 3149 0816 9C       		.byte	0x9c
 3150 0817 03090000 		.4byte	0x903
 3151 081b 1C       		.uleb128 0x1c
 3152 081c 84030000 		.4byte	.LASF129
 3153 0820 01       		.byte	0x1
 3154 0821 FC03     		.2byte	0x3fc
 3155 0823 F2070000 		.4byte	0x7f2
 3156 0827 B7000000 		.4byte	.LLST6
 3157 082b 1C       		.uleb128 0x1c
 3158 082c D7090000 		.4byte	.LASF136
 3159 0830 01       		.byte	0x1
 3160 0831 FC03     		.2byte	0x3fc
 3161 0833 4C040000 		.4byte	0x44c
 3162 0837 D5000000 		.4byte	.LLST7
 3163 083b 1C       		.uleb128 0x1c
 3164 083c CE040000 		.4byte	.LASF132
 3165 0840 01       		.byte	0x1
 3166 0841 FC03     		.2byte	0x3fc
 3167 0843 AD000000 		.4byte	0xad
 3168 0847 F3000000 		.4byte	.LLST8
 3169 084b 1D       		.uleb128 0x1d
 3170 084c 330C0000 		.4byte	.LASF137
 3171 0850 01       		.byte	0x1
 3172 0851 FE03     		.2byte	0x3fe
 3173 0853 AD000000 		.4byte	0xad
 3174 0857 11010000 		.4byte	.LLST9
 3175 085b 27       		.uleb128 0x27
 3176 085c 80040000 		.4byte	.LASF138
 3177 0860 01       		.byte	0x1
 3178 0861 FE03     		.2byte	0x3fe
 3179 0863 AD000000 		.4byte	0xad
 3180 0867 01       		.uleb128 0x1
 3181 0868 58       		.byte	0x58
 3182 0869 22       		.uleb128 0x22
 3183 086a 6E060000 		.4byte	0x66e
 3184 086e 02000000 		.4byte	.LBB80
 3185 0872 12000000 		.4byte	.LBE80-.LBB80
 3186 0876 01       		.byte	0x1
 3187 0877 0004     		.2byte	0x400
 3188 0879 8D080000 		.4byte	0x88d
 3189 087d 23       		.uleb128 0x23
 3190 087e 02000000 		.4byte	.LBB81
 3191 0882 12000000 		.4byte	.LBE81-.LBB81
 3192 0886 24       		.uleb128 0x24
ARM GAS  C:\Users\kateb\AppData\Local\Temp\cc9mC3XY.s 			page 85


 3193 0887 7A060000 		.4byte	0x67a
 3194 088b 00       		.byte	0
 3195 088c 00       		.byte	0
 3196 088d 22       		.uleb128 0x22
 3197 088e 6E060000 		.4byte	0x66e
 3198 0892 30000000 		.4byte	.LBB82
 3199 0896 16000000 		.4byte	.LBE82-.LBB82
 3200 089a 01       		.byte	0x1
 3201 089b 0A04     		.2byte	0x40a
 3202 089d B1080000 		.4byte	0x8b1
 3203 08a1 23       		.uleb128 0x23
 3204 08a2 30000000 		.4byte	.LBB83
 3205 08a6 16000000 		.4byte	.LBE83-.LBB83
 3206 08aa 24       		.uleb128 0x24
 3207 08ab 7A060000 		.4byte	0x67a
 3208 08af 00       		.byte	0
 3209 08b0 00       		.byte	0
 3210 08b1 22       		.uleb128 0x22
 3211 08b2 6E060000 		.4byte	0x66e
 3212 08b6 5E000000 		.4byte	.LBB84
 3213 08ba 12000000 		.4byte	.LBE84-.LBB84
 3214 08be 01       		.byte	0x1
 3215 08bf 1204     		.2byte	0x412
 3216 08c1 D5080000 		.4byte	0x8d5
 3217 08c5 23       		.uleb128 0x23
 3218 08c6 5E000000 		.4byte	.LBB85
 3219 08ca 12000000 		.4byte	.LBE85-.LBB85
 3220 08ce 24       		.uleb128 0x24
 3221 08cf 7A060000 		.4byte	0x67a
 3222 08d3 00       		.byte	0
 3223 08d4 00       		.byte	0
 3224 08d5 28       		.uleb128 0x28
 3225 08d6 50000000 		.4byte	.LVL19
 3226 08da 621A0000 		.4byte	0x1a62
 3227 08de EF080000 		.4byte	0x8ef
 3228 08e2 26       		.uleb128 0x26
 3229 08e3 01       		.uleb128 0x1
 3230 08e4 51       		.byte	0x51
 3231 08e5 02       		.uleb128 0x2
 3232 08e6 75       		.byte	0x75
 3233 08e7 00       		.sleb128 0
 3234 08e8 26       		.uleb128 0x26
 3235 08e9 01       		.uleb128 0x1
 3236 08ea 52       		.byte	0x52
 3237 08eb 02       		.uleb128 0x2
 3238 08ec 78       		.byte	0x78
 3239 08ed 00       		.sleb128 0
 3240 08ee 00       		.byte	0
 3241 08ef 25       		.uleb128 0x25
 3242 08f0 7A000000 		.4byte	.LVL21
 3243 08f4 621A0000 		.4byte	0x1a62
 3244 08f8 26       		.uleb128 0x26
 3245 08f9 01       		.uleb128 0x1
 3246 08fa 51       		.byte	0x51
 3247 08fb 05       		.uleb128 0x5
 3248 08fc 75       		.byte	0x75
 3249 08fd 00       		.sleb128 0
ARM GAS  C:\Users\kateb\AppData\Local\Temp\cc9mC3XY.s 			page 86


 3250 08fe 78       		.byte	0x78
 3251 08ff 00       		.sleb128 0
 3252 0900 22       		.byte	0x22
 3253 0901 00       		.byte	0
 3254 0902 00       		.byte	0
 3255 0903 1B       		.uleb128 0x1b
 3256 0904 650B0000 		.4byte	.LASF139
 3257 0908 01       		.byte	0x1
 3258 0909 7F02     		.2byte	0x27f
 3259 090b AD000000 		.4byte	0xad
 3260 090f 00000000 		.4byte	.LFB603
 3261 0913 52000000 		.4byte	.LFE603-.LFB603
 3262 0917 01       		.uleb128 0x1
 3263 0918 9C       		.byte	0x9c
 3264 0919 BC090000 		.4byte	0x9bc
 3265 091d 1C       		.uleb128 0x1c
 3266 091e 84030000 		.4byte	.LASF129
 3267 0922 01       		.byte	0x1
 3268 0923 7F02     		.2byte	0x27f
 3269 0925 F2070000 		.4byte	0x7f2
 3270 0929 2F010000 		.4byte	.LLST10
 3271 092d 1C       		.uleb128 0x1c
 3272 092e 1D030000 		.4byte	.LASF140
 3273 0932 01       		.byte	0x1
 3274 0933 8002     		.2byte	0x280
 3275 0935 BC090000 		.4byte	0x9bc
 3276 0939 63010000 		.4byte	.LLST11
 3277 093d 1C       		.uleb128 0x1c
 3278 093e 88020000 		.4byte	.LASF141
 3279 0942 01       		.byte	0x1
 3280 0943 8102     		.2byte	0x281
 3281 0945 AD000000 		.4byte	0xad
 3282 0949 97010000 		.4byte	.LLST12
 3283 094d 1C       		.uleb128 0x1c
 3284 094e 5A0A0000 		.4byte	.LASF142
 3285 0952 01       		.byte	0x1
 3286 0953 8202     		.2byte	0x282
 3287 0955 AD000000 		.4byte	0xad
 3288 0959 F2010000 		.4byte	.LLST13
 3289 095d 1F       		.uleb128 0x1f
 3290 095e E4000000 		.4byte	.LASF143
 3291 0962 01       		.byte	0x1
 3292 0963 8302     		.2byte	0x283
 3293 0965 AD000000 		.4byte	0xad
 3294 0969 02       		.uleb128 0x2
 3295 096a 91       		.byte	0x91
 3296 096b 00       		.sleb128 0
 3297 096c 1D       		.uleb128 0x1d
 3298 096d 86070000 		.4byte	.LASF144
 3299 0971 01       		.byte	0x1
 3300 0972 8502     		.2byte	0x285
 3301 0974 5A050000 		.4byte	0x55a
 3302 0978 69020000 		.4byte	.LLST14
 3303 097c 1D       		.uleb128 0x1d
 3304 097d B6040000 		.4byte	.LASF145
 3305 0981 01       		.byte	0x1
 3306 0982 8602     		.2byte	0x286
ARM GAS  C:\Users\kateb\AppData\Local\Temp\cc9mC3XY.s 			page 87


 3307 0984 AD000000 		.4byte	0xad
 3308 0988 9F020000 		.4byte	.LLST15
 3309 098c 28       		.uleb128 0x28
 3310 098d 34000000 		.4byte	.LVL35
 3311 0991 01080000 		.4byte	0x801
 3312 0995 A5090000 		.4byte	0x9a5
 3313 0999 26       		.uleb128 0x26
 3314 099a 01       		.uleb128 0x1
 3315 099b 51       		.byte	0x51
 3316 099c 02       		.uleb128 0x2
 3317 099d 91       		.byte	0x91
 3318 099e 6C       		.sleb128 -20
 3319 099f 26       		.uleb128 0x26
 3320 09a0 01       		.uleb128 0x1
 3321 09a1 52       		.byte	0x52
 3322 09a2 01       		.uleb128 0x1
 3323 09a3 34       		.byte	0x34
 3324 09a4 00       		.byte	0
 3325 09a5 25       		.uleb128 0x25
 3326 09a6 4A000000 		.4byte	.LVL40
 3327 09aa 01080000 		.4byte	0x801
 3328 09ae 26       		.uleb128 0x26
 3329 09af 01       		.uleb128 0x1
 3330 09b0 50       		.byte	0x50
 3331 09b1 02       		.uleb128 0x2
 3332 09b2 74       		.byte	0x74
 3333 09b3 00       		.sleb128 0
 3334 09b4 26       		.uleb128 0x26
 3335 09b5 01       		.uleb128 0x1
 3336 09b6 51       		.byte	0x51
 3337 09b7 02       		.uleb128 0x2
 3338 09b8 75       		.byte	0x75
 3339 09b9 00       		.sleb128 0
 3340 09ba 00       		.byte	0
 3341 09bb 00       		.byte	0
 3342 09bc 0C       		.uleb128 0xc
 3343 09bd 04       		.byte	0x4
 3344 09be C2090000 		.4byte	0x9c2
 3345 09c2 29       		.uleb128 0x29
 3346 09c3 1B       		.uleb128 0x1b
 3347 09c4 43060000 		.4byte	.LASF146
 3348 09c8 01       		.byte	0x1
 3349 09c9 2A04     		.2byte	0x42a
 3350 09cb AD000000 		.4byte	0xad
 3351 09cf 00000000 		.4byte	.LFB612
 3352 09d3 96000000 		.4byte	.LFE612-.LFB612
 3353 09d7 01       		.uleb128 0x1
 3354 09d8 9C       		.byte	0x9c
 3355 09d9 EE0A0000 		.4byte	0xaee
 3356 09dd 1C       		.uleb128 0x1c
 3357 09de 84030000 		.4byte	.LASF129
 3358 09e2 01       		.byte	0x1
 3359 09e3 2A04     		.2byte	0x42a
 3360 09e5 EC070000 		.4byte	0x7ec
 3361 09e9 BD020000 		.4byte	.LLST16
 3362 09ed 1C       		.uleb128 0x1c
 3363 09ee D7090000 		.4byte	.LASF136
ARM GAS  C:\Users\kateb\AppData\Local\Temp\cc9mC3XY.s 			page 88


 3364 09f2 01       		.byte	0x1
 3365 09f3 2A04     		.2byte	0x42a
 3366 09f5 B4010000 		.4byte	0x1b4
 3367 09f9 E9020000 		.4byte	.LLST17
 3368 09fd 1C       		.uleb128 0x1c
 3369 09fe CD0A0000 		.4byte	.LASF147
 3370 0a02 01       		.byte	0x1
 3371 0a03 2A04     		.2byte	0x42a
 3372 0a05 AD000000 		.4byte	0xad
 3373 0a09 15030000 		.4byte	.LLST18
 3374 0a0d 1C       		.uleb128 0x1c
 3375 0a0e D3030000 		.4byte	.LASF148
 3376 0a12 01       		.byte	0x1
 3377 0a13 2A04     		.2byte	0x42a
 3378 0a15 AD000000 		.4byte	0xad
 3379 0a19 41030000 		.4byte	.LLST19
 3380 0a1d 27       		.uleb128 0x27
 3381 0a1e CE040000 		.4byte	.LASF132
 3382 0a22 01       		.byte	0x1
 3383 0a23 2C04     		.2byte	0x42c
 3384 0a25 AD000000 		.4byte	0xad
 3385 0a29 01       		.uleb128 0x1
 3386 0a2a 58       		.byte	0x58
 3387 0a2b 1D       		.uleb128 0x1d
 3388 0a2c 80040000 		.4byte	.LASF138
 3389 0a30 01       		.byte	0x1
 3390 0a31 2C04     		.2byte	0x42c
 3391 0a33 AD000000 		.4byte	0xad
 3392 0a37 62030000 		.4byte	.LLST20
 3393 0a3b 1D       		.uleb128 0x1d
 3394 0a3c 5D040000 		.4byte	.LASF149
 3395 0a40 01       		.byte	0x1
 3396 0a41 2C04     		.2byte	0x42c
 3397 0a43 AD000000 		.4byte	0xad
 3398 0a47 75030000 		.4byte	.LLST21
 3399 0a4b 22       		.uleb128 0x22
 3400 0a4c 6E060000 		.4byte	0x66e
 3401 0a50 22000000 		.4byte	.LBB86
 3402 0a54 12000000 		.4byte	.LBE86-.LBB86
 3403 0a58 01       		.byte	0x1
 3404 0a59 3C04     		.2byte	0x43c
 3405 0a5b 6F0A0000 		.4byte	0xa6f
 3406 0a5f 23       		.uleb128 0x23
 3407 0a60 22000000 		.4byte	.LBB87
 3408 0a64 12000000 		.4byte	.LBE87-.LBB87
 3409 0a68 24       		.uleb128 0x24
 3410 0a69 7A060000 		.4byte	0x67a
 3411 0a6d 00       		.byte	0
 3412 0a6e 00       		.byte	0
 3413 0a6f 22       		.uleb128 0x22
 3414 0a70 6E060000 		.4byte	0x66e
 3415 0a74 3A000000 		.4byte	.LBB88
 3416 0a78 18000000 		.4byte	.LBE88-.LBB88
 3417 0a7c 01       		.byte	0x1
 3418 0a7d 3D04     		.2byte	0x43d
 3419 0a7f 930A0000 		.4byte	0xa93
 3420 0a83 23       		.uleb128 0x23
ARM GAS  C:\Users\kateb\AppData\Local\Temp\cc9mC3XY.s 			page 89


 3421 0a84 3A000000 		.4byte	.LBB89
 3422 0a88 18000000 		.4byte	.LBE89-.LBB89
 3423 0a8c 24       		.uleb128 0x24
 3424 0a8d 7A060000 		.4byte	0x67a
 3425 0a91 00       		.byte	0
 3426 0a92 00       		.byte	0
 3427 0a93 22       		.uleb128 0x22
 3428 0a94 6E060000 		.4byte	0x66e
 3429 0a98 66000000 		.4byte	.LBB90
 3430 0a9c 12000000 		.4byte	.LBE90-.LBB90
 3431 0aa0 01       		.byte	0x1
 3432 0aa1 4504     		.2byte	0x445
 3433 0aa3 B70A0000 		.4byte	0xab7
 3434 0aa7 23       		.uleb128 0x23
 3435 0aa8 66000000 		.4byte	.LBB91
 3436 0aac 12000000 		.4byte	.LBE91-.LBB91
 3437 0ab0 24       		.uleb128 0x24
 3438 0ab1 7A060000 		.4byte	0x67a
 3439 0ab5 00       		.byte	0
 3440 0ab6 00       		.byte	0
 3441 0ab7 28       		.uleb128 0x28
 3442 0ab8 5E000000 		.4byte	.LVL53
 3443 0abc 621A0000 		.4byte	0x1a62
 3444 0ac0 D10A0000 		.4byte	0xad1
 3445 0ac4 26       		.uleb128 0x26
 3446 0ac5 01       		.uleb128 0x1
 3447 0ac6 50       		.byte	0x50
 3448 0ac7 02       		.uleb128 0x2
 3449 0ac8 76       		.byte	0x76
 3450 0ac9 00       		.sleb128 0
 3451 0aca 26       		.uleb128 0x26
 3452 0acb 01       		.uleb128 0x1
 3453 0acc 52       		.byte	0x52
 3454 0acd 02       		.uleb128 0x2
 3455 0ace 77       		.byte	0x77
 3456 0acf 00       		.sleb128 0
 3457 0ad0 00       		.byte	0
 3458 0ad1 25       		.uleb128 0x25
 3459 0ad2 84000000 		.4byte	.LVL55
 3460 0ad6 621A0000 		.4byte	0x1a62
 3461 0ada 26       		.uleb128 0x26
 3462 0adb 01       		.uleb128 0x1
 3463 0adc 50       		.byte	0x50
 3464 0add 05       		.uleb128 0x5
 3465 0ade 76       		.byte	0x76
 3466 0adf 00       		.sleb128 0
 3467 0ae0 77       		.byte	0x77
 3468 0ae1 00       		.sleb128 0
 3469 0ae2 22       		.byte	0x22
 3470 0ae3 26       		.uleb128 0x26
 3471 0ae4 01       		.uleb128 0x1
 3472 0ae5 52       		.byte	0x52
 3473 0ae6 05       		.uleb128 0x5
 3474 0ae7 78       		.byte	0x78
 3475 0ae8 00       		.sleb128 0
 3476 0ae9 77       		.byte	0x77
 3477 0aea 00       		.sleb128 0
ARM GAS  C:\Users\kateb\AppData\Local\Temp\cc9mC3XY.s 			page 90


 3478 0aeb 1C       		.byte	0x1c
 3479 0aec 00       		.byte	0
 3480 0aed 00       		.byte	0
 3481 0aee 1B       		.uleb128 0x1b
 3482 0aef 47000000 		.4byte	.LASF150
 3483 0af3 01       		.byte	0x1
 3484 0af4 5403     		.2byte	0x354
 3485 0af6 AD000000 		.4byte	0xad
 3486 0afa 00000000 		.4byte	.LFB606
 3487 0afe 44000000 		.4byte	.LFE606-.LFB606
 3488 0b02 01       		.uleb128 0x1
 3489 0b03 9C       		.byte	0x9c
 3490 0b04 C70B0000 		.4byte	0xbc7
 3491 0b08 1C       		.uleb128 0x1c
 3492 0b09 84030000 		.4byte	.LASF129
 3493 0b0d 01       		.byte	0x1
 3494 0b0e 5403     		.2byte	0x354
 3495 0b10 EC070000 		.4byte	0x7ec
 3496 0b14 88030000 		.4byte	.LLST22
 3497 0b18 1C       		.uleb128 0x1c
 3498 0b19 DF090000 		.4byte	.LASF151
 3499 0b1d 01       		.byte	0x1
 3500 0b1e 5503     		.2byte	0x355
 3501 0b20 C6000000 		.4byte	0xc6
 3502 0b24 BC030000 		.4byte	.LLST23
 3503 0b28 1C       		.uleb128 0x1c
 3504 0b29 26060000 		.4byte	.LASF152
 3505 0b2d 01       		.byte	0x1
 3506 0b2e 5603     		.2byte	0x356
 3507 0b30 AD000000 		.4byte	0xad
 3508 0b34 F0030000 		.4byte	.LLST24
 3509 0b38 1C       		.uleb128 0x1c
 3510 0b39 D3030000 		.4byte	.LASF148
 3511 0b3d 01       		.byte	0x1
 3512 0b3e 5703     		.2byte	0x357
 3513 0b40 AD000000 		.4byte	0xad
 3514 0b44 24040000 		.4byte	.LLST25
 3515 0b48 1F       		.uleb128 0x1f
 3516 0b49 CB070000 		.4byte	.LASF153
 3517 0b4d 01       		.byte	0x1
 3518 0b4e 5803     		.2byte	0x358
 3519 0b50 AD000000 		.4byte	0xad
 3520 0b54 02       		.uleb128 0x2
 3521 0b55 91       		.byte	0x91
 3522 0b56 00       		.sleb128 0
 3523 0b57 1D       		.uleb128 0x1d
 3524 0b58 64030000 		.4byte	.LASF154
 3525 0b5c 01       		.byte	0x1
 3526 0b5d 5A03     		.2byte	0x35a
 3527 0b5f AD000000 		.4byte	0xad
 3528 0b63 58040000 		.4byte	.LLST26
 3529 0b67 27       		.uleb128 0x27
 3530 0b68 910C0000 		.4byte	.LASF155
 3531 0b6c 01       		.byte	0x1
 3532 0b6d 5A03     		.2byte	0x35a
 3533 0b6f AD000000 		.4byte	0xad
 3534 0b73 01       		.uleb128 0x1
ARM GAS  C:\Users\kateb\AppData\Local\Temp\cc9mC3XY.s 			page 91


 3535 0b74 50       		.byte	0x50
 3536 0b75 27       		.uleb128 0x27
 3537 0b76 1C000000 		.4byte	.LASF156
 3538 0b7a 01       		.byte	0x1
 3539 0b7b 5A03     		.2byte	0x35a
 3540 0b7d AD000000 		.4byte	0xad
 3541 0b81 02       		.uleb128 0x2
 3542 0b82 91       		.byte	0x91
 3543 0b83 5C       		.sleb128 -36
 3544 0b84 28       		.uleb128 0x28
 3545 0b85 1E000000 		.4byte	.LVL63
 3546 0b89 C3090000 		.4byte	0x9c3
 3547 0b8d AA0B0000 		.4byte	0xbaa
 3548 0b91 26       		.uleb128 0x26
 3549 0b92 01       		.uleb128 0x1
 3550 0b93 50       		.byte	0x50
 3551 0b94 02       		.uleb128 0x2
 3552 0b95 75       		.byte	0x75
 3553 0b96 00       		.sleb128 0
 3554 0b97 26       		.uleb128 0x26
 3555 0b98 01       		.uleb128 0x1
 3556 0b99 51       		.byte	0x51
 3557 0b9a 02       		.uleb128 0x2
 3558 0b9b 91       		.byte	0x91
 3559 0b9c 5C       		.sleb128 -36
 3560 0b9d 26       		.uleb128 0x26
 3561 0b9e 01       		.uleb128 0x1
 3562 0b9f 52       		.byte	0x52
 3563 0ba0 02       		.uleb128 0x2
 3564 0ba1 76       		.byte	0x76
 3565 0ba2 00       		.sleb128 0
 3566 0ba3 26       		.uleb128 0x26
 3567 0ba4 01       		.uleb128 0x1
 3568 0ba5 53       		.byte	0x53
 3569 0ba6 02       		.uleb128 0x2
 3570 0ba7 74       		.byte	0x74
 3571 0ba8 00       		.sleb128 0
 3572 0ba9 00       		.byte	0
 3573 0baa 25       		.uleb128 0x25
 3574 0bab 3E000000 		.4byte	.LVL67
 3575 0baf C3090000 		.4byte	0x9c3
 3576 0bb3 26       		.uleb128 0x26
 3577 0bb4 01       		.uleb128 0x1
 3578 0bb5 50       		.byte	0x50
 3579 0bb6 02       		.uleb128 0x2
 3580 0bb7 75       		.byte	0x75
 3581 0bb8 00       		.sleb128 0
 3582 0bb9 26       		.uleb128 0x26
 3583 0bba 01       		.uleb128 0x1
 3584 0bbb 51       		.byte	0x51
 3585 0bbc 02       		.uleb128 0x2
 3586 0bbd 77       		.byte	0x77
 3587 0bbe 00       		.sleb128 0
 3588 0bbf 26       		.uleb128 0x26
 3589 0bc0 01       		.uleb128 0x1
 3590 0bc1 53       		.byte	0x53
 3591 0bc2 02       		.uleb128 0x2
ARM GAS  C:\Users\kateb\AppData\Local\Temp\cc9mC3XY.s 			page 92


 3592 0bc3 74       		.byte	0x74
 3593 0bc4 00       		.sleb128 0
 3594 0bc5 00       		.byte	0
 3595 0bc6 00       		.byte	0
 3596 0bc7 2A       		.uleb128 0x2a
 3597 0bc8 A30D0000 		.4byte	.LASF159
 3598 0bcc 01       		.byte	0x1
 3599 0bcd DB       		.byte	0xdb
 3600 0bce E1050000 		.4byte	0x5e1
 3601 0bd2 00000000 		.4byte	.LFB595
 3602 0bd6 58000000 		.4byte	.LFE595-.LFB595
 3603 0bda 01       		.uleb128 0x1
 3604 0bdb 9C       		.byte	0x9c
 3605 0bdc A00C0000 		.4byte	0xca0
 3606 0be0 2B       		.uleb128 0x2b
 3607 0be1 03090000 		.4byte	.LASF130
 3608 0be5 01       		.byte	0x1
 3609 0be6 DB       		.byte	0xdb
 3610 0be7 AD000000 		.4byte	0xad
 3611 0beb 6B040000 		.4byte	.LLST27
 3612 0bef 2B       		.uleb128 0x2b
 3613 0bf0 87000000 		.4byte	.LASF119
 3614 0bf4 01       		.byte	0x1
 3615 0bf5 DB       		.byte	0xdb
 3616 0bf6 AD000000 		.4byte	0xad
 3617 0bfa 89040000 		.4byte	.LLST28
 3618 0bfe 2B       		.uleb128 0x2b
 3619 0bff 99020000 		.4byte	.LASF131
 3620 0c03 01       		.byte	0x1
 3621 0c04 DB       		.byte	0xdb
 3622 0c05 5A050000 		.4byte	0x55a
 3623 0c09 A7040000 		.4byte	.LLST29
 3624 0c0d 2C       		.uleb128 0x2c
 3625 0c0e AC0B0000 		.4byte	.LASF157
 3626 0c12 01       		.byte	0x1
 3627 0c13 DD       		.byte	0xdd
 3628 0c14 B4010000 		.4byte	0x1b4
 3629 0c18 C5040000 		.4byte	.LLST30
 3630 0c1c 2D       		.uleb128 0x2d
 3631 0c1d 6E060000 		.4byte	0x66e
 3632 0c21 04000000 		.4byte	.LBB92
 3633 0c25 12000000 		.4byte	.LBE92-.LBB92
 3634 0c29 01       		.byte	0x1
 3635 0c2a E3       		.byte	0xe3
 3636 0c2b 3F0C0000 		.4byte	0xc3f
 3637 0c2f 23       		.uleb128 0x23
 3638 0c30 04000000 		.4byte	.LBB93
 3639 0c34 12000000 		.4byte	.LBE93-.LBB93
 3640 0c38 24       		.uleb128 0x24
 3641 0c39 7A060000 		.4byte	0x67a
 3642 0c3d 00       		.byte	0
 3643 0c3e 00       		.byte	0
 3644 0c3f 2D       		.uleb128 0x2d
 3645 0c40 6E060000 		.4byte	0x66e
 3646 0c44 22000000 		.4byte	.LBB94
 3647 0c48 12000000 		.4byte	.LBE94-.LBB94
 3648 0c4c 01       		.byte	0x1
ARM GAS  C:\Users\kateb\AppData\Local\Temp\cc9mC3XY.s 			page 93


 3649 0c4d E4       		.byte	0xe4
 3650 0c4e 620C0000 		.4byte	0xc62
 3651 0c52 23       		.uleb128 0x23
 3652 0c53 22000000 		.4byte	.LBB95
 3653 0c57 12000000 		.4byte	.LBE95-.LBB95
 3654 0c5b 24       		.uleb128 0x24
 3655 0c5c 7A060000 		.4byte	0x67a
 3656 0c60 00       		.byte	0
 3657 0c61 00       		.byte	0
 3658 0c62 28       		.uleb128 0x28
 3659 0c63 40000000 		.4byte	.LVL73
 3660 0c67 6B1A0000 		.4byte	0x1a6b
 3661 0c6b 760C0000 		.4byte	0xc76
 3662 0c6f 26       		.uleb128 0x26
 3663 0c70 01       		.uleb128 0x1
 3664 0c71 50       		.byte	0x50
 3665 0c72 02       		.uleb128 0x2
 3666 0c73 76       		.byte	0x76
 3667 0c74 20       		.sleb128 32
 3668 0c75 00       		.byte	0
 3669 0c76 25       		.uleb128 0x25
 3670 0c77 52000000 		.4byte	.LVL74
 3671 0c7b 10070000 		.4byte	0x710
 3672 0c7f 26       		.uleb128 0x26
 3673 0c80 01       		.uleb128 0x1
 3674 0c81 50       		.byte	0x50
 3675 0c82 02       		.uleb128 0x2
 3676 0c83 75       		.byte	0x75
 3677 0c84 00       		.sleb128 0
 3678 0c85 26       		.uleb128 0x26
 3679 0c86 01       		.uleb128 0x1
 3680 0c87 51       		.byte	0x51
 3681 0c88 02       		.uleb128 0x2
 3682 0c89 75       		.byte	0x75
 3683 0c8a 20       		.sleb128 32
 3684 0c8b 26       		.uleb128 0x26
 3685 0c8c 01       		.uleb128 0x1
 3686 0c8d 52       		.byte	0x52
 3687 0c8e 02       		.uleb128 0x2
 3688 0c8f 76       		.byte	0x76
 3689 0c90 00       		.sleb128 0
 3690 0c91 26       		.uleb128 0x26
 3691 0c92 01       		.uleb128 0x1
 3692 0c93 53       		.byte	0x53
 3693 0c94 02       		.uleb128 0x2
 3694 0c95 74       		.byte	0x74
 3695 0c96 00       		.sleb128 0
 3696 0c97 26       		.uleb128 0x26
 3697 0c98 02       		.uleb128 0x2
 3698 0c99 7D       		.byte	0x7d
 3699 0c9a 00       		.sleb128 0
 3700 0c9b 02       		.uleb128 0x2
 3701 0c9c 77       		.byte	0x77
 3702 0c9d 00       		.sleb128 0
 3703 0c9e 00       		.byte	0
 3704 0c9f 00       		.byte	0
 3705 0ca0 2E       		.uleb128 0x2e
ARM GAS  C:\Users\kateb\AppData\Local\Temp\cc9mC3XY.s 			page 94


 3706 0ca1 50030000 		.4byte	.LASF210
 3707 0ca5 01       		.byte	0x1
 3708 0ca6 4F01     		.2byte	0x14f
 3709 0ca8 00000000 		.4byte	.LFB596
 3710 0cac 2E000000 		.4byte	.LFE596-.LFB596
 3711 0cb0 01       		.uleb128 0x1
 3712 0cb1 9C       		.byte	0x9c
 3713 0cb2 250D0000 		.4byte	0xd25
 3714 0cb6 1C       		.uleb128 0x1c
 3715 0cb7 48010000 		.4byte	.LASF158
 3716 0cbb 01       		.byte	0x1
 3717 0cbc 4F01     		.2byte	0x14f
 3718 0cbe E1050000 		.4byte	0x5e1
 3719 0cc2 E3040000 		.4byte	.LLST31
 3720 0cc6 1D       		.uleb128 0x1d
 3721 0cc7 84030000 		.4byte	.LASF129
 3722 0ccb 01       		.byte	0x1
 3723 0ccc 5101     		.2byte	0x151
 3724 0cce EC070000 		.4byte	0x7ec
 3725 0cd2 1D050000 		.4byte	.LLST32
 3726 0cd6 22       		.uleb128 0x22
 3727 0cd7 6E060000 		.4byte	0x66e
 3728 0cdb 04000000 		.4byte	.LBB96
 3729 0cdf 12000000 		.4byte	.LBE96-.LBB96
 3730 0ce3 01       		.byte	0x1
 3731 0ce4 5301     		.2byte	0x153
 3732 0ce6 FA0C0000 		.4byte	0xcfa
 3733 0cea 23       		.uleb128 0x23
 3734 0ceb 04000000 		.4byte	.LBB97
 3735 0cef 12000000 		.4byte	.LBE97-.LBB97
 3736 0cf3 24       		.uleb128 0x24
 3737 0cf4 7A060000 		.4byte	0x67a
 3738 0cf8 00       		.byte	0
 3739 0cf9 00       		.byte	0
 3740 0cfa 28       		.uleb128 0x28
 3741 0cfb 22000000 		.4byte	.LVL78
 3742 0cff 761A0000 		.4byte	0x1a76
 3743 0d03 0F0D0000 		.4byte	0xd0f
 3744 0d07 26       		.uleb128 0x26
 3745 0d08 01       		.uleb128 0x1
 3746 0d09 50       		.byte	0x50
 3747 0d0a 03       		.uleb128 0x3
 3748 0d0b F3       		.byte	0xf3
 3749 0d0c 01       		.uleb128 0x1
 3750 0d0d 50       		.byte	0x50
 3751 0d0e 00       		.byte	0
 3752 0d0f 25       		.uleb128 0x25
 3753 0d10 2C000000 		.4byte	.LVL80
 3754 0d14 591A0000 		.4byte	0x1a59
 3755 0d18 26       		.uleb128 0x26
 3756 0d19 01       		.uleb128 0x1
 3757 0d1a 51       		.byte	0x51
 3758 0d1b 01       		.uleb128 0x1
 3759 0d1c 30       		.byte	0x30
 3760 0d1d 26       		.uleb128 0x26
 3761 0d1e 01       		.uleb128 0x1
 3762 0d1f 52       		.byte	0x52
ARM GAS  C:\Users\kateb\AppData\Local\Temp\cc9mC3XY.s 			page 95


 3763 0d20 02       		.uleb128 0x2
 3764 0d21 08       		.byte	0x8
 3765 0d22 20       		.byte	0x20
 3766 0d23 00       		.byte	0
 3767 0d24 00       		.byte	0
 3768 0d25 2F       		.uleb128 0x2f
 3769 0d26 3C0D0000 		.4byte	.LASF160
 3770 0d2a 01       		.byte	0x1
 3771 0d2b 7001     		.2byte	0x170
 3772 0d2d 5A050000 		.4byte	0x55a
 3773 0d31 00000000 		.4byte	.LFB597
 3774 0d35 4E000000 		.4byte	.LFE597-.LFB597
 3775 0d39 01       		.uleb128 0x1
 3776 0d3a 9C       		.byte	0x9c
 3777 0d3b BC0D0000 		.4byte	0xdbc
 3778 0d3f 1C       		.uleb128 0x1c
 3779 0d40 48010000 		.4byte	.LASF158
 3780 0d44 01       		.byte	0x1
 3781 0d45 7001     		.2byte	0x170
 3782 0d47 E1050000 		.4byte	0x5e1
 3783 0d4b 57050000 		.4byte	.LLST33
 3784 0d4f 1D       		.uleb128 0x1d
 3785 0d50 84030000 		.4byte	.LASF129
 3786 0d54 01       		.byte	0x1
 3787 0d55 7201     		.2byte	0x172
 3788 0d57 F2070000 		.4byte	0x7f2
 3789 0d5b C8050000 		.4byte	.LLST34
 3790 0d5f 1D       		.uleb128 0x1d
 3791 0d60 B6040000 		.4byte	.LASF145
 3792 0d64 01       		.byte	0x1
 3793 0d65 7301     		.2byte	0x173
 3794 0d67 5A050000 		.4byte	0x55a
 3795 0d6b 39060000 		.4byte	.LLST35
 3796 0d6f 1D       		.uleb128 0x1d
 3797 0d70 99020000 		.4byte	.LASF131
 3798 0d74 01       		.byte	0x1
 3799 0d75 7301     		.2byte	0x173
 3800 0d77 5A050000 		.4byte	0x55a
 3801 0d7b 70060000 		.4byte	.LLST36
 3802 0d7f 22       		.uleb128 0x22
 3803 0d80 6E060000 		.4byte	0x66e
 3804 0d84 02000000 		.4byte	.LBB98
 3805 0d88 14000000 		.4byte	.LBE98-.LBB98
 3806 0d8c 01       		.byte	0x1
 3807 0d8d 7901     		.2byte	0x179
 3808 0d8f A30D0000 		.4byte	0xda3
 3809 0d93 23       		.uleb128 0x23
 3810 0d94 02000000 		.4byte	.LBB99
 3811 0d98 14000000 		.4byte	.LBE99-.LBB99
 3812 0d9c 24       		.uleb128 0x24
 3813 0d9d 7A060000 		.4byte	0x67a
 3814 0da1 00       		.byte	0
 3815 0da2 00       		.byte	0
 3816 0da3 25       		.uleb128 0x25
 3817 0da4 3E000000 		.4byte	.LVL85
 3818 0da8 10070000 		.4byte	0x710
 3819 0dac 26       		.uleb128 0x26
ARM GAS  C:\Users\kateb\AppData\Local\Temp\cc9mC3XY.s 			page 96


 3820 0dad 01       		.uleb128 0x1
 3821 0dae 50       		.byte	0x50
 3822 0daf 03       		.uleb128 0x3
 3823 0db0 F3       		.byte	0xf3
 3824 0db1 01       		.uleb128 0x1
 3825 0db2 50       		.byte	0x50
 3826 0db3 26       		.uleb128 0x26
 3827 0db4 02       		.uleb128 0x2
 3828 0db5 7D       		.byte	0x7d
 3829 0db6 00       		.sleb128 0
 3830 0db7 02       		.uleb128 0x2
 3831 0db8 74       		.byte	0x74
 3832 0db9 00       		.sleb128 0
 3833 0dba 00       		.byte	0
 3834 0dbb 00       		.byte	0
 3835 0dbc 2F       		.uleb128 0x2f
 3836 0dbd FE040000 		.4byte	.LASF161
 3837 0dc1 01       		.byte	0x1
 3838 0dc2 A601     		.2byte	0x1a6
 3839 0dc4 5A050000 		.4byte	0x55a
 3840 0dc8 00000000 		.4byte	.LFB598
 3841 0dcc 2A000000 		.4byte	.LFE598-.LFB598
 3842 0dd0 01       		.uleb128 0x1
 3843 0dd1 9C       		.byte	0x9c
 3844 0dd2 370E0000 		.4byte	0xe37
 3845 0dd6 1C       		.uleb128 0x1c
 3846 0dd7 48010000 		.4byte	.LASF158
 3847 0ddb 01       		.byte	0x1
 3848 0ddc A601     		.2byte	0x1a6
 3849 0dde E1050000 		.4byte	0x5e1
 3850 0de2 8E060000 		.4byte	.LLST37
 3851 0de6 1C       		.uleb128 0x1c
 3852 0de7 0A0A0000 		.4byte	.LASF162
 3853 0deb 01       		.byte	0x1
 3854 0dec A601     		.2byte	0x1a6
 3855 0dee AD000000 		.4byte	0xad
 3856 0df2 C2060000 		.4byte	.LLST38
 3857 0df6 1D       		.uleb128 0x1d
 3858 0df7 84030000 		.4byte	.LASF129
 3859 0dfb 01       		.byte	0x1
 3860 0dfc A801     		.2byte	0x1a8
 3861 0dfe F2070000 		.4byte	0x7f2
 3862 0e02 8E060000 		.4byte	.LLST37
 3863 0e06 1D       		.uleb128 0x1d
 3864 0e07 B6040000 		.4byte	.LASF145
 3865 0e0b 01       		.byte	0x1
 3866 0e0c A901     		.2byte	0x1a9
 3867 0e0e 5A050000 		.4byte	0x55a
 3868 0e12 E0060000 		.4byte	.LLST40
 3869 0e16 30       		.uleb128 0x30
 3870 0e17 6E060000 		.4byte	0x66e
 3871 0e1b 04000000 		.4byte	.LBB100
 3872 0e1f 12000000 		.4byte	.LBE100-.LBB100
 3873 0e23 01       		.byte	0x1
 3874 0e24 AB01     		.2byte	0x1ab
 3875 0e26 23       		.uleb128 0x23
 3876 0e27 04000000 		.4byte	.LBB101
ARM GAS  C:\Users\kateb\AppData\Local\Temp\cc9mC3XY.s 			page 97


 3877 0e2b 12000000 		.4byte	.LBE101-.LBB101
 3878 0e2f 24       		.uleb128 0x24
 3879 0e30 7A060000 		.4byte	0x67a
 3880 0e34 00       		.byte	0
 3881 0e35 00       		.byte	0
 3882 0e36 00       		.byte	0
 3883 0e37 2F       		.uleb128 0x2f
 3884 0e38 0C020000 		.4byte	.LASF163
 3885 0e3c 01       		.byte	0x1
 3886 0e3d C301     		.2byte	0x1c3
 3887 0e3f AD000000 		.4byte	0xad
 3888 0e43 00000000 		.4byte	.LFB599
 3889 0e47 28000000 		.4byte	.LFE599-.LFB599
 3890 0e4b 01       		.uleb128 0x1
 3891 0e4c 9C       		.byte	0x9c
 3892 0e4d A20E0000 		.4byte	0xea2
 3893 0e51 1C       		.uleb128 0x1c
 3894 0e52 48010000 		.4byte	.LASF158
 3895 0e56 01       		.byte	0x1
 3896 0e57 C301     		.2byte	0x1c3
 3897 0e59 E1050000 		.4byte	0x5e1
 3898 0e5d FF060000 		.4byte	.LLST41
 3899 0e61 1D       		.uleb128 0x1d
 3900 0e62 84030000 		.4byte	.LASF129
 3901 0e66 01       		.byte	0x1
 3902 0e67 C501     		.2byte	0x1c5
 3903 0e69 0B070000 		.4byte	0x70b
 3904 0e6d 20070000 		.4byte	.LLST42
 3905 0e71 1D       		.uleb128 0x1d
 3906 0e72 5A0A0000 		.4byte	.LASF142
 3907 0e76 01       		.byte	0x1
 3908 0e77 C601     		.2byte	0x1c6
 3909 0e79 AD000000 		.4byte	0xad
 3910 0e7d 41070000 		.4byte	.LLST43
 3911 0e81 30       		.uleb128 0x30
 3912 0e82 6E060000 		.4byte	0x66e
 3913 0e86 02000000 		.4byte	.LBB102
 3914 0e8a 12000000 		.4byte	.LBE102-.LBB102
 3915 0e8e 01       		.byte	0x1
 3916 0e8f C801     		.2byte	0x1c8
 3917 0e91 23       		.uleb128 0x23
 3918 0e92 02000000 		.4byte	.LBB103
 3919 0e96 12000000 		.4byte	.LBE103-.LBB103
 3920 0e9a 24       		.uleb128 0x24
 3921 0e9b 7A060000 		.4byte	0x67a
 3922 0e9f 00       		.byte	0
 3923 0ea0 00       		.byte	0
 3924 0ea1 00       		.byte	0
 3925 0ea2 2F       		.uleb128 0x2f
 3926 0ea3 7F050000 		.4byte	.LASF164
 3927 0ea7 01       		.byte	0x1
 3928 0ea8 DB01     		.2byte	0x1db
 3929 0eaa AD000000 		.4byte	0xad
 3930 0eae 00000000 		.4byte	.LFB600
 3931 0eb2 1C000000 		.4byte	.LFE600-.LFB600
 3932 0eb6 01       		.uleb128 0x1
 3933 0eb7 9C       		.byte	0x9c
ARM GAS  C:\Users\kateb\AppData\Local\Temp\cc9mC3XY.s 			page 98


 3934 0eb8 180F0000 		.4byte	0xf18
 3935 0ebc 1C       		.uleb128 0x1c
 3936 0ebd 48010000 		.4byte	.LASF158
 3937 0ec1 01       		.byte	0x1
 3938 0ec2 DB01     		.2byte	0x1db
 3939 0ec4 E1050000 		.4byte	0x5e1
 3940 0ec8 5F070000 		.4byte	.LLST44
 3941 0ecc 1D       		.uleb128 0x1d
 3942 0ecd 84030000 		.4byte	.LASF129
 3943 0ed1 01       		.byte	0x1
 3944 0ed2 DD01     		.2byte	0x1dd
 3945 0ed4 0B070000 		.4byte	0x70b
 3946 0ed8 80070000 		.4byte	.LLST45
 3947 0edc 27       		.uleb128 0x27
 3948 0edd B6040000 		.4byte	.LASF145
 3949 0ee1 01       		.byte	0x1
 3950 0ee2 DE01     		.2byte	0x1de
 3951 0ee4 AD000000 		.4byte	0xad
 3952 0ee8 01       		.uleb128 0x1
 3953 0ee9 50       		.byte	0x50
 3954 0eea 22       		.uleb128 0x22
 3955 0eeb 6E060000 		.4byte	0x66e
 3956 0eef 04000000 		.4byte	.LBB104
 3957 0ef3 12000000 		.4byte	.LBE104-.LBB104
 3958 0ef7 01       		.byte	0x1
 3959 0ef8 E001     		.2byte	0x1e0
 3960 0efa 0E0F0000 		.4byte	0xf0e
 3961 0efe 23       		.uleb128 0x23
 3962 0eff 04000000 		.4byte	.LBB105
 3963 0f03 12000000 		.4byte	.LBE105-.LBB105
 3964 0f07 24       		.uleb128 0x24
 3965 0f08 7A060000 		.4byte	0x67a
 3966 0f0c 00       		.byte	0
 3967 0f0d 00       		.byte	0
 3968 0f0e 31       		.uleb128 0x31
 3969 0f0f 1A000000 		.4byte	.LVL108
 3970 0f13 C5060000 		.4byte	0x6c5
 3971 0f17 00       		.byte	0
 3972 0f18 2F       		.uleb128 0x2f
 3973 0f19 25090000 		.4byte	.LASF165
 3974 0f1d 01       		.byte	0x1
 3975 0f1e E701     		.2byte	0x1e7
 3976 0f20 AD000000 		.4byte	0xad
 3977 0f24 00000000 		.4byte	.LFB601
 3978 0f28 02010000 		.4byte	.LFE601-.LFB601
 3979 0f2c 01       		.uleb128 0x1
 3980 0f2d 9C       		.byte	0x9c
 3981 0f2e 49110000 		.4byte	0x1149
 3982 0f32 1C       		.uleb128 0x1c
 3983 0f33 48010000 		.4byte	.LASF158
 3984 0f37 01       		.byte	0x1
 3985 0f38 E701     		.2byte	0x1e7
 3986 0f3a E1050000 		.4byte	0x5e1
 3987 0f3e A1070000 		.4byte	.LLST46
 3988 0f42 1C       		.uleb128 0x1c
 3989 0f43 1D030000 		.4byte	.LASF140
 3990 0f47 01       		.byte	0x1
ARM GAS  C:\Users\kateb\AppData\Local\Temp\cc9mC3XY.s 			page 99


 3991 0f48 E801     		.2byte	0x1e8
 3992 0f4a BC090000 		.4byte	0x9bc
 3993 0f4e D5070000 		.4byte	.LLST47
 3994 0f52 1C       		.uleb128 0x1c
 3995 0f53 88020000 		.4byte	.LASF141
 3996 0f57 01       		.byte	0x1
 3997 0f58 E901     		.2byte	0x1e9
 3998 0f5a AD000000 		.4byte	0xad
 3999 0f5e 09080000 		.4byte	.LLST48
 4000 0f62 1C       		.uleb128 0x1c
 4001 0f63 29020000 		.4byte	.LASF166
 4002 0f67 01       		.byte	0x1
 4003 0f68 EA01     		.2byte	0x1ea
 4004 0f6a 70050000 		.4byte	0x570
 4005 0f6e 3D080000 		.4byte	.LLST49
 4006 0f72 1D       		.uleb128 0x1d
 4007 0f73 84030000 		.4byte	.LASF129
 4008 0f77 01       		.byte	0x1
 4009 0f78 EC01     		.2byte	0x1ec
 4010 0f7a F2070000 		.4byte	0x7f2
 4011 0f7e 8A080000 		.4byte	.LLST50
 4012 0f82 1D       		.uleb128 0x1d
 4013 0f83 B6040000 		.4byte	.LASF145
 4014 0f87 01       		.byte	0x1
 4015 0f88 ED01     		.2byte	0x1ed
 4016 0f8a AD000000 		.4byte	0xad
 4017 0f8e BE080000 		.4byte	.LLST51
 4018 0f92 1D       		.uleb128 0x1d
 4019 0f93 5A0A0000 		.4byte	.LASF142
 4020 0f97 01       		.byte	0x1
 4021 0f98 ED01     		.2byte	0x1ed
 4022 0f9a AD000000 		.4byte	0xad
 4023 0f9e DC080000 		.4byte	.LLST52
 4024 0fa2 1D       		.uleb128 0x1d
 4025 0fa3 E4000000 		.4byte	.LASF143
 4026 0fa7 01       		.byte	0x1
 4027 0fa8 EE01     		.2byte	0x1ee
 4028 0faa AD000000 		.4byte	0xad
 4029 0fae 33090000 		.4byte	.LLST53
 4030 0fb2 27       		.uleb128 0x27
 4031 0fb3 93030000 		.4byte	.LASF167
 4032 0fb7 01       		.byte	0x1
 4033 0fb8 EF01     		.2byte	0x1ef
 4034 0fba D6050000 		.4byte	0x5d6
 4035 0fbe 02       		.uleb128 0x2
 4036 0fbf 91       		.byte	0x91
 4037 0fc0 58       		.sleb128 -40
 4038 0fc1 22       		.uleb128 0x22
 4039 0fc2 6E060000 		.4byte	0x66e
 4040 0fc6 0A000000 		.4byte	.LBB106
 4041 0fca 14000000 		.4byte	.LBE106-.LBB106
 4042 0fce 01       		.byte	0x1
 4043 0fcf F101     		.2byte	0x1f1
 4044 0fd1 E50F0000 		.4byte	0xfe5
 4045 0fd5 23       		.uleb128 0x23
 4046 0fd6 0A000000 		.4byte	.LBB107
 4047 0fda 14000000 		.4byte	.LBE107-.LBB107
ARM GAS  C:\Users\kateb\AppData\Local\Temp\cc9mC3XY.s 			page 100


 4048 0fde 24       		.uleb128 0x24
 4049 0fdf 7A060000 		.4byte	0x67a
 4050 0fe3 00       		.byte	0
 4051 0fe4 00       		.byte	0
 4052 0fe5 22       		.uleb128 0x22
 4053 0fe6 6E060000 		.4byte	0x66e
 4054 0fea 20000000 		.4byte	.LBB108
 4055 0fee 12000000 		.4byte	.LBE108-.LBB108
 4056 0ff2 01       		.byte	0x1
 4057 0ff3 F201     		.2byte	0x1f2
 4058 0ff5 09100000 		.4byte	0x1009
 4059 0ff9 23       		.uleb128 0x23
 4060 0ffa 20000000 		.4byte	.LBB109
 4061 0ffe 12000000 		.4byte	.LBE109-.LBB109
 4062 1002 24       		.uleb128 0x24
 4063 1003 7A060000 		.4byte	0x67a
 4064 1007 00       		.byte	0
 4065 1008 00       		.byte	0
 4066 1009 22       		.uleb128 0x22
 4067 100a 6E060000 		.4byte	0x66e
 4068 100e 6A000000 		.4byte	.LBB110
 4069 1012 12000000 		.4byte	.LBE110-.LBB110
 4070 1016 01       		.byte	0x1
 4071 1017 1302     		.2byte	0x213
 4072 1019 2D100000 		.4byte	0x102d
 4073 101d 23       		.uleb128 0x23
 4074 101e 6A000000 		.4byte	.LBB111
 4075 1022 12000000 		.4byte	.LBE111-.LBB111
 4076 1026 24       		.uleb128 0x24
 4077 1027 7A060000 		.4byte	0x67a
 4078 102b 00       		.byte	0
 4079 102c 00       		.byte	0
 4080 102d 28       		.uleb128 0x28
 4081 102e 50000000 		.4byte	.LVL120
 4082 1032 811A0000 		.4byte	0x1a81
 4083 1036 41100000 		.4byte	0x1041
 4084 103a 26       		.uleb128 0x26
 4085 103b 01       		.uleb128 0x1
 4086 103c 50       		.byte	0x50
 4087 103d 02       		.uleb128 0x2
 4088 103e 91       		.byte	0x91
 4089 103f 58       		.sleb128 -40
 4090 1040 00       		.byte	0
 4091 1041 31       		.uleb128 0x31
 4092 1042 54000000 		.4byte	.LVL121
 4093 1046 8D1A0000 		.4byte	0x1a8d
 4094 104a 28       		.uleb128 0x28
 4095 104b 5A000000 		.4byte	.LVL122
 4096 104f 370E0000 		.4byte	0xe37
 4097 1053 5E100000 		.4byte	0x105e
 4098 1057 26       		.uleb128 0x26
 4099 1058 01       		.uleb128 0x1
 4100 1059 50       		.byte	0x50
 4101 105a 02       		.uleb128 0x2
 4102 105b 74       		.byte	0x74
 4103 105c 00       		.sleb128 0
 4104 105d 00       		.byte	0
ARM GAS  C:\Users\kateb\AppData\Local\Temp\cc9mC3XY.s 			page 101


 4105 105e 28       		.uleb128 0x28
 4106 105f 66000000 		.4byte	.LVL125
 4107 1063 981A0000 		.4byte	0x1a98
 4108 1067 71100000 		.4byte	0x1071
 4109 106b 26       		.uleb128 0x26
 4110 106c 01       		.uleb128 0x1
 4111 106d 50       		.byte	0x50
 4112 106e 01       		.uleb128 0x1
 4113 106f 30       		.byte	0x30
 4114 1070 00       		.byte	0
 4115 1071 31       		.uleb128 0x31
 4116 1072 80000000 		.4byte	.LVL127
 4117 1076 A41A0000 		.4byte	0x1aa4
 4118 107a 31       		.uleb128 0x31
 4119 107b 86000000 		.4byte	.LVL128
 4120 107f B01A0000 		.4byte	0x1ab0
 4121 1083 28       		.uleb128 0x28
 4122 1084 9A000000 		.4byte	.LVL129
 4123 1088 BB1A0000 		.4byte	0x1abb
 4124 108c A1100000 		.4byte	0x10a1
 4125 1090 26       		.uleb128 0x26
 4126 1091 01       		.uleb128 0x1
 4127 1092 50       		.byte	0x50
 4128 1093 01       		.uleb128 0x1
 4129 1094 30       		.byte	0x30
 4130 1095 26       		.uleb128 0x26
 4131 1096 01       		.uleb128 0x1
 4132 1097 51       		.byte	0x51
 4133 1098 02       		.uleb128 0x2
 4134 1099 09       		.byte	0x9
 4135 109a FF       		.byte	0xff
 4136 109b 26       		.uleb128 0x26
 4137 109c 01       		.uleb128 0x1
 4138 109d 52       		.byte	0x52
 4139 109e 01       		.uleb128 0x1
 4140 109f 30       		.byte	0x30
 4141 10a0 00       		.byte	0
 4142 10a1 28       		.uleb128 0x28
 4143 10a2 A6000000 		.4byte	.LVL130
 4144 10a6 C71A0000 		.4byte	0x1ac7
 4145 10aa BB100000 		.4byte	0x10bb
 4146 10ae 26       		.uleb128 0x26
 4147 10af 01       		.uleb128 0x1
 4148 10b0 50       		.byte	0x50
 4149 10b1 02       		.uleb128 0x2
 4150 10b2 91       		.byte	0x91
 4151 10b3 58       		.sleb128 -40
 4152 10b4 26       		.uleb128 0x26
 4153 10b5 01       		.uleb128 0x1
 4154 10b6 51       		.byte	0x51
 4155 10b7 02       		.uleb128 0x2
 4156 10b8 79       		.byte	0x79
 4157 10b9 00       		.sleb128 0
 4158 10ba 00       		.byte	0
 4159 10bb 31       		.uleb128 0x31
 4160 10bc B0000000 		.4byte	.LVL132
 4161 10c0 B01A0000 		.4byte	0x1ab0
ARM GAS  C:\Users\kateb\AppData\Local\Temp\cc9mC3XY.s 			page 102


 4162 10c4 28       		.uleb128 0x28
 4163 10c5 BC000000 		.4byte	.LVL135
 4164 10c9 370E0000 		.4byte	0xe37
 4165 10cd D8100000 		.4byte	0x10d8
 4166 10d1 26       		.uleb128 0x26
 4167 10d2 01       		.uleb128 0x1
 4168 10d3 50       		.byte	0x50
 4169 10d4 02       		.uleb128 0x2
 4170 10d5 74       		.byte	0x74
 4171 10d6 00       		.sleb128 0
 4172 10d7 00       		.byte	0
 4173 10d8 28       		.uleb128 0x28
 4174 10d9 CE000000 		.4byte	.LVL137
 4175 10dd 03090000 		.4byte	0x903
 4176 10e1 05110000 		.4byte	0x1105
 4177 10e5 26       		.uleb128 0x26
 4178 10e6 01       		.uleb128 0x1
 4179 10e7 50       		.byte	0x50
 4180 10e8 02       		.uleb128 0x2
 4181 10e9 74       		.byte	0x74
 4182 10ea 00       		.sleb128 0
 4183 10eb 26       		.uleb128 0x26
 4184 10ec 01       		.uleb128 0x1
 4185 10ed 51       		.byte	0x51
 4186 10ee 02       		.uleb128 0x2
 4187 10ef 77       		.byte	0x77
 4188 10f0 00       		.sleb128 0
 4189 10f1 26       		.uleb128 0x26
 4190 10f2 01       		.uleb128 0x1
 4191 10f3 52       		.byte	0x52
 4192 10f4 02       		.uleb128 0x2
 4193 10f5 76       		.byte	0x76
 4194 10f6 00       		.sleb128 0
 4195 10f7 26       		.uleb128 0x26
 4196 10f8 01       		.uleb128 0x1
 4197 10f9 53       		.byte	0x53
 4198 10fa 02       		.uleb128 0x2
 4199 10fb 75       		.byte	0x75
 4200 10fc 00       		.sleb128 0
 4201 10fd 26       		.uleb128 0x26
 4202 10fe 02       		.uleb128 0x2
 4203 10ff 7D       		.byte	0x7d
 4204 1100 00       		.sleb128 0
 4205 1101 02       		.uleb128 0x2
 4206 1102 78       		.byte	0x78
 4207 1103 00       		.sleb128 0
 4208 1104 00       		.byte	0
 4209 1105 28       		.uleb128 0x28
 4210 1106 D8000000 		.4byte	.LVL140
 4211 110a C5060000 		.4byte	0x6c5
 4212 110e 19110000 		.4byte	0x1119
 4213 1112 26       		.uleb128 0x26
 4214 1113 01       		.uleb128 0x1
 4215 1114 50       		.byte	0x50
 4216 1115 02       		.uleb128 0x2
 4217 1116 74       		.byte	0x74
 4218 1117 00       		.sleb128 0
ARM GAS  C:\Users\kateb\AppData\Local\Temp\cc9mC3XY.s 			page 103


 4219 1118 00       		.byte	0
 4220 1119 31       		.uleb128 0x31
 4221 111a E2000000 		.4byte	.LVL141
 4222 111e D31A0000 		.4byte	0x1ad3
 4223 1122 28       		.uleb128 0x28
 4224 1123 F2000000 		.4byte	.LVL142
 4225 1127 DF1A0000 		.4byte	0x1adf
 4226 112b 3F110000 		.4byte	0x113f
 4227 112f 26       		.uleb128 0x26
 4228 1130 01       		.uleb128 0x1
 4229 1131 51       		.byte	0x51
 4230 1132 01       		.uleb128 0x1
 4231 1133 30       		.byte	0x30
 4232 1134 26       		.uleb128 0x26
 4233 1135 01       		.uleb128 0x1
 4234 1136 52       		.byte	0x52
 4235 1137 01       		.uleb128 0x1
 4236 1138 30       		.byte	0x30
 4237 1139 26       		.uleb128 0x26
 4238 113a 01       		.uleb128 0x1
 4239 113b 53       		.byte	0x53
 4240 113c 01       		.uleb128 0x1
 4241 113d 30       		.byte	0x30
 4242 113e 00       		.byte	0
 4243 113f 31       		.uleb128 0x31
 4244 1140 FA000000 		.4byte	.LVL143
 4245 1144 EB1A0000 		.4byte	0x1aeb
 4246 1148 00       		.byte	0
 4247 1149 2F       		.uleb128 0x2f
 4248 114a 89010000 		.4byte	.LASF168
 4249 114e 01       		.byte	0x1
 4250 114f 4C02     		.2byte	0x24c
 4251 1151 AD000000 		.4byte	0xad
 4252 1155 00000000 		.4byte	.LFB602
 4253 1159 A0000000 		.4byte	.LFE602-.LFB602
 4254 115d 01       		.uleb128 0x1
 4255 115e 9C       		.byte	0x9c
 4256 115f F8120000 		.4byte	0x12f8
 4257 1163 1C       		.uleb128 0x1c
 4258 1164 48010000 		.4byte	.LASF158
 4259 1168 01       		.byte	0x1
 4260 1169 4C02     		.2byte	0x24c
 4261 116b E1050000 		.4byte	0x5e1
 4262 116f 67090000 		.4byte	.LLST54
 4263 1173 1C       		.uleb128 0x1c
 4264 1174 1D030000 		.4byte	.LASF140
 4265 1178 01       		.byte	0x1
 4266 1179 4D02     		.2byte	0x24d
 4267 117b BC090000 		.4byte	0x9bc
 4268 117f 85090000 		.4byte	.LLST55
 4269 1183 1C       		.uleb128 0x1c
 4270 1184 88020000 		.4byte	.LASF141
 4271 1188 01       		.byte	0x1
 4272 1189 4E02     		.2byte	0x24e
 4273 118b AD000000 		.4byte	0xad
 4274 118f B1090000 		.4byte	.LLST56
 4275 1193 1C       		.uleb128 0x1c
ARM GAS  C:\Users\kateb\AppData\Local\Temp\cc9mC3XY.s 			page 104


 4276 1194 9A000000 		.4byte	.LASF169
 4277 1198 01       		.byte	0x1
 4278 1199 4F02     		.2byte	0x24f
 4279 119b FE120000 		.4byte	0x12fe
 4280 119f DD090000 		.4byte	.LLST57
 4281 11a3 1D       		.uleb128 0x1d
 4282 11a4 84030000 		.4byte	.LASF129
 4283 11a8 01       		.byte	0x1
 4284 11a9 5102     		.2byte	0x251
 4285 11ab F2070000 		.4byte	0x7f2
 4286 11af 67090000 		.4byte	.LLST54
 4287 11b3 1D       		.uleb128 0x1d
 4288 11b4 B6040000 		.4byte	.LASF145
 4289 11b8 01       		.byte	0x1
 4290 11b9 5202     		.2byte	0x252
 4291 11bb AD000000 		.4byte	0xad
 4292 11bf 2D0A0000 		.4byte	.LLST59
 4293 11c3 1D       		.uleb128 0x1d
 4294 11c4 5A0A0000 		.4byte	.LASF142
 4295 11c8 01       		.byte	0x1
 4296 11c9 5202     		.2byte	0x252
 4297 11cb AD000000 		.4byte	0xad
 4298 11cf 4B0A0000 		.4byte	.LLST60
 4299 11d3 1D       		.uleb128 0x1d
 4300 11d4 E4000000 		.4byte	.LASF143
 4301 11d8 01       		.byte	0x1
 4302 11d9 5302     		.2byte	0x253
 4303 11db AD000000 		.4byte	0xad
 4304 11df 690A0000 		.4byte	.LLST61
 4305 11e3 22       		.uleb128 0x22
 4306 11e4 6E060000 		.4byte	0x66e
 4307 11e8 02000000 		.4byte	.LBB112
 4308 11ec 12000000 		.4byte	.LBE112-.LBB112
 4309 11f0 01       		.byte	0x1
 4310 11f1 5502     		.2byte	0x255
 4311 11f3 07120000 		.4byte	0x1207
 4312 11f7 23       		.uleb128 0x23
 4313 11f8 02000000 		.4byte	.LBB113
 4314 11fc 12000000 		.4byte	.LBE113-.LBB113
 4315 1200 24       		.uleb128 0x24
 4316 1201 7A060000 		.4byte	0x67a
 4317 1205 00       		.byte	0
 4318 1206 00       		.byte	0
 4319 1207 22       		.uleb128 0x22
 4320 1208 6E060000 		.4byte	0x66e
 4321 120c 1E000000 		.4byte	.LBB114
 4322 1210 12000000 		.4byte	.LBE114-.LBB114
 4323 1214 01       		.byte	0x1
 4324 1215 5602     		.2byte	0x256
 4325 1217 2B120000 		.4byte	0x122b
 4326 121b 23       		.uleb128 0x23
 4327 121c 1E000000 		.4byte	.LBB115
 4328 1220 12000000 		.4byte	.LBE115-.LBB115
 4329 1224 24       		.uleb128 0x24
 4330 1225 7A060000 		.4byte	0x67a
 4331 1229 00       		.byte	0
 4332 122a 00       		.byte	0
ARM GAS  C:\Users\kateb\AppData\Local\Temp\cc9mC3XY.s 			page 105


 4333 122b 20       		.uleb128 0x20
 4334 122c 6A000000 		.4byte	.LBB116
 4335 1230 2E000000 		.4byte	.LBE116-.LBB116
 4336 1234 AC120000 		.4byte	0x12ac
 4337 1238 32       		.uleb128 0x32
 4338 1239 180A0000 		.4byte	.LASF170
 4339 123d 01       		.byte	0x1
 4340 123e 6D02     		.2byte	0x26d
 4341 1240 65050000 		.4byte	0x565
 4342 1244 22       		.uleb128 0x22
 4343 1245 86060000 		.4byte	0x686
 4344 1249 6A000000 		.4byte	.LBB117
 4345 124d 14000000 		.4byte	.LBE117-.LBB117
 4346 1251 01       		.byte	0x1
 4347 1252 6D02     		.2byte	0x26d
 4348 1254 6D120000 		.4byte	0x126d
 4349 1258 23       		.uleb128 0x23
 4350 1259 6A000000 		.4byte	.LBB118
 4351 125d 14000000 		.4byte	.LBE118-.LBB118
 4352 1261 24       		.uleb128 0x24
 4353 1262 96060000 		.4byte	0x696
 4354 1266 24       		.uleb128 0x24
 4355 1267 A1060000 		.4byte	0x6a1
 4356 126b 00       		.byte	0
 4357 126c 00       		.byte	0
 4358 126d 22       		.uleb128 0x22
 4359 126e AD060000 		.4byte	0x6ad
 4360 1272 94000000 		.4byte	.LBB119
 4361 1276 04000000 		.4byte	.LBE119-.LBB119
 4362 127a 01       		.byte	0x1
 4363 127b 6D02     		.2byte	0x26d
 4364 127d 8B120000 		.4byte	0x128b
 4365 1281 33       		.uleb128 0x33
 4366 1282 B9060000 		.4byte	0x6b9
 4367 1286 9D0A0000 		.4byte	.LLST62
 4368 128a 00       		.byte	0
 4369 128b 25       		.uleb128 0x25
 4370 128c 90000000 		.4byte	.LVL160
 4371 1290 F71A0000 		.4byte	0x1af7
 4372 1294 26       		.uleb128 0x26
 4373 1295 01       		.uleb128 0x1
 4374 1296 51       		.byte	0x51
 4375 1297 01       		.uleb128 0x1
 4376 1298 30       		.byte	0x30
 4377 1299 26       		.uleb128 0x26
 4378 129a 01       		.uleb128 0x1
 4379 129b 52       		.byte	0x52
 4380 129c 01       		.uleb128 0x1
 4381 129d 30       		.byte	0x30
 4382 129e 26       		.uleb128 0x26
 4383 129f 01       		.uleb128 0x1
 4384 12a0 53       		.byte	0x53
 4385 12a1 01       		.uleb128 0x1
 4386 12a2 30       		.byte	0x30
 4387 12a3 26       		.uleb128 0x26
 4388 12a4 02       		.uleb128 0x2
 4389 12a5 7D       		.byte	0x7d
ARM GAS  C:\Users\kateb\AppData\Local\Temp\cc9mC3XY.s 			page 106


 4390 12a6 00       		.sleb128 0
 4391 12a7 02       		.uleb128 0x2
 4392 12a8 77       		.byte	0x77
 4393 12a9 00       		.sleb128 0
 4394 12aa 00       		.byte	0
 4395 12ab 00       		.byte	0
 4396 12ac 28       		.uleb128 0x28
 4397 12ad 4A000000 		.4byte	.LVL153
 4398 12b1 370E0000 		.4byte	0xe37
 4399 12b5 C0120000 		.4byte	0x12c0
 4400 12b9 26       		.uleb128 0x26
 4401 12ba 01       		.uleb128 0x1
 4402 12bb 50       		.byte	0x50
 4403 12bc 02       		.uleb128 0x2
 4404 12bd 74       		.byte	0x74
 4405 12be 00       		.sleb128 0
 4406 12bf 00       		.byte	0
 4407 12c0 28       		.uleb128 0x28
 4408 12c1 5A000000 		.4byte	.LVL155
 4409 12c5 03090000 		.4byte	0x903
 4410 12c9 E7120000 		.4byte	0x12e7
 4411 12cd 26       		.uleb128 0x26
 4412 12ce 01       		.uleb128 0x1
 4413 12cf 50       		.byte	0x50
 4414 12d0 02       		.uleb128 0x2
 4415 12d1 74       		.byte	0x74
 4416 12d2 00       		.sleb128 0
 4417 12d3 26       		.uleb128 0x26
 4418 12d4 01       		.uleb128 0x1
 4419 12d5 51       		.byte	0x51
 4420 12d6 02       		.uleb128 0x2
 4421 12d7 76       		.byte	0x76
 4422 12d8 00       		.sleb128 0
 4423 12d9 26       		.uleb128 0x26
 4424 12da 01       		.uleb128 0x1
 4425 12db 52       		.byte	0x52
 4426 12dc 02       		.uleb128 0x2
 4427 12dd 75       		.byte	0x75
 4428 12de 00       		.sleb128 0
 4429 12df 26       		.uleb128 0x26
 4430 12e0 02       		.uleb128 0x2
 4431 12e1 7D       		.byte	0x7d
 4432 12e2 00       		.sleb128 0
 4433 12e3 02       		.uleb128 0x2
 4434 12e4 78       		.byte	0x78
 4435 12e5 00       		.sleb128 0
 4436 12e6 00       		.byte	0
 4437 12e7 25       		.uleb128 0x25
 4438 12e8 64000000 		.4byte	.LVL158
 4439 12ec C5060000 		.4byte	0x6c5
 4440 12f0 26       		.uleb128 0x26
 4441 12f1 01       		.uleb128 0x1
 4442 12f2 50       		.byte	0x50
 4443 12f3 02       		.uleb128 0x2
 4444 12f4 74       		.byte	0x74
 4445 12f5 00       		.sleb128 0
 4446 12f6 00       		.byte	0
ARM GAS  C:\Users\kateb\AppData\Local\Temp\cc9mC3XY.s 			page 107


 4447 12f7 00       		.byte	0
 4448 12f8 0C       		.uleb128 0xc
 4449 12f9 04       		.byte	0x4
 4450 12fa 5A050000 		.4byte	0x55a
 4451 12fe 12       		.uleb128 0x12
 4452 12ff F8120000 		.4byte	0x12f8
 4453 1303 2F       		.uleb128 0x2f
 4454 1304 4F0D0000 		.4byte	.LASF171
 4455 1308 01       		.byte	0x1
 4456 1309 B302     		.2byte	0x2b3
 4457 130b AD000000 		.4byte	0xad
 4458 130f 00000000 		.4byte	.LFB604
 4459 1313 E0000000 		.4byte	.LFE604-.LFB604
 4460 1317 01       		.uleb128 0x1
 4461 1318 9C       		.byte	0x9c
 4462 1319 E7140000 		.4byte	0x14e7
 4463 131d 1C       		.uleb128 0x1c
 4464 131e 48010000 		.4byte	.LASF158
 4465 1322 01       		.byte	0x1
 4466 1323 B302     		.2byte	0x2b3
 4467 1325 E1050000 		.4byte	0x5e1
 4468 1329 B00A0000 		.4byte	.LLST63
 4469 132d 1C       		.uleb128 0x1c
 4470 132e DF090000 		.4byte	.LASF151
 4471 1332 01       		.byte	0x1
 4472 1333 B402     		.2byte	0x2b4
 4473 1335 C6000000 		.4byte	0xc6
 4474 1339 E40A0000 		.4byte	.LLST64
 4475 133d 1C       		.uleb128 0x1c
 4476 133e 26060000 		.4byte	.LASF152
 4477 1342 01       		.byte	0x1
 4478 1343 B502     		.2byte	0x2b5
 4479 1345 AD000000 		.4byte	0xad
 4480 1349 020B0000 		.4byte	.LLST65
 4481 134d 1C       		.uleb128 0x1c
 4482 134e 29020000 		.4byte	.LASF166
 4483 1352 01       		.byte	0x1
 4484 1353 B602     		.2byte	0x2b6
 4485 1355 70050000 		.4byte	0x570
 4486 1359 360B0000 		.4byte	.LLST66
 4487 135d 1D       		.uleb128 0x1d
 4488 135e 84030000 		.4byte	.LASF129
 4489 1362 01       		.byte	0x1
 4490 1363 B802     		.2byte	0x2b8
 4491 1365 F2070000 		.4byte	0x7f2
 4492 1369 B00A0000 		.4byte	.LLST63
 4493 136d 1D       		.uleb128 0x1d
 4494 136e 910C0000 		.4byte	.LASF155
 4495 1372 01       		.byte	0x1
 4496 1373 B902     		.2byte	0x2b9
 4497 1375 AD000000 		.4byte	0xad
 4498 1379 9C0B0000 		.4byte	.LLST68
 4499 137d 1D       		.uleb128 0x1d
 4500 137e D3030000 		.4byte	.LASF148
 4501 1382 01       		.byte	0x1
 4502 1383 B902     		.2byte	0x2b9
 4503 1385 AD000000 		.4byte	0xad
ARM GAS  C:\Users\kateb\AppData\Local\Temp\cc9mC3XY.s 			page 108


 4504 1389 DD0B0000 		.4byte	.LLST69
 4505 138d 27       		.uleb128 0x27
 4506 138e CB070000 		.4byte	.LASF153
 4507 1392 01       		.byte	0x1
 4508 1393 B902     		.2byte	0x2b9
 4509 1395 AD000000 		.4byte	0xad
 4510 1399 01       		.uleb128 0x1
 4511 139a 56       		.byte	0x56
 4512 139b 22       		.uleb128 0x22
 4513 139c 6E060000 		.4byte	0x66e
 4514 13a0 02000000 		.4byte	.LBB121
 4515 13a4 12000000 		.4byte	.LBE121-.LBB121
 4516 13a8 01       		.byte	0x1
 4517 13a9 BB02     		.2byte	0x2bb
 4518 13ab BF130000 		.4byte	0x13bf
 4519 13af 23       		.uleb128 0x23
 4520 13b0 02000000 		.4byte	.LBB122
 4521 13b4 12000000 		.4byte	.LBE122-.LBB122
 4522 13b8 24       		.uleb128 0x24
 4523 13b9 7A060000 		.4byte	0x67a
 4524 13bd 00       		.byte	0
 4525 13be 00       		.byte	0
 4526 13bf 22       		.uleb128 0x22
 4527 13c0 6E060000 		.4byte	0x66e
 4528 13c4 1E000000 		.4byte	.LBB123
 4529 13c8 12000000 		.4byte	.LBE123-.LBB123
 4530 13cc 01       		.byte	0x1
 4531 13cd BC02     		.2byte	0x2bc
 4532 13cf E3130000 		.4byte	0x13e3
 4533 13d3 23       		.uleb128 0x23
 4534 13d4 1E000000 		.4byte	.LBB124
 4535 13d8 12000000 		.4byte	.LBE124-.LBB124
 4536 13dc 24       		.uleb128 0x24
 4537 13dd 7A060000 		.4byte	0x67a
 4538 13e1 00       		.byte	0
 4539 13e2 00       		.byte	0
 4540 13e3 22       		.uleb128 0x22
 4541 13e4 6E060000 		.4byte	0x66e
 4542 13e8 60000000 		.4byte	.LBB125
 4543 13ec 12000000 		.4byte	.LBE125-.LBB125
 4544 13f0 01       		.byte	0x1
 4545 13f1 DF02     		.2byte	0x2df
 4546 13f3 07140000 		.4byte	0x1407
 4547 13f7 23       		.uleb128 0x23
 4548 13f8 60000000 		.4byte	.LBB126
 4549 13fc 12000000 		.4byte	.LBE126-.LBB126
 4550 1400 24       		.uleb128 0x24
 4551 1401 7A060000 		.4byte	0x67a
 4552 1405 00       		.byte	0
 4553 1406 00       		.byte	0
 4554 1407 31       		.uleb128 0x31
 4555 1408 4A000000 		.4byte	.LVL170
 4556 140c 8D1A0000 		.4byte	0x1a8d
 4557 1410 28       		.uleb128 0x28
 4558 1411 50000000 		.4byte	.LVL171
 4559 1415 C5060000 		.4byte	0x6c5
 4560 1419 24140000 		.4byte	0x1424
ARM GAS  C:\Users\kateb\AppData\Local\Temp\cc9mC3XY.s 			page 109


 4561 141d 26       		.uleb128 0x26
 4562 141e 01       		.uleb128 0x1
 4563 141f 50       		.byte	0x50
 4564 1420 02       		.uleb128 0x2
 4565 1421 74       		.byte	0x74
 4566 1422 00       		.sleb128 0
 4567 1423 00       		.byte	0
 4568 1424 28       		.uleb128 0x28
 4569 1425 5C000000 		.4byte	.LVL174
 4570 1429 981A0000 		.4byte	0x1a98
 4571 142d 37140000 		.4byte	0x1437
 4572 1431 26       		.uleb128 0x26
 4573 1432 01       		.uleb128 0x1
 4574 1433 50       		.byte	0x50
 4575 1434 01       		.uleb128 0x1
 4576 1435 30       		.byte	0x30
 4577 1436 00       		.byte	0
 4578 1437 31       		.uleb128 0x31
 4579 1438 76000000 		.4byte	.LVL176
 4580 143c A41A0000 		.4byte	0x1aa4
 4581 1440 31       		.uleb128 0x31
 4582 1441 7C000000 		.4byte	.LVL177
 4583 1445 B01A0000 		.4byte	0x1ab0
 4584 1449 28       		.uleb128 0x28
 4585 144a 8E000000 		.4byte	.LVL178
 4586 144e BB1A0000 		.4byte	0x1abb
 4587 1452 6D140000 		.4byte	0x146d
 4588 1456 26       		.uleb128 0x26
 4589 1457 01       		.uleb128 0x1
 4590 1458 50       		.byte	0x50
 4591 1459 01       		.uleb128 0x1
 4592 145a 30       		.byte	0x30
 4593 145b 26       		.uleb128 0x26
 4594 145c 01       		.uleb128 0x1
 4595 145d 51       		.byte	0x51
 4596 145e 02       		.uleb128 0x2
 4597 145f 09       		.byte	0x9
 4598 1460 FF       		.byte	0xff
 4599 1461 26       		.uleb128 0x26
 4600 1462 01       		.uleb128 0x1
 4601 1463 52       		.byte	0x52
 4602 1464 01       		.uleb128 0x1
 4603 1465 30       		.byte	0x30
 4604 1466 26       		.uleb128 0x26
 4605 1467 01       		.uleb128 0x1
 4606 1468 53       		.byte	0x53
 4607 1469 02       		.uleb128 0x2
 4608 146a 77       		.byte	0x77
 4609 146b 00       		.sleb128 0
 4610 146c 00       		.byte	0
 4611 146d 28       		.uleb128 0x28
 4612 146e 98000000 		.4byte	.LVL179
 4613 1472 C5060000 		.4byte	0x6c5
 4614 1476 81140000 		.4byte	0x1481
 4615 147a 26       		.uleb128 0x26
 4616 147b 01       		.uleb128 0x1
 4617 147c 50       		.byte	0x50
ARM GAS  C:\Users\kateb\AppData\Local\Temp\cc9mC3XY.s 			page 110


 4618 147d 02       		.uleb128 0x2
 4619 147e 74       		.byte	0x74
 4620 147f 00       		.sleb128 0
 4621 1480 00       		.byte	0
 4622 1481 31       		.uleb128 0x31
 4623 1482 A0000000 		.4byte	.LVL182
 4624 1486 C5060000 		.4byte	0x6c5
 4625 148a 28       		.uleb128 0x28
 4626 148b B4000000 		.4byte	.LVL184
 4627 148f EE0A0000 		.4byte	0xaee
 4628 1493 B7140000 		.4byte	0x14b7
 4629 1497 26       		.uleb128 0x26
 4630 1498 01       		.uleb128 0x1
 4631 1499 50       		.byte	0x50
 4632 149a 02       		.uleb128 0x2
 4633 149b 74       		.byte	0x74
 4634 149c 00       		.sleb128 0
 4635 149d 26       		.uleb128 0x26
 4636 149e 01       		.uleb128 0x1
 4637 149f 51       		.byte	0x51
 4638 14a0 02       		.uleb128 0x2
 4639 14a1 78       		.byte	0x78
 4640 14a2 00       		.sleb128 0
 4641 14a3 26       		.uleb128 0x26
 4642 14a4 01       		.uleb128 0x1
 4643 14a5 52       		.byte	0x52
 4644 14a6 02       		.uleb128 0x2
 4645 14a7 79       		.byte	0x79
 4646 14a8 00       		.sleb128 0
 4647 14a9 26       		.uleb128 0x26
 4648 14aa 01       		.uleb128 0x1
 4649 14ab 53       		.byte	0x53
 4650 14ac 02       		.uleb128 0x2
 4651 14ad 75       		.byte	0x75
 4652 14ae 00       		.sleb128 0
 4653 14af 26       		.uleb128 0x26
 4654 14b0 02       		.uleb128 0x2
 4655 14b1 7D       		.byte	0x7d
 4656 14b2 00       		.sleb128 0
 4657 14b3 02       		.uleb128 0x2
 4658 14b4 76       		.byte	0x76
 4659 14b5 00       		.sleb128 0
 4660 14b6 00       		.byte	0
 4661 14b7 31       		.uleb128 0x31
 4662 14b8 BC000000 		.4byte	.LVL186
 4663 14bc D31A0000 		.4byte	0x1ad3
 4664 14c0 28       		.uleb128 0x28
 4665 14c1 CC000000 		.4byte	.LVL187
 4666 14c5 DF1A0000 		.4byte	0x1adf
 4667 14c9 DD140000 		.4byte	0x14dd
 4668 14cd 26       		.uleb128 0x26
 4669 14ce 01       		.uleb128 0x1
 4670 14cf 51       		.byte	0x51
 4671 14d0 01       		.uleb128 0x1
 4672 14d1 30       		.byte	0x30
 4673 14d2 26       		.uleb128 0x26
 4674 14d3 01       		.uleb128 0x1
ARM GAS  C:\Users\kateb\AppData\Local\Temp\cc9mC3XY.s 			page 111


 4675 14d4 52       		.byte	0x52
 4676 14d5 01       		.uleb128 0x1
 4677 14d6 30       		.byte	0x30
 4678 14d7 26       		.uleb128 0x26
 4679 14d8 01       		.uleb128 0x1
 4680 14d9 53       		.byte	0x53
 4681 14da 01       		.uleb128 0x1
 4682 14db 30       		.byte	0x30
 4683 14dc 00       		.byte	0
 4684 14dd 31       		.uleb128 0x31
 4685 14de D4000000 		.4byte	.LVL188
 4686 14e2 EB1A0000 		.4byte	0x1aeb
 4687 14e6 00       		.byte	0
 4688 14e7 2F       		.uleb128 0x2f
 4689 14e8 41040000 		.4byte	.LASF172
 4690 14ec 01       		.byte	0x1
 4691 14ed 1B03     		.2byte	0x31b
 4692 14ef AD000000 		.4byte	0xad
 4693 14f3 00000000 		.4byte	.LFB605
 4694 14f7 9A000000 		.4byte	.LFE605-.LFB605
 4695 14fb 01       		.uleb128 0x1
 4696 14fc 9C       		.byte	0x9c
 4697 14fd 80160000 		.4byte	0x1680
 4698 1501 1C       		.uleb128 0x1c
 4699 1502 48010000 		.4byte	.LASF158
 4700 1506 01       		.byte	0x1
 4701 1507 1B03     		.2byte	0x31b
 4702 1509 E1050000 		.4byte	0x5e1
 4703 150d 1C0C0000 		.4byte	.LLST70
 4704 1511 1C       		.uleb128 0x1c
 4705 1512 DF090000 		.4byte	.LASF151
 4706 1516 01       		.byte	0x1
 4707 1517 1C03     		.2byte	0x31c
 4708 1519 C6000000 		.4byte	0xc6
 4709 151d 3A0C0000 		.4byte	.LLST71
 4710 1521 1C       		.uleb128 0x1c
 4711 1522 26060000 		.4byte	.LASF152
 4712 1526 01       		.byte	0x1
 4713 1527 1D03     		.2byte	0x31d
 4714 1529 AD000000 		.4byte	0xad
 4715 152d 7F0C0000 		.4byte	.LLST72
 4716 1531 1C       		.uleb128 0x1c
 4717 1532 9A000000 		.4byte	.LASF169
 4718 1536 01       		.byte	0x1
 4719 1537 1E03     		.2byte	0x31e
 4720 1539 FE120000 		.4byte	0x12fe
 4721 153d C40C0000 		.4byte	.LLST73
 4722 1541 1D       		.uleb128 0x1d
 4723 1542 84030000 		.4byte	.LASF129
 4724 1546 01       		.byte	0x1
 4725 1547 2003     		.2byte	0x320
 4726 1549 F2070000 		.4byte	0x7f2
 4727 154d 1C0C0000 		.4byte	.LLST70
 4728 1551 1D       		.uleb128 0x1d
 4729 1552 910C0000 		.4byte	.LASF155
 4730 1556 01       		.byte	0x1
 4731 1557 2103     		.2byte	0x321
ARM GAS  C:\Users\kateb\AppData\Local\Temp\cc9mC3XY.s 			page 112


 4732 1559 AD000000 		.4byte	0xad
 4733 155d 140D0000 		.4byte	.LLST75
 4734 1561 1D       		.uleb128 0x1d
 4735 1562 D3030000 		.4byte	.LASF148
 4736 1566 01       		.byte	0x1
 4737 1567 2103     		.2byte	0x321
 4738 1569 AD000000 		.4byte	0xad
 4739 156d 550D0000 		.4byte	.LLST76
 4740 1571 27       		.uleb128 0x27
 4741 1572 CB070000 		.4byte	.LASF153
 4742 1576 01       		.byte	0x1
 4743 1577 2103     		.2byte	0x321
 4744 1579 AD000000 		.4byte	0xad
 4745 157d 01       		.uleb128 0x1
 4746 157e 57       		.byte	0x57
 4747 157f 22       		.uleb128 0x22
 4748 1580 6E060000 		.4byte	0x66e
 4749 1584 02000000 		.4byte	.LBB127
 4750 1588 12000000 		.4byte	.LBE127-.LBB127
 4751 158c 01       		.byte	0x1
 4752 158d 2303     		.2byte	0x323
 4753 158f A3150000 		.4byte	0x15a3
 4754 1593 23       		.uleb128 0x23
 4755 1594 02000000 		.4byte	.LBB128
 4756 1598 12000000 		.4byte	.LBE128-.LBB128
 4757 159c 24       		.uleb128 0x24
 4758 159d 7A060000 		.4byte	0x67a
 4759 15a1 00       		.byte	0
 4760 15a2 00       		.byte	0
 4761 15a3 22       		.uleb128 0x22
 4762 15a4 6E060000 		.4byte	0x66e
 4763 15a8 1E000000 		.4byte	.LBB129
 4764 15ac 12000000 		.4byte	.LBE129-.LBB129
 4765 15b0 01       		.byte	0x1
 4766 15b1 2403     		.2byte	0x324
 4767 15b3 C7150000 		.4byte	0x15c7
 4768 15b7 23       		.uleb128 0x23
 4769 15b8 1E000000 		.4byte	.LBB130
 4770 15bc 12000000 		.4byte	.LBE130-.LBB130
 4771 15c0 24       		.uleb128 0x24
 4772 15c1 7A060000 		.4byte	0x67a
 4773 15c5 00       		.byte	0
 4774 15c6 00       		.byte	0
 4775 15c7 20       		.uleb128 0x20
 4776 15c8 5E000000 		.4byte	.LBB131
 4777 15cc 32000000 		.4byte	.LBE131-.LBB131
 4778 15d0 48160000 		.4byte	0x1648
 4779 15d4 32       		.uleb128 0x32
 4780 15d5 180A0000 		.4byte	.LASF170
 4781 15d9 01       		.byte	0x1
 4782 15da 4203     		.2byte	0x342
 4783 15dc 65050000 		.4byte	0x565
 4784 15e0 22       		.uleb128 0x22
 4785 15e1 86060000 		.4byte	0x686
 4786 15e5 5E000000 		.4byte	.LBB132
 4787 15e9 14000000 		.4byte	.LBE132-.LBB132
 4788 15ed 01       		.byte	0x1
ARM GAS  C:\Users\kateb\AppData\Local\Temp\cc9mC3XY.s 			page 113


 4789 15ee 4203     		.2byte	0x342
 4790 15f0 09160000 		.4byte	0x1609
 4791 15f4 23       		.uleb128 0x23
 4792 15f5 5E000000 		.4byte	.LBB133
 4793 15f9 14000000 		.4byte	.LBE133-.LBB133
 4794 15fd 24       		.uleb128 0x24
 4795 15fe 96060000 		.4byte	0x696
 4796 1602 24       		.uleb128 0x24
 4797 1603 A1060000 		.4byte	0x6a1
 4798 1607 00       		.byte	0
 4799 1608 00       		.byte	0
 4800 1609 22       		.uleb128 0x22
 4801 160a AD060000 		.4byte	0x6ad
 4802 160e 8A000000 		.4byte	.LBB134
 4803 1612 06000000 		.4byte	.LBE134-.LBB134
 4804 1616 01       		.byte	0x1
 4805 1617 4203     		.2byte	0x342
 4806 1619 27160000 		.4byte	0x1627
 4807 161d 33       		.uleb128 0x33
 4808 161e B9060000 		.4byte	0x6b9
 4809 1622 7E0D0000 		.4byte	.LLST77
 4810 1626 00       		.byte	0
 4811 1627 25       		.uleb128 0x25
 4812 1628 86000000 		.4byte	.LVL205
 4813 162c F71A0000 		.4byte	0x1af7
 4814 1630 26       		.uleb128 0x26
 4815 1631 01       		.uleb128 0x1
 4816 1632 51       		.byte	0x51
 4817 1633 01       		.uleb128 0x1
 4818 1634 30       		.byte	0x30
 4819 1635 26       		.uleb128 0x26
 4820 1636 01       		.uleb128 0x1
 4821 1637 52       		.byte	0x52
 4822 1638 01       		.uleb128 0x1
 4823 1639 30       		.byte	0x30
 4824 163a 26       		.uleb128 0x26
 4825 163b 01       		.uleb128 0x1
 4826 163c 53       		.byte	0x53
 4827 163d 01       		.uleb128 0x1
 4828 163e 30       		.byte	0x30
 4829 163f 26       		.uleb128 0x26
 4830 1640 02       		.uleb128 0x2
 4831 1641 7D       		.byte	0x7d
 4832 1642 00       		.sleb128 0
 4833 1643 02       		.uleb128 0x2
 4834 1644 78       		.byte	0x78
 4835 1645 00       		.sleb128 0
 4836 1646 00       		.byte	0
 4837 1647 00       		.byte	0
 4838 1648 28       		.uleb128 0x28
 4839 1649 48000000 		.4byte	.LVL198
 4840 164d C5060000 		.4byte	0x6c5
 4841 1651 5C160000 		.4byte	0x165c
 4842 1655 26       		.uleb128 0x26
 4843 1656 01       		.uleb128 0x1
 4844 1657 50       		.byte	0x50
 4845 1658 02       		.uleb128 0x2
ARM GAS  C:\Users\kateb\AppData\Local\Temp\cc9mC3XY.s 			page 114


 4846 1659 74       		.byte	0x74
 4847 165a 00       		.sleb128 0
 4848 165b 00       		.byte	0
 4849 165c 25       		.uleb128 0x25
 4850 165d 5A000000 		.4byte	.LVL201
 4851 1661 EE0A0000 		.4byte	0xaee
 4852 1665 26       		.uleb128 0x26
 4853 1666 01       		.uleb128 0x1
 4854 1667 50       		.byte	0x50
 4855 1668 02       		.uleb128 0x2
 4856 1669 74       		.byte	0x74
 4857 166a 00       		.sleb128 0
 4858 166b 26       		.uleb128 0x26
 4859 166c 01       		.uleb128 0x1
 4860 166d 51       		.byte	0x51
 4861 166e 02       		.uleb128 0x2
 4862 166f 75       		.byte	0x75
 4863 1670 00       		.sleb128 0
 4864 1671 26       		.uleb128 0x26
 4865 1672 01       		.uleb128 0x1
 4866 1673 52       		.byte	0x52
 4867 1674 02       		.uleb128 0x2
 4868 1675 76       		.byte	0x76
 4869 1676 00       		.sleb128 0
 4870 1677 26       		.uleb128 0x26
 4871 1678 02       		.uleb128 0x2
 4872 1679 7D       		.byte	0x7d
 4873 167a 00       		.sleb128 0
 4874 167b 02       		.uleb128 0x2
 4875 167c 77       		.byte	0x77
 4876 167d 00       		.sleb128 0
 4877 167e 00       		.byte	0
 4878 167f 00       		.byte	0
 4879 1680 2F       		.uleb128 0x2f
 4880 1681 3A0E0000 		.4byte	.LASF173
 4881 1685 01       		.byte	0x1
 4882 1686 8603     		.2byte	0x386
 4883 1688 5A050000 		.4byte	0x55a
 4884 168c 00000000 		.4byte	.LFB607
 4885 1690 24000000 		.4byte	.LFE607-.LFB607
 4886 1694 01       		.uleb128 0x1
 4887 1695 9C       		.byte	0x9c
 4888 1696 F7160000 		.4byte	0x16f7
 4889 169a 1C       		.uleb128 0x1c
 4890 169b 48010000 		.4byte	.LASF158
 4891 169f 01       		.byte	0x1
 4892 16a0 8603     		.2byte	0x386
 4893 16a2 E1050000 		.4byte	0x5e1
 4894 16a6 910D0000 		.4byte	.LLST78
 4895 16aa 1D       		.uleb128 0x1d
 4896 16ab 84030000 		.4byte	.LASF129
 4897 16af 01       		.byte	0x1
 4898 16b0 8803     		.2byte	0x388
 4899 16b2 0B070000 		.4byte	0x70b
 4900 16b6 CB0D0000 		.4byte	.LLST79
 4901 16ba 27       		.uleb128 0x27
 4902 16bb B6040000 		.4byte	.LASF145
ARM GAS  C:\Users\kateb\AppData\Local\Temp\cc9mC3XY.s 			page 115


 4903 16bf 01       		.byte	0x1
 4904 16c0 8903     		.2byte	0x389
 4905 16c2 5A050000 		.4byte	0x55a
 4906 16c6 01       		.uleb128 0x1
 4907 16c7 50       		.byte	0x50
 4908 16c8 27       		.uleb128 0x27
 4909 16c9 A4050000 		.4byte	.LASF116
 4910 16cd 01       		.byte	0x1
 4911 16ce 8A03     		.2byte	0x38a
 4912 16d0 AD000000 		.4byte	0xad
 4913 16d4 01       		.uleb128 0x1
 4914 16d5 52       		.byte	0x52
 4915 16d6 30       		.uleb128 0x30
 4916 16d7 6E060000 		.4byte	0x66e
 4917 16db 02000000 		.4byte	.LBB136
 4918 16df 12000000 		.4byte	.LBE136-.LBB136
 4919 16e3 01       		.byte	0x1
 4920 16e4 8C03     		.2byte	0x38c
 4921 16e6 23       		.uleb128 0x23
 4922 16e7 02000000 		.4byte	.LBB137
 4923 16eb 12000000 		.4byte	.LBE137-.LBB137
 4924 16ef 24       		.uleb128 0x24
 4925 16f0 7A060000 		.4byte	0x67a
 4926 16f4 00       		.byte	0
 4927 16f5 00       		.byte	0
 4928 16f6 00       		.byte	0
 4929 16f7 2F       		.uleb128 0x2f
 4930 16f8 F6090000 		.4byte	.LASF174
 4931 16fc 01       		.byte	0x1
 4932 16fd 9D03     		.2byte	0x39d
 4933 16ff 5A050000 		.4byte	0x55a
 4934 1703 00000000 		.4byte	.LFB608
 4935 1707 38000000 		.4byte	.LFE608-.LFB608
 4936 170b 01       		.uleb128 0x1
 4937 170c 9C       		.byte	0x9c
 4938 170d 83170000 		.4byte	0x1783
 4939 1711 1C       		.uleb128 0x1c
 4940 1712 48010000 		.4byte	.LASF158
 4941 1716 01       		.byte	0x1
 4942 1717 9D03     		.2byte	0x39d
 4943 1719 E1050000 		.4byte	0x5e1
 4944 171d 050E0000 		.4byte	.LLST80
 4945 1721 27       		.uleb128 0x27
 4946 1722 B6040000 		.4byte	.LASF145
 4947 1726 01       		.byte	0x1
 4948 1727 9F03     		.2byte	0x39f
 4949 1729 5A050000 		.4byte	0x55a
 4950 172d 01       		.uleb128 0x1
 4951 172e 50       		.byte	0x50
 4952 172f 27       		.uleb128 0x27
 4953 1730 CB070000 		.4byte	.LASF153
 4954 1734 01       		.byte	0x1
 4955 1735 A003     		.2byte	0x3a0
 4956 1737 AD000000 		.4byte	0xad
 4957 173b 01       		.uleb128 0x1
 4958 173c 54       		.byte	0x54
 4959 173d 1D       		.uleb128 0x1d
ARM GAS  C:\Users\kateb\AppData\Local\Temp\cc9mC3XY.s 			page 116


 4960 173e 84030000 		.4byte	.LASF129
 4961 1742 01       		.byte	0x1
 4962 1743 A103     		.2byte	0x3a1
 4963 1745 0B070000 		.4byte	0x70b
 4964 1749 310E0000 		.4byte	.LLST81
 4965 174d 22       		.uleb128 0x22
 4966 174e 6E060000 		.4byte	0x66e
 4967 1752 02000000 		.4byte	.LBB138
 4968 1756 12000000 		.4byte	.LBE138-.LBB138
 4969 175a 01       		.byte	0x1
 4970 175b A303     		.2byte	0x3a3
 4971 175d 71170000 		.4byte	0x1771
 4972 1761 23       		.uleb128 0x23
 4973 1762 02000000 		.4byte	.LBB139
 4974 1766 12000000 		.4byte	.LBE139-.LBB139
 4975 176a 24       		.uleb128 0x24
 4976 176b 7A060000 		.4byte	0x67a
 4977 176f 00       		.byte	0
 4978 1770 00       		.byte	0
 4979 1771 25       		.uleb128 0x25
 4980 1772 2C000000 		.4byte	.LVL218
 4981 1776 370E0000 		.4byte	0xe37
 4982 177a 26       		.uleb128 0x26
 4983 177b 01       		.uleb128 0x1
 4984 177c 50       		.byte	0x50
 4985 177d 03       		.uleb128 0x3
 4986 177e F3       		.byte	0xf3
 4987 177f 01       		.uleb128 0x1
 4988 1780 50       		.byte	0x50
 4989 1781 00       		.byte	0
 4990 1782 00       		.byte	0
 4991 1783 2F       		.uleb128 0x2f
 4992 1784 7C0E0000 		.4byte	.LASF175
 4993 1788 01       		.byte	0x1
 4994 1789 C003     		.2byte	0x3c0
 4995 178b 5A050000 		.4byte	0x55a
 4996 178f 00000000 		.4byte	.LFB609
 4997 1793 52000000 		.4byte	.LFE609-.LFB609
 4998 1797 01       		.uleb128 0x1
 4999 1798 9C       		.byte	0x9c
 5000 1799 76180000 		.4byte	0x1876
 5001 179d 1C       		.uleb128 0x1c
 5002 179e 48010000 		.4byte	.LASF158
 5003 17a2 01       		.byte	0x1
 5004 17a3 C003     		.2byte	0x3c0
 5005 17a5 E1050000 		.4byte	0x5e1
 5006 17a9 5D0E0000 		.4byte	.LLST82
 5007 17ad 1C       		.uleb128 0x1c
 5008 17ae 9A000000 		.4byte	.LASF169
 5009 17b2 01       		.byte	0x1
 5010 17b3 C003     		.2byte	0x3c0
 5011 17b5 F8120000 		.4byte	0x12f8
 5012 17b9 910E0000 		.4byte	.LLST83
 5013 17bd 1D       		.uleb128 0x1d
 5014 17be 84030000 		.4byte	.LASF129
 5015 17c2 01       		.byte	0x1
 5016 17c3 C203     		.2byte	0x3c2
ARM GAS  C:\Users\kateb\AppData\Local\Temp\cc9mC3XY.s 			page 117


 5017 17c5 F2070000 		.4byte	0x7f2
 5018 17c9 5D0E0000 		.4byte	.LLST82
 5019 17cd 1D       		.uleb128 0x1d
 5020 17ce B6040000 		.4byte	.LASF145
 5021 17d2 01       		.byte	0x1
 5022 17d3 C303     		.2byte	0x3c3
 5023 17d5 5A050000 		.4byte	0x55a
 5024 17d9 D70E0000 		.4byte	.LLST85
 5025 17dd 32       		.uleb128 0x32
 5026 17de 180A0000 		.4byte	.LASF170
 5027 17e2 01       		.byte	0x1
 5028 17e3 C403     		.2byte	0x3c4
 5029 17e5 65050000 		.4byte	0x565
 5030 17e9 22       		.uleb128 0x22
 5031 17ea 6E060000 		.4byte	0x66e
 5032 17ee 02000000 		.4byte	.LBB140
 5033 17f2 12000000 		.4byte	.LBE140-.LBB140
 5034 17f6 01       		.byte	0x1
 5035 17f7 C603     		.2byte	0x3c6
 5036 17f9 0D180000 		.4byte	0x180d
 5037 17fd 23       		.uleb128 0x23
 5038 17fe 02000000 		.4byte	.LBB141
 5039 1802 12000000 		.4byte	.LBE141-.LBB141
 5040 1806 24       		.uleb128 0x24
 5041 1807 7A060000 		.4byte	0x67a
 5042 180b 00       		.byte	0
 5043 180c 00       		.byte	0
 5044 180d 22       		.uleb128 0x22
 5045 180e 86060000 		.4byte	0x686
 5046 1812 1A000000 		.4byte	.LBB142
 5047 1816 14000000 		.4byte	.LBE142-.LBB142
 5048 181a 01       		.byte	0x1
 5049 181b C803     		.2byte	0x3c8
 5050 181d 36180000 		.4byte	0x1836
 5051 1821 23       		.uleb128 0x23
 5052 1822 1A000000 		.4byte	.LBB143
 5053 1826 14000000 		.4byte	.LBE143-.LBB143
 5054 182a 24       		.uleb128 0x24
 5055 182b 96060000 		.4byte	0x696
 5056 182f 24       		.uleb128 0x24
 5057 1830 A1060000 		.4byte	0x6a1
 5058 1834 00       		.byte	0
 5059 1835 00       		.byte	0
 5060 1836 22       		.uleb128 0x22
 5061 1837 AD060000 		.4byte	0x6ad
 5062 183b 4A000000 		.4byte	.LBB144
 5063 183f 04000000 		.4byte	.LBE144-.LBB144
 5064 1843 01       		.byte	0x1
 5065 1844 D803     		.2byte	0x3d8
 5066 1846 54180000 		.4byte	0x1854
 5067 184a 33       		.uleb128 0x33
 5068 184b B9060000 		.4byte	0x6b9
 5069 184f F60E0000 		.4byte	.LLST86
 5070 1853 00       		.byte	0
 5071 1854 25       		.uleb128 0x25
 5072 1855 40000000 		.4byte	.LVL225
 5073 1859 F71A0000 		.4byte	0x1af7
ARM GAS  C:\Users\kateb\AppData\Local\Temp\cc9mC3XY.s 			page 118


 5074 185d 26       		.uleb128 0x26
 5075 185e 01       		.uleb128 0x1
 5076 185f 51       		.byte	0x51
 5077 1860 01       		.uleb128 0x1
 5078 1861 30       		.byte	0x30
 5079 1862 26       		.uleb128 0x26
 5080 1863 01       		.uleb128 0x1
 5081 1864 52       		.byte	0x52
 5082 1865 01       		.uleb128 0x1
 5083 1866 30       		.byte	0x30
 5084 1867 26       		.uleb128 0x26
 5085 1868 01       		.uleb128 0x1
 5086 1869 53       		.byte	0x53
 5087 186a 01       		.uleb128 0x1
 5088 186b 30       		.byte	0x30
 5089 186c 26       		.uleb128 0x26
 5090 186d 02       		.uleb128 0x2
 5091 186e 7D       		.byte	0x7d
 5092 186f 00       		.sleb128 0
 5093 1870 03       		.uleb128 0x3
 5094 1871 F3       		.byte	0xf3
 5095 1872 01       		.uleb128 0x1
 5096 1873 51       		.byte	0x51
 5097 1874 00       		.byte	0
 5098 1875 00       		.byte	0
 5099 1876 2F       		.uleb128 0x2f
 5100 1877 820A0000 		.4byte	.LASF176
 5101 187b 01       		.byte	0x1
 5102 187c DE03     		.2byte	0x3de
 5103 187e 5A050000 		.4byte	0x55a
 5104 1882 00000000 		.4byte	.LFB610
 5105 1886 52000000 		.4byte	.LFE610-.LFB610
 5106 188a 01       		.uleb128 0x1
 5107 188b 9C       		.byte	0x9c
 5108 188c 69190000 		.4byte	0x1969
 5109 1890 1C       		.uleb128 0x1c
 5110 1891 48010000 		.4byte	.LASF158
 5111 1895 01       		.byte	0x1
 5112 1896 DE03     		.2byte	0x3de
 5113 1898 E1050000 		.4byte	0x5e1
 5114 189c 090F0000 		.4byte	.LLST87
 5115 18a0 1C       		.uleb128 0x1c
 5116 18a1 9A000000 		.4byte	.LASF169
 5117 18a5 01       		.byte	0x1
 5118 18a6 DE03     		.2byte	0x3de
 5119 18a8 F8120000 		.4byte	0x12f8
 5120 18ac 3D0F0000 		.4byte	.LLST88
 5121 18b0 1D       		.uleb128 0x1d
 5122 18b1 84030000 		.4byte	.LASF129
 5123 18b5 01       		.byte	0x1
 5124 18b6 E003     		.2byte	0x3e0
 5125 18b8 F2070000 		.4byte	0x7f2
 5126 18bc 090F0000 		.4byte	.LLST87
 5127 18c0 1D       		.uleb128 0x1d
 5128 18c1 B6040000 		.4byte	.LASF145
 5129 18c5 01       		.byte	0x1
 5130 18c6 E103     		.2byte	0x3e1
ARM GAS  C:\Users\kateb\AppData\Local\Temp\cc9mC3XY.s 			page 119


 5131 18c8 5A050000 		.4byte	0x55a
 5132 18cc 830F0000 		.4byte	.LLST90
 5133 18d0 32       		.uleb128 0x32
 5134 18d1 180A0000 		.4byte	.LASF170
 5135 18d5 01       		.byte	0x1
 5136 18d6 E203     		.2byte	0x3e2
 5137 18d8 65050000 		.4byte	0x565
 5138 18dc 22       		.uleb128 0x22
 5139 18dd 6E060000 		.4byte	0x66e
 5140 18e1 02000000 		.4byte	.LBB146
 5141 18e5 12000000 		.4byte	.LBE146-.LBB146
 5142 18e9 01       		.byte	0x1
 5143 18ea E403     		.2byte	0x3e4
 5144 18ec 00190000 		.4byte	0x1900
 5145 18f0 23       		.uleb128 0x23
 5146 18f1 02000000 		.4byte	.LBB147
 5147 18f5 12000000 		.4byte	.LBE147-.LBB147
 5148 18f9 24       		.uleb128 0x24
 5149 18fa 7A060000 		.4byte	0x67a
 5150 18fe 00       		.byte	0
 5151 18ff 00       		.byte	0
 5152 1900 22       		.uleb128 0x22
 5153 1901 86060000 		.4byte	0x686
 5154 1905 1A000000 		.4byte	.LBB148
 5155 1909 14000000 		.4byte	.LBE148-.LBB148
 5156 190d 01       		.byte	0x1
 5157 190e E603     		.2byte	0x3e6
 5158 1910 29190000 		.4byte	0x1929
 5159 1914 23       		.uleb128 0x23
 5160 1915 1A000000 		.4byte	.LBB149
 5161 1919 14000000 		.4byte	.LBE149-.LBB149
 5162 191d 24       		.uleb128 0x24
 5163 191e 96060000 		.4byte	0x696
 5164 1922 24       		.uleb128 0x24
 5165 1923 A1060000 		.4byte	0x6a1
 5166 1927 00       		.byte	0
 5167 1928 00       		.byte	0
 5168 1929 22       		.uleb128 0x22
 5169 192a AD060000 		.4byte	0x6ad
 5170 192e 4A000000 		.4byte	.LBB150
 5171 1932 04000000 		.4byte	.LBE150-.LBB150
 5172 1936 01       		.byte	0x1
 5173 1937 F603     		.2byte	0x3f6
 5174 1939 47190000 		.4byte	0x1947
 5175 193d 33       		.uleb128 0x33
 5176 193e B9060000 		.4byte	0x6b9
 5177 1942 A20F0000 		.4byte	.LLST91
 5178 1946 00       		.byte	0
 5179 1947 25       		.uleb128 0x25
 5180 1948 40000000 		.4byte	.LVL234
 5181 194c F71A0000 		.4byte	0x1af7
 5182 1950 26       		.uleb128 0x26
 5183 1951 01       		.uleb128 0x1
 5184 1952 51       		.byte	0x51
 5185 1953 01       		.uleb128 0x1
 5186 1954 30       		.byte	0x30
 5187 1955 26       		.uleb128 0x26
ARM GAS  C:\Users\kateb\AppData\Local\Temp\cc9mC3XY.s 			page 120


 5188 1956 01       		.uleb128 0x1
 5189 1957 52       		.byte	0x52
 5190 1958 01       		.uleb128 0x1
 5191 1959 30       		.byte	0x30
 5192 195a 26       		.uleb128 0x26
 5193 195b 01       		.uleb128 0x1
 5194 195c 53       		.byte	0x53
 5195 195d 01       		.uleb128 0x1
 5196 195e 30       		.byte	0x30
 5197 195f 26       		.uleb128 0x26
 5198 1960 02       		.uleb128 0x2
 5199 1961 7D       		.byte	0x7d
 5200 1962 00       		.sleb128 0
 5201 1963 03       		.uleb128 0x3
 5202 1964 F3       		.byte	0xf3
 5203 1965 01       		.uleb128 0x1
 5204 1966 51       		.byte	0x51
 5205 1967 00       		.byte	0
 5206 1968 00       		.byte	0
 5207 1969 34       		.uleb128 0x34
 5208 196a AD090000 		.4byte	.LASF177
 5209 196e 0F       		.byte	0xf
 5210 196f EA07     		.2byte	0x7ea
 5211 1971 75190000 		.4byte	0x1975
 5212 1975 06       		.uleb128 0x6
 5213 1976 97000000 		.4byte	0x97
 5214 197a 10       		.uleb128 0x10
 5215 197b 52040000 		.4byte	0x452
 5216 197f 8A190000 		.4byte	0x198a
 5217 1983 11       		.uleb128 0x11
 5218 1984 BF000000 		.4byte	0xbf
 5219 1988 0B       		.byte	0xb
 5220 1989 00       		.byte	0
 5221 198a 34       		.uleb128 0x34
 5222 198b ED080000 		.4byte	.LASF178
 5223 198f 06       		.byte	0x6
 5224 1990 FC02     		.2byte	0x2fc
 5225 1992 96190000 		.4byte	0x1996
 5226 1996 12       		.uleb128 0x12
 5227 1997 7A190000 		.4byte	0x197a
 5228 199b 34       		.uleb128 0x34
 5229 199c 9C0B0000 		.4byte	.LASF179
 5230 19a0 0B       		.byte	0xb
 5231 19a1 2202     		.2byte	0x222
 5232 19a3 AC040000 		.4byte	0x4ac
 5233 19a7 10       		.uleb128 0x10
 5234 19a8 7B040000 		.4byte	0x47b
 5235 19ac B7190000 		.4byte	0x19b7
 5236 19b0 11       		.uleb128 0x11
 5237 19b1 BF000000 		.4byte	0xbf
 5238 19b5 00       		.byte	0
 5239 19b6 00       		.byte	0
 5240 19b7 34       		.uleb128 0x34
 5241 19b8 B20C0000 		.4byte	.LASF180
 5242 19bc 0B       		.byte	0xb
 5243 19bd 2C02     		.2byte	0x22c
 5244 19bf A7190000 		.4byte	0x19a7
ARM GAS  C:\Users\kateb\AppData\Local\Temp\cc9mC3XY.s 			page 121


 5245 19c3 10       		.uleb128 0x10
 5246 19c4 F4040000 		.4byte	0x4f4
 5247 19c8 D3190000 		.4byte	0x19d3
 5248 19cc 11       		.uleb128 0x11
 5249 19cd BF000000 		.4byte	0xbf
 5250 19d1 00       		.byte	0
 5251 19d2 00       		.byte	0
 5252 19d3 34       		.uleb128 0x34
 5253 19d4 79090000 		.4byte	.LASF181
 5254 19d8 0B       		.byte	0xb
 5255 19d9 2D02     		.2byte	0x22d
 5256 19db C3190000 		.4byte	0x19c3
 5257 19df 34       		.uleb128 0x34
 5258 19e0 340B0000 		.4byte	.LASF182
 5259 19e4 0B       		.byte	0xb
 5260 19e5 5202     		.2byte	0x252
 5261 19e7 8C000000 		.4byte	0x8c
 5262 19eb 35       		.uleb128 0x35
 5263 19ec DF020000 		.4byte	.LASF183
 5264 19f0 10       		.byte	0x10
 5265 19f1 87       		.byte	0x87
 5266 19f2 25030000 		.4byte	0x325
 5267 19f6 35       		.uleb128 0x35
 5268 19f7 78010000 		.4byte	.LASF184
 5269 19fb 11       		.byte	0x11
 5270 19fc 7C       		.byte	0x7c
 5271 19fd E2000000 		.4byte	0xe2
 5272 1a01 35       		.uleb128 0x35
 5273 1a02 39000000 		.4byte	.LASF185
 5274 1a06 11       		.byte	0x11
 5275 1a07 7D       		.byte	0x7d
 5276 1a08 0C1A0000 		.4byte	0x1a0c
 5277 1a0c 12       		.uleb128 0x12
 5278 1a0d 97010000 		.4byte	0x197
 5279 1a11 35       		.uleb128 0x35
 5280 1a12 C40C0000 		.4byte	.LASF186
 5281 1a16 12       		.byte	0x12
 5282 1a17 5E       		.byte	0x5e
 5283 1a18 49020000 		.4byte	0x249
 5284 1a1c 34       		.uleb128 0x34
 5285 1a1d 1F010000 		.4byte	.LASF187
 5286 1a21 0C       		.byte	0xc
 5287 1a22 6001     		.2byte	0x160
 5288 1a24 A2000000 		.4byte	0xa2
 5289 1a28 10       		.uleb128 0x10
 5290 1a29 381A0000 		.4byte	0x1a38
 5291 1a2d 381A0000 		.4byte	0x1a38
 5292 1a31 11       		.uleb128 0x11
 5293 1a32 BF000000 		.4byte	0xbf
 5294 1a36 00       		.byte	0
 5295 1a37 00       		.byte	0
 5296 1a38 12       		.uleb128 0x12
 5297 1a39 4F050000 		.4byte	0x54f
 5298 1a3d 34       		.uleb128 0x34
 5299 1a3e BE0A0000 		.4byte	.LASF188
 5300 1a42 0C       		.byte	0xc
 5301 1a43 6401     		.2byte	0x164
ARM GAS  C:\Users\kateb\AppData\Local\Temp\cc9mC3XY.s 			page 122


 5302 1a45 491A0000 		.4byte	0x1a49
 5303 1a49 12       		.uleb128 0x12
 5304 1a4a 281A0000 		.4byte	0x1a28
 5305 1a4e 36       		.uleb128 0x36
 5306 1a4f A10C0000 		.4byte	.LASF189
 5307 1a53 A10C0000 		.4byte	.LASF189
 5308 1a57 13       		.byte	0x13
 5309 1a58 19       		.byte	0x19
 5310 1a59 37       		.uleb128 0x37
 5311 1a5a A10C0000 		.4byte	.LASF189
 5312 1a5e A10C0000 		.4byte	.LASF189
 5313 1a62 37       		.uleb128 0x37
 5314 1a63 08030000 		.4byte	.LASF190
 5315 1a67 08030000 		.4byte	.LASF190
 5316 1a6b 36       		.uleb128 0x36
 5317 1a6c 26040000 		.4byte	.LASF191
 5318 1a70 26040000 		.4byte	.LASF191
 5319 1a74 14       		.byte	0x14
 5320 1a75 81       		.byte	0x81
 5321 1a76 36       		.uleb128 0x36
 5322 1a77 F3050000 		.4byte	.LASF192
 5323 1a7b F3050000 		.4byte	.LASF192
 5324 1a7f 14       		.byte	0x14
 5325 1a80 82       		.byte	0x82
 5326 1a81 38       		.uleb128 0x38
 5327 1a82 4F0E0000 		.4byte	.LASF193
 5328 1a86 4F0E0000 		.4byte	.LASF193
 5329 1a8a 0D       		.byte	0xd
 5330 1a8b C008     		.2byte	0x8c0
 5331 1a8d 36       		.uleb128 0x36
 5332 1a8e 3D0C0000 		.4byte	.LASF194
 5333 1a92 3D0C0000 		.4byte	.LASF194
 5334 1a96 02       		.byte	0x2
 5335 1a97 61       		.byte	0x61
 5336 1a98 38       		.uleb128 0x38
 5337 1a99 FC000000 		.4byte	.LASF195
 5338 1a9d FC000000 		.4byte	.LASF195
 5339 1aa1 0D       		.byte	0xd
 5340 1aa2 4708     		.2byte	0x847
 5341 1aa4 38       		.uleb128 0x38
 5342 1aa5 38050000 		.4byte	.LASF196
 5343 1aa9 38050000 		.4byte	.LASF196
 5344 1aad 0D       		.byte	0xd
 5345 1aae BB08     		.2byte	0x8bb
 5346 1ab0 36       		.uleb128 0x36
 5347 1ab1 AC0A0000 		.4byte	.LASF197
 5348 1ab5 AC0A0000 		.4byte	.LASF197
 5349 1ab9 02       		.byte	0x2
 5350 1aba 62       		.byte	0x62
 5351 1abb 38       		.uleb128 0x38
 5352 1abc C60D0000 		.4byte	.LASF198
 5353 1ac0 C60D0000 		.4byte	.LASF198
 5354 1ac4 0D       		.byte	0xd
 5355 1ac5 8D07     		.2byte	0x78d
 5356 1ac7 38       		.uleb128 0x38
 5357 1ac8 870B0000 		.4byte	.LASF199
 5358 1acc 870B0000 		.4byte	.LASF199
ARM GAS  C:\Users\kateb\AppData\Local\Temp\cc9mC3XY.s 			page 123


 5359 1ad0 0D       		.byte	0xd
 5360 1ad1 C608     		.2byte	0x8c6
 5361 1ad3 38       		.uleb128 0x38
 5362 1ad4 7B0C0000 		.4byte	.LASF200
 5363 1ad8 7B0C0000 		.4byte	.LASF200
 5364 1adc 0D       		.byte	0xd
 5365 1add F904     		.2byte	0x4f9
 5366 1adf 38       		.uleb128 0x38
 5367 1ae0 500C0000 		.4byte	.LASF201
 5368 1ae4 500C0000 		.4byte	.LASF201
 5369 1ae8 0D       		.byte	0xd
 5370 1ae9 E506     		.2byte	0x6e5
 5371 1aeb 38       		.uleb128 0x38
 5372 1aec DB0B0000 		.4byte	.LASF202
 5373 1af0 DB0B0000 		.4byte	.LASF202
 5374 1af4 0D       		.byte	0xd
 5375 1af5 2F05     		.2byte	0x52f
 5376 1af7 38       		.uleb128 0x38
 5377 1af8 CA000000 		.4byte	.LASF203
 5378 1afc CA000000 		.4byte	.LASF203
 5379 1b00 0D       		.byte	0xd
 5380 1b01 4007     		.2byte	0x740
 5381 1b03 00       		.byte	0
 5382              		.section	.debug_abbrev,"",%progbits
 5383              	.Ldebug_abbrev0:
 5384 0000 01       		.uleb128 0x1
 5385 0001 11       		.uleb128 0x11
 5386 0002 01       		.byte	0x1
 5387 0003 25       		.uleb128 0x25
 5388 0004 0E       		.uleb128 0xe
 5389 0005 13       		.uleb128 0x13
 5390 0006 0B       		.uleb128 0xb
 5391 0007 03       		.uleb128 0x3
 5392 0008 0E       		.uleb128 0xe
 5393 0009 1B       		.uleb128 0x1b
 5394 000a 0E       		.uleb128 0xe
 5395 000b 55       		.uleb128 0x55
 5396 000c 17       		.uleb128 0x17
 5397 000d 11       		.uleb128 0x11
 5398 000e 01       		.uleb128 0x1
 5399 000f 10       		.uleb128 0x10
 5400 0010 17       		.uleb128 0x17
 5401 0011 00       		.byte	0
 5402 0012 00       		.byte	0
 5403 0013 02       		.uleb128 0x2
 5404 0014 24       		.uleb128 0x24
 5405 0015 00       		.byte	0
 5406 0016 0B       		.uleb128 0xb
 5407 0017 0B       		.uleb128 0xb
 5408 0018 3E       		.uleb128 0x3e
 5409 0019 0B       		.uleb128 0xb
 5410 001a 03       		.uleb128 0x3
 5411 001b 0E       		.uleb128 0xe
 5412 001c 00       		.byte	0
 5413 001d 00       		.byte	0
 5414 001e 03       		.uleb128 0x3
 5415 001f 16       		.uleb128 0x16
ARM GAS  C:\Users\kateb\AppData\Local\Temp\cc9mC3XY.s 			page 124


 5416 0020 00       		.byte	0
 5417 0021 03       		.uleb128 0x3
 5418 0022 0E       		.uleb128 0xe
 5419 0023 3A       		.uleb128 0x3a
 5420 0024 0B       		.uleb128 0xb
 5421 0025 3B       		.uleb128 0x3b
 5422 0026 0B       		.uleb128 0xb
 5423 0027 49       		.uleb128 0x49
 5424 0028 13       		.uleb128 0x13
 5425 0029 00       		.byte	0
 5426 002a 00       		.byte	0
 5427 002b 04       		.uleb128 0x4
 5428 002c 24       		.uleb128 0x24
 5429 002d 00       		.byte	0
 5430 002e 0B       		.uleb128 0xb
 5431 002f 0B       		.uleb128 0xb
 5432 0030 3E       		.uleb128 0x3e
 5433 0031 0B       		.uleb128 0xb
 5434 0032 03       		.uleb128 0x3
 5435 0033 08       		.uleb128 0x8
 5436 0034 00       		.byte	0
 5437 0035 00       		.byte	0
 5438 0036 05       		.uleb128 0x5
 5439 0037 0F       		.uleb128 0xf
 5440 0038 00       		.byte	0
 5441 0039 0B       		.uleb128 0xb
 5442 003a 0B       		.uleb128 0xb
 5443 003b 00       		.byte	0
 5444 003c 00       		.byte	0
 5445 003d 06       		.uleb128 0x6
 5446 003e 35       		.uleb128 0x35
 5447 003f 00       		.byte	0
 5448 0040 49       		.uleb128 0x49
 5449 0041 13       		.uleb128 0x13
 5450 0042 00       		.byte	0
 5451 0043 00       		.byte	0
 5452 0044 07       		.uleb128 0x7
 5453 0045 04       		.uleb128 0x4
 5454 0046 01       		.byte	0x1
 5455 0047 0B       		.uleb128 0xb
 5456 0048 0B       		.uleb128 0xb
 5457 0049 49       		.uleb128 0x49
 5458 004a 13       		.uleb128 0x13
 5459 004b 3A       		.uleb128 0x3a
 5460 004c 0B       		.uleb128 0xb
 5461 004d 3B       		.uleb128 0x3b
 5462 004e 05       		.uleb128 0x5
 5463 004f 01       		.uleb128 0x1
 5464 0050 13       		.uleb128 0x13
 5465 0051 00       		.byte	0
 5466 0052 00       		.byte	0
 5467 0053 08       		.uleb128 0x8
 5468 0054 28       		.uleb128 0x28
 5469 0055 00       		.byte	0
 5470 0056 03       		.uleb128 0x3
 5471 0057 0E       		.uleb128 0xe
 5472 0058 1C       		.uleb128 0x1c
ARM GAS  C:\Users\kateb\AppData\Local\Temp\cc9mC3XY.s 			page 125


 5473 0059 0B       		.uleb128 0xb
 5474 005a 00       		.byte	0
 5475 005b 00       		.byte	0
 5476 005c 09       		.uleb128 0x9
 5477 005d 16       		.uleb128 0x16
 5478 005e 00       		.byte	0
 5479 005f 03       		.uleb128 0x3
 5480 0060 0E       		.uleb128 0xe
 5481 0061 3A       		.uleb128 0x3a
 5482 0062 0B       		.uleb128 0xb
 5483 0063 3B       		.uleb128 0x3b
 5484 0064 05       		.uleb128 0x5
 5485 0065 49       		.uleb128 0x49
 5486 0066 13       		.uleb128 0x13
 5487 0067 00       		.byte	0
 5488 0068 00       		.byte	0
 5489 0069 0A       		.uleb128 0xa
 5490 006a 13       		.uleb128 0x13
 5491 006b 01       		.byte	0x1
 5492 006c 0B       		.uleb128 0xb
 5493 006d 0B       		.uleb128 0xb
 5494 006e 3A       		.uleb128 0x3a
 5495 006f 0B       		.uleb128 0xb
 5496 0070 3B       		.uleb128 0x3b
 5497 0071 05       		.uleb128 0x5
 5498 0072 01       		.uleb128 0x1
 5499 0073 13       		.uleb128 0x13
 5500 0074 00       		.byte	0
 5501 0075 00       		.byte	0
 5502 0076 0B       		.uleb128 0xb
 5503 0077 0D       		.uleb128 0xd
 5504 0078 00       		.byte	0
 5505 0079 03       		.uleb128 0x3
 5506 007a 0E       		.uleb128 0xe
 5507 007b 3A       		.uleb128 0x3a
 5508 007c 0B       		.uleb128 0xb
 5509 007d 3B       		.uleb128 0x3b
 5510 007e 05       		.uleb128 0x5
 5511 007f 49       		.uleb128 0x49
 5512 0080 13       		.uleb128 0x13
 5513 0081 38       		.uleb128 0x38
 5514 0082 0B       		.uleb128 0xb
 5515 0083 00       		.byte	0
 5516 0084 00       		.byte	0
 5517 0085 0C       		.uleb128 0xc
 5518 0086 0F       		.uleb128 0xf
 5519 0087 00       		.byte	0
 5520 0088 0B       		.uleb128 0xb
 5521 0089 0B       		.uleb128 0xb
 5522 008a 49       		.uleb128 0x49
 5523 008b 13       		.uleb128 0x13
 5524 008c 00       		.byte	0
 5525 008d 00       		.byte	0
 5526 008e 0D       		.uleb128 0xd
 5527 008f 15       		.uleb128 0x15
 5528 0090 01       		.byte	0x1
 5529 0091 27       		.uleb128 0x27
ARM GAS  C:\Users\kateb\AppData\Local\Temp\cc9mC3XY.s 			page 126


 5530 0092 19       		.uleb128 0x19
 5531 0093 01       		.uleb128 0x1
 5532 0094 13       		.uleb128 0x13
 5533 0095 00       		.byte	0
 5534 0096 00       		.byte	0
 5535 0097 0E       		.uleb128 0xe
 5536 0098 05       		.uleb128 0x5
 5537 0099 00       		.byte	0
 5538 009a 49       		.uleb128 0x49
 5539 009b 13       		.uleb128 0x13
 5540 009c 00       		.byte	0
 5541 009d 00       		.byte	0
 5542 009e 0F       		.uleb128 0xf
 5543 009f 13       		.uleb128 0x13
 5544 00a0 01       		.byte	0x1
 5545 00a1 03       		.uleb128 0x3
 5546 00a2 0E       		.uleb128 0xe
 5547 00a3 0B       		.uleb128 0xb
 5548 00a4 0B       		.uleb128 0xb
 5549 00a5 3A       		.uleb128 0x3a
 5550 00a6 0B       		.uleb128 0xb
 5551 00a7 3B       		.uleb128 0x3b
 5552 00a8 05       		.uleb128 0x5
 5553 00a9 01       		.uleb128 0x1
 5554 00aa 13       		.uleb128 0x13
 5555 00ab 00       		.byte	0
 5556 00ac 00       		.byte	0
 5557 00ad 10       		.uleb128 0x10
 5558 00ae 01       		.uleb128 0x1
 5559 00af 01       		.byte	0x1
 5560 00b0 49       		.uleb128 0x49
 5561 00b1 13       		.uleb128 0x13
 5562 00b2 01       		.uleb128 0x1
 5563 00b3 13       		.uleb128 0x13
 5564 00b4 00       		.byte	0
 5565 00b5 00       		.byte	0
 5566 00b6 11       		.uleb128 0x11
 5567 00b7 21       		.uleb128 0x21
 5568 00b8 00       		.byte	0
 5569 00b9 49       		.uleb128 0x49
 5570 00ba 13       		.uleb128 0x13
 5571 00bb 2F       		.uleb128 0x2f
 5572 00bc 0B       		.uleb128 0xb
 5573 00bd 00       		.byte	0
 5574 00be 00       		.byte	0
 5575 00bf 12       		.uleb128 0x12
 5576 00c0 26       		.uleb128 0x26
 5577 00c1 00       		.byte	0
 5578 00c2 49       		.uleb128 0x49
 5579 00c3 13       		.uleb128 0x13
 5580 00c4 00       		.byte	0
 5581 00c5 00       		.byte	0
 5582 00c6 13       		.uleb128 0x13
 5583 00c7 04       		.uleb128 0x4
 5584 00c8 01       		.byte	0x1
 5585 00c9 0B       		.uleb128 0xb
 5586 00ca 0B       		.uleb128 0xb
ARM GAS  C:\Users\kateb\AppData\Local\Temp\cc9mC3XY.s 			page 127


 5587 00cb 49       		.uleb128 0x49
 5588 00cc 13       		.uleb128 0x13
 5589 00cd 3A       		.uleb128 0x3a
 5590 00ce 0B       		.uleb128 0xb
 5591 00cf 3B       		.uleb128 0x3b
 5592 00d0 0B       		.uleb128 0xb
 5593 00d1 01       		.uleb128 0x1
 5594 00d2 13       		.uleb128 0x13
 5595 00d3 00       		.byte	0
 5596 00d4 00       		.byte	0
 5597 00d5 14       		.uleb128 0x14
 5598 00d6 13       		.uleb128 0x13
 5599 00d7 01       		.byte	0x1
 5600 00d8 0B       		.uleb128 0xb
 5601 00d9 0B       		.uleb128 0xb
 5602 00da 3A       		.uleb128 0x3a
 5603 00db 0B       		.uleb128 0xb
 5604 00dc 3B       		.uleb128 0x3b
 5605 00dd 0B       		.uleb128 0xb
 5606 00de 01       		.uleb128 0x1
 5607 00df 13       		.uleb128 0x13
 5608 00e0 00       		.byte	0
 5609 00e1 00       		.byte	0
 5610 00e2 15       		.uleb128 0x15
 5611 00e3 0D       		.uleb128 0xd
 5612 00e4 00       		.byte	0
 5613 00e5 03       		.uleb128 0x3
 5614 00e6 0E       		.uleb128 0xe
 5615 00e7 3A       		.uleb128 0x3a
 5616 00e8 0B       		.uleb128 0xb
 5617 00e9 3B       		.uleb128 0x3b
 5618 00ea 0B       		.uleb128 0xb
 5619 00eb 49       		.uleb128 0x49
 5620 00ec 13       		.uleb128 0x13
 5621 00ed 38       		.uleb128 0x38
 5622 00ee 0B       		.uleb128 0xb
 5623 00ef 00       		.byte	0
 5624 00f0 00       		.byte	0
 5625 00f1 16       		.uleb128 0x16
 5626 00f2 13       		.uleb128 0x13
 5627 00f3 01       		.byte	0x1
 5628 00f4 03       		.uleb128 0x3
 5629 00f5 0E       		.uleb128 0xe
 5630 00f6 0B       		.uleb128 0xb
 5631 00f7 0B       		.uleb128 0xb
 5632 00f8 3A       		.uleb128 0x3a
 5633 00f9 0B       		.uleb128 0xb
 5634 00fa 3B       		.uleb128 0x3b
 5635 00fb 0B       		.uleb128 0xb
 5636 00fc 01       		.uleb128 0x1
 5637 00fd 13       		.uleb128 0x13
 5638 00fe 00       		.byte	0
 5639 00ff 00       		.byte	0
 5640 0100 17       		.uleb128 0x17
 5641 0101 2E       		.uleb128 0x2e
 5642 0102 01       		.byte	0x1
 5643 0103 03       		.uleb128 0x3
ARM GAS  C:\Users\kateb\AppData\Local\Temp\cc9mC3XY.s 			page 128


 5644 0104 0E       		.uleb128 0xe
 5645 0105 3A       		.uleb128 0x3a
 5646 0106 0B       		.uleb128 0xb
 5647 0107 3B       		.uleb128 0x3b
 5648 0108 0B       		.uleb128 0xb
 5649 0109 27       		.uleb128 0x27
 5650 010a 19       		.uleb128 0x19
 5651 010b 20       		.uleb128 0x20
 5652 010c 0B       		.uleb128 0xb
 5653 010d 01       		.uleb128 0x1
 5654 010e 13       		.uleb128 0x13
 5655 010f 00       		.byte	0
 5656 0110 00       		.byte	0
 5657 0111 18       		.uleb128 0x18
 5658 0112 34       		.uleb128 0x34
 5659 0113 00       		.byte	0
 5660 0114 03       		.uleb128 0x3
 5661 0115 0E       		.uleb128 0xe
 5662 0116 3A       		.uleb128 0x3a
 5663 0117 0B       		.uleb128 0xb
 5664 0118 3B       		.uleb128 0x3b
 5665 0119 0B       		.uleb128 0xb
 5666 011a 49       		.uleb128 0x49
 5667 011b 13       		.uleb128 0x13
 5668 011c 00       		.byte	0
 5669 011d 00       		.byte	0
 5670 011e 19       		.uleb128 0x19
 5671 011f 2E       		.uleb128 0x2e
 5672 0120 01       		.byte	0x1
 5673 0121 03       		.uleb128 0x3
 5674 0122 0E       		.uleb128 0xe
 5675 0123 3A       		.uleb128 0x3a
 5676 0124 0B       		.uleb128 0xb
 5677 0125 3B       		.uleb128 0x3b
 5678 0126 0B       		.uleb128 0xb
 5679 0127 27       		.uleb128 0x27
 5680 0128 19       		.uleb128 0x19
 5681 0129 49       		.uleb128 0x49
 5682 012a 13       		.uleb128 0x13
 5683 012b 20       		.uleb128 0x20
 5684 012c 0B       		.uleb128 0xb
 5685 012d 01       		.uleb128 0x1
 5686 012e 13       		.uleb128 0x13
 5687 012f 00       		.byte	0
 5688 0130 00       		.byte	0
 5689 0131 1A       		.uleb128 0x1a
 5690 0132 05       		.uleb128 0x5
 5691 0133 00       		.byte	0
 5692 0134 03       		.uleb128 0x3
 5693 0135 0E       		.uleb128 0xe
 5694 0136 3A       		.uleb128 0x3a
 5695 0137 0B       		.uleb128 0xb
 5696 0138 3B       		.uleb128 0x3b
 5697 0139 0B       		.uleb128 0xb
 5698 013a 49       		.uleb128 0x49
 5699 013b 13       		.uleb128 0x13
 5700 013c 00       		.byte	0
ARM GAS  C:\Users\kateb\AppData\Local\Temp\cc9mC3XY.s 			page 129


 5701 013d 00       		.byte	0
 5702 013e 1B       		.uleb128 0x1b
 5703 013f 2E       		.uleb128 0x2e
 5704 0140 01       		.byte	0x1
 5705 0141 03       		.uleb128 0x3
 5706 0142 0E       		.uleb128 0xe
 5707 0143 3A       		.uleb128 0x3a
 5708 0144 0B       		.uleb128 0xb
 5709 0145 3B       		.uleb128 0x3b
 5710 0146 05       		.uleb128 0x5
 5711 0147 27       		.uleb128 0x27
 5712 0148 19       		.uleb128 0x19
 5713 0149 49       		.uleb128 0x49
 5714 014a 13       		.uleb128 0x13
 5715 014b 11       		.uleb128 0x11
 5716 014c 01       		.uleb128 0x1
 5717 014d 12       		.uleb128 0x12
 5718 014e 06       		.uleb128 0x6
 5719 014f 40       		.uleb128 0x40
 5720 0150 18       		.uleb128 0x18
 5721 0151 9742     		.uleb128 0x2117
 5722 0153 19       		.uleb128 0x19
 5723 0154 01       		.uleb128 0x1
 5724 0155 13       		.uleb128 0x13
 5725 0156 00       		.byte	0
 5726 0157 00       		.byte	0
 5727 0158 1C       		.uleb128 0x1c
 5728 0159 05       		.uleb128 0x5
 5729 015a 00       		.byte	0
 5730 015b 03       		.uleb128 0x3
 5731 015c 0E       		.uleb128 0xe
 5732 015d 3A       		.uleb128 0x3a
 5733 015e 0B       		.uleb128 0xb
 5734 015f 3B       		.uleb128 0x3b
 5735 0160 05       		.uleb128 0x5
 5736 0161 49       		.uleb128 0x49
 5737 0162 13       		.uleb128 0x13
 5738 0163 02       		.uleb128 0x2
 5739 0164 17       		.uleb128 0x17
 5740 0165 00       		.byte	0
 5741 0166 00       		.byte	0
 5742 0167 1D       		.uleb128 0x1d
 5743 0168 34       		.uleb128 0x34
 5744 0169 00       		.byte	0
 5745 016a 03       		.uleb128 0x3
 5746 016b 0E       		.uleb128 0xe
 5747 016c 3A       		.uleb128 0x3a
 5748 016d 0B       		.uleb128 0xb
 5749 016e 3B       		.uleb128 0x3b
 5750 016f 05       		.uleb128 0x5
 5751 0170 49       		.uleb128 0x49
 5752 0171 13       		.uleb128 0x13
 5753 0172 02       		.uleb128 0x2
 5754 0173 17       		.uleb128 0x17
 5755 0174 00       		.byte	0
 5756 0175 00       		.byte	0
 5757 0176 1E       		.uleb128 0x1e
ARM GAS  C:\Users\kateb\AppData\Local\Temp\cc9mC3XY.s 			page 130


 5758 0177 2E       		.uleb128 0x2e
 5759 0178 01       		.byte	0x1
 5760 0179 03       		.uleb128 0x3
 5761 017a 0E       		.uleb128 0xe
 5762 017b 3A       		.uleb128 0x3a
 5763 017c 0B       		.uleb128 0xb
 5764 017d 3B       		.uleb128 0x3b
 5765 017e 05       		.uleb128 0x5
 5766 017f 27       		.uleb128 0x27
 5767 0180 19       		.uleb128 0x19
 5768 0181 11       		.uleb128 0x11
 5769 0182 01       		.uleb128 0x1
 5770 0183 12       		.uleb128 0x12
 5771 0184 06       		.uleb128 0x6
 5772 0185 40       		.uleb128 0x40
 5773 0186 18       		.uleb128 0x18
 5774 0187 9742     		.uleb128 0x2117
 5775 0189 19       		.uleb128 0x19
 5776 018a 01       		.uleb128 0x1
 5777 018b 13       		.uleb128 0x13
 5778 018c 00       		.byte	0
 5779 018d 00       		.byte	0
 5780 018e 1F       		.uleb128 0x1f
 5781 018f 05       		.uleb128 0x5
 5782 0190 00       		.byte	0
 5783 0191 03       		.uleb128 0x3
 5784 0192 0E       		.uleb128 0xe
 5785 0193 3A       		.uleb128 0x3a
 5786 0194 0B       		.uleb128 0xb
 5787 0195 3B       		.uleb128 0x3b
 5788 0196 05       		.uleb128 0x5
 5789 0197 49       		.uleb128 0x49
 5790 0198 13       		.uleb128 0x13
 5791 0199 02       		.uleb128 0x2
 5792 019a 18       		.uleb128 0x18
 5793 019b 00       		.byte	0
 5794 019c 00       		.byte	0
 5795 019d 20       		.uleb128 0x20
 5796 019e 0B       		.uleb128 0xb
 5797 019f 01       		.byte	0x1
 5798 01a0 11       		.uleb128 0x11
 5799 01a1 01       		.uleb128 0x1
 5800 01a2 12       		.uleb128 0x12
 5801 01a3 06       		.uleb128 0x6
 5802 01a4 01       		.uleb128 0x1
 5803 01a5 13       		.uleb128 0x13
 5804 01a6 00       		.byte	0
 5805 01a7 00       		.byte	0
 5806 01a8 21       		.uleb128 0x21
 5807 01a9 34       		.uleb128 0x34
 5808 01aa 00       		.byte	0
 5809 01ab 03       		.uleb128 0x3
 5810 01ac 0E       		.uleb128 0xe
 5811 01ad 3A       		.uleb128 0x3a
 5812 01ae 0B       		.uleb128 0xb
 5813 01af 3B       		.uleb128 0x3b
 5814 01b0 05       		.uleb128 0x5
ARM GAS  C:\Users\kateb\AppData\Local\Temp\cc9mC3XY.s 			page 131


 5815 01b1 49       		.uleb128 0x49
 5816 01b2 13       		.uleb128 0x13
 5817 01b3 1C       		.uleb128 0x1c
 5818 01b4 0B       		.uleb128 0xb
 5819 01b5 00       		.byte	0
 5820 01b6 00       		.byte	0
 5821 01b7 22       		.uleb128 0x22
 5822 01b8 1D       		.uleb128 0x1d
 5823 01b9 01       		.byte	0x1
 5824 01ba 31       		.uleb128 0x31
 5825 01bb 13       		.uleb128 0x13
 5826 01bc 11       		.uleb128 0x11
 5827 01bd 01       		.uleb128 0x1
 5828 01be 12       		.uleb128 0x12
 5829 01bf 06       		.uleb128 0x6
 5830 01c0 58       		.uleb128 0x58
 5831 01c1 0B       		.uleb128 0xb
 5832 01c2 59       		.uleb128 0x59
 5833 01c3 05       		.uleb128 0x5
 5834 01c4 01       		.uleb128 0x1
 5835 01c5 13       		.uleb128 0x13
 5836 01c6 00       		.byte	0
 5837 01c7 00       		.byte	0
 5838 01c8 23       		.uleb128 0x23
 5839 01c9 0B       		.uleb128 0xb
 5840 01ca 01       		.byte	0x1
 5841 01cb 11       		.uleb128 0x11
 5842 01cc 01       		.uleb128 0x1
 5843 01cd 12       		.uleb128 0x12
 5844 01ce 06       		.uleb128 0x6
 5845 01cf 00       		.byte	0
 5846 01d0 00       		.byte	0
 5847 01d1 24       		.uleb128 0x24
 5848 01d2 34       		.uleb128 0x34
 5849 01d3 00       		.byte	0
 5850 01d4 31       		.uleb128 0x31
 5851 01d5 13       		.uleb128 0x13
 5852 01d6 00       		.byte	0
 5853 01d7 00       		.byte	0
 5854 01d8 25       		.uleb128 0x25
 5855 01d9 898201   		.uleb128 0x4109
 5856 01dc 01       		.byte	0x1
 5857 01dd 11       		.uleb128 0x11
 5858 01de 01       		.uleb128 0x1
 5859 01df 31       		.uleb128 0x31
 5860 01e0 13       		.uleb128 0x13
 5861 01e1 00       		.byte	0
 5862 01e2 00       		.byte	0
 5863 01e3 26       		.uleb128 0x26
 5864 01e4 8A8201   		.uleb128 0x410a
 5865 01e7 00       		.byte	0
 5866 01e8 02       		.uleb128 0x2
 5867 01e9 18       		.uleb128 0x18
 5868 01ea 9142     		.uleb128 0x2111
 5869 01ec 18       		.uleb128 0x18
 5870 01ed 00       		.byte	0
 5871 01ee 00       		.byte	0
ARM GAS  C:\Users\kateb\AppData\Local\Temp\cc9mC3XY.s 			page 132


 5872 01ef 27       		.uleb128 0x27
 5873 01f0 34       		.uleb128 0x34
 5874 01f1 00       		.byte	0
 5875 01f2 03       		.uleb128 0x3
 5876 01f3 0E       		.uleb128 0xe
 5877 01f4 3A       		.uleb128 0x3a
 5878 01f5 0B       		.uleb128 0xb
 5879 01f6 3B       		.uleb128 0x3b
 5880 01f7 05       		.uleb128 0x5
 5881 01f8 49       		.uleb128 0x49
 5882 01f9 13       		.uleb128 0x13
 5883 01fa 02       		.uleb128 0x2
 5884 01fb 18       		.uleb128 0x18
 5885 01fc 00       		.byte	0
 5886 01fd 00       		.byte	0
 5887 01fe 28       		.uleb128 0x28
 5888 01ff 898201   		.uleb128 0x4109
 5889 0202 01       		.byte	0x1
 5890 0203 11       		.uleb128 0x11
 5891 0204 01       		.uleb128 0x1
 5892 0205 31       		.uleb128 0x31
 5893 0206 13       		.uleb128 0x13
 5894 0207 01       		.uleb128 0x1
 5895 0208 13       		.uleb128 0x13
 5896 0209 00       		.byte	0
 5897 020a 00       		.byte	0
 5898 020b 29       		.uleb128 0x29
 5899 020c 26       		.uleb128 0x26
 5900 020d 00       		.byte	0
 5901 020e 00       		.byte	0
 5902 020f 00       		.byte	0
 5903 0210 2A       		.uleb128 0x2a
 5904 0211 2E       		.uleb128 0x2e
 5905 0212 01       		.byte	0x1
 5906 0213 3F       		.uleb128 0x3f
 5907 0214 19       		.uleb128 0x19
 5908 0215 03       		.uleb128 0x3
 5909 0216 0E       		.uleb128 0xe
 5910 0217 3A       		.uleb128 0x3a
 5911 0218 0B       		.uleb128 0xb
 5912 0219 3B       		.uleb128 0x3b
 5913 021a 0B       		.uleb128 0xb
 5914 021b 27       		.uleb128 0x27
 5915 021c 19       		.uleb128 0x19
 5916 021d 49       		.uleb128 0x49
 5917 021e 13       		.uleb128 0x13
 5918 021f 11       		.uleb128 0x11
 5919 0220 01       		.uleb128 0x1
 5920 0221 12       		.uleb128 0x12
 5921 0222 06       		.uleb128 0x6
 5922 0223 40       		.uleb128 0x40
 5923 0224 18       		.uleb128 0x18
 5924 0225 9742     		.uleb128 0x2117
 5925 0227 19       		.uleb128 0x19
 5926 0228 01       		.uleb128 0x1
 5927 0229 13       		.uleb128 0x13
 5928 022a 00       		.byte	0
ARM GAS  C:\Users\kateb\AppData\Local\Temp\cc9mC3XY.s 			page 133


 5929 022b 00       		.byte	0
 5930 022c 2B       		.uleb128 0x2b
 5931 022d 05       		.uleb128 0x5
 5932 022e 00       		.byte	0
 5933 022f 03       		.uleb128 0x3
 5934 0230 0E       		.uleb128 0xe
 5935 0231 3A       		.uleb128 0x3a
 5936 0232 0B       		.uleb128 0xb
 5937 0233 3B       		.uleb128 0x3b
 5938 0234 0B       		.uleb128 0xb
 5939 0235 49       		.uleb128 0x49
 5940 0236 13       		.uleb128 0x13
 5941 0237 02       		.uleb128 0x2
 5942 0238 17       		.uleb128 0x17
 5943 0239 00       		.byte	0
 5944 023a 00       		.byte	0
 5945 023b 2C       		.uleb128 0x2c
 5946 023c 34       		.uleb128 0x34
 5947 023d 00       		.byte	0
 5948 023e 03       		.uleb128 0x3
 5949 023f 0E       		.uleb128 0xe
 5950 0240 3A       		.uleb128 0x3a
 5951 0241 0B       		.uleb128 0xb
 5952 0242 3B       		.uleb128 0x3b
 5953 0243 0B       		.uleb128 0xb
 5954 0244 49       		.uleb128 0x49
 5955 0245 13       		.uleb128 0x13
 5956 0246 02       		.uleb128 0x2
 5957 0247 17       		.uleb128 0x17
 5958 0248 00       		.byte	0
 5959 0249 00       		.byte	0
 5960 024a 2D       		.uleb128 0x2d
 5961 024b 1D       		.uleb128 0x1d
 5962 024c 01       		.byte	0x1
 5963 024d 31       		.uleb128 0x31
 5964 024e 13       		.uleb128 0x13
 5965 024f 11       		.uleb128 0x11
 5966 0250 01       		.uleb128 0x1
 5967 0251 12       		.uleb128 0x12
 5968 0252 06       		.uleb128 0x6
 5969 0253 58       		.uleb128 0x58
 5970 0254 0B       		.uleb128 0xb
 5971 0255 59       		.uleb128 0x59
 5972 0256 0B       		.uleb128 0xb
 5973 0257 01       		.uleb128 0x1
 5974 0258 13       		.uleb128 0x13
 5975 0259 00       		.byte	0
 5976 025a 00       		.byte	0
 5977 025b 2E       		.uleb128 0x2e
 5978 025c 2E       		.uleb128 0x2e
 5979 025d 01       		.byte	0x1
 5980 025e 3F       		.uleb128 0x3f
 5981 025f 19       		.uleb128 0x19
 5982 0260 03       		.uleb128 0x3
 5983 0261 0E       		.uleb128 0xe
 5984 0262 3A       		.uleb128 0x3a
 5985 0263 0B       		.uleb128 0xb
ARM GAS  C:\Users\kateb\AppData\Local\Temp\cc9mC3XY.s 			page 134


 5986 0264 3B       		.uleb128 0x3b
 5987 0265 05       		.uleb128 0x5
 5988 0266 27       		.uleb128 0x27
 5989 0267 19       		.uleb128 0x19
 5990 0268 11       		.uleb128 0x11
 5991 0269 01       		.uleb128 0x1
 5992 026a 12       		.uleb128 0x12
 5993 026b 06       		.uleb128 0x6
 5994 026c 40       		.uleb128 0x40
 5995 026d 18       		.uleb128 0x18
 5996 026e 9742     		.uleb128 0x2117
 5997 0270 19       		.uleb128 0x19
 5998 0271 01       		.uleb128 0x1
 5999 0272 13       		.uleb128 0x13
 6000 0273 00       		.byte	0
 6001 0274 00       		.byte	0
 6002 0275 2F       		.uleb128 0x2f
 6003 0276 2E       		.uleb128 0x2e
 6004 0277 01       		.byte	0x1
 6005 0278 3F       		.uleb128 0x3f
 6006 0279 19       		.uleb128 0x19
 6007 027a 03       		.uleb128 0x3
 6008 027b 0E       		.uleb128 0xe
 6009 027c 3A       		.uleb128 0x3a
 6010 027d 0B       		.uleb128 0xb
 6011 027e 3B       		.uleb128 0x3b
 6012 027f 05       		.uleb128 0x5
 6013 0280 27       		.uleb128 0x27
 6014 0281 19       		.uleb128 0x19
 6015 0282 49       		.uleb128 0x49
 6016 0283 13       		.uleb128 0x13
 6017 0284 11       		.uleb128 0x11
 6018 0285 01       		.uleb128 0x1
 6019 0286 12       		.uleb128 0x12
 6020 0287 06       		.uleb128 0x6
 6021 0288 40       		.uleb128 0x40
 6022 0289 18       		.uleb128 0x18
 6023 028a 9742     		.uleb128 0x2117
 6024 028c 19       		.uleb128 0x19
 6025 028d 01       		.uleb128 0x1
 6026 028e 13       		.uleb128 0x13
 6027 028f 00       		.byte	0
 6028 0290 00       		.byte	0
 6029 0291 30       		.uleb128 0x30
 6030 0292 1D       		.uleb128 0x1d
 6031 0293 01       		.byte	0x1
 6032 0294 31       		.uleb128 0x31
 6033 0295 13       		.uleb128 0x13
 6034 0296 11       		.uleb128 0x11
 6035 0297 01       		.uleb128 0x1
 6036 0298 12       		.uleb128 0x12
 6037 0299 06       		.uleb128 0x6
 6038 029a 58       		.uleb128 0x58
 6039 029b 0B       		.uleb128 0xb
 6040 029c 59       		.uleb128 0x59
 6041 029d 05       		.uleb128 0x5
 6042 029e 00       		.byte	0
ARM GAS  C:\Users\kateb\AppData\Local\Temp\cc9mC3XY.s 			page 135


 6043 029f 00       		.byte	0
 6044 02a0 31       		.uleb128 0x31
 6045 02a1 898201   		.uleb128 0x4109
 6046 02a4 00       		.byte	0
 6047 02a5 11       		.uleb128 0x11
 6048 02a6 01       		.uleb128 0x1
 6049 02a7 31       		.uleb128 0x31
 6050 02a8 13       		.uleb128 0x13
 6051 02a9 00       		.byte	0
 6052 02aa 00       		.byte	0
 6053 02ab 32       		.uleb128 0x32
 6054 02ac 34       		.uleb128 0x34
 6055 02ad 00       		.byte	0
 6056 02ae 03       		.uleb128 0x3
 6057 02af 0E       		.uleb128 0xe
 6058 02b0 3A       		.uleb128 0x3a
 6059 02b1 0B       		.uleb128 0xb
 6060 02b2 3B       		.uleb128 0x3b
 6061 02b3 05       		.uleb128 0x5
 6062 02b4 49       		.uleb128 0x49
 6063 02b5 13       		.uleb128 0x13
 6064 02b6 00       		.byte	0
 6065 02b7 00       		.byte	0
 6066 02b8 33       		.uleb128 0x33
 6067 02b9 05       		.uleb128 0x5
 6068 02ba 00       		.byte	0
 6069 02bb 31       		.uleb128 0x31
 6070 02bc 13       		.uleb128 0x13
 6071 02bd 02       		.uleb128 0x2
 6072 02be 17       		.uleb128 0x17
 6073 02bf 00       		.byte	0
 6074 02c0 00       		.byte	0
 6075 02c1 34       		.uleb128 0x34
 6076 02c2 34       		.uleb128 0x34
 6077 02c3 00       		.byte	0
 6078 02c4 03       		.uleb128 0x3
 6079 02c5 0E       		.uleb128 0xe
 6080 02c6 3A       		.uleb128 0x3a
 6081 02c7 0B       		.uleb128 0xb
 6082 02c8 3B       		.uleb128 0x3b
 6083 02c9 05       		.uleb128 0x5
 6084 02ca 49       		.uleb128 0x49
 6085 02cb 13       		.uleb128 0x13
 6086 02cc 3F       		.uleb128 0x3f
 6087 02cd 19       		.uleb128 0x19
 6088 02ce 3C       		.uleb128 0x3c
 6089 02cf 19       		.uleb128 0x19
 6090 02d0 00       		.byte	0
 6091 02d1 00       		.byte	0
 6092 02d2 35       		.uleb128 0x35
 6093 02d3 34       		.uleb128 0x34
 6094 02d4 00       		.byte	0
 6095 02d5 03       		.uleb128 0x3
 6096 02d6 0E       		.uleb128 0xe
 6097 02d7 3A       		.uleb128 0x3a
 6098 02d8 0B       		.uleb128 0xb
 6099 02d9 3B       		.uleb128 0x3b
ARM GAS  C:\Users\kateb\AppData\Local\Temp\cc9mC3XY.s 			page 136


 6100 02da 0B       		.uleb128 0xb
 6101 02db 49       		.uleb128 0x49
 6102 02dc 13       		.uleb128 0x13
 6103 02dd 3F       		.uleb128 0x3f
 6104 02de 19       		.uleb128 0x19
 6105 02df 3C       		.uleb128 0x3c
 6106 02e0 19       		.uleb128 0x19
 6107 02e1 00       		.byte	0
 6108 02e2 00       		.byte	0
 6109 02e3 36       		.uleb128 0x36
 6110 02e4 2E       		.uleb128 0x2e
 6111 02e5 00       		.byte	0
 6112 02e6 3F       		.uleb128 0x3f
 6113 02e7 19       		.uleb128 0x19
 6114 02e8 3C       		.uleb128 0x3c
 6115 02e9 19       		.uleb128 0x19
 6116 02ea 6E       		.uleb128 0x6e
 6117 02eb 0E       		.uleb128 0xe
 6118 02ec 03       		.uleb128 0x3
 6119 02ed 0E       		.uleb128 0xe
 6120 02ee 3A       		.uleb128 0x3a
 6121 02ef 0B       		.uleb128 0xb
 6122 02f0 3B       		.uleb128 0x3b
 6123 02f1 0B       		.uleb128 0xb
 6124 02f2 00       		.byte	0
 6125 02f3 00       		.byte	0
 6126 02f4 37       		.uleb128 0x37
 6127 02f5 2E       		.uleb128 0x2e
 6128 02f6 00       		.byte	0
 6129 02f7 3F       		.uleb128 0x3f
 6130 02f8 19       		.uleb128 0x19
 6131 02f9 3C       		.uleb128 0x3c
 6132 02fa 19       		.uleb128 0x19
 6133 02fb 6E       		.uleb128 0x6e
 6134 02fc 0E       		.uleb128 0xe
 6135 02fd 03       		.uleb128 0x3
 6136 02fe 0E       		.uleb128 0xe
 6137 02ff 00       		.byte	0
 6138 0300 00       		.byte	0
 6139 0301 38       		.uleb128 0x38
 6140 0302 2E       		.uleb128 0x2e
 6141 0303 00       		.byte	0
 6142 0304 3F       		.uleb128 0x3f
 6143 0305 19       		.uleb128 0x19
 6144 0306 3C       		.uleb128 0x3c
 6145 0307 19       		.uleb128 0x19
 6146 0308 6E       		.uleb128 0x6e
 6147 0309 0E       		.uleb128 0xe
 6148 030a 03       		.uleb128 0x3
 6149 030b 0E       		.uleb128 0xe
 6150 030c 3A       		.uleb128 0x3a
 6151 030d 0B       		.uleb128 0xb
 6152 030e 3B       		.uleb128 0x3b
 6153 030f 05       		.uleb128 0x5
 6154 0310 00       		.byte	0
 6155 0311 00       		.byte	0
 6156 0312 00       		.byte	0
ARM GAS  C:\Users\kateb\AppData\Local\Temp\cc9mC3XY.s 			page 137


 6157              		.section	.debug_loc,"",%progbits
 6158              	.Ldebug_loc0:
 6159              	.LLST0:
 6160 0000 00000000 		.4byte	.LVL0
 6161 0004 08000000 		.4byte	.LVL2
 6162 0008 0100     		.2byte	0x1
 6163 000a 50       		.byte	0x50
 6164 000b 08000000 		.4byte	.LVL2
 6165 000f 12000000 		.4byte	.LFE613
 6166 0013 0400     		.2byte	0x4
 6167 0015 F3       		.byte	0xf3
 6168 0016 01       		.uleb128 0x1
 6169 0017 50       		.byte	0x50
 6170 0018 9F       		.byte	0x9f
 6171 0019 00000000 		.4byte	0
 6172 001d 00000000 		.4byte	0
 6173              	.LLST1:
 6174 0021 06000000 		.4byte	.LVL1
 6175 0025 0A000000 		.4byte	.LVL3
 6176 0029 0100     		.2byte	0x1
 6177 002b 53       		.byte	0x53
 6178 002c 0A000000 		.4byte	.LVL3
 6179 0030 12000000 		.4byte	.LFE613
 6180 0034 0100     		.2byte	0x1
 6181 0036 50       		.byte	0x50
 6182 0037 00000000 		.4byte	0
 6183 003b 00000000 		.4byte	0
 6184              	.LLST2:
 6185 003f 00000000 		.4byte	.LVL5
 6186 0043 0E000000 		.4byte	.LVL8
 6187 0047 0100     		.2byte	0x1
 6188 0049 50       		.byte	0x50
 6189 004a 0E000000 		.4byte	.LVL8
 6190 004e 46000000 		.4byte	.LFE614
 6191 0052 0100     		.2byte	0x1
 6192 0054 54       		.byte	0x54
 6193 0055 00000000 		.4byte	0
 6194 0059 00000000 		.4byte	0
 6195              	.LLST3:
 6196 005d 00000000 		.4byte	.LVL5
 6197 0061 0C000000 		.4byte	.LVL7
 6198 0065 0100     		.2byte	0x1
 6199 0067 51       		.byte	0x51
 6200 0068 0C000000 		.4byte	.LVL7
 6201 006c 46000000 		.4byte	.LFE614
 6202 0070 0100     		.2byte	0x1
 6203 0072 55       		.byte	0x55
 6204 0073 00000000 		.4byte	0
 6205 0077 00000000 		.4byte	0
 6206              	.LLST4:
 6207 007b 00000000 		.4byte	.LVL5
 6208 007f 11000000 		.4byte	.LVL9-1
 6209 0083 0100     		.2byte	0x1
 6210 0085 52       		.byte	0x52
 6211 0086 11000000 		.4byte	.LVL9-1
 6212 008a 46000000 		.4byte	.LFE614
 6213 008e 0100     		.2byte	0x1
ARM GAS  C:\Users\kateb\AppData\Local\Temp\cc9mC3XY.s 			page 138


 6214 0090 56       		.byte	0x56
 6215 0091 00000000 		.4byte	0
 6216 0095 00000000 		.4byte	0
 6217              	.LLST5:
 6218 0099 00000000 		.4byte	.LVL5
 6219 009d 11000000 		.4byte	.LVL9-1
 6220 00a1 0100     		.2byte	0x1
 6221 00a3 53       		.byte	0x53
 6222 00a4 11000000 		.4byte	.LVL9-1
 6223 00a8 46000000 		.4byte	.LFE614
 6224 00ac 0100     		.2byte	0x1
 6225 00ae 57       		.byte	0x57
 6226 00af 00000000 		.4byte	0
 6227 00b3 00000000 		.4byte	0
 6228              	.LLST6:
 6229 00b7 00000000 		.4byte	.LVL12
 6230 00bb 48000000 		.4byte	.LVL18
 6231 00bf 0100     		.2byte	0x1
 6232 00c1 50       		.byte	0x50
 6233 00c2 48000000 		.4byte	.LVL18
 6234 00c6 8C000000 		.4byte	.LFE611
 6235 00ca 0100     		.2byte	0x1
 6236 00cc 54       		.byte	0x54
 6237 00cd 00000000 		.4byte	0
 6238 00d1 00000000 		.4byte	0
 6239              	.LLST7:
 6240 00d5 00000000 		.4byte	.LVL12
 6241 00d9 4F000000 		.4byte	.LVL19-1
 6242 00dd 0100     		.2byte	0x1
 6243 00df 51       		.byte	0x51
 6244 00e0 4F000000 		.4byte	.LVL19-1
 6245 00e4 8C000000 		.4byte	.LFE611
 6246 00e8 0100     		.2byte	0x1
 6247 00ea 55       		.byte	0x55
 6248 00eb 00000000 		.4byte	0
 6249 00ef 00000000 		.4byte	0
 6250              	.LLST8:
 6251 00f3 00000000 		.4byte	.LVL12
 6252 00f7 2C000000 		.4byte	.LVL16
 6253 00fb 0100     		.2byte	0x1
 6254 00fd 52       		.byte	0x52
 6255 00fe 2C000000 		.4byte	.LVL16
 6256 0102 8C000000 		.4byte	.LFE611
 6257 0106 0100     		.2byte	0x1
 6258 0108 57       		.byte	0x57
 6259 0109 00000000 		.4byte	0
 6260 010d 00000000 		.4byte	0
 6261              	.LLST9:
 6262 0111 1C000000 		.4byte	.LVL14
 6263 0115 7C000000 		.4byte	.LVL22
 6264 0119 0100     		.2byte	0x1
 6265 011b 56       		.byte	0x56
 6266 011c 7C000000 		.4byte	.LVL22
 6267 0120 8C000000 		.4byte	.LFE611
 6268 0124 0100     		.2byte	0x1
 6269 0126 53       		.byte	0x53
 6270 0127 00000000 		.4byte	0
ARM GAS  C:\Users\kateb\AppData\Local\Temp\cc9mC3XY.s 			page 139


 6271 012b 00000000 		.4byte	0
 6272              	.LLST10:
 6273 012f 00000000 		.4byte	.LVL24
 6274 0133 33000000 		.4byte	.LVL35-1
 6275 0137 0100     		.2byte	0x1
 6276 0139 50       		.byte	0x50
 6277 013a 33000000 		.4byte	.LVL35-1
 6278 013e 38000000 		.4byte	.LVL36
 6279 0142 0100     		.2byte	0x1
 6280 0144 54       		.byte	0x54
 6281 0145 38000000 		.4byte	.LVL36
 6282 0149 3E000000 		.4byte	.LVL39
 6283 014d 0100     		.2byte	0x1
 6284 014f 50       		.byte	0x50
 6285 0150 3E000000 		.4byte	.LVL39
 6286 0154 52000000 		.4byte	.LFE603
 6287 0158 0100     		.2byte	0x1
 6288 015a 54       		.byte	0x54
 6289 015b 00000000 		.4byte	0
 6290 015f 00000000 		.4byte	0
 6291              	.LLST11:
 6292 0163 00000000 		.4byte	.LVL24
 6293 0167 30000000 		.4byte	.LVL34
 6294 016b 0100     		.2byte	0x1
 6295 016d 51       		.byte	0x51
 6296 016e 30000000 		.4byte	.LVL34
 6297 0172 38000000 		.4byte	.LVL36
 6298 0176 0100     		.2byte	0x1
 6299 0178 55       		.byte	0x55
 6300 0179 38000000 		.4byte	.LVL36
 6301 017d 3E000000 		.4byte	.LVL39
 6302 0181 0100     		.2byte	0x1
 6303 0183 51       		.byte	0x51
 6304 0184 3E000000 		.4byte	.LVL39
 6305 0188 52000000 		.4byte	.LFE603
 6306 018c 0100     		.2byte	0x1
 6307 018e 55       		.byte	0x55
 6308 018f 00000000 		.4byte	0
 6309 0193 00000000 		.4byte	0
 6310              	.LLST12:
 6311 0197 00000000 		.4byte	.LVL24
 6312 019b 0E000000 		.4byte	.LVL25
 6313 019f 0100     		.2byte	0x1
 6314 01a1 52       		.byte	0x52
 6315 01a2 0E000000 		.4byte	.LVL25
 6316 01a6 20000000 		.4byte	.LVL29
 6317 01aa 0200     		.2byte	0x2
 6318 01ac 91       		.byte	0x91
 6319 01ad 6C       		.sleb128 -20
 6320 01ae 20000000 		.4byte	.LVL29
 6321 01b2 22000000 		.4byte	.LVL30
 6322 01b6 0100     		.2byte	0x1
 6323 01b8 53       		.byte	0x53
 6324 01b9 22000000 		.4byte	.LVL30
 6325 01bd 24000000 		.4byte	.LVL31
 6326 01c1 0400     		.2byte	0x4
 6327 01c3 F3       		.byte	0xf3
ARM GAS  C:\Users\kateb\AppData\Local\Temp\cc9mC3XY.s 			page 140


 6328 01c4 01       		.uleb128 0x1
 6329 01c5 52       		.byte	0x52
 6330 01c6 9F       		.byte	0x9f
 6331 01c7 24000000 		.4byte	.LVL31
 6332 01cb 38000000 		.4byte	.LVL36
 6333 01cf 0200     		.2byte	0x2
 6334 01d1 91       		.byte	0x91
 6335 01d2 6C       		.sleb128 -20
 6336 01d3 38000000 		.4byte	.LVL36
 6337 01d7 3C000000 		.4byte	.LVL38
 6338 01db 0100     		.2byte	0x1
 6339 01dd 52       		.byte	0x52
 6340 01de 3C000000 		.4byte	.LVL38
 6341 01e2 3E000000 		.4byte	.LVL39
 6342 01e6 0200     		.2byte	0x2
 6343 01e8 91       		.byte	0x91
 6344 01e9 6C       		.sleb128 -20
 6345 01ea 00000000 		.4byte	0
 6346 01ee 00000000 		.4byte	0
 6347              	.LLST13:
 6348 01f2 00000000 		.4byte	.LVL24
 6349 01f6 10000000 		.4byte	.LVL26
 6350 01fa 0100     		.2byte	0x1
 6351 01fc 53       		.byte	0x53
 6352 01fd 10000000 		.4byte	.LVL26
 6353 0201 1E000000 		.4byte	.LVL28
 6354 0205 0100     		.2byte	0x1
 6355 0207 52       		.byte	0x52
 6356 0208 1E000000 		.4byte	.LVL28
 6357 020c 24000000 		.4byte	.LVL31
 6358 0210 0400     		.2byte	0x4
 6359 0212 F3       		.byte	0xf3
 6360 0213 01       		.uleb128 0x1
 6361 0214 53       		.byte	0x53
 6362 0215 9F       		.byte	0x9f
 6363 0216 24000000 		.4byte	.LVL31
 6364 021a 2C000000 		.4byte	.LVL33
 6365 021e 0100     		.2byte	0x1
 6366 0220 52       		.byte	0x52
 6367 0221 2C000000 		.4byte	.LVL33
 6368 0225 38000000 		.4byte	.LVL36
 6369 0229 0400     		.2byte	0x4
 6370 022b F3       		.byte	0xf3
 6371 022c 01       		.uleb128 0x1
 6372 022d 53       		.byte	0x53
 6373 022e 9F       		.byte	0x9f
 6374 022f 38000000 		.4byte	.LVL36
 6375 0233 3A000000 		.4byte	.LVL37
 6376 0237 0100     		.2byte	0x1
 6377 0239 53       		.byte	0x53
 6378 023a 3A000000 		.4byte	.LVL37
 6379 023e 3C000000 		.4byte	.LVL38
 6380 0242 0400     		.2byte	0x4
 6381 0244 F3       		.byte	0xf3
 6382 0245 01       		.uleb128 0x1
 6383 0246 53       		.byte	0x53
 6384 0247 9F       		.byte	0x9f
ARM GAS  C:\Users\kateb\AppData\Local\Temp\cc9mC3XY.s 			page 141


 6385 0248 3C000000 		.4byte	.LVL38
 6386 024c 3E000000 		.4byte	.LVL39
 6387 0250 0100     		.2byte	0x1
 6388 0252 52       		.byte	0x52
 6389 0253 3E000000 		.4byte	.LVL39
 6390 0257 52000000 		.4byte	.LFE603
 6391 025b 0400     		.2byte	0x4
 6392 025d F3       		.byte	0xf3
 6393 025e 01       		.uleb128 0x1
 6394 025f 53       		.byte	0x53
 6395 0260 9F       		.byte	0x9f
 6396 0261 00000000 		.4byte	0
 6397 0265 00000000 		.4byte	0
 6398              	.LLST14:
 6399 0269 16000000 		.4byte	.LVL27
 6400 026d 24000000 		.4byte	.LVL31
 6401 0271 0200     		.2byte	0x2
 6402 0273 31       		.byte	0x31
 6403 0274 9F       		.byte	0x9f
 6404 0275 2A000000 		.4byte	.LVL32
 6405 0279 38000000 		.4byte	.LVL36
 6406 027d 0200     		.2byte	0x2
 6407 027f 31       		.byte	0x31
 6408 0280 9F       		.byte	0x9f
 6409 0281 3E000000 		.4byte	.LVL39
 6410 0285 49000000 		.4byte	.LVL40-1
 6411 0289 0100     		.2byte	0x1
 6412 028b 53       		.byte	0x53
 6413 028c 4C000000 		.4byte	.LVL41
 6414 0290 4E000000 		.4byte	.LVL42
 6415 0294 0100     		.2byte	0x1
 6416 0296 53       		.byte	0x53
 6417 0297 00000000 		.4byte	0
 6418 029b 00000000 		.4byte	0
 6419              	.LLST15:
 6420 029f 4A000000 		.4byte	.LVL40
 6421 02a3 4C000000 		.4byte	.LVL41
 6422 02a7 0100     		.2byte	0x1
 6423 02a9 50       		.byte	0x50
 6424 02aa 4E000000 		.4byte	.LVL42
 6425 02ae 52000000 		.4byte	.LFE603
 6426 02b2 0100     		.2byte	0x1
 6427 02b4 50       		.byte	0x50
 6428 02b5 00000000 		.4byte	0
 6429 02b9 00000000 		.4byte	0
 6430              	.LLST16:
 6431 02bd 00000000 		.4byte	.LVL43
 6432 02c1 5A000000 		.4byte	.LVL52
 6433 02c5 0100     		.2byte	0x1
 6434 02c7 50       		.byte	0x50
 6435 02c8 5A000000 		.4byte	.LVL52
 6436 02cc 90000000 		.4byte	.LVL58
 6437 02d0 0100     		.2byte	0x1
 6438 02d2 55       		.byte	0x55
 6439 02d3 90000000 		.4byte	.LVL58
 6440 02d7 96000000 		.4byte	.LFE612
 6441 02db 0400     		.2byte	0x4
ARM GAS  C:\Users\kateb\AppData\Local\Temp\cc9mC3XY.s 			page 142


 6442 02dd F3       		.byte	0xf3
 6443 02de 01       		.uleb128 0x1
 6444 02df 50       		.byte	0x50
 6445 02e0 9F       		.byte	0x9f
 6446 02e1 00000000 		.4byte	0
 6447 02e5 00000000 		.4byte	0
 6448              	.LLST17:
 6449 02e9 00000000 		.4byte	.LVL43
 6450 02ed 54000000 		.4byte	.LVL50
 6451 02f1 0100     		.2byte	0x1
 6452 02f3 51       		.byte	0x51
 6453 02f4 54000000 		.4byte	.LVL50
 6454 02f8 90000000 		.4byte	.LVL58
 6455 02fc 0100     		.2byte	0x1
 6456 02fe 56       		.byte	0x56
 6457 02ff 90000000 		.4byte	.LVL58
 6458 0303 96000000 		.4byte	.LFE612
 6459 0307 0400     		.2byte	0x4
 6460 0309 F3       		.byte	0xf3
 6461 030a 01       		.uleb128 0x1
 6462 030b 51       		.byte	0x51
 6463 030c 9F       		.byte	0x9f
 6464 030d 00000000 		.4byte	0
 6465 0311 00000000 		.4byte	0
 6466              	.LLST18:
 6467 0315 00000000 		.4byte	.LVL43
 6468 0319 56000000 		.4byte	.LVL51
 6469 031d 0100     		.2byte	0x1
 6470 031f 52       		.byte	0x52
 6471 0320 56000000 		.4byte	.LVL51
 6472 0324 90000000 		.4byte	.LVL58
 6473 0328 0100     		.2byte	0x1
 6474 032a 59       		.byte	0x59
 6475 032b 90000000 		.4byte	.LVL58
 6476 032f 96000000 		.4byte	.LFE612
 6477 0333 0400     		.2byte	0x4
 6478 0335 F3       		.byte	0xf3
 6479 0336 01       		.uleb128 0x1
 6480 0337 52       		.byte	0x52
 6481 0338 9F       		.byte	0x9f
 6482 0339 00000000 		.4byte	0
 6483 033d 00000000 		.4byte	0
 6484              	.LLST19:
 6485 0341 00000000 		.4byte	.LVL43
 6486 0345 16000000 		.4byte	.LVL46
 6487 0349 0100     		.2byte	0x1
 6488 034b 53       		.byte	0x53
 6489 034c 16000000 		.4byte	.LVL46
 6490 0350 96000000 		.4byte	.LFE612
 6491 0354 0400     		.2byte	0x4
 6492 0356 F3       		.byte	0xf3
 6493 0357 01       		.uleb128 0x1
 6494 0358 53       		.byte	0x53
 6495 0359 9F       		.byte	0x9f
 6496 035a 00000000 		.4byte	0
 6497 035e 00000000 		.4byte	0
 6498              	.LLST20:
ARM GAS  C:\Users\kateb\AppData\Local\Temp\cc9mC3XY.s 			page 143


 6499 0362 1E000000 		.4byte	.LVL47
 6500 0366 90000000 		.4byte	.LVL58
 6501 036a 0100     		.2byte	0x1
 6502 036c 57       		.byte	0x57
 6503 036d 00000000 		.4byte	0
 6504 0371 00000000 		.4byte	0
 6505              	.LLST21:
 6506 0375 14000000 		.4byte	.LVL45
 6507 0379 90000000 		.4byte	.LVL58
 6508 037d 0100     		.2byte	0x1
 6509 037f 54       		.byte	0x54
 6510 0380 00000000 		.4byte	0
 6511 0384 00000000 		.4byte	0
 6512              	.LLST22:
 6513 0388 00000000 		.4byte	.LVL59
 6514 038c 1D000000 		.4byte	.LVL63-1
 6515 0390 0100     		.2byte	0x1
 6516 0392 50       		.byte	0x50
 6517 0393 1D000000 		.4byte	.LVL63-1
 6518 0397 30000000 		.4byte	.LVL65
 6519 039b 0100     		.2byte	0x1
 6520 039d 55       		.byte	0x55
 6521 039e 30000000 		.4byte	.LVL65
 6522 03a2 32000000 		.4byte	.LVL66
 6523 03a6 0100     		.2byte	0x1
 6524 03a8 50       		.byte	0x50
 6525 03a9 32000000 		.4byte	.LVL66
 6526 03ad 44000000 		.4byte	.LFE606
 6527 03b1 0100     		.2byte	0x1
 6528 03b3 55       		.byte	0x55
 6529 03b4 00000000 		.4byte	0
 6530 03b8 00000000 		.4byte	0
 6531              	.LLST23:
 6532 03bc 00000000 		.4byte	.LVL59
 6533 03c0 1A000000 		.4byte	.LVL62
 6534 03c4 0100     		.2byte	0x1
 6535 03c6 51       		.byte	0x51
 6536 03c7 1A000000 		.4byte	.LVL62
 6537 03cb 30000000 		.4byte	.LVL65
 6538 03cf 0100     		.2byte	0x1
 6539 03d1 57       		.byte	0x57
 6540 03d2 30000000 		.4byte	.LVL65
 6541 03d6 32000000 		.4byte	.LVL66
 6542 03da 0100     		.2byte	0x1
 6543 03dc 51       		.byte	0x51
 6544 03dd 32000000 		.4byte	.LVL66
 6545 03e1 44000000 		.4byte	.LFE606
 6546 03e5 0100     		.2byte	0x1
 6547 03e7 57       		.byte	0x57
 6548 03e8 00000000 		.4byte	0
 6549 03ec 00000000 		.4byte	0
 6550              	.LLST24:
 6551 03f0 00000000 		.4byte	.LVL59
 6552 03f4 18000000 		.4byte	.LVL61
 6553 03f8 0100     		.2byte	0x1
 6554 03fa 52       		.byte	0x52
 6555 03fb 18000000 		.4byte	.LVL61
ARM GAS  C:\Users\kateb\AppData\Local\Temp\cc9mC3XY.s 			page 144


 6556 03ff 30000000 		.4byte	.LVL65
 6557 0403 0100     		.2byte	0x1
 6558 0405 58       		.byte	0x58
 6559 0406 30000000 		.4byte	.LVL65
 6560 040a 32000000 		.4byte	.LVL66
 6561 040e 0100     		.2byte	0x1
 6562 0410 52       		.byte	0x52
 6563 0411 32000000 		.4byte	.LVL66
 6564 0415 44000000 		.4byte	.LFE606
 6565 0419 0100     		.2byte	0x1
 6566 041b 58       		.byte	0x58
 6567 041c 00000000 		.4byte	0
 6568 0420 00000000 		.4byte	0
 6569              	.LLST25:
 6570 0424 00000000 		.4byte	.LVL59
 6571 0428 1D000000 		.4byte	.LVL63-1
 6572 042c 0100     		.2byte	0x1
 6573 042e 53       		.byte	0x53
 6574 042f 1D000000 		.4byte	.LVL63-1
 6575 0433 30000000 		.4byte	.LVL65
 6576 0437 0100     		.2byte	0x1
 6577 0439 54       		.byte	0x54
 6578 043a 30000000 		.4byte	.LVL65
 6579 043e 32000000 		.4byte	.LVL66
 6580 0442 0100     		.2byte	0x1
 6581 0444 53       		.byte	0x53
 6582 0445 32000000 		.4byte	.LVL66
 6583 0449 44000000 		.4byte	.LFE606
 6584 044d 0100     		.2byte	0x1
 6585 044f 54       		.byte	0x54
 6586 0450 00000000 		.4byte	0
 6587 0454 00000000 		.4byte	0
 6588              	.LLST26:
 6589 0458 16000000 		.4byte	.LVL60
 6590 045c 30000000 		.4byte	.LVL65
 6591 0460 0100     		.2byte	0x1
 6592 0462 59       		.byte	0x59
 6593 0463 00000000 		.4byte	0
 6594 0467 00000000 		.4byte	0
 6595              	.LLST27:
 6596 046b 00000000 		.4byte	.LVL68
 6597 046f 3A000000 		.4byte	.LVL72
 6598 0473 0100     		.2byte	0x1
 6599 0475 50       		.byte	0x50
 6600 0476 3A000000 		.4byte	.LVL72
 6601 047a 58000000 		.4byte	.LFE595
 6602 047e 0100     		.2byte	0x1
 6603 0480 56       		.byte	0x56
 6604 0481 00000000 		.4byte	0
 6605 0485 00000000 		.4byte	0
 6606              	.LLST28:
 6607 0489 00000000 		.4byte	.LVL68
 6608 048d 38000000 		.4byte	.LVL71
 6609 0491 0100     		.2byte	0x1
 6610 0493 51       		.byte	0x51
 6611 0494 38000000 		.4byte	.LVL71
 6612 0498 58000000 		.4byte	.LFE595
ARM GAS  C:\Users\kateb\AppData\Local\Temp\cc9mC3XY.s 			page 145


 6613 049c 0100     		.2byte	0x1
 6614 049e 54       		.byte	0x54
 6615 049f 00000000 		.4byte	0
 6616 04a3 00000000 		.4byte	0
 6617              	.LLST29:
 6618 04a7 00000000 		.4byte	.LVL68
 6619 04ab 3F000000 		.4byte	.LVL73-1
 6620 04af 0100     		.2byte	0x1
 6621 04b1 52       		.byte	0x52
 6622 04b2 3F000000 		.4byte	.LVL73-1
 6623 04b6 58000000 		.4byte	.LFE595
 6624 04ba 0100     		.2byte	0x1
 6625 04bc 57       		.byte	0x57
 6626 04bd 00000000 		.4byte	0
 6627 04c1 00000000 		.4byte	0
 6628              	.LLST30:
 6629 04c5 40000000 		.4byte	.LVL73
 6630 04c9 51000000 		.4byte	.LVL74-1
 6631 04cd 0100     		.2byte	0x1
 6632 04cf 50       		.byte	0x50
 6633 04d0 51000000 		.4byte	.LVL74-1
 6634 04d4 58000000 		.4byte	.LFE595
 6635 04d8 0100     		.2byte	0x1
 6636 04da 55       		.byte	0x55
 6637 04db 00000000 		.4byte	0
 6638 04df 00000000 		.4byte	0
 6639              	.LLST31:
 6640 04e3 00000000 		.4byte	.LVL75
 6641 04e7 21000000 		.4byte	.LVL78-1
 6642 04eb 0100     		.2byte	0x1
 6643 04ed 50       		.byte	0x50
 6644 04ee 21000000 		.4byte	.LVL78-1
 6645 04f2 24000000 		.4byte	.LVL79
 6646 04f6 0400     		.2byte	0x4
 6647 04f8 F3       		.byte	0xf3
 6648 04f9 01       		.uleb128 0x1
 6649 04fa 50       		.byte	0x50
 6650 04fb 9F       		.byte	0x9f
 6651 04fc 24000000 		.4byte	.LVL79
 6652 0500 2B000000 		.4byte	.LVL80-1
 6653 0504 0100     		.2byte	0x1
 6654 0506 50       		.byte	0x50
 6655 0507 2B000000 		.4byte	.LVL80-1
 6656 050b 2E000000 		.4byte	.LFE596
 6657 050f 0400     		.2byte	0x4
 6658 0511 F3       		.byte	0xf3
 6659 0512 01       		.uleb128 0x1
 6660 0513 50       		.byte	0x50
 6661 0514 9F       		.byte	0x9f
 6662 0515 00000000 		.4byte	0
 6663 0519 00000000 		.4byte	0
 6664              	.LLST32:
 6665 051d 02000000 		.4byte	.LVL76
 6666 0521 21000000 		.4byte	.LVL78-1
 6667 0525 0100     		.2byte	0x1
 6668 0527 50       		.byte	0x50
 6669 0528 21000000 		.4byte	.LVL78-1
ARM GAS  C:\Users\kateb\AppData\Local\Temp\cc9mC3XY.s 			page 146


 6670 052c 24000000 		.4byte	.LVL79
 6671 0530 0400     		.2byte	0x4
 6672 0532 F3       		.byte	0xf3
 6673 0533 01       		.uleb128 0x1
 6674 0534 50       		.byte	0x50
 6675 0535 9F       		.byte	0x9f
 6676 0536 24000000 		.4byte	.LVL79
 6677 053a 2B000000 		.4byte	.LVL80-1
 6678 053e 0100     		.2byte	0x1
 6679 0540 50       		.byte	0x50
 6680 0541 2B000000 		.4byte	.LVL80-1
 6681 0545 2E000000 		.4byte	.LFE596
 6682 0549 0400     		.2byte	0x4
 6683 054b F3       		.byte	0xf3
 6684 054c 01       		.uleb128 0x1
 6685 054d 50       		.byte	0x50
 6686 054e 9F       		.byte	0x9f
 6687 054f 00000000 		.4byte	0
 6688 0553 00000000 		.4byte	0
 6689              	.LLST33:
 6690 0557 00000000 		.4byte	.LVL81
 6691 055b 32000000 		.4byte	.LVL83
 6692 055f 0100     		.2byte	0x1
 6693 0561 50       		.byte	0x50
 6694 0562 32000000 		.4byte	.LVL83
 6695 0566 34000000 		.4byte	.LVL84
 6696 056a 0100     		.2byte	0x1
 6697 056c 53       		.byte	0x53
 6698 056d 34000000 		.4byte	.LVL84
 6699 0571 3D000000 		.4byte	.LVL85-1
 6700 0575 0100     		.2byte	0x1
 6701 0577 50       		.byte	0x50
 6702 0578 3D000000 		.4byte	.LVL85-1
 6703 057c 42000000 		.4byte	.LVL86
 6704 0580 0400     		.2byte	0x4
 6705 0582 F3       		.byte	0xf3
 6706 0583 01       		.uleb128 0x1
 6707 0584 50       		.byte	0x50
 6708 0585 9F       		.byte	0x9f
 6709 0586 42000000 		.4byte	.LVL86
 6710 058a 44000000 		.4byte	.LVL87
 6711 058e 0100     		.2byte	0x1
 6712 0590 50       		.byte	0x50
 6713 0591 44000000 		.4byte	.LVL87
 6714 0595 46000000 		.4byte	.LVL88
 6715 0599 0100     		.2byte	0x1
 6716 059b 53       		.byte	0x53
 6717 059c 46000000 		.4byte	.LVL88
 6718 05a0 48000000 		.4byte	.LVL89
 6719 05a4 0100     		.2byte	0x1
 6720 05a6 50       		.byte	0x50
 6721 05a7 48000000 		.4byte	.LVL89
 6722 05ab 4A000000 		.4byte	.LVL90
 6723 05af 0100     		.2byte	0x1
 6724 05b1 53       		.byte	0x53
 6725 05b2 4A000000 		.4byte	.LVL90
 6726 05b6 4E000000 		.4byte	.LFE597
ARM GAS  C:\Users\kateb\AppData\Local\Temp\cc9mC3XY.s 			page 147


 6727 05ba 0400     		.2byte	0x4
 6728 05bc F3       		.byte	0xf3
 6729 05bd 01       		.uleb128 0x1
 6730 05be 50       		.byte	0x50
 6731 05bf 9F       		.byte	0x9f
 6732 05c0 00000000 		.4byte	0
 6733 05c4 00000000 		.4byte	0
 6734              	.LLST34:
 6735 05c8 00000000 		.4byte	.LVL81
 6736 05cc 32000000 		.4byte	.LVL83
 6737 05d0 0100     		.2byte	0x1
 6738 05d2 50       		.byte	0x50
 6739 05d3 32000000 		.4byte	.LVL83
 6740 05d7 34000000 		.4byte	.LVL84
 6741 05db 0100     		.2byte	0x1
 6742 05dd 53       		.byte	0x53
 6743 05de 34000000 		.4byte	.LVL84
 6744 05e2 3D000000 		.4byte	.LVL85-1
 6745 05e6 0100     		.2byte	0x1
 6746 05e8 50       		.byte	0x50
 6747 05e9 3D000000 		.4byte	.LVL85-1
 6748 05ed 42000000 		.4byte	.LVL86
 6749 05f1 0400     		.2byte	0x4
 6750 05f3 F3       		.byte	0xf3
 6751 05f4 01       		.uleb128 0x1
 6752 05f5 50       		.byte	0x50
 6753 05f6 9F       		.byte	0x9f
 6754 05f7 42000000 		.4byte	.LVL86
 6755 05fb 44000000 		.4byte	.LVL87
 6756 05ff 0100     		.2byte	0x1
 6757 0601 50       		.byte	0x50
 6758 0602 44000000 		.4byte	.LVL87
 6759 0606 46000000 		.4byte	.LVL88
 6760 060a 0100     		.2byte	0x1
 6761 060c 53       		.byte	0x53
 6762 060d 46000000 		.4byte	.LVL88
 6763 0611 48000000 		.4byte	.LVL89
 6764 0615 0100     		.2byte	0x1
 6765 0617 50       		.byte	0x50
 6766 0618 48000000 		.4byte	.LVL89
 6767 061c 4A000000 		.4byte	.LVL90
 6768 0620 0100     		.2byte	0x1
 6769 0622 53       		.byte	0x53
 6770 0623 4A000000 		.4byte	.LVL90
 6771 0627 4E000000 		.4byte	.LFE597
 6772 062b 0400     		.2byte	0x4
 6773 062d F3       		.byte	0xf3
 6774 062e 01       		.uleb128 0x1
 6775 062f 50       		.byte	0x50
 6776 0630 9F       		.byte	0x9f
 6777 0631 00000000 		.4byte	0
 6778 0635 00000000 		.4byte	0
 6779              	.LLST35:
 6780 0639 00000000 		.4byte	.LVL81
 6781 063d 3E000000 		.4byte	.LVL85
 6782 0641 0200     		.2byte	0x2
 6783 0643 30       		.byte	0x30
ARM GAS  C:\Users\kateb\AppData\Local\Temp\cc9mC3XY.s 			page 148


 6784 0644 9F       		.byte	0x9f
 6785 0645 3E000000 		.4byte	.LVL85
 6786 0649 42000000 		.4byte	.LVL86
 6787 064d 0200     		.2byte	0x2
 6788 064f 31       		.byte	0x31
 6789 0650 9F       		.byte	0x9f
 6790 0651 42000000 		.4byte	.LVL86
 6791 0655 4A000000 		.4byte	.LVL90
 6792 0659 0200     		.2byte	0x2
 6793 065b 30       		.byte	0x30
 6794 065c 9F       		.byte	0x9f
 6795 065d 4A000000 		.4byte	.LVL90
 6796 0661 4E000000 		.4byte	.LFE597
 6797 0665 0100     		.2byte	0x1
 6798 0667 50       		.byte	0x50
 6799 0668 00000000 		.4byte	0
 6800 066c 00000000 		.4byte	0
 6801              	.LLST36:
 6802 0670 32000000 		.4byte	.LVL83
 6803 0674 42000000 		.4byte	.LVL86
 6804 0678 0100     		.2byte	0x1
 6805 067a 54       		.byte	0x54
 6806 067b 4A000000 		.4byte	.LVL90
 6807 067f 4E000000 		.4byte	.LFE597
 6808 0683 0100     		.2byte	0x1
 6809 0685 54       		.byte	0x54
 6810 0686 00000000 		.4byte	0
 6811 068a 00000000 		.4byte	0
 6812              	.LLST37:
 6813 068e 00000000 		.4byte	.LVL91
 6814 0692 24000000 		.4byte	.LVL95
 6815 0696 0100     		.2byte	0x1
 6816 0698 50       		.byte	0x50
 6817 0699 24000000 		.4byte	.LVL95
 6818 069d 26000000 		.4byte	.LVL96
 6819 06a1 0100     		.2byte	0x1
 6820 06a3 53       		.byte	0x53
 6821 06a4 26000000 		.4byte	.LVL96
 6822 06a8 28000000 		.4byte	.LVL97
 6823 06ac 0100     		.2byte	0x1
 6824 06ae 50       		.byte	0x50
 6825 06af 28000000 		.4byte	.LVL97
 6826 06b3 2A000000 		.4byte	.LFE598
 6827 06b7 0100     		.2byte	0x1
 6828 06b9 53       		.byte	0x53
 6829 06ba 00000000 		.4byte	0
 6830 06be 00000000 		.4byte	0
 6831              	.LLST38:
 6832 06c2 00000000 		.4byte	.LVL91
 6833 06c6 1A000000 		.4byte	.LVL93
 6834 06ca 0100     		.2byte	0x1
 6835 06cc 51       		.byte	0x51
 6836 06cd 1A000000 		.4byte	.LVL93
 6837 06d1 2A000000 		.4byte	.LFE598
 6838 06d5 0100     		.2byte	0x1
 6839 06d7 51       		.byte	0x51
 6840 06d8 00000000 		.4byte	0
ARM GAS  C:\Users\kateb\AppData\Local\Temp\cc9mC3XY.s 			page 149


 6841 06dc 00000000 		.4byte	0
 6842              	.LLST40:
 6843 06e0 22000000 		.4byte	.LVL94
 6844 06e4 26000000 		.4byte	.LVL96
 6845 06e8 0200     		.2byte	0x2
 6846 06ea 31       		.byte	0x31
 6847 06eb 9F       		.byte	0x9f
 6848 06ec 28000000 		.4byte	.LVL97
 6849 06f0 2A000000 		.4byte	.LFE598
 6850 06f4 0100     		.2byte	0x1
 6851 06f6 50       		.byte	0x50
 6852 06f7 00000000 		.4byte	0
 6853 06fb 00000000 		.4byte	0
 6854              	.LLST41:
 6855 06ff 00000000 		.4byte	.LVL98
 6856 0703 1C000000 		.4byte	.LVL101
 6857 0707 0100     		.2byte	0x1
 6858 0709 50       		.byte	0x50
 6859 070a 1C000000 		.4byte	.LVL101
 6860 070e 28000000 		.4byte	.LFE599
 6861 0712 0400     		.2byte	0x4
 6862 0714 F3       		.byte	0xf3
 6863 0715 01       		.uleb128 0x1
 6864 0716 50       		.byte	0x50
 6865 0717 9F       		.byte	0x9f
 6866 0718 00000000 		.4byte	0
 6867 071c 00000000 		.4byte	0
 6868              	.LLST42:
 6869 0720 00000000 		.4byte	.LVL98
 6870 0724 1C000000 		.4byte	.LVL101
 6871 0728 0100     		.2byte	0x1
 6872 072a 50       		.byte	0x50
 6873 072b 1C000000 		.4byte	.LVL101
 6874 072f 28000000 		.4byte	.LFE599
 6875 0733 0400     		.2byte	0x4
 6876 0735 F3       		.byte	0xf3
 6877 0736 01       		.uleb128 0x1
 6878 0737 50       		.byte	0x50
 6879 0738 9F       		.byte	0x9f
 6880 0739 00000000 		.4byte	0
 6881 073d 00000000 		.4byte	0
 6882              	.LLST43:
 6883 0741 1A000000 		.4byte	.LVL100
 6884 0745 1E000000 		.4byte	.LVL102
 6885 0749 0100     		.2byte	0x1
 6886 074b 53       		.byte	0x53
 6887 074c 1E000000 		.4byte	.LVL102
 6888 0750 28000000 		.4byte	.LFE599
 6889 0754 0100     		.2byte	0x1
 6890 0756 50       		.byte	0x50
 6891 0757 00000000 		.4byte	0
 6892 075b 00000000 		.4byte	0
 6893              	.LLST44:
 6894 075f 00000000 		.4byte	.LVL105
 6895 0763 19000000 		.4byte	.LVL108-1
 6896 0767 0100     		.2byte	0x1
 6897 0769 50       		.byte	0x50
ARM GAS  C:\Users\kateb\AppData\Local\Temp\cc9mC3XY.s 			page 150


 6898 076a 19000000 		.4byte	.LVL108-1
 6899 076e 1C000000 		.4byte	.LFE600
 6900 0772 0400     		.2byte	0x4
 6901 0774 F3       		.byte	0xf3
 6902 0775 01       		.uleb128 0x1
 6903 0776 50       		.byte	0x50
 6904 0777 9F       		.byte	0x9f
 6905 0778 00000000 		.4byte	0
 6906 077c 00000000 		.4byte	0
 6907              	.LLST45:
 6908 0780 02000000 		.4byte	.LVL106
 6909 0784 19000000 		.4byte	.LVL108-1
 6910 0788 0100     		.2byte	0x1
 6911 078a 50       		.byte	0x50
 6912 078b 19000000 		.4byte	.LVL108-1
 6913 078f 1C000000 		.4byte	.LFE600
 6914 0793 0400     		.2byte	0x4
 6915 0795 F3       		.byte	0xf3
 6916 0796 01       		.uleb128 0x1
 6917 0797 50       		.byte	0x50
 6918 0798 9F       		.byte	0x9f
 6919 0799 00000000 		.4byte	0
 6920 079d 00000000 		.4byte	0
 6921              	.LLST46:
 6922 07a1 00000000 		.4byte	.LVL109
 6923 07a5 4C000000 		.4byte	.LVL119
 6924 07a9 0100     		.2byte	0x1
 6925 07ab 50       		.byte	0x50
 6926 07ac 4C000000 		.4byte	.LVL119
 6927 07b0 B2000000 		.4byte	.LVL133
 6928 07b4 0100     		.2byte	0x1
 6929 07b6 54       		.byte	0x54
 6930 07b7 B2000000 		.4byte	.LVL133
 6931 07bb B4000000 		.4byte	.LVL134
 6932 07bf 0100     		.2byte	0x1
 6933 07c1 50       		.byte	0x50
 6934 07c2 B4000000 		.4byte	.LVL134
 6935 07c6 02010000 		.4byte	.LFE601
 6936 07ca 0100     		.2byte	0x1
 6937 07cc 54       		.byte	0x54
 6938 07cd 00000000 		.4byte	0
 6939 07d1 00000000 		.4byte	0
 6940              	.LLST47:
 6941 07d5 00000000 		.4byte	.LVL109
 6942 07d9 4F000000 		.4byte	.LVL120-1
 6943 07dd 0100     		.2byte	0x1
 6944 07df 51       		.byte	0x51
 6945 07e0 4F000000 		.4byte	.LVL120-1
 6946 07e4 B2000000 		.4byte	.LVL133
 6947 07e8 0100     		.2byte	0x1
 6948 07ea 57       		.byte	0x57
 6949 07eb B2000000 		.4byte	.LVL133
 6950 07ef B4000000 		.4byte	.LVL134
 6951 07f3 0100     		.2byte	0x1
 6952 07f5 51       		.byte	0x51
 6953 07f6 B4000000 		.4byte	.LVL134
 6954 07fa 02010000 		.4byte	.LFE601
ARM GAS  C:\Users\kateb\AppData\Local\Temp\cc9mC3XY.s 			page 151


 6955 07fe 0100     		.2byte	0x1
 6956 0800 57       		.byte	0x57
 6957 0801 00000000 		.4byte	0
 6958 0805 00000000 		.4byte	0
 6959              	.LLST48:
 6960 0809 00000000 		.4byte	.LVL109
 6961 080d 4F000000 		.4byte	.LVL120-1
 6962 0811 0100     		.2byte	0x1
 6963 0813 52       		.byte	0x52
 6964 0814 4F000000 		.4byte	.LVL120-1
 6965 0818 B2000000 		.4byte	.LVL133
 6966 081c 0100     		.2byte	0x1
 6967 081e 56       		.byte	0x56
 6968 081f B2000000 		.4byte	.LVL133
 6969 0823 B4000000 		.4byte	.LVL134
 6970 0827 0100     		.2byte	0x1
 6971 0829 52       		.byte	0x52
 6972 082a B4000000 		.4byte	.LVL134
 6973 082e 02010000 		.4byte	.LFE601
 6974 0832 0100     		.2byte	0x1
 6975 0834 56       		.byte	0x56
 6976 0835 00000000 		.4byte	0
 6977 0839 00000000 		.4byte	0
 6978              	.LLST49:
 6979 083d 00000000 		.4byte	.LVL109
 6980 0841 1A000000 		.4byte	.LVL111
 6981 0845 0100     		.2byte	0x1
 6982 0847 53       		.byte	0x53
 6983 0848 1A000000 		.4byte	.LVL111
 6984 084c 1C000000 		.4byte	.LVL112
 6985 0850 0200     		.2byte	0x2
 6986 0852 91       		.byte	0x91
 6987 0853 54       		.sleb128 -44
 6988 0854 1C000000 		.4byte	.LVL112
 6989 0858 30000000 		.4byte	.LVL113
 6990 085c 0100     		.2byte	0x1
 6991 085e 53       		.byte	0x53
 6992 085f 30000000 		.4byte	.LVL113
 6993 0863 32000000 		.4byte	.LVL114
 6994 0867 0200     		.2byte	0x2
 6995 0869 91       		.byte	0x91
 6996 086a 54       		.sleb128 -44
 6997 086b 32000000 		.4byte	.LVL114
 6998 086f 34000000 		.4byte	.LVL115
 6999 0873 0100     		.2byte	0x1
 7000 0875 53       		.byte	0x53
 7001 0876 34000000 		.4byte	.LVL115
 7002 087a 02010000 		.4byte	.LFE601
 7003 087e 0200     		.2byte	0x2
 7004 0880 91       		.byte	0x91
 7005 0881 54       		.sleb128 -44
 7006 0882 00000000 		.4byte	0
 7007 0886 00000000 		.4byte	0
 7008              	.LLST50:
 7009 088a 08000000 		.4byte	.LVL110
 7010 088e 4C000000 		.4byte	.LVL119
 7011 0892 0100     		.2byte	0x1
ARM GAS  C:\Users\kateb\AppData\Local\Temp\cc9mC3XY.s 			page 152


 7012 0894 50       		.byte	0x50
 7013 0895 4C000000 		.4byte	.LVL119
 7014 0899 B2000000 		.4byte	.LVL133
 7015 089d 0100     		.2byte	0x1
 7016 089f 54       		.byte	0x54
 7017 08a0 B2000000 		.4byte	.LVL133
 7018 08a4 B4000000 		.4byte	.LVL134
 7019 08a8 0100     		.2byte	0x1
 7020 08aa 50       		.byte	0x50
 7021 08ab B4000000 		.4byte	.LVL134
 7022 08af 02010000 		.4byte	.LFE601
 7023 08b3 0100     		.2byte	0x1
 7024 08b5 54       		.byte	0x54
 7025 08b6 00000000 		.4byte	0
 7026 08ba 00000000 		.4byte	0
 7027              	.LLST51:
 7028 08be CE000000 		.4byte	.LVL137
 7029 08c2 D4000000 		.4byte	.LVL139
 7030 08c6 0100     		.2byte	0x1
 7031 08c8 50       		.byte	0x50
 7032 08c9 D4000000 		.4byte	.LVL139
 7033 08cd 02010000 		.4byte	.LFE601
 7034 08d1 0100     		.2byte	0x1
 7035 08d3 55       		.byte	0x55
 7036 08d4 00000000 		.4byte	0
 7037 08d8 00000000 		.4byte	0
 7038              	.LLST52:
 7039 08dc 08000000 		.4byte	.LVL110
 7040 08e0 50000000 		.4byte	.LVL120
 7041 08e4 0200     		.2byte	0x2
 7042 08e6 30       		.byte	0x30
 7043 08e7 9F       		.byte	0x9f
 7044 08e8 5C000000 		.4byte	.LVL123
 7045 08ec 62000000 		.4byte	.LVL124
 7046 08f0 0100     		.2byte	0x1
 7047 08f2 50       		.byte	0x50
 7048 08f3 62000000 		.4byte	.LVL124
 7049 08f7 AC000000 		.4byte	.LVL131
 7050 08fb 0100     		.2byte	0x1
 7051 08fd 55       		.byte	0x55
 7052 08fe AC000000 		.4byte	.LVL131
 7053 0902 AF000000 		.4byte	.LVL132-1
 7054 0906 0100     		.2byte	0x1
 7055 0908 50       		.byte	0x50
 7056 0909 AF000000 		.4byte	.LVL132-1
 7057 090d B2000000 		.4byte	.LVL133
 7058 0911 0100     		.2byte	0x1
 7059 0913 55       		.byte	0x55
 7060 0914 B2000000 		.4byte	.LVL133
 7061 0918 B4000000 		.4byte	.LVL134
 7062 091c 0200     		.2byte	0x2
 7063 091e 30       		.byte	0x30
 7064 091f 9F       		.byte	0x9f
 7065 0920 B4000000 		.4byte	.LVL134
 7066 0924 D0000000 		.4byte	.LVL138
 7067 0928 0100     		.2byte	0x1
 7068 092a 55       		.byte	0x55
ARM GAS  C:\Users\kateb\AppData\Local\Temp\cc9mC3XY.s 			page 153


 7069 092b 00000000 		.4byte	0
 7070 092f 00000000 		.4byte	0
 7071              	.LLST53:
 7072 0933 08000000 		.4byte	.LVL110
 7073 0937 3E000000 		.4byte	.LVL116
 7074 093b 0100     		.2byte	0x1
 7075 093d 52       		.byte	0x52
 7076 093e 3E000000 		.4byte	.LVL116
 7077 0942 40000000 		.4byte	.LVL117
 7078 0946 0100     		.2byte	0x1
 7079 0948 58       		.byte	0x58
 7080 0949 40000000 		.4byte	.LVL117
 7081 094d 42000000 		.4byte	.LVL118
 7082 0951 0100     		.2byte	0x1
 7083 0953 52       		.byte	0x52
 7084 0954 42000000 		.4byte	.LVL118
 7085 0958 02010000 		.4byte	.LFE601
 7086 095c 0100     		.2byte	0x1
 7087 095e 58       		.byte	0x58
 7088 095f 00000000 		.4byte	0
 7089 0963 00000000 		.4byte	0
 7090              	.LLST54:
 7091 0967 00000000 		.4byte	.LVL144
 7092 096b 49000000 		.4byte	.LVL153-1
 7093 096f 0100     		.2byte	0x1
 7094 0971 50       		.byte	0x50
 7095 0972 49000000 		.4byte	.LVL153-1
 7096 0976 A0000000 		.4byte	.LFE602
 7097 097a 0100     		.2byte	0x1
 7098 097c 54       		.byte	0x54
 7099 097d 00000000 		.4byte	0
 7100 0981 00000000 		.4byte	0
 7101              	.LLST55:
 7102 0985 00000000 		.4byte	.LVL144
 7103 0989 32000000 		.4byte	.LVL149
 7104 098d 0100     		.2byte	0x1
 7105 098f 51       		.byte	0x51
 7106 0990 32000000 		.4byte	.LVL149
 7107 0994 7E000000 		.4byte	.LVL159
 7108 0998 0100     		.2byte	0x1
 7109 099a 56       		.byte	0x56
 7110 099b 7E000000 		.4byte	.LVL159
 7111 099f A0000000 		.4byte	.LFE602
 7112 09a3 0400     		.2byte	0x4
 7113 09a5 F3       		.byte	0xf3
 7114 09a6 01       		.uleb128 0x1
 7115 09a7 51       		.byte	0x51
 7116 09a8 9F       		.byte	0x9f
 7117 09a9 00000000 		.4byte	0
 7118 09ad 00000000 		.4byte	0
 7119              	.LLST56:
 7120 09b1 00000000 		.4byte	.LVL144
 7121 09b5 49000000 		.4byte	.LVL153-1
 7122 09b9 0100     		.2byte	0x1
 7123 09bb 52       		.byte	0x52
 7124 09bc 49000000 		.4byte	.LVL153-1
 7125 09c0 5C000000 		.4byte	.LVL156
ARM GAS  C:\Users\kateb\AppData\Local\Temp\cc9mC3XY.s 			page 154


 7126 09c4 0100     		.2byte	0x1
 7127 09c6 55       		.byte	0x55
 7128 09c7 5C000000 		.4byte	.LVL156
 7129 09cb A0000000 		.4byte	.LFE602
 7130 09cf 0400     		.2byte	0x4
 7131 09d1 F3       		.byte	0xf3
 7132 09d2 01       		.uleb128 0x1
 7133 09d3 52       		.byte	0x52
 7134 09d4 9F       		.byte	0x9f
 7135 09d5 00000000 		.4byte	0
 7136 09d9 00000000 		.4byte	0
 7137              	.LLST57:
 7138 09dd 00000000 		.4byte	.LVL144
 7139 09e1 12000000 		.4byte	.LVL145
 7140 09e5 0100     		.2byte	0x1
 7141 09e7 53       		.byte	0x53
 7142 09e8 12000000 		.4byte	.LVL145
 7143 09ec 14000000 		.4byte	.LVL146
 7144 09f0 0400     		.2byte	0x4
 7145 09f2 F3       		.byte	0xf3
 7146 09f3 01       		.uleb128 0x1
 7147 09f4 53       		.byte	0x53
 7148 09f5 9F       		.byte	0x9f
 7149 09f6 14000000 		.4byte	.LVL146
 7150 09fa 2E000000 		.4byte	.LVL147
 7151 09fe 0100     		.2byte	0x1
 7152 0a00 53       		.byte	0x53
 7153 0a01 2E000000 		.4byte	.LVL147
 7154 0a05 30000000 		.4byte	.LVL148
 7155 0a09 0400     		.2byte	0x4
 7156 0a0b F3       		.byte	0xf3
 7157 0a0c 01       		.uleb128 0x1
 7158 0a0d 53       		.byte	0x53
 7159 0a0e 9F       		.byte	0x9f
 7160 0a0f 30000000 		.4byte	.LVL148
 7161 0a13 49000000 		.4byte	.LVL153-1
 7162 0a17 0100     		.2byte	0x1
 7163 0a19 53       		.byte	0x53
 7164 0a1a 49000000 		.4byte	.LVL153-1
 7165 0a1e A0000000 		.4byte	.LFE602
 7166 0a22 0100     		.2byte	0x1
 7167 0a24 57       		.byte	0x57
 7168 0a25 00000000 		.4byte	0
 7169 0a29 00000000 		.4byte	0
 7170              	.LLST59:
 7171 0a2d 5A000000 		.4byte	.LVL155
 7172 0a31 60000000 		.4byte	.LVL157
 7173 0a35 0100     		.2byte	0x1
 7174 0a37 50       		.byte	0x50
 7175 0a38 60000000 		.4byte	.LVL157
 7176 0a3c A0000000 		.4byte	.LFE602
 7177 0a40 0100     		.2byte	0x1
 7178 0a42 55       		.byte	0x55
 7179 0a43 00000000 		.4byte	0
 7180 0a47 00000000 		.4byte	0
 7181              	.LLST60:
 7182 0a4b 4A000000 		.4byte	.LVL153
ARM GAS  C:\Users\kateb\AppData\Local\Temp\cc9mC3XY.s 			page 155


 7183 0a4f 56000000 		.4byte	.LVL154
 7184 0a53 0100     		.2byte	0x1
 7185 0a55 50       		.byte	0x50
 7186 0a56 56000000 		.4byte	.LVL154
 7187 0a5a 59000000 		.4byte	.LVL155-1
 7188 0a5e 0100     		.2byte	0x1
 7189 0a60 53       		.byte	0x53
 7190 0a61 00000000 		.4byte	0
 7191 0a65 00000000 		.4byte	0
 7192              	.LLST61:
 7193 0a69 00000000 		.4byte	.LVL144
 7194 0a6d 3C000000 		.4byte	.LVL150
 7195 0a71 0100     		.2byte	0x1
 7196 0a73 52       		.byte	0x52
 7197 0a74 3C000000 		.4byte	.LVL150
 7198 0a78 3E000000 		.4byte	.LVL151
 7199 0a7c 0100     		.2byte	0x1
 7200 0a7e 58       		.byte	0x58
 7201 0a7f 3E000000 		.4byte	.LVL151
 7202 0a83 40000000 		.4byte	.LVL152
 7203 0a87 0100     		.2byte	0x1
 7204 0a89 52       		.byte	0x52
 7205 0a8a 40000000 		.4byte	.LVL152
 7206 0a8e A0000000 		.4byte	.LFE602
 7207 0a92 0100     		.2byte	0x1
 7208 0a94 58       		.byte	0x58
 7209 0a95 00000000 		.4byte	0
 7210 0a99 00000000 		.4byte	0
 7211              	.LLST62:
 7212 0a9d 94000000 		.4byte	.LVL161
 7213 0aa1 98000000 		.4byte	.LVL162
 7214 0aa5 0100     		.2byte	0x1
 7215 0aa7 56       		.byte	0x56
 7216 0aa8 00000000 		.4byte	0
 7217 0aac 00000000 		.4byte	0
 7218              	.LLST63:
 7219 0ab0 00000000 		.4byte	.LVL163
 7220 0ab4 49000000 		.4byte	.LVL170-1
 7221 0ab8 0100     		.2byte	0x1
 7222 0aba 50       		.byte	0x50
 7223 0abb 49000000 		.4byte	.LVL170-1
 7224 0abf 9C000000 		.4byte	.LVL181
 7225 0ac3 0100     		.2byte	0x1
 7226 0ac5 54       		.byte	0x54
 7227 0ac6 9C000000 		.4byte	.LVL181
 7228 0aca 9F000000 		.4byte	.LVL182-1
 7229 0ace 0100     		.2byte	0x1
 7230 0ad0 50       		.byte	0x50
 7231 0ad1 9F000000 		.4byte	.LVL182-1
 7232 0ad5 E0000000 		.4byte	.LFE604
 7233 0ad9 0100     		.2byte	0x1
 7234 0adb 54       		.byte	0x54
 7235 0adc 00000000 		.4byte	0
 7236 0ae0 00000000 		.4byte	0
 7237              	.LLST64:
 7238 0ae4 00000000 		.4byte	.LVL163
 7239 0ae8 32000000 		.4byte	.LVL168
ARM GAS  C:\Users\kateb\AppData\Local\Temp\cc9mC3XY.s 			page 156


 7240 0aec 0100     		.2byte	0x1
 7241 0aee 51       		.byte	0x51
 7242 0aef 32000000 		.4byte	.LVL168
 7243 0af3 E0000000 		.4byte	.LFE604
 7244 0af7 0100     		.2byte	0x1
 7245 0af9 58       		.byte	0x58
 7246 0afa 00000000 		.4byte	0
 7247 0afe 00000000 		.4byte	0
 7248              	.LLST65:
 7249 0b02 00000000 		.4byte	.LVL163
 7250 0b06 49000000 		.4byte	.LVL170-1
 7251 0b0a 0100     		.2byte	0x1
 7252 0b0c 52       		.byte	0x52
 7253 0b0d 49000000 		.4byte	.LVL170-1
 7254 0b11 9C000000 		.4byte	.LVL181
 7255 0b15 0100     		.2byte	0x1
 7256 0b17 59       		.byte	0x59
 7257 0b18 9C000000 		.4byte	.LVL181
 7258 0b1c 9F000000 		.4byte	.LVL182-1
 7259 0b20 0100     		.2byte	0x1
 7260 0b22 52       		.byte	0x52
 7261 0b23 9F000000 		.4byte	.LVL182-1
 7262 0b27 E0000000 		.4byte	.LFE604
 7263 0b2b 0100     		.2byte	0x1
 7264 0b2d 59       		.byte	0x59
 7265 0b2e 00000000 		.4byte	0
 7266 0b32 00000000 		.4byte	0
 7267              	.LLST66:
 7268 0b36 00000000 		.4byte	.LVL163
 7269 0b3a 12000000 		.4byte	.LVL164
 7270 0b3e 0100     		.2byte	0x1
 7271 0b40 53       		.byte	0x53
 7272 0b41 12000000 		.4byte	.LVL164
 7273 0b45 14000000 		.4byte	.LVL165
 7274 0b49 0400     		.2byte	0x4
 7275 0b4b F3       		.byte	0xf3
 7276 0b4c 01       		.uleb128 0x1
 7277 0b4d 53       		.byte	0x53
 7278 0b4e 9F       		.byte	0x9f
 7279 0b4f 14000000 		.4byte	.LVL165
 7280 0b53 2E000000 		.4byte	.LVL166
 7281 0b57 0100     		.2byte	0x1
 7282 0b59 53       		.byte	0x53
 7283 0b5a 2E000000 		.4byte	.LVL166
 7284 0b5e 30000000 		.4byte	.LVL167
 7285 0b62 0400     		.2byte	0x4
 7286 0b64 F3       		.byte	0xf3
 7287 0b65 01       		.uleb128 0x1
 7288 0b66 53       		.byte	0x53
 7289 0b67 9F       		.byte	0x9f
 7290 0b68 30000000 		.4byte	.LVL167
 7291 0b6c 49000000 		.4byte	.LVL170-1
 7292 0b70 0100     		.2byte	0x1
 7293 0b72 53       		.byte	0x53
 7294 0b73 49000000 		.4byte	.LVL170-1
 7295 0b77 9C000000 		.4byte	.LVL181
 7296 0b7b 0100     		.2byte	0x1
ARM GAS  C:\Users\kateb\AppData\Local\Temp\cc9mC3XY.s 			page 157


 7297 0b7d 57       		.byte	0x57
 7298 0b7e 9C000000 		.4byte	.LVL181
 7299 0b82 9F000000 		.4byte	.LVL182-1
 7300 0b86 0100     		.2byte	0x1
 7301 0b88 53       		.byte	0x53
 7302 0b89 9F000000 		.4byte	.LVL182-1
 7303 0b8d E0000000 		.4byte	.LFE604
 7304 0b91 0100     		.2byte	0x1
 7305 0b93 57       		.byte	0x57
 7306 0b94 00000000 		.4byte	0
 7307 0b98 00000000 		.4byte	0
 7308              	.LLST68:
 7309 0b9c 00000000 		.4byte	.LVL163
 7310 0ba0 B4000000 		.4byte	.LVL184
 7311 0ba4 0200     		.2byte	0x2
 7312 0ba6 30       		.byte	0x30
 7313 0ba7 9F       		.byte	0x9f
 7314 0ba8 B4000000 		.4byte	.LVL184
 7315 0bac BB000000 		.4byte	.LVL186-1
 7316 0bb0 0100     		.2byte	0x1
 7317 0bb2 50       		.byte	0x50
 7318 0bb3 BB000000 		.4byte	.LVL186-1
 7319 0bb7 D6000000 		.4byte	.LVL189
 7320 0bbb 0100     		.2byte	0x1
 7321 0bbd 55       		.byte	0x55
 7322 0bbe D6000000 		.4byte	.LVL189
 7323 0bc2 D8000000 		.4byte	.LVL190
 7324 0bc6 0200     		.2byte	0x2
 7325 0bc8 30       		.byte	0x30
 7326 0bc9 9F       		.byte	0x9f
 7327 0bca D8000000 		.4byte	.LVL190
 7328 0bce E0000000 		.4byte	.LFE604
 7329 0bd2 0100     		.2byte	0x1
 7330 0bd4 55       		.byte	0x55
 7331 0bd5 00000000 		.4byte	0
 7332 0bd9 00000000 		.4byte	0
 7333              	.LLST69:
 7334 0bdd 52000000 		.4byte	.LVL172
 7335 0be1 58000000 		.4byte	.LVL173
 7336 0be5 0100     		.2byte	0x1
 7337 0be7 50       		.byte	0x50
 7338 0be8 58000000 		.4byte	.LVL173
 7339 0bec 9A000000 		.4byte	.LVL180
 7340 0bf0 0100     		.2byte	0x1
 7341 0bf2 55       		.byte	0x55
 7342 0bf3 9A000000 		.4byte	.LVL180
 7343 0bf7 9C000000 		.4byte	.LVL181
 7344 0bfb 0100     		.2byte	0x1
 7345 0bfd 50       		.byte	0x50
 7346 0bfe A2000000 		.4byte	.LVL183
 7347 0c02 B6000000 		.4byte	.LVL185
 7348 0c06 0100     		.2byte	0x1
 7349 0c08 55       		.byte	0x55
 7350 0c09 D6000000 		.4byte	.LVL189
 7351 0c0d D8000000 		.4byte	.LVL190
 7352 0c11 0100     		.2byte	0x1
 7353 0c13 55       		.byte	0x55
ARM GAS  C:\Users\kateb\AppData\Local\Temp\cc9mC3XY.s 			page 158


 7354 0c14 00000000 		.4byte	0
 7355 0c18 00000000 		.4byte	0
 7356              	.LLST70:
 7357 0c1c 00000000 		.4byte	.LVL191
 7358 0c20 47000000 		.4byte	.LVL198-1
 7359 0c24 0100     		.2byte	0x1
 7360 0c26 50       		.byte	0x50
 7361 0c27 47000000 		.4byte	.LVL198-1
 7362 0c2b 9A000000 		.4byte	.LFE605
 7363 0c2f 0100     		.2byte	0x1
 7364 0c31 54       		.byte	0x54
 7365 0c32 00000000 		.4byte	0
 7366 0c36 00000000 		.4byte	0
 7367              	.LLST71:
 7368 0c3a 00000000 		.4byte	.LVL191
 7369 0c3e 32000000 		.4byte	.LVL196
 7370 0c42 0100     		.2byte	0x1
 7371 0c44 51       		.byte	0x51
 7372 0c45 32000000 		.4byte	.LVL196
 7373 0c49 5C000000 		.4byte	.LVL202
 7374 0c4d 0100     		.2byte	0x1
 7375 0c4f 55       		.byte	0x55
 7376 0c50 5C000000 		.4byte	.LVL202
 7377 0c54 90000000 		.4byte	.LVL207
 7378 0c58 0400     		.2byte	0x4
 7379 0c5a F3       		.byte	0xf3
 7380 0c5b 01       		.uleb128 0x1
 7381 0c5c 51       		.byte	0x51
 7382 0c5d 9F       		.byte	0x9f
 7383 0c5e 90000000 		.4byte	.LVL207
 7384 0c62 92000000 		.4byte	.LVL208
 7385 0c66 0100     		.2byte	0x1
 7386 0c68 55       		.byte	0x55
 7387 0c69 92000000 		.4byte	.LVL208
 7388 0c6d 9A000000 		.4byte	.LFE605
 7389 0c71 0400     		.2byte	0x4
 7390 0c73 F3       		.byte	0xf3
 7391 0c74 01       		.uleb128 0x1
 7392 0c75 51       		.byte	0x51
 7393 0c76 9F       		.byte	0x9f
 7394 0c77 00000000 		.4byte	0
 7395 0c7b 00000000 		.4byte	0
 7396              	.LLST72:
 7397 0c7f 00000000 		.4byte	.LVL191
 7398 0c83 47000000 		.4byte	.LVL198-1
 7399 0c87 0100     		.2byte	0x1
 7400 0c89 52       		.byte	0x52
 7401 0c8a 47000000 		.4byte	.LVL198-1
 7402 0c8e 72000000 		.4byte	.LVL203
 7403 0c92 0100     		.2byte	0x1
 7404 0c94 56       		.byte	0x56
 7405 0c95 72000000 		.4byte	.LVL203
 7406 0c99 90000000 		.4byte	.LVL207
 7407 0c9d 0400     		.2byte	0x4
 7408 0c9f F3       		.byte	0xf3
 7409 0ca0 01       		.uleb128 0x1
 7410 0ca1 52       		.byte	0x52
ARM GAS  C:\Users\kateb\AppData\Local\Temp\cc9mC3XY.s 			page 159


 7411 0ca2 9F       		.byte	0x9f
 7412 0ca3 90000000 		.4byte	.LVL207
 7413 0ca7 92000000 		.4byte	.LVL208
 7414 0cab 0100     		.2byte	0x1
 7415 0cad 56       		.byte	0x56
 7416 0cae 92000000 		.4byte	.LVL208
 7417 0cb2 9A000000 		.4byte	.LFE605
 7418 0cb6 0400     		.2byte	0x4
 7419 0cb8 F3       		.byte	0xf3
 7420 0cb9 01       		.uleb128 0x1
 7421 0cba 52       		.byte	0x52
 7422 0cbb 9F       		.byte	0x9f
 7423 0cbc 00000000 		.4byte	0
 7424 0cc0 00000000 		.4byte	0
 7425              	.LLST73:
 7426 0cc4 00000000 		.4byte	.LVL191
 7427 0cc8 12000000 		.4byte	.LVL192
 7428 0ccc 0100     		.2byte	0x1
 7429 0cce 53       		.byte	0x53
 7430 0ccf 12000000 		.4byte	.LVL192
 7431 0cd3 14000000 		.4byte	.LVL193
 7432 0cd7 0400     		.2byte	0x4
 7433 0cd9 F3       		.byte	0xf3
 7434 0cda 01       		.uleb128 0x1
 7435 0cdb 53       		.byte	0x53
 7436 0cdc 9F       		.byte	0x9f
 7437 0cdd 14000000 		.4byte	.LVL193
 7438 0ce1 2E000000 		.4byte	.LVL194
 7439 0ce5 0100     		.2byte	0x1
 7440 0ce7 53       		.byte	0x53
 7441 0ce8 2E000000 		.4byte	.LVL194
 7442 0cec 30000000 		.4byte	.LVL195
 7443 0cf0 0400     		.2byte	0x4
 7444 0cf2 F3       		.byte	0xf3
 7445 0cf3 01       		.uleb128 0x1
 7446 0cf4 53       		.byte	0x53
 7447 0cf5 9F       		.byte	0x9f
 7448 0cf6 30000000 		.4byte	.LVL195
 7449 0cfa 47000000 		.4byte	.LVL198-1
 7450 0cfe 0100     		.2byte	0x1
 7451 0d00 53       		.byte	0x53
 7452 0d01 47000000 		.4byte	.LVL198-1
 7453 0d05 9A000000 		.4byte	.LFE605
 7454 0d09 0100     		.2byte	0x1
 7455 0d0b 58       		.byte	0x58
 7456 0d0c 00000000 		.4byte	0
 7457 0d10 00000000 		.4byte	0
 7458              	.LLST75:
 7459 0d14 00000000 		.4byte	.LVL191
 7460 0d18 5A000000 		.4byte	.LVL201
 7461 0d1c 0200     		.2byte	0x2
 7462 0d1e 30       		.byte	0x30
 7463 0d1f 9F       		.byte	0x9f
 7464 0d20 5A000000 		.4byte	.LVL201
 7465 0d24 78000000 		.4byte	.LVL204
 7466 0d28 0100     		.2byte	0x1
 7467 0d2a 50       		.byte	0x50
ARM GAS  C:\Users\kateb\AppData\Local\Temp\cc9mC3XY.s 			page 160


 7468 0d2b 78000000 		.4byte	.LVL204
 7469 0d2f 90000000 		.4byte	.LVL207
 7470 0d33 0100     		.2byte	0x1
 7471 0d35 55       		.byte	0x55
 7472 0d36 90000000 		.4byte	.LVL207
 7473 0d3a 92000000 		.4byte	.LVL208
 7474 0d3e 0200     		.2byte	0x2
 7475 0d40 30       		.byte	0x30
 7476 0d41 9F       		.byte	0x9f
 7477 0d42 92000000 		.4byte	.LVL208
 7478 0d46 9A000000 		.4byte	.LFE605
 7479 0d4a 0100     		.2byte	0x1
 7480 0d4c 55       		.byte	0x55
 7481 0d4d 00000000 		.4byte	0
 7482 0d51 00000000 		.4byte	0
 7483              	.LLST76:
 7484 0d55 4A000000 		.4byte	.LVL199
 7485 0d59 56000000 		.4byte	.LVL200
 7486 0d5d 0100     		.2byte	0x1
 7487 0d5f 50       		.byte	0x50
 7488 0d60 56000000 		.4byte	.LVL200
 7489 0d64 59000000 		.4byte	.LVL201-1
 7490 0d68 0100     		.2byte	0x1
 7491 0d6a 53       		.byte	0x53
 7492 0d6b 90000000 		.4byte	.LVL207
 7493 0d6f 92000000 		.4byte	.LVL208
 7494 0d73 0100     		.2byte	0x1
 7495 0d75 50       		.byte	0x50
 7496 0d76 00000000 		.4byte	0
 7497 0d7a 00000000 		.4byte	0
 7498              	.LLST77:
 7499 0d7e 8A000000 		.4byte	.LVL206
 7500 0d82 90000000 		.4byte	.LVL207
 7501 0d86 0100     		.2byte	0x1
 7502 0d88 56       		.byte	0x56
 7503 0d89 00000000 		.4byte	0
 7504 0d8d 00000000 		.4byte	0
 7505              	.LLST78:
 7506 0d91 00000000 		.4byte	.LVL209
 7507 0d95 1E000000 		.4byte	.LVL212
 7508 0d99 0100     		.2byte	0x1
 7509 0d9b 50       		.byte	0x50
 7510 0d9c 1E000000 		.4byte	.LVL212
 7511 0da0 20000000 		.4byte	.LVL213
 7512 0da4 0400     		.2byte	0x4
 7513 0da6 F3       		.byte	0xf3
 7514 0da7 01       		.uleb128 0x1
 7515 0da8 50       		.byte	0x50
 7516 0da9 9F       		.byte	0x9f
 7517 0daa 20000000 		.4byte	.LVL213
 7518 0dae 22000000 		.4byte	.LVL214
 7519 0db2 0100     		.2byte	0x1
 7520 0db4 50       		.byte	0x50
 7521 0db5 22000000 		.4byte	.LVL214
 7522 0db9 24000000 		.4byte	.LFE607
 7523 0dbd 0400     		.2byte	0x4
 7524 0dbf F3       		.byte	0xf3
ARM GAS  C:\Users\kateb\AppData\Local\Temp\cc9mC3XY.s 			page 161


 7525 0dc0 01       		.uleb128 0x1
 7526 0dc1 50       		.byte	0x50
 7527 0dc2 9F       		.byte	0x9f
 7528 0dc3 00000000 		.4byte	0
 7529 0dc7 00000000 		.4byte	0
 7530              	.LLST79:
 7531 0dcb 00000000 		.4byte	.LVL209
 7532 0dcf 1E000000 		.4byte	.LVL212
 7533 0dd3 0100     		.2byte	0x1
 7534 0dd5 50       		.byte	0x50
 7535 0dd6 1E000000 		.4byte	.LVL212
 7536 0dda 20000000 		.4byte	.LVL213
 7537 0dde 0400     		.2byte	0x4
 7538 0de0 F3       		.byte	0xf3
 7539 0de1 01       		.uleb128 0x1
 7540 0de2 50       		.byte	0x50
 7541 0de3 9F       		.byte	0x9f
 7542 0de4 20000000 		.4byte	.LVL213
 7543 0de8 22000000 		.4byte	.LVL214
 7544 0dec 0100     		.2byte	0x1
 7545 0dee 50       		.byte	0x50
 7546 0def 22000000 		.4byte	.LVL214
 7547 0df3 24000000 		.4byte	.LFE607
 7548 0df7 0400     		.2byte	0x4
 7549 0df9 F3       		.byte	0xf3
 7550 0dfa 01       		.uleb128 0x1
 7551 0dfb 50       		.byte	0x50
 7552 0dfc 9F       		.byte	0x9f
 7553 0dfd 00000000 		.4byte	0
 7554 0e01 00000000 		.4byte	0
 7555              	.LLST80:
 7556 0e05 00000000 		.4byte	.LVL215
 7557 0e09 28000000 		.4byte	.LVL217
 7558 0e0d 0100     		.2byte	0x1
 7559 0e0f 50       		.byte	0x50
 7560 0e10 28000000 		.4byte	.LVL217
 7561 0e14 2B000000 		.4byte	.LVL218-1
 7562 0e18 0100     		.2byte	0x1
 7563 0e1a 53       		.byte	0x53
 7564 0e1b 2B000000 		.4byte	.LVL218-1
 7565 0e1f 38000000 		.4byte	.LFE608
 7566 0e23 0400     		.2byte	0x4
 7567 0e25 F3       		.byte	0xf3
 7568 0e26 01       		.uleb128 0x1
 7569 0e27 50       		.byte	0x50
 7570 0e28 9F       		.byte	0x9f
 7571 0e29 00000000 		.4byte	0
 7572 0e2d 00000000 		.4byte	0
 7573              	.LLST81:
 7574 0e31 00000000 		.4byte	.LVL215
 7575 0e35 28000000 		.4byte	.LVL217
 7576 0e39 0100     		.2byte	0x1
 7577 0e3b 50       		.byte	0x50
 7578 0e3c 28000000 		.4byte	.LVL217
 7579 0e40 2B000000 		.4byte	.LVL218-1
 7580 0e44 0100     		.2byte	0x1
 7581 0e46 53       		.byte	0x53
ARM GAS  C:\Users\kateb\AppData\Local\Temp\cc9mC3XY.s 			page 162


 7582 0e47 2B000000 		.4byte	.LVL218-1
 7583 0e4b 38000000 		.4byte	.LFE608
 7584 0e4f 0400     		.2byte	0x4
 7585 0e51 F3       		.byte	0xf3
 7586 0e52 01       		.uleb128 0x1
 7587 0e53 50       		.byte	0x50
 7588 0e54 9F       		.byte	0x9f
 7589 0e55 00000000 		.4byte	0
 7590 0e59 00000000 		.4byte	0
 7591              	.LLST82:
 7592 0e5d 00000000 		.4byte	.LVL221
 7593 0e61 34000000 		.4byte	.LVL223
 7594 0e65 0100     		.2byte	0x1
 7595 0e67 50       		.byte	0x50
 7596 0e68 34000000 		.4byte	.LVL223
 7597 0e6c 48000000 		.4byte	.LVL227
 7598 0e70 0100     		.2byte	0x1
 7599 0e72 54       		.byte	0x54
 7600 0e73 48000000 		.4byte	.LVL227
 7601 0e77 4A000000 		.4byte	.LVL228
 7602 0e7b 0100     		.2byte	0x1
 7603 0e7d 50       		.byte	0x50
 7604 0e7e 4A000000 		.4byte	.LVL228
 7605 0e82 52000000 		.4byte	.LFE609
 7606 0e86 0100     		.2byte	0x1
 7607 0e88 54       		.byte	0x54
 7608 0e89 00000000 		.4byte	0
 7609 0e8d 00000000 		.4byte	0
 7610              	.LLST83:
 7611 0e91 00000000 		.4byte	.LVL221
 7612 0e95 3C000000 		.4byte	.LVL224
 7613 0e99 0100     		.2byte	0x1
 7614 0e9b 51       		.byte	0x51
 7615 0e9c 3C000000 		.4byte	.LVL224
 7616 0ea0 3F000000 		.4byte	.LVL225-1
 7617 0ea4 0200     		.2byte	0x2
 7618 0ea6 7D       		.byte	0x7d
 7619 0ea7 00       		.sleb128 0
 7620 0ea8 3F000000 		.4byte	.LVL225-1
 7621 0eac 48000000 		.4byte	.LVL227
 7622 0eb0 0400     		.2byte	0x4
 7623 0eb2 F3       		.byte	0xf3
 7624 0eb3 01       		.uleb128 0x1
 7625 0eb4 51       		.byte	0x51
 7626 0eb5 9F       		.byte	0x9f
 7627 0eb6 48000000 		.4byte	.LVL227
 7628 0eba 4A000000 		.4byte	.LVL228
 7629 0ebe 0100     		.2byte	0x1
 7630 0ec0 51       		.byte	0x51
 7631 0ec1 4A000000 		.4byte	.LVL228
 7632 0ec5 52000000 		.4byte	.LFE609
 7633 0ec9 0400     		.2byte	0x4
 7634 0ecb F3       		.byte	0xf3
 7635 0ecc 01       		.uleb128 0x1
 7636 0ecd 51       		.byte	0x51
 7637 0ece 9F       		.byte	0x9f
 7638 0ecf 00000000 		.4byte	0
ARM GAS  C:\Users\kateb\AppData\Local\Temp\cc9mC3XY.s 			page 163


 7639 0ed3 00000000 		.4byte	0
 7640              	.LLST85:
 7641 0ed7 44000000 		.4byte	.LVL226
 7642 0edb 48000000 		.4byte	.LVL227
 7643 0edf 0200     		.2byte	0x2
 7644 0ee1 31       		.byte	0x31
 7645 0ee2 9F       		.byte	0x9f
 7646 0ee3 4A000000 		.4byte	.LVL228
 7647 0ee7 52000000 		.4byte	.LFE609
 7648 0eeb 0100     		.2byte	0x1
 7649 0eed 50       		.byte	0x50
 7650 0eee 00000000 		.4byte	0
 7651 0ef2 00000000 		.4byte	0
 7652              	.LLST86:
 7653 0ef6 4A000000 		.4byte	.LVL228
 7654 0efa 4E000000 		.4byte	.LVL229
 7655 0efe 0100     		.2byte	0x1
 7656 0f00 55       		.byte	0x55
 7657 0f01 00000000 		.4byte	0
 7658 0f05 00000000 		.4byte	0
 7659              	.LLST87:
 7660 0f09 00000000 		.4byte	.LVL230
 7661 0f0d 34000000 		.4byte	.LVL232
 7662 0f11 0100     		.2byte	0x1
 7663 0f13 50       		.byte	0x50
 7664 0f14 34000000 		.4byte	.LVL232
 7665 0f18 48000000 		.4byte	.LVL236
 7666 0f1c 0100     		.2byte	0x1
 7667 0f1e 54       		.byte	0x54
 7668 0f1f 48000000 		.4byte	.LVL236
 7669 0f23 4A000000 		.4byte	.LVL237
 7670 0f27 0100     		.2byte	0x1
 7671 0f29 50       		.byte	0x50
 7672 0f2a 4A000000 		.4byte	.LVL237
 7673 0f2e 52000000 		.4byte	.LFE610
 7674 0f32 0100     		.2byte	0x1
 7675 0f34 54       		.byte	0x54
 7676 0f35 00000000 		.4byte	0
 7677 0f39 00000000 		.4byte	0
 7678              	.LLST88:
 7679 0f3d 00000000 		.4byte	.LVL230
 7680 0f41 3C000000 		.4byte	.LVL233
 7681 0f45 0100     		.2byte	0x1
 7682 0f47 51       		.byte	0x51
 7683 0f48 3C000000 		.4byte	.LVL233
 7684 0f4c 3F000000 		.4byte	.LVL234-1
 7685 0f50 0200     		.2byte	0x2
 7686 0f52 7D       		.byte	0x7d
 7687 0f53 00       		.sleb128 0
 7688 0f54 3F000000 		.4byte	.LVL234-1
 7689 0f58 48000000 		.4byte	.LVL236
 7690 0f5c 0400     		.2byte	0x4
 7691 0f5e F3       		.byte	0xf3
 7692 0f5f 01       		.uleb128 0x1
 7693 0f60 51       		.byte	0x51
 7694 0f61 9F       		.byte	0x9f
 7695 0f62 48000000 		.4byte	.LVL236
ARM GAS  C:\Users\kateb\AppData\Local\Temp\cc9mC3XY.s 			page 164


 7696 0f66 4A000000 		.4byte	.LVL237
 7697 0f6a 0100     		.2byte	0x1
 7698 0f6c 51       		.byte	0x51
 7699 0f6d 4A000000 		.4byte	.LVL237
 7700 0f71 52000000 		.4byte	.LFE610
 7701 0f75 0400     		.2byte	0x4
 7702 0f77 F3       		.byte	0xf3
 7703 0f78 01       		.uleb128 0x1
 7704 0f79 51       		.byte	0x51
 7705 0f7a 9F       		.byte	0x9f
 7706 0f7b 00000000 		.4byte	0
 7707 0f7f 00000000 		.4byte	0
 7708              	.LLST90:
 7709 0f83 44000000 		.4byte	.LVL235
 7710 0f87 48000000 		.4byte	.LVL236
 7711 0f8b 0200     		.2byte	0x2
 7712 0f8d 31       		.byte	0x31
 7713 0f8e 9F       		.byte	0x9f
 7714 0f8f 4A000000 		.4byte	.LVL237
 7715 0f93 52000000 		.4byte	.LFE610
 7716 0f97 0100     		.2byte	0x1
 7717 0f99 50       		.byte	0x50
 7718 0f9a 00000000 		.4byte	0
 7719 0f9e 00000000 		.4byte	0
 7720              	.LLST91:
 7721 0fa2 4A000000 		.4byte	.LVL237
 7722 0fa6 4E000000 		.4byte	.LVL238
 7723 0faa 0100     		.2byte	0x1
 7724 0fac 55       		.byte	0x55
 7725 0fad 00000000 		.4byte	0
 7726 0fb1 00000000 		.4byte	0
 7727              		.section	.debug_aranges,"",%progbits
 7728 0000 B4000000 		.4byte	0xb4
 7729 0004 0200     		.2byte	0x2
 7730 0006 00000000 		.4byte	.Ldebug_info0
 7731 000a 04       		.byte	0x4
 7732 000b 00       		.byte	0
 7733 000c 0000     		.2byte	0
 7734 000e 0000     		.2byte	0
 7735 0010 00000000 		.4byte	.LFB613
 7736 0014 12000000 		.4byte	.LFE613-.LFB613
 7737 0018 00000000 		.4byte	.LFB614
 7738 001c 46000000 		.4byte	.LFE614-.LFB614
 7739 0020 00000000 		.4byte	.LFB611
 7740 0024 8C000000 		.4byte	.LFE611-.LFB611
 7741 0028 00000000 		.4byte	.LFB603
 7742 002c 52000000 		.4byte	.LFE603-.LFB603
 7743 0030 00000000 		.4byte	.LFB612
 7744 0034 96000000 		.4byte	.LFE612-.LFB612
 7745 0038 00000000 		.4byte	.LFB606
 7746 003c 44000000 		.4byte	.LFE606-.LFB606
 7747 0040 00000000 		.4byte	.LFB595
 7748 0044 58000000 		.4byte	.LFE595-.LFB595
 7749 0048 00000000 		.4byte	.LFB596
 7750 004c 2E000000 		.4byte	.LFE596-.LFB596
 7751 0050 00000000 		.4byte	.LFB597
 7752 0054 4E000000 		.4byte	.LFE597-.LFB597
ARM GAS  C:\Users\kateb\AppData\Local\Temp\cc9mC3XY.s 			page 165


 7753 0058 00000000 		.4byte	.LFB598
 7754 005c 2A000000 		.4byte	.LFE598-.LFB598
 7755 0060 00000000 		.4byte	.LFB599
 7756 0064 28000000 		.4byte	.LFE599-.LFB599
 7757 0068 00000000 		.4byte	.LFB600
 7758 006c 1C000000 		.4byte	.LFE600-.LFB600
 7759 0070 00000000 		.4byte	.LFB601
 7760 0074 02010000 		.4byte	.LFE601-.LFB601
 7761 0078 00000000 		.4byte	.LFB602
 7762 007c A0000000 		.4byte	.LFE602-.LFB602
 7763 0080 00000000 		.4byte	.LFB604
 7764 0084 E0000000 		.4byte	.LFE604-.LFB604
 7765 0088 00000000 		.4byte	.LFB605
 7766 008c 9A000000 		.4byte	.LFE605-.LFB605
 7767 0090 00000000 		.4byte	.LFB607
 7768 0094 24000000 		.4byte	.LFE607-.LFB607
 7769 0098 00000000 		.4byte	.LFB608
 7770 009c 38000000 		.4byte	.LFE608-.LFB608
 7771 00a0 00000000 		.4byte	.LFB609
 7772 00a4 52000000 		.4byte	.LFE609-.LFB609
 7773 00a8 00000000 		.4byte	.LFB610
 7774 00ac 52000000 		.4byte	.LFE610-.LFB610
 7775 00b0 00000000 		.4byte	0
 7776 00b4 00000000 		.4byte	0
 7777              		.section	.debug_ranges,"",%progbits
 7778              	.Ldebug_ranges0:
 7779 0000 00000000 		.4byte	.LFB613
 7780 0004 12000000 		.4byte	.LFE613
 7781 0008 00000000 		.4byte	.LFB614
 7782 000c 46000000 		.4byte	.LFE614
 7783 0010 00000000 		.4byte	.LFB611
 7784 0014 8C000000 		.4byte	.LFE611
 7785 0018 00000000 		.4byte	.LFB603
 7786 001c 52000000 		.4byte	.LFE603
 7787 0020 00000000 		.4byte	.LFB612
 7788 0024 96000000 		.4byte	.LFE612
 7789 0028 00000000 		.4byte	.LFB606
 7790 002c 44000000 		.4byte	.LFE606
 7791 0030 00000000 		.4byte	.LFB595
 7792 0034 58000000 		.4byte	.LFE595
 7793 0038 00000000 		.4byte	.LFB596
 7794 003c 2E000000 		.4byte	.LFE596
 7795 0040 00000000 		.4byte	.LFB597
 7796 0044 4E000000 		.4byte	.LFE597
 7797 0048 00000000 		.4byte	.LFB598
 7798 004c 2A000000 		.4byte	.LFE598
 7799 0050 00000000 		.4byte	.LFB599
 7800 0054 28000000 		.4byte	.LFE599
 7801 0058 00000000 		.4byte	.LFB600
 7802 005c 1C000000 		.4byte	.LFE600
 7803 0060 00000000 		.4byte	.LFB601
 7804 0064 02010000 		.4byte	.LFE601
 7805 0068 00000000 		.4byte	.LFB602
 7806 006c A0000000 		.4byte	.LFE602
 7807 0070 00000000 		.4byte	.LFB604
 7808 0074 E0000000 		.4byte	.LFE604
 7809 0078 00000000 		.4byte	.LFB605
ARM GAS  C:\Users\kateb\AppData\Local\Temp\cc9mC3XY.s 			page 166


 7810 007c 9A000000 		.4byte	.LFE605
 7811 0080 00000000 		.4byte	.LFB607
 7812 0084 24000000 		.4byte	.LFE607
 7813 0088 00000000 		.4byte	.LFB608
 7814 008c 38000000 		.4byte	.LFE608
 7815 0090 00000000 		.4byte	.LFB609
 7816 0094 52000000 		.4byte	.LFE609
 7817 0098 00000000 		.4byte	.LFB610
 7818 009c 52000000 		.4byte	.LFE610
 7819 00a0 00000000 		.4byte	0
 7820 00a4 00000000 		.4byte	0
 7821              		.section	.debug_line,"",%progbits
 7822              	.Ldebug_line0:
 7823 0000 C4080000 		.section	.debug_str,"MS",%progbits,1
 7823      0200B904 
 7823      00000201 
 7823      FB0E0D00 
 7823      01010101 
 7824              	.LASF122:
 7825 0000 70756342 		.ascii	"pucBuffer\000"
 7825      75666665 
 7825      7200
 7826              	.LASF126:
 7827 000a 756C4F72 		.ascii	"ulOriginalBASEPRI\000"
 7827      6967696E 
 7827      616C4241 
 7827      53455052 
 7827      4900
 7828              	.LASF156:
 7829 001c 784E6578 		.ascii	"xNextMessageLength\000"
 7829      744D6573 
 7829      73616765 
 7829      4C656E67 
 7829      746800
 7830              	.LASF38:
 7831 002f 72784275 		.ascii	"rxBufSize\000"
 7831      6653697A 
 7831      6500
 7832              	.LASF185:
 7833 0039 5254435F 		.ascii	"RTC_dstConfig\000"
 7833      64737443 
 7833      6F6E6669 
 7833      6700
 7834              	.LASF150:
 7835 0047 70727652 		.ascii	"prvReadMessageFromBuffer\000"
 7835      6561644D 
 7835      65737361 
 7835      67654672 
 7835      6F6D4275 
 7836              	.LASF85:
 7837 0060 63795F65 		.ascii	"cy_en_ble_adv_state_t\000"
 7837      6E5F626C 
 7837      655F6164 
 7837      765F7374 
 7837      6174655F 
 7838              	.LASF15:
 7839 0076 73697A65 		.ascii	"size_t\000"
ARM GAS  C:\Users\kateb\AppData\Local\Temp\cc9mC3XY.s 			page 167


 7839      5F7400
 7840              	.LASF113:
 7841 007d 54696D65 		.ascii	"TimeOut_t\000"
 7841      4F75745F 
 7841      7400
 7842              	.LASF119:
 7843 0087 78547269 		.ascii	"xTriggerLevelBytes\000"
 7843      67676572 
 7843      4C657665 
 7843      6C427974 
 7843      657300
 7844              	.LASF169:
 7845 009a 70784869 		.ascii	"pxHigherPriorityTaskWoken\000"
 7845      67686572 
 7845      5072696F 
 7845      72697479 
 7845      5461736B 
 7846              	.LASF4:
 7847 00b4 5F5F7569 		.ascii	"__uint8_t\000"
 7847      6E74385F 
 7847      7400
 7848              	.LASF71:
 7849 00be 73617449 		.ascii	"satIntrMask\000"
 7849      6E74724D 
 7849      61736B00 
 7850              	.LASF203:
 7851 00ca 78546173 		.ascii	"xTaskGenericNotifyFromISR\000"
 7851      6B47656E 
 7851      65726963 
 7851      4E6F7469 
 7851      66794672 
 7852              	.LASF143:
 7853 00e4 78526571 		.ascii	"xRequiredSpace\000"
 7853      75697265 
 7853      64537061 
 7853      636500
 7854              	.LASF6:
 7855 00f3 6C6F6E67 		.ascii	"long int\000"
 7855      20696E74 
 7855      00
 7856              	.LASF195:
 7857 00fc 78546173 		.ascii	"xTaskNotifyStateClear\000"
 7857      6B4E6F74 
 7857      69667953 
 7857      74617465 
 7857      436C6561 
 7858              	.LASF125:
 7859 0112 756C4E65 		.ascii	"ulNewBASEPRI\000"
 7859      77424153 
 7859      45505249 
 7859      00
 7860              	.LASF187:
 7861 011f 4144435F 		.ascii	"ADC_currentConfig\000"
 7861      63757272 
 7861      656E7443 
 7861      6F6E6669 
 7861      6700
ARM GAS  C:\Users\kateb\AppData\Local\Temp\cc9mC3XY.s 			page 168


 7862              	.LASF10:
 7863 0131 6C6F6E67 		.ascii	"long long unsigned int\000"
 7863      206C6F6E 
 7863      6720756E 
 7863      7369676E 
 7863      65642069 
 7864              	.LASF158:
 7865 0148 78537472 		.ascii	"xStreamBuffer\000"
 7865      65616D42 
 7865      75666665 
 7865      7200
 7866              	.LASF51:
 7867 0156 72785269 		.ascii	"rxRingBuf\000"
 7867      6E674275 
 7867      6600
 7868              	.LASF117:
 7869 0160 78486561 		.ascii	"xHead\000"
 7869      6400
 7870              	.LASF40:
 7871 0166 74784275 		.ascii	"txBuf\000"
 7871      6600
 7872              	.LASF28:
 7873 016c 7765656B 		.ascii	"weekOfMonth\000"
 7873      4F664D6F 
 7873      6E746800 
 7874              	.LASF184:
 7875 0178 5254435F 		.ascii	"RTC_rtcDstStatus\000"
 7875      72746344 
 7875      73745374 
 7875      61747573 
 7875      00
 7876              	.LASF168:
 7877 0189 78537472 		.ascii	"xStreamBufferSendFromISR\000"
 7877      65616D42 
 7877      75666665 
 7877      7253656E 
 7877      6446726F 
 7878              	.LASF22:
 7879 01a2 43595F52 		.ascii	"CY_RTC_DST_RELATIVE\000"
 7879      54435F44 
 7879      53545F52 
 7879      454C4154 
 7879      49564500 
 7880              	.LASF80:
 7881 01b6 63795F73 		.ascii	"cy_stc_ble_conn_handle_t\000"
 7881      74635F62 
 7881      6C655F63 
 7881      6F6E6E5F 
 7881      68616E64 
 7882              	.LASF0:
 7883 01cf 7369676E 		.ascii	"signed char\000"
 7883      65642063 
 7883      68617200 
 7884              	.LASF47:
 7885 01db 63795F73 		.ascii	"cy_stc_scb_spi_context\000"
 7885      74635F73 
 7885      63625F73 
ARM GAS  C:\Users\kateb\AppData\Local\Temp\cc9mC3XY.s 			page 169


 7885      70695F63 
 7885      6F6E7465 
 7886              	.LASF56:
 7887 01f2 63795F73 		.ascii	"cy_stc_scb_uart_context_t\000"
 7887      74635F73 
 7887      63625F75 
 7887      6172745F 
 7887      636F6E74 
 7888              	.LASF163:
 7889 020c 78537472 		.ascii	"xStreamBufferSpacesAvailable\000"
 7889      65616D42 
 7889      75666665 
 7889      72537061 
 7889      63657341 
 7890              	.LASF166:
 7891 0229 78546963 		.ascii	"xTicksToWait\000"
 7891      6B73546F 
 7891      57616974 
 7891      00
 7892              	.LASF99:
 7893 0236 636C6B44 		.ascii	"clkDivider\000"
 7893      69766964 
 7893      657200
 7894              	.LASF84:
 7895 0241 43595F42 		.ascii	"CY_BLE_ADV_STATE_STOP_INITIATED\000"
 7895      4C455F41 
 7895      44565F53 
 7895      54415445 
 7895      5F53544F 
 7896              	.LASF35:
 7897 0261 63795F63 		.ascii	"cy_cb_scb_spi_handle_events_t\000"
 7897      625F7363 
 7897      625F7370 
 7897      695F6861 
 7897      6E646C65 
 7898              	.LASF32:
 7899 027f 73746172 		.ascii	"startDst\000"
 7899      74447374 
 7899      00
 7900              	.LASF141:
 7901 0288 78446174 		.ascii	"xDataLengthBytes\000"
 7901      614C656E 
 7901      67746842 
 7901      79746573 
 7901      00
 7902              	.LASF131:
 7903 0299 7849734D 		.ascii	"xIsMessageBuffer\000"
 7903      65737361 
 7903      67654275 
 7903      66666572 
 7903      00
 7904              	.LASF23:
 7905 02aa 43595F52 		.ascii	"CY_RTC_DST_FIXED\000"
 7905      54435F44 
 7905      53545F46 
 7905      49584544 
 7905      00
ARM GAS  C:\Users\kateb\AppData\Local\Temp\cc9mC3XY.s 			page 170


 7906              	.LASF207:
 7907 02bb 756C506F 		.ascii	"ulPortRaiseBASEPRI\000"
 7907      72745261 
 7907      69736542 
 7907      41534550 
 7907      524900
 7908              	.LASF34:
 7909 02ce 63795F73 		.ascii	"cy_stc_rtc_dst_t\000"
 7909      74635F72 
 7909      74635F64 
 7909      73745F74 
 7909      00
 7910              	.LASF183:
 7911 02df 44454255 		.ascii	"DEBUG_UART_context\000"
 7911      475F5541 
 7911      52545F63 
 7911      6F6E7465 
 7911      787400
 7912              	.LASF106:
 7913 02f2 65536574 		.ascii	"eSetBits\000"
 7913      42697473 
 7913      00
 7914              	.LASF104:
 7915 02fb 5461736B 		.ascii	"TaskHandle_t\000"
 7915      48616E64 
 7915      6C655F74 
 7915      00
 7916              	.LASF190:
 7917 0308 6D656D63 		.ascii	"memcpy\000"
 7917      707900
 7918              	.LASF9:
 7919 030f 6C6F6E67 		.ascii	"long long int\000"
 7919      206C6F6E 
 7919      6720696E 
 7919      7400
 7920              	.LASF140:
 7921 031d 70765478 		.ascii	"pvTxData\000"
 7921      44617461 
 7921      00
 7922              	.LASF59:
 7923 0326 43595F53 		.ascii	"CY_SAR_RANGE_COND_ABOVE\000"
 7923      41525F52 
 7923      414E4745 
 7923      5F434F4E 
 7923      445F4142 
 7924              	.LASF20:
 7925 033e 646F7562 		.ascii	"double\000"
 7925      6C6500
 7926              	.LASF101:
 7927 0345 42617365 		.ascii	"BaseType_t\000"
 7927      54797065 
 7927      5F7400
 7928              	.LASF210:
 7929 0350 76537472 		.ascii	"vStreamBufferDelete\000"
 7929      65616D42 
 7929      75666665 
 7929      7244656C 
ARM GAS  C:\Users\kateb\AppData\Local\Temp\cc9mC3XY.s 			page 171


 7929      65746500 
 7930              	.LASF154:
 7931 0364 784F7269 		.ascii	"xOriginalTail\000"
 7931      67696E61 
 7931      6C546169 
 7931      6C00
 7932              	.LASF100:
 7933 0372 4144435F 		.ascii	"ADC_CONFIG_STRUCT\000"
 7933      434F4E46 
 7933      49475F53 
 7933      54525543 
 7933      5400
 7934              	.LASF129:
 7935 0384 70785374 		.ascii	"pxStreamBuffer\000"
 7935      7265616D 
 7935      42756666 
 7935      657200
 7936              	.LASF167:
 7937 0393 7854696D 		.ascii	"xTimeOut\000"
 7937      654F7574 
 7937      00
 7938              	.LASF64:
 7939 039c 73616D70 		.ascii	"sampleTime01\000"
 7939      6C655469 
 7939      6D653031 
 7939      00
 7940              	.LASF90:
 7941 03a9 43595F42 		.ascii	"CY_BLE_CONN_STATE_CLIENT_INCL_DISCOVERING\000"
 7941      4C455F43 
 7941      4F4E4E5F 
 7941      53544154 
 7941      455F434C 
 7942              	.LASF148:
 7943 03d3 78427974 		.ascii	"xBytesAvailable\000"
 7943      65734176 
 7943      61696C61 
 7943      626C6500 
 7944              	.LASF7:
 7945 03e3 5F5F7569 		.ascii	"__uint32_t\000"
 7945      6E743332 
 7945      5F7400
 7946              	.LASF111:
 7947 03ee 784F7665 		.ascii	"xOverflowCount\000"
 7947      72666C6F 
 7947      77436F75 
 7947      6E7400
 7948              	.LASF121:
 7949 03fd 78546173 		.ascii	"xTaskWaitingToSend\000"
 7949      6B576169 
 7949      74696E67 
 7949      546F5365 
 7949      6E6400
 7950              	.LASF97:
 7951 0410 6877436F 		.ascii	"hwConfigStc\000"
 7951      6E666967 
 7951      53746300 
 7952              	.LASF110:
ARM GAS  C:\Users\kateb\AppData\Local\Temp\cc9mC3XY.s 			page 172


 7953 041c 7854494D 		.ascii	"xTIME_OUT\000"
 7953      455F4F55 
 7953      5400
 7954              	.LASF191:
 7955 0426 7076506F 		.ascii	"pvPortMalloc\000"
 7955      72744D61 
 7955      6C6C6F63 
 7955      00
 7956              	.LASF39:
 7957 0433 72784275 		.ascii	"rxBufIdx\000"
 7957      66496478 
 7957      00
 7958              	.LASF62:
 7959 043c 6374726C 		.ascii	"ctrl\000"
 7959      00
 7960              	.LASF172:
 7961 0441 78537472 		.ascii	"xStreamBufferReceiveFromISR\000"
 7961      65616D42 
 7961      75666665 
 7961      72526563 
 7961      65697665 
 7962              	.LASF149:
 7963 045d 784E6578 		.ascii	"xNextTail\000"
 7963      74546169 
 7963      6C00
 7964              	.LASF41:
 7965 0467 74784275 		.ascii	"txBufSize\000"
 7965      6653697A 
 7965      6500
 7966              	.LASF208:
 7967 0471 756C4E65 		.ascii	"ulNewMaskValue\000"
 7967      774D6173 
 7967      6B56616C 
 7967      756500
 7968              	.LASF138:
 7969 0480 78466972 		.ascii	"xFirstLength\000"
 7969      73744C65 
 7969      6E677468 
 7969      00
 7970              	.LASF11:
 7971 048d 756E7369 		.ascii	"unsigned int\000"
 7971      676E6564 
 7971      20696E74 
 7971      00
 7972              	.LASF88:
 7973 049a 43595F42 		.ascii	"CY_BLE_CONN_STATE_CONNECTED\000"
 7973      4C455F43 
 7973      4F4E4E5F 
 7973      53544154 
 7973      455F434F 
 7974              	.LASF145:
 7975 04b6 78526574 		.ascii	"xReturn\000"
 7975      75726E00 
 7976              	.LASF112:
 7977 04be 7854696D 		.ascii	"xTimeOnEntering\000"
 7977      654F6E45 
 7977      6E746572 
ARM GAS  C:\Users\kateb\AppData\Local\Temp\cc9mC3XY.s 			page 173


 7977      696E6700 
 7978              	.LASF132:
 7979 04ce 78436F75 		.ascii	"xCount\000"
 7979      6E7400
 7980              	.LASF108:
 7981 04d5 65536574 		.ascii	"eSetValueWithOverwrite\000"
 7981      56616C75 
 7981      65576974 
 7981      684F7665 
 7981      72777269 
 7982              	.LASF8:
 7983 04ec 6C6F6E67 		.ascii	"long unsigned int\000"
 7983      20756E73 
 7983      69676E65 
 7983      6420696E 
 7983      7400
 7984              	.LASF161:
 7985 04fe 78537472 		.ascii	"xStreamBufferSetTriggerLevel\000"
 7985      65616D42 
 7985      75666665 
 7985      72536574 
 7985      54726967 
 7986              	.LASF209:
 7987 051b 70727649 		.ascii	"prvInitialiseNewStreamBuffer\000"
 7987      6E697469 
 7987      616C6973 
 7987      654E6577 
 7987      53747265 
 7988              	.LASF196:
 7989 0538 78546173 		.ascii	"xTaskGetCurrentTaskHandle\000"
 7989      6B476574 
 7989      43757272 
 7989      656E7454 
 7989      61736B48 
 7990              	.LASF49:
 7991 0552 74785374 		.ascii	"txStatus\000"
 7991      61747573 
 7991      00
 7992              	.LASF30:
 7993 055b 6D6F6E74 		.ascii	"month\000"
 7993      6800
 7994              	.LASF3:
 7995 0561 73686F72 		.ascii	"short unsigned int\000"
 7995      7420756E 
 7995      7369676E 
 7995      65642069 
 7995      6E7400
 7996              	.LASF66:
 7997 0574 72616E67 		.ascii	"rangeThres\000"
 7997      65546872 
 7997      657300
 7998              	.LASF164:
 7999 057f 78537472 		.ascii	"xStreamBufferBytesAvailable\000"
 7999      65616D42 
 7999      75666665 
 7999      72427974 
 7999      65734176 
ARM GAS  C:\Users\kateb\AppData\Local\Temp\cc9mC3XY.s 			page 174


 8000              	.LASF43:
 8001 059b 63624576 		.ascii	"cbEvents\000"
 8001      656E7473 
 8001      00
 8002              	.LASF116:
 8003 05a4 78546169 		.ascii	"xTail\000"
 8003      6C00
 8004              	.LASF58:
 8005 05aa 43595F53 		.ascii	"CY_SAR_RANGE_COND_INSIDE\000"
 8005      41525F52 
 8005      414E4745 
 8005      5F434F4E 
 8005      445F494E 
 8006              	.LASF96:
 8007 05c3 6E756D43 		.ascii	"numChannels\000"
 8007      68616E6E 
 8007      656C7300 
 8008              	.LASF69:
 8009 05cf 6368616E 		.ascii	"chanConfig\000"
 8009      436F6E66 
 8009      696700
 8010              	.LASF45:
 8011 05da 63795F73 		.ascii	"cy_stc_scb_spi_context_t\000"
 8011      74635F73 
 8011      63625F73 
 8011      70695F63 
 8011      6F6E7465 
 8012              	.LASF192:
 8013 05f3 76506F72 		.ascii	"vPortFree\000"
 8013      74467265 
 8013      6500
 8014              	.LASF127:
 8015 05fd 76506F72 		.ascii	"vPortRaiseBASEPRI\000"
 8015      74526169 
 8015      73654241 
 8015      53455052 
 8015      4900
 8016              	.LASF24:
 8017 060f 63795F65 		.ascii	"cy_en_rtc_dst_format_t\000"
 8017      6E5F7274 
 8017      635F6473 
 8017      745F666F 
 8017      726D6174 
 8018              	.LASF152:
 8019 0626 78427566 		.ascii	"xBufferLengthBytes\000"
 8019      6665724C 
 8019      656E6774 
 8019      68427974 
 8019      657300
 8020              	.LASF29:
 8021 0639 6461794F 		.ascii	"dayOfWeek\000"
 8021      66576565 
 8021      6B00
 8022              	.LASF146:
 8023 0643 70727652 		.ascii	"prvReadBytesFromBuffer\000"
 8023      65616442 
 8023      79746573 
ARM GAS  C:\Users\kateb\AppData\Local\Temp\cc9mC3XY.s 			page 175


 8023      46726F6D 
 8023      42756666 
 8024              	.LASF79:
 8025 065a 61747449 		.ascii	"attId\000"
 8025      6400
 8026              	.LASF107:
 8027 0660 65496E63 		.ascii	"eIncrement\000"
 8027      72656D65 
 8027      6E7400
 8028              	.LASF120:
 8029 066b 78546173 		.ascii	"xTaskWaitingToReceive\000"
 8029      6B576169 
 8029      74696E67 
 8029      546F5265 
 8029      63656976 
 8030              	.LASF61:
 8031 0681 63795F65 		.ascii	"cy_en_sar_range_detect_condition_t\000"
 8031      6E5F7361 
 8031      725F7261 
 8031      6E67655F 
 8031      64657465 
 8032              	.LASF13:
 8033 06a4 696E7433 		.ascii	"int32_t\000"
 8033      325F7400 
 8034              	.LASF17:
 8035 06ac 73697A65 		.ascii	"sizetype\000"
 8035      74797065 
 8035      00
 8036              	.LASF98:
 8037 06b5 6D697363 		.ascii	"miscConfig\000"
 8037      436F6E66 
 8037      696700
 8038              	.LASF114:
 8039 06c0 53747265 		.ascii	"StreamBufferHandle_t\000"
 8039      616D4275 
 8039      66666572 
 8039      48616E64 
 8039      6C655F74 
 8040              	.LASF94:
 8041 06d5 63795F65 		.ascii	"cy_en_ble_conn_state_t\000"
 8041      6E5F626C 
 8041      655F636F 
 8041      6E6E5F73 
 8041      74617465 
 8042              	.LASF82:
 8043 06ec 43595F42 		.ascii	"CY_BLE_ADV_STATE_ADV_INITIATED\000"
 8043      4C455F41 
 8043      44565F53 
 8043      54415445 
 8043      5F414456 
 8044              	.LASF103:
 8045 070b 5469636B 		.ascii	"TickType_t\000"
 8045      54797065 
 8045      5F7400
 8046              	.LASF206:
 8047 0716 433A5C55 		.ascii	"C:\\Users\\kateb\\Documents\\PSoC Creator\\CE218136"
 8047      73657273 
ARM GAS  C:\Users\kateb\AppData\Local\Temp\cc9mC3XY.s 			page 176


 8047      5C6B6174 
 8047      65625C44 
 8047      6F63756D 
 8048 0744 5F45494E 		.ascii	"_EINK_CapSense_RTOS02\\CE222604_RTC_CTS_RTOS01.cyds"
 8048      4B5F4361 
 8048      7053656E 
 8048      73655F52 
 8048      544F5330 
 8049 0776 6E00     		.ascii	"n\000"
 8050              	.LASF75:
 8051 0778 636F6E66 		.ascii	"configRouting\000"
 8051      6967526F 
 8051      7574696E 
 8051      6700
 8052              	.LASF144:
 8053 0786 7853686F 		.ascii	"xShouldWrite\000"
 8053      756C6457 
 8053      72697465 
 8053      00
 8054              	.LASF86:
 8055 0793 43595F42 		.ascii	"CY_BLE_CONN_STATE_DISCONNECTED\000"
 8055      4C455F43 
 8055      4F4E4E5F 
 8055      53544154 
 8055      455F4449 
 8056              	.LASF50:
 8057 07b2 72785374 		.ascii	"rxStatus\000"
 8057      61747573 
 8057      00
 8058              	.LASF128:
 8059 07bb 76506F72 		.ascii	"vPortSetBASEPRI\000"
 8059      74536574 
 8059      42415345 
 8059      50524900 
 8060              	.LASF153:
 8061 07cb 78427974 		.ascii	"xBytesToStoreMessageLength\000"
 8061      6573546F 
 8061      53746F72 
 8061      654D6573 
 8061      73616765 
 8062              	.LASF133:
 8063 07e6 78577269 		.ascii	"xWriteValue\000"
 8063      74655661 
 8063      6C756500 
 8064              	.LASF26:
 8065 07f2 686F7572 		.ascii	"hour\000"
 8065      00
 8066              	.LASF72:
 8067 07f7 72616E67 		.ascii	"rangeIntrMask\000"
 8067      65496E74 
 8067      724D6173 
 8067      6B00
 8068              	.LASF204:
 8069 0805 474E5520 		.ascii	"GNU C11 5.4.1 20160609 (release) [ARM/embedded-5-br"
 8069      43313120 
 8069      352E342E 
 8069      31203230 
ARM GAS  C:\Users\kateb\AppData\Local\Temp\cc9mC3XY.s 			page 177


 8069      31363036 
 8070 0838 616E6368 		.ascii	"anch revision 237715] -mcpu=cortex-m4 -mfloat-abi=s"
 8070      20726576 
 8070      6973696F 
 8070      6E203233 
 8070      37373135 
 8071 086b 6F667466 		.ascii	"oftfp -mfpu=fpv4-sp-d16 -mthumb -g -Og -ffunction-s"
 8071      70202D6D 
 8071      6670753D 
 8071      66707634 
 8071      2D73702D 
 8072 089e 65637469 		.ascii	"ections -ffat-lto-objects\000"
 8072      6F6E7320 
 8072      2D666661 
 8072      742D6C74 
 8072      6F2D6F62 
 8073              	.LASF93:
 8074 08b8 43595F42 		.ascii	"CY_BLE_CONN_STATE_CLIENT_DISCOVERED\000"
 8074      4C455F43 
 8074      4F4E4E5F 
 8074      53544154 
 8074      455F434C 
 8075              	.LASF19:
 8076 08dc 666C6F61 		.ascii	"float\000"
 8076      7400
 8077              	.LASF27:
 8078 08e2 6461794F 		.ascii	"dayOfMonth\000"
 8078      664D6F6E 
 8078      746800
 8079              	.LASF178:
 8080 08ed 63795F52 		.ascii	"cy_RTC_daysInMonthTbl\000"
 8080      54435F64 
 8080      61797349 
 8080      6E4D6F6E 
 8080      74685462 
 8081              	.LASF130:
 8082 0903 78427566 		.ascii	"xBufferSizeBytes\000"
 8082      66657253 
 8082      697A6542 
 8082      79746573 
 8082      00
 8083              	.LASF134:
 8084 0914 70727642 		.ascii	"prvBytesInBuffer\000"
 8084      79746573 
 8084      496E4275 
 8084      66666572 
 8084      00
 8085              	.LASF165:
 8086 0925 78537472 		.ascii	"xStreamBufferSend\000"
 8086      65616D42 
 8086      75666665 
 8086      7253656E 
 8086      6400
 8087              	.LASF55:
 8088 0937 74784C65 		.ascii	"txLeftToTransmit\000"
 8088      6674546F 
 8088      5472616E 
ARM GAS  C:\Users\kateb\AppData\Local\Temp\cc9mC3XY.s 			page 178


 8088      736D6974 
 8088      00
 8089              	.LASF68:
 8090 0948 6368616E 		.ascii	"chanEn\000"
 8090      456E00
 8091              	.LASF91:
 8092 094f 43595F42 		.ascii	"CY_BLE_CONN_STATE_CLIENT_CHAR_DISCOVERING\000"
 8092      4C455F43 
 8092      4F4E4E5F 
 8092      53544154 
 8092      455F434C 
 8093              	.LASF181:
 8094 0979 63795F62 		.ascii	"cy_ble_connState\000"
 8094      6C655F63 
 8094      6F6E6E53 
 8094      74617465 
 8094      00
 8095              	.LASF21:
 8096 098a 5F426F6F 		.ascii	"_Bool\000"
 8096      6C00
 8097              	.LASF115:
 8098 0990 78535452 		.ascii	"xSTREAM_BUFFER\000"
 8098      45414D5F 
 8098      42554646 
 8098      455200
 8099              	.LASF1:
 8100 099f 756E7369 		.ascii	"unsigned char\000"
 8100      676E6564 
 8100      20636861 
 8100      7200
 8101              	.LASF177:
 8102 09ad 49544D5F 		.ascii	"ITM_RxBuffer\000"
 8102      52784275 
 8102      66666572 
 8102      00
 8103              	.LASF2:
 8104 09ba 73686F72 		.ascii	"short int\000"
 8104      7420696E 
 8104      7400
 8105              	.LASF73:
 8106 09c4 6D757853 		.ascii	"muxSwitch\000"
 8106      77697463 
 8106      6800
 8107              	.LASF70:
 8108 09ce 696E7472 		.ascii	"intrMask\000"
 8108      4D61736B 
 8108      00
 8109              	.LASF136:
 8110 09d7 70756344 		.ascii	"pucData\000"
 8110      61746100 
 8111              	.LASF151:
 8112 09df 70765278 		.ascii	"pvRxData\000"
 8112      44617461 
 8112      00
 8113              	.LASF36:
 8114 09e8 73746174 		.ascii	"status\000"
 8114      757300
ARM GAS  C:\Users\kateb\AppData\Local\Temp\cc9mC3XY.s 			page 179


 8115              	.LASF25:
 8116 09ef 666F726D 		.ascii	"format\000"
 8116      617400
 8117              	.LASF174:
 8118 09f6 78537472 		.ascii	"xStreamBufferIsFull\000"
 8118      65616D42 
 8118      75666665 
 8118      72497346 
 8118      756C6C00 
 8119              	.LASF162:
 8120 0a0a 78547269 		.ascii	"xTriggerLevel\000"
 8120      67676572 
 8120      4C657665 
 8120      6C00
 8121              	.LASF170:
 8122 0a18 75785361 		.ascii	"uxSavedInterruptStatus\000"
 8122      76656449 
 8122      6E746572 
 8122      72757074 
 8122      53746174 
 8123              	.LASF92:
 8124 0a2f 43595F42 		.ascii	"CY_BLE_CONN_STATE_CLIENT_DESCR_DISCOVERING\000"
 8124      4C455F43 
 8124      4F4E4E5F 
 8124      53544154 
 8124      455F434C 
 8125              	.LASF142:
 8126 0a5a 78537061 		.ascii	"xSpace\000"
 8126      636500
 8127              	.LASF14:
 8128 0a61 75696E74 		.ascii	"uint32_t\000"
 8128      33325F74 
 8128      00
 8129              	.LASF76:
 8130 0a6a 76726566 		.ascii	"vrefMvValue\000"
 8130      4D765661 
 8130      6C756500 
 8131              	.LASF16:
 8132 0a76 6C6F6E67 		.ascii	"long double\000"
 8132      20646F75 
 8132      626C6500 
 8133              	.LASF176:
 8134 0a82 78537472 		.ascii	"xStreamBufferReceiveCompletedFromISR\000"
 8134      65616D42 
 8134      75666665 
 8134      72526563 
 8134      65697665 
 8135              	.LASF18:
 8136 0aa7 63686172 		.ascii	"char\000"
 8136      00
 8137              	.LASF197:
 8138 0aac 76506F72 		.ascii	"vPortExitCritical\000"
 8138      74457869 
 8138      74437269 
 8138      74696361 
 8138      6C00
 8139              	.LASF188:
ARM GAS  C:\Users\kateb\AppData\Local\Temp\cc9mC3XY.s 			page 180


 8140 0abe 4144435F 		.ascii	"ADC_allConfigs\000"
 8140      616C6C43 
 8140      6F6E6669 
 8140      677300
 8141              	.LASF147:
 8142 0acd 784D6178 		.ascii	"xMaxCount\000"
 8142      436F756E 
 8142      7400
 8143              	.LASF205:
 8144 0ad7 47656E65 		.ascii	"Generated_Source\\PSoC6\\pdl\\rtos\\FreeRTOS\\10.0."
 8144      72617465 
 8144      645F536F 
 8144      75726365 
 8144      5C50536F 
 8145 0b05 315C536F 		.ascii	"1\\Source\\stream_buffer.c\000"
 8145      75726365 
 8145      5C737472 
 8145      65616D5F 
 8145      62756666 
 8146              	.LASF135:
 8147 0b1e 70727657 		.ascii	"prvWriteBytesToBuffer\000"
 8147      72697465 
 8147      42797465 
 8147      73546F42 
 8147      75666665 
 8148              	.LASF182:
 8149 0b34 63795F62 		.ascii	"cy_ble_pendingFlashWrite\000"
 8149      6C655F70 
 8149      656E6469 
 8149      6E67466C 
 8149      61736857 
 8150              	.LASF57:
 8151 0b4d 43595F53 		.ascii	"CY_SAR_RANGE_COND_BELOW\000"
 8151      41525F52 
 8151      414E4745 
 8151      5F434F4E 
 8151      445F4245 
 8152              	.LASF139:
 8153 0b65 70727657 		.ascii	"prvWriteMessageToBuffer\000"
 8153      72697465 
 8153      4D657373 
 8153      61676554 
 8153      6F427566 
 8154              	.LASF5:
 8155 0b7d 5F5F696E 		.ascii	"__int32_t\000"
 8155      7433325F 
 8155      7400
 8156              	.LASF199:
 8157 0b87 78546173 		.ascii	"xTaskCheckForTimeOut\000"
 8157      6B436865 
 8157      636B466F 
 8157      7254696D 
 8157      654F7574 
 8158              	.LASF179:
 8159 0b9c 63795F62 		.ascii	"cy_ble_advState\000"
 8159      6C655F61 
 8159      64765374 
ARM GAS  C:\Users\kateb\AppData\Local\Temp\cc9mC3XY.s 			page 181


 8159      61746500 
 8160              	.LASF157:
 8161 0bac 70756341 		.ascii	"pucAllocatedMemory\000"
 8161      6C6C6F63 
 8161      61746564 
 8161      4D656D6F 
 8161      727900
 8162              	.LASF53:
 8163 0bbf 72785269 		.ascii	"rxRingBufHead\000"
 8163      6E674275 
 8163      66486561 
 8163      6400
 8164              	.LASF52:
 8165 0bcd 72785269 		.ascii	"rxRingBufSize\000"
 8165      6E674275 
 8165      6653697A 
 8165      6500
 8166              	.LASF202:
 8167 0bdb 78546173 		.ascii	"xTaskResumeAll\000"
 8167      6B526573 
 8167      756D6541 
 8167      6C6C00
 8168              	.LASF89:
 8169 0bea 43595F42 		.ascii	"CY_BLE_CONN_STATE_CLIENT_SRVC_DISCOVERING\000"
 8169      4C455F43 
 8169      4F4E4E5F 
 8169      53544154 
 8169      455F434C 
 8170              	.LASF46:
 8171 0c14 63795F63 		.ascii	"cy_cb_scb_uart_handle_events_t\000"
 8171      625F7363 
 8171      625F7561 
 8171      72745F68 
 8171      616E646C 
 8172              	.LASF137:
 8173 0c33 784E6578 		.ascii	"xNextHead\000"
 8173      74486561 
 8173      6400
 8174              	.LASF194:
 8175 0c3d 76506F72 		.ascii	"vPortEnterCritical\000"
 8175      74456E74 
 8175      65724372 
 8175      69746963 
 8175      616C00
 8176              	.LASF201:
 8177 0c50 78546173 		.ascii	"xTaskGenericNotify\000"
 8177      6B47656E 
 8177      65726963 
 8177      4E6F7469 
 8177      667900
 8178              	.LASF31:
 8179 0c63 63795F73 		.ascii	"cy_stc_rtc_dst_format_t\000"
 8179      74635F72 
 8179      74635F64 
 8179      73745F66 
 8179      6F726D61 
 8180              	.LASF200:
ARM GAS  C:\Users\kateb\AppData\Local\Temp\cc9mC3XY.s 			page 182


 8181 0c7b 76546173 		.ascii	"vTaskSuspendAll\000"
 8181      6B537573 
 8181      70656E64 
 8181      416C6C00 
 8182              	.LASF37:
 8183 0c8b 72784275 		.ascii	"rxBuf\000"
 8183      6600
 8184              	.LASF155:
 8185 0c91 78526563 		.ascii	"xReceivedLength\000"
 8185      65697665 
 8185      644C656E 
 8185      67746800 
 8186              	.LASF189:
 8187 0ca1 6D656D73 		.ascii	"memset\000"
 8187      657400
 8188              	.LASF67:
 8189 0ca8 72616E67 		.ascii	"rangeCond\000"
 8189      65436F6E 
 8189      6400
 8190              	.LASF180:
 8191 0cb2 63795F62 		.ascii	"cy_ble_connHandle\000"
 8191      6C655F63 
 8191      6F6E6E48 
 8191      616E646C 
 8191      6500
 8192              	.LASF186:
 8193 0cc4 43595F45 		.ascii	"CY_EINK_SPIM_context\000"
 8193      494E4B5F 
 8193      5350494D 
 8193      5F636F6E 
 8193      74657874 
 8194              	.LASF109:
 8195 0cd9 65536574 		.ascii	"eSetValueWithoutOverwrite\000"
 8195      56616C75 
 8195      65576974 
 8195      686F7574 
 8195      4F766572 
 8196              	.LASF83:
 8197 0cf3 43595F42 		.ascii	"CY_BLE_ADV_STATE_ADVERTISING\000"
 8197      4C455F41 
 8197      44565F53 
 8197      54415445 
 8197      5F414456 
 8198              	.LASF63:
 8199 0d10 73616D70 		.ascii	"sampleCtrl\000"
 8199      6C654374 
 8199      726C00
 8200              	.LASF81:
 8201 0d1b 43595F42 		.ascii	"CY_BLE_ADV_STATE_STOPPED\000"
 8201      4C455F41 
 8201      44565F53 
 8201      54415445 
 8201      5F53544F 
 8202              	.LASF12:
 8203 0d34 75696E74 		.ascii	"uint8_t\000"
 8203      385F7400 
 8204              	.LASF160:
ARM GAS  C:\Users\kateb\AppData\Local\Temp\cc9mC3XY.s 			page 183


 8205 0d3c 78537472 		.ascii	"xStreamBufferReset\000"
 8205      65616D42 
 8205      75666665 
 8205      72526573 
 8205      657400
 8206              	.LASF171:
 8207 0d4f 78537472 		.ascii	"xStreamBufferReceive\000"
 8207      65616D42 
 8207      75666665 
 8207      72526563 
 8207      65697665 
 8208              	.LASF105:
 8209 0d64 654E6F41 		.ascii	"eNoAction\000"
 8209      6374696F 
 8209      6E00
 8210              	.LASF65:
 8211 0d6e 73616D70 		.ascii	"sampleTime23\000"
 8211      6C655469 
 8211      6D653233 
 8211      00
 8212              	.LASF60:
 8213 0d7b 43595F53 		.ascii	"CY_SAR_RANGE_COND_OUTSIDE\000"
 8213      41525F52 
 8213      414E4745 
 8213      5F434F4E 
 8213      445F4F55 
 8214              	.LASF54:
 8215 0d95 72785269 		.ascii	"rxRingBufTail\000"
 8215      6E674275 
 8215      66546169 
 8215      6C00
 8216              	.LASF159:
 8217 0da3 78537472 		.ascii	"xStreamBufferGenericCreate\000"
 8217      65616D42 
 8217      75666665 
 8217      7247656E 
 8217      65726963 
 8218              	.LASF123:
 8219 0dbe 7563466C 		.ascii	"ucFlags\000"
 8219      61677300 
 8220              	.LASF198:
 8221 0dc6 78546173 		.ascii	"xTaskNotifyWait\000"
 8221      6B4E6F74 
 8221      69667957 
 8221      61697400 
 8222              	.LASF95:
 8223 0dd6 6368616E 		.ascii	"channelBase\000"
 8223      6E656C42 
 8223      61736500 
 8224              	.LASF77:
 8225 0de2 63795F73 		.ascii	"cy_stc_sar_config_t\000"
 8225      74635F73 
 8225      61725F63 
 8225      6F6E6669 
 8225      675F7400 
 8226              	.LASF118:
 8227 0df6 784C656E 		.ascii	"xLength\000"
ARM GAS  C:\Users\kateb\AppData\Local\Temp\cc9mC3XY.s 			page 184


 8227      67746800 
 8228              	.LASF78:
 8229 0dfe 62644861 		.ascii	"bdHandle\000"
 8229      6E646C65 
 8229      00
 8230              	.LASF33:
 8231 0e07 73746F70 		.ascii	"stopDst\000"
 8231      44737400 
 8232              	.LASF74:
 8233 0e0f 6D757853 		.ascii	"muxSwitchSqCtrl\000"
 8233      77697463 
 8233      68537143 
 8233      74726C00 
 8234              	.LASF124:
 8235 0e1f 53747265 		.ascii	"StreamBuffer_t\000"
 8235      616D4275 
 8235      66666572 
 8235      5F7400
 8236              	.LASF102:
 8237 0e2e 55426173 		.ascii	"UBaseType_t\000"
 8237      65547970 
 8237      655F7400 
 8238              	.LASF173:
 8239 0e3a 78537472 		.ascii	"xStreamBufferIsEmpty\000"
 8239      65616D42 
 8239      75666665 
 8239      72497345 
 8239      6D707479 
 8240              	.LASF193:
 8241 0e4f 76546173 		.ascii	"vTaskSetTimeOutState\000"
 8241      6B536574 
 8241      54696D65 
 8241      4F757453 
 8241      74617465 
 8242              	.LASF48:
 8243 0e64 63795F73 		.ascii	"cy_stc_scb_uart_context\000"
 8243      74635F73 
 8243      63625F75 
 8243      6172745F 
 8243      636F6E74 
 8244              	.LASF175:
 8245 0e7c 78537472 		.ascii	"xStreamBufferSendCompletedFromISR\000"
 8245      65616D42 
 8245      75666665 
 8245      7253656E 
 8245      64436F6D 
 8246              	.LASF87:
 8247 0e9e 43595F42 		.ascii	"CY_BLE_CONN_STATE_CLIENT_DISCONNECTED_DISCOVERED\000"
 8247      4C455F43 
 8247      4F4E4E5F 
 8247      53544154 
 8247      455F434C 
 8248              	.LASF44:
 8249 0ecf 696E6974 		.ascii	"initKey\000"
 8249      4B657900 
 8250              	.LASF42:
 8251 0ed7 74784275 		.ascii	"txBufIdx\000"
ARM GAS  C:\Users\kateb\AppData\Local\Temp\cc9mC3XY.s 			page 185


 8251      66496478 
 8251      00
 8252              		.ident	"GCC: (GNU Tools for ARM Embedded Processors) 5.4.1 20160609 (release) [ARM/embedded-5-bran
