ARM GAS  C:\Users\kateb\AppData\Local\Temp\ccjwfWYs.s 			page 1


   1              		.syntax unified
   2              		.cpu cortex-m4
   3              		.eabi_attribute 27, 1
   4              		.fpu fpv4-sp-d16
   5              		.eabi_attribute 20, 1
   6              		.eabi_attribute 21, 1
   7              		.eabi_attribute 23, 3
   8              		.eabi_attribute 24, 1
   9              		.eabi_attribute 25, 1
  10              		.eabi_attribute 26, 1
  11              		.eabi_attribute 30, 1
  12              		.eabi_attribute 34, 1
  13              		.eabi_attribute 18, 4
  14              		.thumb
  15              		.syntax unified
  16              		.file	"timers.c"
  17              		.text
  18              	.Ltext0:
  19              		.cfi_sections	.debug_frame
  20              		.section	.text.prvGetNextExpireTime,"ax",%progbits
  21              		.align	2
  22              		.thumb
  23              		.thumb_func
  24              		.type	prvGetNextExpireTime, %function
  25              	prvGetNextExpireTime:
  26              	.LFB606:
  27              		.file 1 "Generated_Source\\PSoC6\\pdl\\rtos\\FreeRTOS\\10.0.1\\Source\\timers.c"
   1:Generated_Source\PSoC6\pdl\rtos\FreeRTOS\10.0.1\Source/timers.c **** /*
   2:Generated_Source\PSoC6\pdl\rtos\FreeRTOS\10.0.1\Source/timers.c ****  * FreeRTOS Kernel V10.0.1
   3:Generated_Source\PSoC6\pdl\rtos\FreeRTOS\10.0.1\Source/timers.c ****  * Copyright (C) 2017 Amazon.com, Inc. or its affiliates.  All Rights Reserved.
   4:Generated_Source\PSoC6\pdl\rtos\FreeRTOS\10.0.1\Source/timers.c ****  *
   5:Generated_Source\PSoC6\pdl\rtos\FreeRTOS\10.0.1\Source/timers.c ****  * Permission is hereby granted, free of charge, to any person obtaining a copy of
   6:Generated_Source\PSoC6\pdl\rtos\FreeRTOS\10.0.1\Source/timers.c ****  * this software and associated documentation files (the "Software"), to deal in
   7:Generated_Source\PSoC6\pdl\rtos\FreeRTOS\10.0.1\Source/timers.c ****  * the Software without restriction, including without limitation the rights to
   8:Generated_Source\PSoC6\pdl\rtos\FreeRTOS\10.0.1\Source/timers.c ****  * use, copy, modify, merge, publish, distribute, sublicense, and/or sell copies of
   9:Generated_Source\PSoC6\pdl\rtos\FreeRTOS\10.0.1\Source/timers.c ****  * the Software, and to permit persons to whom the Software is furnished to do so,
  10:Generated_Source\PSoC6\pdl\rtos\FreeRTOS\10.0.1\Source/timers.c ****  * subject to the following conditions:
  11:Generated_Source\PSoC6\pdl\rtos\FreeRTOS\10.0.1\Source/timers.c ****  *
  12:Generated_Source\PSoC6\pdl\rtos\FreeRTOS\10.0.1\Source/timers.c ****  * The above copyright notice and this permission notice shall be included in all
  13:Generated_Source\PSoC6\pdl\rtos\FreeRTOS\10.0.1\Source/timers.c ****  * copies or substantial portions of the Software.
  14:Generated_Source\PSoC6\pdl\rtos\FreeRTOS\10.0.1\Source/timers.c ****  *
  15:Generated_Source\PSoC6\pdl\rtos\FreeRTOS\10.0.1\Source/timers.c ****  * THE SOFTWARE IS PROVIDED "AS IS", WITHOUT WARRANTY OF ANY KIND, EXPRESS OR
  16:Generated_Source\PSoC6\pdl\rtos\FreeRTOS\10.0.1\Source/timers.c ****  * IMPLIED, INCLUDING BUT NOT LIMITED TO THE WARRANTIES OF MERCHANTABILITY, FITNESS
  17:Generated_Source\PSoC6\pdl\rtos\FreeRTOS\10.0.1\Source/timers.c ****  * FOR A PARTICULAR PURPOSE AND NONINFRINGEMENT. IN NO EVENT SHALL THE AUTHORS OR
  18:Generated_Source\PSoC6\pdl\rtos\FreeRTOS\10.0.1\Source/timers.c ****  * COPYRIGHT HOLDERS BE LIABLE FOR ANY CLAIM, DAMAGES OR OTHER LIABILITY, WHETHER
  19:Generated_Source\PSoC6\pdl\rtos\FreeRTOS\10.0.1\Source/timers.c ****  * IN AN ACTION OF CONTRACT, TORT OR OTHERWISE, ARISING FROM, OUT OF OR IN
  20:Generated_Source\PSoC6\pdl\rtos\FreeRTOS\10.0.1\Source/timers.c ****  * CONNECTION WITH THE SOFTWARE OR THE USE OR OTHER DEALINGS IN THE SOFTWARE.
  21:Generated_Source\PSoC6\pdl\rtos\FreeRTOS\10.0.1\Source/timers.c ****  *
  22:Generated_Source\PSoC6\pdl\rtos\FreeRTOS\10.0.1\Source/timers.c ****  * http://www.FreeRTOS.org
  23:Generated_Source\PSoC6\pdl\rtos\FreeRTOS\10.0.1\Source/timers.c ****  * http://aws.amazon.com/freertos
  24:Generated_Source\PSoC6\pdl\rtos\FreeRTOS\10.0.1\Source/timers.c ****  *
  25:Generated_Source\PSoC6\pdl\rtos\FreeRTOS\10.0.1\Source/timers.c ****  * 1 tab == 4 spaces!
  26:Generated_Source\PSoC6\pdl\rtos\FreeRTOS\10.0.1\Source/timers.c ****  */
  27:Generated_Source\PSoC6\pdl\rtos\FreeRTOS\10.0.1\Source/timers.c **** 
  28:Generated_Source\PSoC6\pdl\rtos\FreeRTOS\10.0.1\Source/timers.c **** /* Standard includes. */
  29:Generated_Source\PSoC6\pdl\rtos\FreeRTOS\10.0.1\Source/timers.c **** #include <stdlib.h>
  30:Generated_Source\PSoC6\pdl\rtos\FreeRTOS\10.0.1\Source/timers.c **** 
ARM GAS  C:\Users\kateb\AppData\Local\Temp\ccjwfWYs.s 			page 2


  31:Generated_Source\PSoC6\pdl\rtos\FreeRTOS\10.0.1\Source/timers.c **** /* Defining MPU_WRAPPERS_INCLUDED_FROM_API_FILE prevents task.h from redefining
  32:Generated_Source\PSoC6\pdl\rtos\FreeRTOS\10.0.1\Source/timers.c **** all the API functions to use the MPU wrappers.  That should only be done when
  33:Generated_Source\PSoC6\pdl\rtos\FreeRTOS\10.0.1\Source/timers.c **** task.h is included from an application file. */
  34:Generated_Source\PSoC6\pdl\rtos\FreeRTOS\10.0.1\Source/timers.c **** #define MPU_WRAPPERS_INCLUDED_FROM_API_FILE
  35:Generated_Source\PSoC6\pdl\rtos\FreeRTOS\10.0.1\Source/timers.c **** 
  36:Generated_Source\PSoC6\pdl\rtos\FreeRTOS\10.0.1\Source/timers.c **** #include "FreeRTOS.h"
  37:Generated_Source\PSoC6\pdl\rtos\FreeRTOS\10.0.1\Source/timers.c **** #include "task.h"
  38:Generated_Source\PSoC6\pdl\rtos\FreeRTOS\10.0.1\Source/timers.c **** #include "queue.h"
  39:Generated_Source\PSoC6\pdl\rtos\FreeRTOS\10.0.1\Source/timers.c **** #include "timers.h"
  40:Generated_Source\PSoC6\pdl\rtos\FreeRTOS\10.0.1\Source/timers.c **** 
  41:Generated_Source\PSoC6\pdl\rtos\FreeRTOS\10.0.1\Source/timers.c **** #if ( INCLUDE_xTimerPendFunctionCall == 1 ) && ( configUSE_TIMERS == 0 )
  42:Generated_Source\PSoC6\pdl\rtos\FreeRTOS\10.0.1\Source/timers.c **** 	#error configUSE_TIMERS must be set to 1 to make the xTimerPendFunctionCall() function available.
  43:Generated_Source\PSoC6\pdl\rtos\FreeRTOS\10.0.1\Source/timers.c **** #endif
  44:Generated_Source\PSoC6\pdl\rtos\FreeRTOS\10.0.1\Source/timers.c **** 
  45:Generated_Source\PSoC6\pdl\rtos\FreeRTOS\10.0.1\Source/timers.c **** /* Lint e961 and e750 are suppressed as a MISRA exception justified because the
  46:Generated_Source\PSoC6\pdl\rtos\FreeRTOS\10.0.1\Source/timers.c **** MPU ports require MPU_WRAPPERS_INCLUDED_FROM_API_FILE to be defined for the
  47:Generated_Source\PSoC6\pdl\rtos\FreeRTOS\10.0.1\Source/timers.c **** header files above, but not in this file, in order to generate the correct
  48:Generated_Source\PSoC6\pdl\rtos\FreeRTOS\10.0.1\Source/timers.c **** privileged Vs unprivileged linkage and placement. */
  49:Generated_Source\PSoC6\pdl\rtos\FreeRTOS\10.0.1\Source/timers.c **** #undef MPU_WRAPPERS_INCLUDED_FROM_API_FILE /*lint !e961 !e750. */
  50:Generated_Source\PSoC6\pdl\rtos\FreeRTOS\10.0.1\Source/timers.c **** 
  51:Generated_Source\PSoC6\pdl\rtos\FreeRTOS\10.0.1\Source/timers.c **** 
  52:Generated_Source\PSoC6\pdl\rtos\FreeRTOS\10.0.1\Source/timers.c **** /* This entire source file will be skipped if the application is not configured
  53:Generated_Source\PSoC6\pdl\rtos\FreeRTOS\10.0.1\Source/timers.c **** to include software timer functionality.  This #if is closed at the very bottom
  54:Generated_Source\PSoC6\pdl\rtos\FreeRTOS\10.0.1\Source/timers.c **** of this file.  If you want to include software timer functionality then ensure
  55:Generated_Source\PSoC6\pdl\rtos\FreeRTOS\10.0.1\Source/timers.c **** configUSE_TIMERS is set to 1 in FreeRTOSConfig.h. */
  56:Generated_Source\PSoC6\pdl\rtos\FreeRTOS\10.0.1\Source/timers.c **** #if ( configUSE_TIMERS == 1 )
  57:Generated_Source\PSoC6\pdl\rtos\FreeRTOS\10.0.1\Source/timers.c **** 
  58:Generated_Source\PSoC6\pdl\rtos\FreeRTOS\10.0.1\Source/timers.c **** /* Misc definitions. */
  59:Generated_Source\PSoC6\pdl\rtos\FreeRTOS\10.0.1\Source/timers.c **** #define tmrNO_DELAY		( TickType_t ) 0U
  60:Generated_Source\PSoC6\pdl\rtos\FreeRTOS\10.0.1\Source/timers.c **** 
  61:Generated_Source\PSoC6\pdl\rtos\FreeRTOS\10.0.1\Source/timers.c **** /* The name assigned to the timer service task.  This can be overridden by
  62:Generated_Source\PSoC6\pdl\rtos\FreeRTOS\10.0.1\Source/timers.c **** defining trmTIMER_SERVICE_TASK_NAME in FreeRTOSConfig.h. */
  63:Generated_Source\PSoC6\pdl\rtos\FreeRTOS\10.0.1\Source/timers.c **** #ifndef configTIMER_SERVICE_TASK_NAME
  64:Generated_Source\PSoC6\pdl\rtos\FreeRTOS\10.0.1\Source/timers.c **** 	#define configTIMER_SERVICE_TASK_NAME "Tmr Svc"
  65:Generated_Source\PSoC6\pdl\rtos\FreeRTOS\10.0.1\Source/timers.c **** #endif
  66:Generated_Source\PSoC6\pdl\rtos\FreeRTOS\10.0.1\Source/timers.c **** 
  67:Generated_Source\PSoC6\pdl\rtos\FreeRTOS\10.0.1\Source/timers.c **** /* The definition of the timers themselves. */
  68:Generated_Source\PSoC6\pdl\rtos\FreeRTOS\10.0.1\Source/timers.c **** typedef struct tmrTimerControl
  69:Generated_Source\PSoC6\pdl\rtos\FreeRTOS\10.0.1\Source/timers.c **** {
  70:Generated_Source\PSoC6\pdl\rtos\FreeRTOS\10.0.1\Source/timers.c **** 	const char				*pcTimerName;		/*<< Text name.  This is not used by the kernel, it is included simpl
  71:Generated_Source\PSoC6\pdl\rtos\FreeRTOS\10.0.1\Source/timers.c **** 	ListItem_t				xTimerListItem;		/*<< Standard linked list item as used by all kernel features for e
  72:Generated_Source\PSoC6\pdl\rtos\FreeRTOS\10.0.1\Source/timers.c **** 	TickType_t				xTimerPeriodInTicks;/*<< How quickly and often the timer expires. */
  73:Generated_Source\PSoC6\pdl\rtos\FreeRTOS\10.0.1\Source/timers.c **** 	UBaseType_t				uxAutoReload;		/*<< Set to pdTRUE if the timer should be automatically restarted on
  74:Generated_Source\PSoC6\pdl\rtos\FreeRTOS\10.0.1\Source/timers.c **** 	void 					*pvTimerID;			/*<< An ID to identify the timer.  This allows the timer to be identified 
  75:Generated_Source\PSoC6\pdl\rtos\FreeRTOS\10.0.1\Source/timers.c **** 	TimerCallbackFunction_t	pxCallbackFunction;	/*<< The function that will be called when the timer e
  76:Generated_Source\PSoC6\pdl\rtos\FreeRTOS\10.0.1\Source/timers.c **** 	#if( configUSE_TRACE_FACILITY == 1 )
  77:Generated_Source\PSoC6\pdl\rtos\FreeRTOS\10.0.1\Source/timers.c **** 		UBaseType_t			uxTimerNumber;		/*<< An ID assigned by trace tools such as FreeRTOS+Trace */
  78:Generated_Source\PSoC6\pdl\rtos\FreeRTOS\10.0.1\Source/timers.c **** 	#endif
  79:Generated_Source\PSoC6\pdl\rtos\FreeRTOS\10.0.1\Source/timers.c **** 
  80:Generated_Source\PSoC6\pdl\rtos\FreeRTOS\10.0.1\Source/timers.c **** 	#if( ( configSUPPORT_STATIC_ALLOCATION == 1 ) && ( configSUPPORT_DYNAMIC_ALLOCATION == 1 ) )
  81:Generated_Source\PSoC6\pdl\rtos\FreeRTOS\10.0.1\Source/timers.c **** 		uint8_t 			ucStaticallyAllocated; /*<< Set to pdTRUE if the timer was created statically so no at
  82:Generated_Source\PSoC6\pdl\rtos\FreeRTOS\10.0.1\Source/timers.c **** 	#endif
  83:Generated_Source\PSoC6\pdl\rtos\FreeRTOS\10.0.1\Source/timers.c **** } xTIMER;
  84:Generated_Source\PSoC6\pdl\rtos\FreeRTOS\10.0.1\Source/timers.c **** 
  85:Generated_Source\PSoC6\pdl\rtos\FreeRTOS\10.0.1\Source/timers.c **** /* The old xTIMER name is maintained above then typedefed to the new Timer_t
  86:Generated_Source\PSoC6\pdl\rtos\FreeRTOS\10.0.1\Source/timers.c **** name below to enable the use of older kernel aware debuggers. */
  87:Generated_Source\PSoC6\pdl\rtos\FreeRTOS\10.0.1\Source/timers.c **** typedef xTIMER Timer_t;
ARM GAS  C:\Users\kateb\AppData\Local\Temp\ccjwfWYs.s 			page 3


  88:Generated_Source\PSoC6\pdl\rtos\FreeRTOS\10.0.1\Source/timers.c **** 
  89:Generated_Source\PSoC6\pdl\rtos\FreeRTOS\10.0.1\Source/timers.c **** /* The definition of messages that can be sent and received on the timer queue.
  90:Generated_Source\PSoC6\pdl\rtos\FreeRTOS\10.0.1\Source/timers.c **** Two types of message can be queued - messages that manipulate a software timer,
  91:Generated_Source\PSoC6\pdl\rtos\FreeRTOS\10.0.1\Source/timers.c **** and messages that request the execution of a non-timer related callback.  The
  92:Generated_Source\PSoC6\pdl\rtos\FreeRTOS\10.0.1\Source/timers.c **** two message types are defined in two separate structures, xTimerParametersType
  93:Generated_Source\PSoC6\pdl\rtos\FreeRTOS\10.0.1\Source/timers.c **** and xCallbackParametersType respectively. */
  94:Generated_Source\PSoC6\pdl\rtos\FreeRTOS\10.0.1\Source/timers.c **** typedef struct tmrTimerParameters
  95:Generated_Source\PSoC6\pdl\rtos\FreeRTOS\10.0.1\Source/timers.c **** {
  96:Generated_Source\PSoC6\pdl\rtos\FreeRTOS\10.0.1\Source/timers.c **** 	TickType_t			xMessageValue;		/*<< An optional value used by a subset of commands, for example, whe
  97:Generated_Source\PSoC6\pdl\rtos\FreeRTOS\10.0.1\Source/timers.c **** 	Timer_t *			pxTimer;			/*<< The timer to which the command will be applied. */
  98:Generated_Source\PSoC6\pdl\rtos\FreeRTOS\10.0.1\Source/timers.c **** } TimerParameter_t;
  99:Generated_Source\PSoC6\pdl\rtos\FreeRTOS\10.0.1\Source/timers.c **** 
 100:Generated_Source\PSoC6\pdl\rtos\FreeRTOS\10.0.1\Source/timers.c **** 
 101:Generated_Source\PSoC6\pdl\rtos\FreeRTOS\10.0.1\Source/timers.c **** typedef struct tmrCallbackParameters
 102:Generated_Source\PSoC6\pdl\rtos\FreeRTOS\10.0.1\Source/timers.c **** {
 103:Generated_Source\PSoC6\pdl\rtos\FreeRTOS\10.0.1\Source/timers.c **** 	PendedFunction_t	pxCallbackFunction;	/* << The callback function to execute. */
 104:Generated_Source\PSoC6\pdl\rtos\FreeRTOS\10.0.1\Source/timers.c **** 	void *pvParameter1;						/* << The value that will be used as the callback functions first paramet
 105:Generated_Source\PSoC6\pdl\rtos\FreeRTOS\10.0.1\Source/timers.c **** 	uint32_t ulParameter2;					/* << The value that will be used as the callback functions second para
 106:Generated_Source\PSoC6\pdl\rtos\FreeRTOS\10.0.1\Source/timers.c **** } CallbackParameters_t;
 107:Generated_Source\PSoC6\pdl\rtos\FreeRTOS\10.0.1\Source/timers.c **** 
 108:Generated_Source\PSoC6\pdl\rtos\FreeRTOS\10.0.1\Source/timers.c **** /* The structure that contains the two message types, along with an identifier
 109:Generated_Source\PSoC6\pdl\rtos\FreeRTOS\10.0.1\Source/timers.c **** that is used to determine which message type is valid. */
 110:Generated_Source\PSoC6\pdl\rtos\FreeRTOS\10.0.1\Source/timers.c **** typedef struct tmrTimerQueueMessage
 111:Generated_Source\PSoC6\pdl\rtos\FreeRTOS\10.0.1\Source/timers.c **** {
 112:Generated_Source\PSoC6\pdl\rtos\FreeRTOS\10.0.1\Source/timers.c **** 	BaseType_t			xMessageID;			/*<< The command being sent to the timer service task. */
 113:Generated_Source\PSoC6\pdl\rtos\FreeRTOS\10.0.1\Source/timers.c **** 	union
 114:Generated_Source\PSoC6\pdl\rtos\FreeRTOS\10.0.1\Source/timers.c **** 	{
 115:Generated_Source\PSoC6\pdl\rtos\FreeRTOS\10.0.1\Source/timers.c **** 		TimerParameter_t xTimerParameters;
 116:Generated_Source\PSoC6\pdl\rtos\FreeRTOS\10.0.1\Source/timers.c **** 
 117:Generated_Source\PSoC6\pdl\rtos\FreeRTOS\10.0.1\Source/timers.c **** 		/* Don't include xCallbackParameters if it is not going to be used as
 118:Generated_Source\PSoC6\pdl\rtos\FreeRTOS\10.0.1\Source/timers.c **** 		it makes the structure (and therefore the timer queue) larger. */
 119:Generated_Source\PSoC6\pdl\rtos\FreeRTOS\10.0.1\Source/timers.c **** 		#if ( INCLUDE_xTimerPendFunctionCall == 1 )
 120:Generated_Source\PSoC6\pdl\rtos\FreeRTOS\10.0.1\Source/timers.c **** 			CallbackParameters_t xCallbackParameters;
 121:Generated_Source\PSoC6\pdl\rtos\FreeRTOS\10.0.1\Source/timers.c **** 		#endif /* INCLUDE_xTimerPendFunctionCall */
 122:Generated_Source\PSoC6\pdl\rtos\FreeRTOS\10.0.1\Source/timers.c **** 	} u;
 123:Generated_Source\PSoC6\pdl\rtos\FreeRTOS\10.0.1\Source/timers.c **** } DaemonTaskMessage_t;
 124:Generated_Source\PSoC6\pdl\rtos\FreeRTOS\10.0.1\Source/timers.c **** 
 125:Generated_Source\PSoC6\pdl\rtos\FreeRTOS\10.0.1\Source/timers.c **** /*lint -save -e956 A manual analysis and inspection has been used to determine
 126:Generated_Source\PSoC6\pdl\rtos\FreeRTOS\10.0.1\Source/timers.c **** which static variables must be declared volatile. */
 127:Generated_Source\PSoC6\pdl\rtos\FreeRTOS\10.0.1\Source/timers.c **** 
 128:Generated_Source\PSoC6\pdl\rtos\FreeRTOS\10.0.1\Source/timers.c **** /* The list in which active timers are stored.  Timers are referenced in expire
 129:Generated_Source\PSoC6\pdl\rtos\FreeRTOS\10.0.1\Source/timers.c **** time order, with the nearest expiry time at the front of the list.  Only the
 130:Generated_Source\PSoC6\pdl\rtos\FreeRTOS\10.0.1\Source/timers.c **** timer service task is allowed to access these lists. */
 131:Generated_Source\PSoC6\pdl\rtos\FreeRTOS\10.0.1\Source/timers.c **** PRIVILEGED_DATA static List_t xActiveTimerList1;
 132:Generated_Source\PSoC6\pdl\rtos\FreeRTOS\10.0.1\Source/timers.c **** PRIVILEGED_DATA static List_t xActiveTimerList2;
 133:Generated_Source\PSoC6\pdl\rtos\FreeRTOS\10.0.1\Source/timers.c **** PRIVILEGED_DATA static List_t *pxCurrentTimerList;
 134:Generated_Source\PSoC6\pdl\rtos\FreeRTOS\10.0.1\Source/timers.c **** PRIVILEGED_DATA static List_t *pxOverflowTimerList;
 135:Generated_Source\PSoC6\pdl\rtos\FreeRTOS\10.0.1\Source/timers.c **** 
 136:Generated_Source\PSoC6\pdl\rtos\FreeRTOS\10.0.1\Source/timers.c **** /* A queue that is used to send commands to the timer service task. */
 137:Generated_Source\PSoC6\pdl\rtos\FreeRTOS\10.0.1\Source/timers.c **** PRIVILEGED_DATA static QueueHandle_t xTimerQueue = NULL;
 138:Generated_Source\PSoC6\pdl\rtos\FreeRTOS\10.0.1\Source/timers.c **** PRIVILEGED_DATA static TaskHandle_t xTimerTaskHandle = NULL;
 139:Generated_Source\PSoC6\pdl\rtos\FreeRTOS\10.0.1\Source/timers.c **** 
 140:Generated_Source\PSoC6\pdl\rtos\FreeRTOS\10.0.1\Source/timers.c **** /*lint -restore */
 141:Generated_Source\PSoC6\pdl\rtos\FreeRTOS\10.0.1\Source/timers.c **** 
 142:Generated_Source\PSoC6\pdl\rtos\FreeRTOS\10.0.1\Source/timers.c **** /*-----------------------------------------------------------*/
 143:Generated_Source\PSoC6\pdl\rtos\FreeRTOS\10.0.1\Source/timers.c **** 
 144:Generated_Source\PSoC6\pdl\rtos\FreeRTOS\10.0.1\Source/timers.c **** #if( configSUPPORT_STATIC_ALLOCATION == 1 )
ARM GAS  C:\Users\kateb\AppData\Local\Temp\ccjwfWYs.s 			page 4


 145:Generated_Source\PSoC6\pdl\rtos\FreeRTOS\10.0.1\Source/timers.c **** 
 146:Generated_Source\PSoC6\pdl\rtos\FreeRTOS\10.0.1\Source/timers.c **** 	/* If static allocation is supported then the application must provide the
 147:Generated_Source\PSoC6\pdl\rtos\FreeRTOS\10.0.1\Source/timers.c **** 	following callback function - which enables the application to optionally
 148:Generated_Source\PSoC6\pdl\rtos\FreeRTOS\10.0.1\Source/timers.c **** 	provide the memory that will be used by the timer task as the task's stack
 149:Generated_Source\PSoC6\pdl\rtos\FreeRTOS\10.0.1\Source/timers.c **** 	and TCB. */
 150:Generated_Source\PSoC6\pdl\rtos\FreeRTOS\10.0.1\Source/timers.c **** 	extern void vApplicationGetTimerTaskMemory( StaticTask_t **ppxTimerTaskTCBBuffer, StackType_t **pp
 151:Generated_Source\PSoC6\pdl\rtos\FreeRTOS\10.0.1\Source/timers.c **** 
 152:Generated_Source\PSoC6\pdl\rtos\FreeRTOS\10.0.1\Source/timers.c **** #endif
 153:Generated_Source\PSoC6\pdl\rtos\FreeRTOS\10.0.1\Source/timers.c **** 
 154:Generated_Source\PSoC6\pdl\rtos\FreeRTOS\10.0.1\Source/timers.c **** /*
 155:Generated_Source\PSoC6\pdl\rtos\FreeRTOS\10.0.1\Source/timers.c ****  * Initialise the infrastructure used by the timer service task if it has not
 156:Generated_Source\PSoC6\pdl\rtos\FreeRTOS\10.0.1\Source/timers.c ****  * been initialised already.
 157:Generated_Source\PSoC6\pdl\rtos\FreeRTOS\10.0.1\Source/timers.c ****  */
 158:Generated_Source\PSoC6\pdl\rtos\FreeRTOS\10.0.1\Source/timers.c **** static void prvCheckForValidListAndQueue( void ) PRIVILEGED_FUNCTION;
 159:Generated_Source\PSoC6\pdl\rtos\FreeRTOS\10.0.1\Source/timers.c **** 
 160:Generated_Source\PSoC6\pdl\rtos\FreeRTOS\10.0.1\Source/timers.c **** /*
 161:Generated_Source\PSoC6\pdl\rtos\FreeRTOS\10.0.1\Source/timers.c ****  * The timer service task (daemon).  Timer functionality is controlled by this
 162:Generated_Source\PSoC6\pdl\rtos\FreeRTOS\10.0.1\Source/timers.c ****  * task.  Other tasks communicate with the timer service task using the
 163:Generated_Source\PSoC6\pdl\rtos\FreeRTOS\10.0.1\Source/timers.c ****  * xTimerQueue queue.
 164:Generated_Source\PSoC6\pdl\rtos\FreeRTOS\10.0.1\Source/timers.c ****  */
 165:Generated_Source\PSoC6\pdl\rtos\FreeRTOS\10.0.1\Source/timers.c **** static void prvTimerTask( void *pvParameters ) PRIVILEGED_FUNCTION;
 166:Generated_Source\PSoC6\pdl\rtos\FreeRTOS\10.0.1\Source/timers.c **** 
 167:Generated_Source\PSoC6\pdl\rtos\FreeRTOS\10.0.1\Source/timers.c **** /*
 168:Generated_Source\PSoC6\pdl\rtos\FreeRTOS\10.0.1\Source/timers.c ****  * Called by the timer service task to interpret and process a command it
 169:Generated_Source\PSoC6\pdl\rtos\FreeRTOS\10.0.1\Source/timers.c ****  * received on the timer queue.
 170:Generated_Source\PSoC6\pdl\rtos\FreeRTOS\10.0.1\Source/timers.c ****  */
 171:Generated_Source\PSoC6\pdl\rtos\FreeRTOS\10.0.1\Source/timers.c **** static void prvProcessReceivedCommands( void ) PRIVILEGED_FUNCTION;
 172:Generated_Source\PSoC6\pdl\rtos\FreeRTOS\10.0.1\Source/timers.c **** 
 173:Generated_Source\PSoC6\pdl\rtos\FreeRTOS\10.0.1\Source/timers.c **** /*
 174:Generated_Source\PSoC6\pdl\rtos\FreeRTOS\10.0.1\Source/timers.c ****  * Insert the timer into either xActiveTimerList1, or xActiveTimerList2,
 175:Generated_Source\PSoC6\pdl\rtos\FreeRTOS\10.0.1\Source/timers.c ****  * depending on if the expire time causes a timer counter overflow.
 176:Generated_Source\PSoC6\pdl\rtos\FreeRTOS\10.0.1\Source/timers.c ****  */
 177:Generated_Source\PSoC6\pdl\rtos\FreeRTOS\10.0.1\Source/timers.c **** static BaseType_t prvInsertTimerInActiveList( Timer_t * const pxTimer, const TickType_t xNextExpiry
 178:Generated_Source\PSoC6\pdl\rtos\FreeRTOS\10.0.1\Source/timers.c **** 
 179:Generated_Source\PSoC6\pdl\rtos\FreeRTOS\10.0.1\Source/timers.c **** /*
 180:Generated_Source\PSoC6\pdl\rtos\FreeRTOS\10.0.1\Source/timers.c ****  * An active timer has reached its expire time.  Reload the timer if it is an
 181:Generated_Source\PSoC6\pdl\rtos\FreeRTOS\10.0.1\Source/timers.c ****  * auto reload timer, then call its callback.
 182:Generated_Source\PSoC6\pdl\rtos\FreeRTOS\10.0.1\Source/timers.c ****  */
 183:Generated_Source\PSoC6\pdl\rtos\FreeRTOS\10.0.1\Source/timers.c **** static void prvProcessExpiredTimer( const TickType_t xNextExpireTime, const TickType_t xTimeNow ) P
 184:Generated_Source\PSoC6\pdl\rtos\FreeRTOS\10.0.1\Source/timers.c **** 
 185:Generated_Source\PSoC6\pdl\rtos\FreeRTOS\10.0.1\Source/timers.c **** /*
 186:Generated_Source\PSoC6\pdl\rtos\FreeRTOS\10.0.1\Source/timers.c ****  * The tick count has overflowed.  Switch the timer lists after ensuring the
 187:Generated_Source\PSoC6\pdl\rtos\FreeRTOS\10.0.1\Source/timers.c ****  * current timer list does not still reference some timers.
 188:Generated_Source\PSoC6\pdl\rtos\FreeRTOS\10.0.1\Source/timers.c ****  */
 189:Generated_Source\PSoC6\pdl\rtos\FreeRTOS\10.0.1\Source/timers.c **** static void prvSwitchTimerLists( void ) PRIVILEGED_FUNCTION;
 190:Generated_Source\PSoC6\pdl\rtos\FreeRTOS\10.0.1\Source/timers.c **** 
 191:Generated_Source\PSoC6\pdl\rtos\FreeRTOS\10.0.1\Source/timers.c **** /*
 192:Generated_Source\PSoC6\pdl\rtos\FreeRTOS\10.0.1\Source/timers.c ****  * Obtain the current tick count, setting *pxTimerListsWereSwitched to pdTRUE
 193:Generated_Source\PSoC6\pdl\rtos\FreeRTOS\10.0.1\Source/timers.c ****  * if a tick count overflow occurred since prvSampleTimeNow() was last called.
 194:Generated_Source\PSoC6\pdl\rtos\FreeRTOS\10.0.1\Source/timers.c ****  */
 195:Generated_Source\PSoC6\pdl\rtos\FreeRTOS\10.0.1\Source/timers.c **** static TickType_t prvSampleTimeNow( BaseType_t * const pxTimerListsWereSwitched ) PRIVILEGED_FUNCTI
 196:Generated_Source\PSoC6\pdl\rtos\FreeRTOS\10.0.1\Source/timers.c **** 
 197:Generated_Source\PSoC6\pdl\rtos\FreeRTOS\10.0.1\Source/timers.c **** /*
 198:Generated_Source\PSoC6\pdl\rtos\FreeRTOS\10.0.1\Source/timers.c ****  * If the timer list contains any active timers then return the expire time of
 199:Generated_Source\PSoC6\pdl\rtos\FreeRTOS\10.0.1\Source/timers.c ****  * the timer that will expire first and set *pxListWasEmpty to false.  If the
 200:Generated_Source\PSoC6\pdl\rtos\FreeRTOS\10.0.1\Source/timers.c ****  * timer list does not contain any timers then return 0 and set *pxListWasEmpty
 201:Generated_Source\PSoC6\pdl\rtos\FreeRTOS\10.0.1\Source/timers.c ****  * to pdTRUE.
ARM GAS  C:\Users\kateb\AppData\Local\Temp\ccjwfWYs.s 			page 5


 202:Generated_Source\PSoC6\pdl\rtos\FreeRTOS\10.0.1\Source/timers.c ****  */
 203:Generated_Source\PSoC6\pdl\rtos\FreeRTOS\10.0.1\Source/timers.c **** static TickType_t prvGetNextExpireTime( BaseType_t * const pxListWasEmpty ) PRIVILEGED_FUNCTION;
 204:Generated_Source\PSoC6\pdl\rtos\FreeRTOS\10.0.1\Source/timers.c **** 
 205:Generated_Source\PSoC6\pdl\rtos\FreeRTOS\10.0.1\Source/timers.c **** /*
 206:Generated_Source\PSoC6\pdl\rtos\FreeRTOS\10.0.1\Source/timers.c ****  * If a timer has expired, process it.  Otherwise, block the timer service task
 207:Generated_Source\PSoC6\pdl\rtos\FreeRTOS\10.0.1\Source/timers.c ****  * until either a timer does expire or a command is received.
 208:Generated_Source\PSoC6\pdl\rtos\FreeRTOS\10.0.1\Source/timers.c ****  */
 209:Generated_Source\PSoC6\pdl\rtos\FreeRTOS\10.0.1\Source/timers.c **** static void prvProcessTimerOrBlockTask( const TickType_t xNextExpireTime, BaseType_t xListWasEmpty 
 210:Generated_Source\PSoC6\pdl\rtos\FreeRTOS\10.0.1\Source/timers.c **** 
 211:Generated_Source\PSoC6\pdl\rtos\FreeRTOS\10.0.1\Source/timers.c **** /*
 212:Generated_Source\PSoC6\pdl\rtos\FreeRTOS\10.0.1\Source/timers.c ****  * Called after a Timer_t structure has been allocated either statically or
 213:Generated_Source\PSoC6\pdl\rtos\FreeRTOS\10.0.1\Source/timers.c ****  * dynamically to fill in the structure's members.
 214:Generated_Source\PSoC6\pdl\rtos\FreeRTOS\10.0.1\Source/timers.c ****  */
 215:Generated_Source\PSoC6\pdl\rtos\FreeRTOS\10.0.1\Source/timers.c **** static void prvInitialiseNewTimer(	const char * const pcTimerName,			/*lint !e971 Unqualified char 
 216:Generated_Source\PSoC6\pdl\rtos\FreeRTOS\10.0.1\Source/timers.c **** 									const TickType_t xTimerPeriodInTicks,
 217:Generated_Source\PSoC6\pdl\rtos\FreeRTOS\10.0.1\Source/timers.c **** 									const UBaseType_t uxAutoReload,
 218:Generated_Source\PSoC6\pdl\rtos\FreeRTOS\10.0.1\Source/timers.c **** 									void * const pvTimerID,
 219:Generated_Source\PSoC6\pdl\rtos\FreeRTOS\10.0.1\Source/timers.c **** 									TimerCallbackFunction_t pxCallbackFunction,
 220:Generated_Source\PSoC6\pdl\rtos\FreeRTOS\10.0.1\Source/timers.c **** 									Timer_t *pxNewTimer ) PRIVILEGED_FUNCTION;
 221:Generated_Source\PSoC6\pdl\rtos\FreeRTOS\10.0.1\Source/timers.c **** /*-----------------------------------------------------------*/
 222:Generated_Source\PSoC6\pdl\rtos\FreeRTOS\10.0.1\Source/timers.c **** 
 223:Generated_Source\PSoC6\pdl\rtos\FreeRTOS\10.0.1\Source/timers.c **** BaseType_t xTimerCreateTimerTask( void )
 224:Generated_Source\PSoC6\pdl\rtos\FreeRTOS\10.0.1\Source/timers.c **** {
 225:Generated_Source\PSoC6\pdl\rtos\FreeRTOS\10.0.1\Source/timers.c **** BaseType_t xReturn = pdFAIL;
 226:Generated_Source\PSoC6\pdl\rtos\FreeRTOS\10.0.1\Source/timers.c **** 
 227:Generated_Source\PSoC6\pdl\rtos\FreeRTOS\10.0.1\Source/timers.c **** 	/* This function is called when the scheduler is started if
 228:Generated_Source\PSoC6\pdl\rtos\FreeRTOS\10.0.1\Source/timers.c **** 	configUSE_TIMERS is set to 1.  Check that the infrastructure used by the
 229:Generated_Source\PSoC6\pdl\rtos\FreeRTOS\10.0.1\Source/timers.c **** 	timer service task has been created/initialised.  If timers have already
 230:Generated_Source\PSoC6\pdl\rtos\FreeRTOS\10.0.1\Source/timers.c **** 	been created then the initialisation will already have been performed. */
 231:Generated_Source\PSoC6\pdl\rtos\FreeRTOS\10.0.1\Source/timers.c **** 	prvCheckForValidListAndQueue();
 232:Generated_Source\PSoC6\pdl\rtos\FreeRTOS\10.0.1\Source/timers.c **** 
 233:Generated_Source\PSoC6\pdl\rtos\FreeRTOS\10.0.1\Source/timers.c **** 	if( xTimerQueue != NULL )
 234:Generated_Source\PSoC6\pdl\rtos\FreeRTOS\10.0.1\Source/timers.c **** 	{
 235:Generated_Source\PSoC6\pdl\rtos\FreeRTOS\10.0.1\Source/timers.c **** 		#if( configSUPPORT_STATIC_ALLOCATION == 1 )
 236:Generated_Source\PSoC6\pdl\rtos\FreeRTOS\10.0.1\Source/timers.c **** 		{
 237:Generated_Source\PSoC6\pdl\rtos\FreeRTOS\10.0.1\Source/timers.c **** 			StaticTask_t *pxTimerTaskTCBBuffer = NULL;
 238:Generated_Source\PSoC6\pdl\rtos\FreeRTOS\10.0.1\Source/timers.c **** 			StackType_t *pxTimerTaskStackBuffer = NULL;
 239:Generated_Source\PSoC6\pdl\rtos\FreeRTOS\10.0.1\Source/timers.c **** 			uint32_t ulTimerTaskStackSize;
 240:Generated_Source\PSoC6\pdl\rtos\FreeRTOS\10.0.1\Source/timers.c **** 
 241:Generated_Source\PSoC6\pdl\rtos\FreeRTOS\10.0.1\Source/timers.c **** 			vApplicationGetTimerTaskMemory( &pxTimerTaskTCBBuffer, &pxTimerTaskStackBuffer, &ulTimerTaskStac
 242:Generated_Source\PSoC6\pdl\rtos\FreeRTOS\10.0.1\Source/timers.c **** 			xTimerTaskHandle = xTaskCreateStatic(	prvTimerTask,
 243:Generated_Source\PSoC6\pdl\rtos\FreeRTOS\10.0.1\Source/timers.c **** 													configTIMER_SERVICE_TASK_NAME,
 244:Generated_Source\PSoC6\pdl\rtos\FreeRTOS\10.0.1\Source/timers.c **** 													ulTimerTaskStackSize,
 245:Generated_Source\PSoC6\pdl\rtos\FreeRTOS\10.0.1\Source/timers.c **** 													NULL,
 246:Generated_Source\PSoC6\pdl\rtos\FreeRTOS\10.0.1\Source/timers.c **** 													( ( UBaseType_t ) configTIMER_TASK_PRIORITY ) | portPRIVILEGE_BIT,
 247:Generated_Source\PSoC6\pdl\rtos\FreeRTOS\10.0.1\Source/timers.c **** 													pxTimerTaskStackBuffer,
 248:Generated_Source\PSoC6\pdl\rtos\FreeRTOS\10.0.1\Source/timers.c **** 													pxTimerTaskTCBBuffer );
 249:Generated_Source\PSoC6\pdl\rtos\FreeRTOS\10.0.1\Source/timers.c **** 
 250:Generated_Source\PSoC6\pdl\rtos\FreeRTOS\10.0.1\Source/timers.c **** 			if( xTimerTaskHandle != NULL )
 251:Generated_Source\PSoC6\pdl\rtos\FreeRTOS\10.0.1\Source/timers.c **** 			{
 252:Generated_Source\PSoC6\pdl\rtos\FreeRTOS\10.0.1\Source/timers.c **** 				xReturn = pdPASS;
 253:Generated_Source\PSoC6\pdl\rtos\FreeRTOS\10.0.1\Source/timers.c **** 			}
 254:Generated_Source\PSoC6\pdl\rtos\FreeRTOS\10.0.1\Source/timers.c **** 		}
 255:Generated_Source\PSoC6\pdl\rtos\FreeRTOS\10.0.1\Source/timers.c **** 		#else
 256:Generated_Source\PSoC6\pdl\rtos\FreeRTOS\10.0.1\Source/timers.c **** 		{
 257:Generated_Source\PSoC6\pdl\rtos\FreeRTOS\10.0.1\Source/timers.c **** 			xReturn = xTaskCreate(	prvTimerTask,
 258:Generated_Source\PSoC6\pdl\rtos\FreeRTOS\10.0.1\Source/timers.c **** 									configTIMER_SERVICE_TASK_NAME,
ARM GAS  C:\Users\kateb\AppData\Local\Temp\ccjwfWYs.s 			page 6


 259:Generated_Source\PSoC6\pdl\rtos\FreeRTOS\10.0.1\Source/timers.c **** 									configTIMER_TASK_STACK_DEPTH,
 260:Generated_Source\PSoC6\pdl\rtos\FreeRTOS\10.0.1\Source/timers.c **** 									NULL,
 261:Generated_Source\PSoC6\pdl\rtos\FreeRTOS\10.0.1\Source/timers.c **** 									( ( UBaseType_t ) configTIMER_TASK_PRIORITY ) | portPRIVILEGE_BIT,
 262:Generated_Source\PSoC6\pdl\rtos\FreeRTOS\10.0.1\Source/timers.c **** 									&xTimerTaskHandle );
 263:Generated_Source\PSoC6\pdl\rtos\FreeRTOS\10.0.1\Source/timers.c **** 		}
 264:Generated_Source\PSoC6\pdl\rtos\FreeRTOS\10.0.1\Source/timers.c **** 		#endif /* configSUPPORT_STATIC_ALLOCATION */
 265:Generated_Source\PSoC6\pdl\rtos\FreeRTOS\10.0.1\Source/timers.c **** 	}
 266:Generated_Source\PSoC6\pdl\rtos\FreeRTOS\10.0.1\Source/timers.c **** 	else
 267:Generated_Source\PSoC6\pdl\rtos\FreeRTOS\10.0.1\Source/timers.c **** 	{
 268:Generated_Source\PSoC6\pdl\rtos\FreeRTOS\10.0.1\Source/timers.c **** 		mtCOVERAGE_TEST_MARKER();
 269:Generated_Source\PSoC6\pdl\rtos\FreeRTOS\10.0.1\Source/timers.c **** 	}
 270:Generated_Source\PSoC6\pdl\rtos\FreeRTOS\10.0.1\Source/timers.c **** 
 271:Generated_Source\PSoC6\pdl\rtos\FreeRTOS\10.0.1\Source/timers.c **** 	configASSERT( xReturn );
 272:Generated_Source\PSoC6\pdl\rtos\FreeRTOS\10.0.1\Source/timers.c **** 	return xReturn;
 273:Generated_Source\PSoC6\pdl\rtos\FreeRTOS\10.0.1\Source/timers.c **** }
 274:Generated_Source\PSoC6\pdl\rtos\FreeRTOS\10.0.1\Source/timers.c **** /*-----------------------------------------------------------*/
 275:Generated_Source\PSoC6\pdl\rtos\FreeRTOS\10.0.1\Source/timers.c **** 
 276:Generated_Source\PSoC6\pdl\rtos\FreeRTOS\10.0.1\Source/timers.c **** #if( configSUPPORT_DYNAMIC_ALLOCATION == 1 )
 277:Generated_Source\PSoC6\pdl\rtos\FreeRTOS\10.0.1\Source/timers.c **** 
 278:Generated_Source\PSoC6\pdl\rtos\FreeRTOS\10.0.1\Source/timers.c **** 	TimerHandle_t xTimerCreate(	const char * const pcTimerName,			/*lint !e971 Unqualified char types 
 279:Generated_Source\PSoC6\pdl\rtos\FreeRTOS\10.0.1\Source/timers.c **** 								const TickType_t xTimerPeriodInTicks,
 280:Generated_Source\PSoC6\pdl\rtos\FreeRTOS\10.0.1\Source/timers.c **** 								const UBaseType_t uxAutoReload,
 281:Generated_Source\PSoC6\pdl\rtos\FreeRTOS\10.0.1\Source/timers.c **** 								void * const pvTimerID,
 282:Generated_Source\PSoC6\pdl\rtos\FreeRTOS\10.0.1\Source/timers.c **** 								TimerCallbackFunction_t pxCallbackFunction )
 283:Generated_Source\PSoC6\pdl\rtos\FreeRTOS\10.0.1\Source/timers.c **** 	{
 284:Generated_Source\PSoC6\pdl\rtos\FreeRTOS\10.0.1\Source/timers.c **** 	Timer_t *pxNewTimer;
 285:Generated_Source\PSoC6\pdl\rtos\FreeRTOS\10.0.1\Source/timers.c **** 
 286:Generated_Source\PSoC6\pdl\rtos\FreeRTOS\10.0.1\Source/timers.c **** 		pxNewTimer = ( Timer_t * ) pvPortMalloc( sizeof( Timer_t ) );
 287:Generated_Source\PSoC6\pdl\rtos\FreeRTOS\10.0.1\Source/timers.c **** 
 288:Generated_Source\PSoC6\pdl\rtos\FreeRTOS\10.0.1\Source/timers.c **** 		if( pxNewTimer != NULL )
 289:Generated_Source\PSoC6\pdl\rtos\FreeRTOS\10.0.1\Source/timers.c **** 		{
 290:Generated_Source\PSoC6\pdl\rtos\FreeRTOS\10.0.1\Source/timers.c **** 			prvInitialiseNewTimer( pcTimerName, xTimerPeriodInTicks, uxAutoReload, pvTimerID, pxCallbackFunc
 291:Generated_Source\PSoC6\pdl\rtos\FreeRTOS\10.0.1\Source/timers.c **** 
 292:Generated_Source\PSoC6\pdl\rtos\FreeRTOS\10.0.1\Source/timers.c **** 			#if( configSUPPORT_STATIC_ALLOCATION == 1 )
 293:Generated_Source\PSoC6\pdl\rtos\FreeRTOS\10.0.1\Source/timers.c **** 			{
 294:Generated_Source\PSoC6\pdl\rtos\FreeRTOS\10.0.1\Source/timers.c **** 				/* Timers can be created statically or dynamically, so note this
 295:Generated_Source\PSoC6\pdl\rtos\FreeRTOS\10.0.1\Source/timers.c **** 				timer was created dynamically in case the timer is later
 296:Generated_Source\PSoC6\pdl\rtos\FreeRTOS\10.0.1\Source/timers.c **** 				deleted. */
 297:Generated_Source\PSoC6\pdl\rtos\FreeRTOS\10.0.1\Source/timers.c **** 				pxNewTimer->ucStaticallyAllocated = pdFALSE;
 298:Generated_Source\PSoC6\pdl\rtos\FreeRTOS\10.0.1\Source/timers.c **** 			}
 299:Generated_Source\PSoC6\pdl\rtos\FreeRTOS\10.0.1\Source/timers.c **** 			#endif /* configSUPPORT_STATIC_ALLOCATION */
 300:Generated_Source\PSoC6\pdl\rtos\FreeRTOS\10.0.1\Source/timers.c **** 		}
 301:Generated_Source\PSoC6\pdl\rtos\FreeRTOS\10.0.1\Source/timers.c **** 
 302:Generated_Source\PSoC6\pdl\rtos\FreeRTOS\10.0.1\Source/timers.c **** 		return pxNewTimer;
 303:Generated_Source\PSoC6\pdl\rtos\FreeRTOS\10.0.1\Source/timers.c **** 	}
 304:Generated_Source\PSoC6\pdl\rtos\FreeRTOS\10.0.1\Source/timers.c **** 
 305:Generated_Source\PSoC6\pdl\rtos\FreeRTOS\10.0.1\Source/timers.c **** #endif /* configSUPPORT_STATIC_ALLOCATION */
 306:Generated_Source\PSoC6\pdl\rtos\FreeRTOS\10.0.1\Source/timers.c **** /*-----------------------------------------------------------*/
 307:Generated_Source\PSoC6\pdl\rtos\FreeRTOS\10.0.1\Source/timers.c **** 
 308:Generated_Source\PSoC6\pdl\rtos\FreeRTOS\10.0.1\Source/timers.c **** #if( configSUPPORT_STATIC_ALLOCATION == 1 )
 309:Generated_Source\PSoC6\pdl\rtos\FreeRTOS\10.0.1\Source/timers.c **** 
 310:Generated_Source\PSoC6\pdl\rtos\FreeRTOS\10.0.1\Source/timers.c **** 	TimerHandle_t xTimerCreateStatic(	const char * const pcTimerName,		/*lint !e971 Unqualified char t
 311:Generated_Source\PSoC6\pdl\rtos\FreeRTOS\10.0.1\Source/timers.c **** 										const TickType_t xTimerPeriodInTicks,
 312:Generated_Source\PSoC6\pdl\rtos\FreeRTOS\10.0.1\Source/timers.c **** 										const UBaseType_t uxAutoReload,
 313:Generated_Source\PSoC6\pdl\rtos\FreeRTOS\10.0.1\Source/timers.c **** 										void * const pvTimerID,
 314:Generated_Source\PSoC6\pdl\rtos\FreeRTOS\10.0.1\Source/timers.c **** 										TimerCallbackFunction_t pxCallbackFunction,
 315:Generated_Source\PSoC6\pdl\rtos\FreeRTOS\10.0.1\Source/timers.c **** 										StaticTimer_t *pxTimerBuffer )
ARM GAS  C:\Users\kateb\AppData\Local\Temp\ccjwfWYs.s 			page 7


 316:Generated_Source\PSoC6\pdl\rtos\FreeRTOS\10.0.1\Source/timers.c **** 	{
 317:Generated_Source\PSoC6\pdl\rtos\FreeRTOS\10.0.1\Source/timers.c **** 	Timer_t *pxNewTimer;
 318:Generated_Source\PSoC6\pdl\rtos\FreeRTOS\10.0.1\Source/timers.c **** 
 319:Generated_Source\PSoC6\pdl\rtos\FreeRTOS\10.0.1\Source/timers.c **** 		#if( configASSERT_DEFINED == 1 )
 320:Generated_Source\PSoC6\pdl\rtos\FreeRTOS\10.0.1\Source/timers.c **** 		{
 321:Generated_Source\PSoC6\pdl\rtos\FreeRTOS\10.0.1\Source/timers.c **** 			/* Sanity check that the size of the structure used to declare a
 322:Generated_Source\PSoC6\pdl\rtos\FreeRTOS\10.0.1\Source/timers.c **** 			variable of type StaticTimer_t equals the size of the real timer
 323:Generated_Source\PSoC6\pdl\rtos\FreeRTOS\10.0.1\Source/timers.c **** 			structure. */
 324:Generated_Source\PSoC6\pdl\rtos\FreeRTOS\10.0.1\Source/timers.c **** 			volatile size_t xSize = sizeof( StaticTimer_t );
 325:Generated_Source\PSoC6\pdl\rtos\FreeRTOS\10.0.1\Source/timers.c **** 			configASSERT( xSize == sizeof( Timer_t ) );
 326:Generated_Source\PSoC6\pdl\rtos\FreeRTOS\10.0.1\Source/timers.c **** 		}
 327:Generated_Source\PSoC6\pdl\rtos\FreeRTOS\10.0.1\Source/timers.c **** 		#endif /* configASSERT_DEFINED */
 328:Generated_Source\PSoC6\pdl\rtos\FreeRTOS\10.0.1\Source/timers.c **** 
 329:Generated_Source\PSoC6\pdl\rtos\FreeRTOS\10.0.1\Source/timers.c **** 		/* A pointer to a StaticTimer_t structure MUST be provided, use it. */
 330:Generated_Source\PSoC6\pdl\rtos\FreeRTOS\10.0.1\Source/timers.c **** 		configASSERT( pxTimerBuffer );
 331:Generated_Source\PSoC6\pdl\rtos\FreeRTOS\10.0.1\Source/timers.c **** 		pxNewTimer = ( Timer_t * ) pxTimerBuffer; /*lint !e740 Unusual cast is ok as the structures are d
 332:Generated_Source\PSoC6\pdl\rtos\FreeRTOS\10.0.1\Source/timers.c **** 
 333:Generated_Source\PSoC6\pdl\rtos\FreeRTOS\10.0.1\Source/timers.c **** 		if( pxNewTimer != NULL )
 334:Generated_Source\PSoC6\pdl\rtos\FreeRTOS\10.0.1\Source/timers.c **** 		{
 335:Generated_Source\PSoC6\pdl\rtos\FreeRTOS\10.0.1\Source/timers.c **** 			prvInitialiseNewTimer( pcTimerName, xTimerPeriodInTicks, uxAutoReload, pvTimerID, pxCallbackFunc
 336:Generated_Source\PSoC6\pdl\rtos\FreeRTOS\10.0.1\Source/timers.c **** 
 337:Generated_Source\PSoC6\pdl\rtos\FreeRTOS\10.0.1\Source/timers.c **** 			#if( configSUPPORT_DYNAMIC_ALLOCATION == 1 )
 338:Generated_Source\PSoC6\pdl\rtos\FreeRTOS\10.0.1\Source/timers.c **** 			{
 339:Generated_Source\PSoC6\pdl\rtos\FreeRTOS\10.0.1\Source/timers.c **** 				/* Timers can be created statically or dynamically so note this
 340:Generated_Source\PSoC6\pdl\rtos\FreeRTOS\10.0.1\Source/timers.c **** 				timer was created statically in case it is later deleted. */
 341:Generated_Source\PSoC6\pdl\rtos\FreeRTOS\10.0.1\Source/timers.c **** 				pxNewTimer->ucStaticallyAllocated = pdTRUE;
 342:Generated_Source\PSoC6\pdl\rtos\FreeRTOS\10.0.1\Source/timers.c **** 			}
 343:Generated_Source\PSoC6\pdl\rtos\FreeRTOS\10.0.1\Source/timers.c **** 			#endif /* configSUPPORT_DYNAMIC_ALLOCATION */
 344:Generated_Source\PSoC6\pdl\rtos\FreeRTOS\10.0.1\Source/timers.c **** 		}
 345:Generated_Source\PSoC6\pdl\rtos\FreeRTOS\10.0.1\Source/timers.c **** 
 346:Generated_Source\PSoC6\pdl\rtos\FreeRTOS\10.0.1\Source/timers.c **** 		return pxNewTimer;
 347:Generated_Source\PSoC6\pdl\rtos\FreeRTOS\10.0.1\Source/timers.c **** 	}
 348:Generated_Source\PSoC6\pdl\rtos\FreeRTOS\10.0.1\Source/timers.c **** 
 349:Generated_Source\PSoC6\pdl\rtos\FreeRTOS\10.0.1\Source/timers.c **** #endif /* configSUPPORT_STATIC_ALLOCATION */
 350:Generated_Source\PSoC6\pdl\rtos\FreeRTOS\10.0.1\Source/timers.c **** /*-----------------------------------------------------------*/
 351:Generated_Source\PSoC6\pdl\rtos\FreeRTOS\10.0.1\Source/timers.c **** 
 352:Generated_Source\PSoC6\pdl\rtos\FreeRTOS\10.0.1\Source/timers.c **** static void prvInitialiseNewTimer(	const char * const pcTimerName,			/*lint !e971 Unqualified char 
 353:Generated_Source\PSoC6\pdl\rtos\FreeRTOS\10.0.1\Source/timers.c **** 									const TickType_t xTimerPeriodInTicks,
 354:Generated_Source\PSoC6\pdl\rtos\FreeRTOS\10.0.1\Source/timers.c **** 									const UBaseType_t uxAutoReload,
 355:Generated_Source\PSoC6\pdl\rtos\FreeRTOS\10.0.1\Source/timers.c **** 									void * const pvTimerID,
 356:Generated_Source\PSoC6\pdl\rtos\FreeRTOS\10.0.1\Source/timers.c **** 									TimerCallbackFunction_t pxCallbackFunction,
 357:Generated_Source\PSoC6\pdl\rtos\FreeRTOS\10.0.1\Source/timers.c **** 									Timer_t *pxNewTimer )
 358:Generated_Source\PSoC6\pdl\rtos\FreeRTOS\10.0.1\Source/timers.c **** {
 359:Generated_Source\PSoC6\pdl\rtos\FreeRTOS\10.0.1\Source/timers.c **** 	/* 0 is not a valid value for xTimerPeriodInTicks. */
 360:Generated_Source\PSoC6\pdl\rtos\FreeRTOS\10.0.1\Source/timers.c **** 	configASSERT( ( xTimerPeriodInTicks > 0 ) );
 361:Generated_Source\PSoC6\pdl\rtos\FreeRTOS\10.0.1\Source/timers.c **** 
 362:Generated_Source\PSoC6\pdl\rtos\FreeRTOS\10.0.1\Source/timers.c **** 	if( pxNewTimer != NULL )
 363:Generated_Source\PSoC6\pdl\rtos\FreeRTOS\10.0.1\Source/timers.c **** 	{
 364:Generated_Source\PSoC6\pdl\rtos\FreeRTOS\10.0.1\Source/timers.c **** 		/* Ensure the infrastructure used by the timer service task has been
 365:Generated_Source\PSoC6\pdl\rtos\FreeRTOS\10.0.1\Source/timers.c **** 		created/initialised. */
 366:Generated_Source\PSoC6\pdl\rtos\FreeRTOS\10.0.1\Source/timers.c **** 		prvCheckForValidListAndQueue();
 367:Generated_Source\PSoC6\pdl\rtos\FreeRTOS\10.0.1\Source/timers.c **** 
 368:Generated_Source\PSoC6\pdl\rtos\FreeRTOS\10.0.1\Source/timers.c **** 		/* Initialise the timer structure members using the function
 369:Generated_Source\PSoC6\pdl\rtos\FreeRTOS\10.0.1\Source/timers.c **** 		parameters. */
 370:Generated_Source\PSoC6\pdl\rtos\FreeRTOS\10.0.1\Source/timers.c **** 		pxNewTimer->pcTimerName = pcTimerName;
 371:Generated_Source\PSoC6\pdl\rtos\FreeRTOS\10.0.1\Source/timers.c **** 		pxNewTimer->xTimerPeriodInTicks = xTimerPeriodInTicks;
 372:Generated_Source\PSoC6\pdl\rtos\FreeRTOS\10.0.1\Source/timers.c **** 		pxNewTimer->uxAutoReload = uxAutoReload;
ARM GAS  C:\Users\kateb\AppData\Local\Temp\ccjwfWYs.s 			page 8


 373:Generated_Source\PSoC6\pdl\rtos\FreeRTOS\10.0.1\Source/timers.c **** 		pxNewTimer->pvTimerID = pvTimerID;
 374:Generated_Source\PSoC6\pdl\rtos\FreeRTOS\10.0.1\Source/timers.c **** 		pxNewTimer->pxCallbackFunction = pxCallbackFunction;
 375:Generated_Source\PSoC6\pdl\rtos\FreeRTOS\10.0.1\Source/timers.c **** 		vListInitialiseItem( &( pxNewTimer->xTimerListItem ) );
 376:Generated_Source\PSoC6\pdl\rtos\FreeRTOS\10.0.1\Source/timers.c **** 		traceTIMER_CREATE( pxNewTimer );
 377:Generated_Source\PSoC6\pdl\rtos\FreeRTOS\10.0.1\Source/timers.c **** 	}
 378:Generated_Source\PSoC6\pdl\rtos\FreeRTOS\10.0.1\Source/timers.c **** }
 379:Generated_Source\PSoC6\pdl\rtos\FreeRTOS\10.0.1\Source/timers.c **** /*-----------------------------------------------------------*/
 380:Generated_Source\PSoC6\pdl\rtos\FreeRTOS\10.0.1\Source/timers.c **** 
 381:Generated_Source\PSoC6\pdl\rtos\FreeRTOS\10.0.1\Source/timers.c **** BaseType_t xTimerGenericCommand( TimerHandle_t xTimer, const BaseType_t xCommandID, const TickType_
 382:Generated_Source\PSoC6\pdl\rtos\FreeRTOS\10.0.1\Source/timers.c **** {
 383:Generated_Source\PSoC6\pdl\rtos\FreeRTOS\10.0.1\Source/timers.c **** BaseType_t xReturn = pdFAIL;
 384:Generated_Source\PSoC6\pdl\rtos\FreeRTOS\10.0.1\Source/timers.c **** DaemonTaskMessage_t xMessage;
 385:Generated_Source\PSoC6\pdl\rtos\FreeRTOS\10.0.1\Source/timers.c **** 
 386:Generated_Source\PSoC6\pdl\rtos\FreeRTOS\10.0.1\Source/timers.c **** 	configASSERT( xTimer );
 387:Generated_Source\PSoC6\pdl\rtos\FreeRTOS\10.0.1\Source/timers.c **** 
 388:Generated_Source\PSoC6\pdl\rtos\FreeRTOS\10.0.1\Source/timers.c **** 	/* Send a message to the timer service task to perform a particular action
 389:Generated_Source\PSoC6\pdl\rtos\FreeRTOS\10.0.1\Source/timers.c **** 	on a particular timer definition. */
 390:Generated_Source\PSoC6\pdl\rtos\FreeRTOS\10.0.1\Source/timers.c **** 	if( xTimerQueue != NULL )
 391:Generated_Source\PSoC6\pdl\rtos\FreeRTOS\10.0.1\Source/timers.c **** 	{
 392:Generated_Source\PSoC6\pdl\rtos\FreeRTOS\10.0.1\Source/timers.c **** 		/* Send a command to the timer service task to start the xTimer timer. */
 393:Generated_Source\PSoC6\pdl\rtos\FreeRTOS\10.0.1\Source/timers.c **** 		xMessage.xMessageID = xCommandID;
 394:Generated_Source\PSoC6\pdl\rtos\FreeRTOS\10.0.1\Source/timers.c **** 		xMessage.u.xTimerParameters.xMessageValue = xOptionalValue;
 395:Generated_Source\PSoC6\pdl\rtos\FreeRTOS\10.0.1\Source/timers.c **** 		xMessage.u.xTimerParameters.pxTimer = ( Timer_t * ) xTimer;
 396:Generated_Source\PSoC6\pdl\rtos\FreeRTOS\10.0.1\Source/timers.c **** 
 397:Generated_Source\PSoC6\pdl\rtos\FreeRTOS\10.0.1\Source/timers.c **** 		if( xCommandID < tmrFIRST_FROM_ISR_COMMAND )
 398:Generated_Source\PSoC6\pdl\rtos\FreeRTOS\10.0.1\Source/timers.c **** 		{
 399:Generated_Source\PSoC6\pdl\rtos\FreeRTOS\10.0.1\Source/timers.c **** 			if( xTaskGetSchedulerState() == taskSCHEDULER_RUNNING )
 400:Generated_Source\PSoC6\pdl\rtos\FreeRTOS\10.0.1\Source/timers.c **** 			{
 401:Generated_Source\PSoC6\pdl\rtos\FreeRTOS\10.0.1\Source/timers.c **** 				xReturn = xQueueSendToBack( xTimerQueue, &xMessage, xTicksToWait );
 402:Generated_Source\PSoC6\pdl\rtos\FreeRTOS\10.0.1\Source/timers.c **** 			}
 403:Generated_Source\PSoC6\pdl\rtos\FreeRTOS\10.0.1\Source/timers.c **** 			else
 404:Generated_Source\PSoC6\pdl\rtos\FreeRTOS\10.0.1\Source/timers.c **** 			{
 405:Generated_Source\PSoC6\pdl\rtos\FreeRTOS\10.0.1\Source/timers.c **** 				xReturn = xQueueSendToBack( xTimerQueue, &xMessage, tmrNO_DELAY );
 406:Generated_Source\PSoC6\pdl\rtos\FreeRTOS\10.0.1\Source/timers.c **** 			}
 407:Generated_Source\PSoC6\pdl\rtos\FreeRTOS\10.0.1\Source/timers.c **** 		}
 408:Generated_Source\PSoC6\pdl\rtos\FreeRTOS\10.0.1\Source/timers.c **** 		else
 409:Generated_Source\PSoC6\pdl\rtos\FreeRTOS\10.0.1\Source/timers.c **** 		{
 410:Generated_Source\PSoC6\pdl\rtos\FreeRTOS\10.0.1\Source/timers.c **** 			xReturn = xQueueSendToBackFromISR( xTimerQueue, &xMessage, pxHigherPriorityTaskWoken );
 411:Generated_Source\PSoC6\pdl\rtos\FreeRTOS\10.0.1\Source/timers.c **** 		}
 412:Generated_Source\PSoC6\pdl\rtos\FreeRTOS\10.0.1\Source/timers.c **** 
 413:Generated_Source\PSoC6\pdl\rtos\FreeRTOS\10.0.1\Source/timers.c **** 		traceTIMER_COMMAND_SEND( xTimer, xCommandID, xOptionalValue, xReturn );
 414:Generated_Source\PSoC6\pdl\rtos\FreeRTOS\10.0.1\Source/timers.c **** 	}
 415:Generated_Source\PSoC6\pdl\rtos\FreeRTOS\10.0.1\Source/timers.c **** 	else
 416:Generated_Source\PSoC6\pdl\rtos\FreeRTOS\10.0.1\Source/timers.c **** 	{
 417:Generated_Source\PSoC6\pdl\rtos\FreeRTOS\10.0.1\Source/timers.c **** 		mtCOVERAGE_TEST_MARKER();
 418:Generated_Source\PSoC6\pdl\rtos\FreeRTOS\10.0.1\Source/timers.c **** 	}
 419:Generated_Source\PSoC6\pdl\rtos\FreeRTOS\10.0.1\Source/timers.c **** 
 420:Generated_Source\PSoC6\pdl\rtos\FreeRTOS\10.0.1\Source/timers.c **** 	return xReturn;
 421:Generated_Source\PSoC6\pdl\rtos\FreeRTOS\10.0.1\Source/timers.c **** }
 422:Generated_Source\PSoC6\pdl\rtos\FreeRTOS\10.0.1\Source/timers.c **** /*-----------------------------------------------------------*/
 423:Generated_Source\PSoC6\pdl\rtos\FreeRTOS\10.0.1\Source/timers.c **** 
 424:Generated_Source\PSoC6\pdl\rtos\FreeRTOS\10.0.1\Source/timers.c **** TaskHandle_t xTimerGetTimerDaemonTaskHandle( void )
 425:Generated_Source\PSoC6\pdl\rtos\FreeRTOS\10.0.1\Source/timers.c **** {
 426:Generated_Source\PSoC6\pdl\rtos\FreeRTOS\10.0.1\Source/timers.c **** 	/* If xTimerGetTimerDaemonTaskHandle() is called before the scheduler has been
 427:Generated_Source\PSoC6\pdl\rtos\FreeRTOS\10.0.1\Source/timers.c **** 	started, then xTimerTaskHandle will be NULL. */
 428:Generated_Source\PSoC6\pdl\rtos\FreeRTOS\10.0.1\Source/timers.c **** 	configASSERT( ( xTimerTaskHandle != NULL ) );
 429:Generated_Source\PSoC6\pdl\rtos\FreeRTOS\10.0.1\Source/timers.c **** 	return xTimerTaskHandle;
ARM GAS  C:\Users\kateb\AppData\Local\Temp\ccjwfWYs.s 			page 9


 430:Generated_Source\PSoC6\pdl\rtos\FreeRTOS\10.0.1\Source/timers.c **** }
 431:Generated_Source\PSoC6\pdl\rtos\FreeRTOS\10.0.1\Source/timers.c **** /*-----------------------------------------------------------*/
 432:Generated_Source\PSoC6\pdl\rtos\FreeRTOS\10.0.1\Source/timers.c **** 
 433:Generated_Source\PSoC6\pdl\rtos\FreeRTOS\10.0.1\Source/timers.c **** TickType_t xTimerGetPeriod( TimerHandle_t xTimer )
 434:Generated_Source\PSoC6\pdl\rtos\FreeRTOS\10.0.1\Source/timers.c **** {
 435:Generated_Source\PSoC6\pdl\rtos\FreeRTOS\10.0.1\Source/timers.c **** Timer_t *pxTimer = ( Timer_t * ) xTimer;
 436:Generated_Source\PSoC6\pdl\rtos\FreeRTOS\10.0.1\Source/timers.c **** 
 437:Generated_Source\PSoC6\pdl\rtos\FreeRTOS\10.0.1\Source/timers.c **** 	configASSERT( xTimer );
 438:Generated_Source\PSoC6\pdl\rtos\FreeRTOS\10.0.1\Source/timers.c **** 	return pxTimer->xTimerPeriodInTicks;
 439:Generated_Source\PSoC6\pdl\rtos\FreeRTOS\10.0.1\Source/timers.c **** }
 440:Generated_Source\PSoC6\pdl\rtos\FreeRTOS\10.0.1\Source/timers.c **** /*-----------------------------------------------------------*/
 441:Generated_Source\PSoC6\pdl\rtos\FreeRTOS\10.0.1\Source/timers.c **** 
 442:Generated_Source\PSoC6\pdl\rtos\FreeRTOS\10.0.1\Source/timers.c **** TickType_t xTimerGetExpiryTime( TimerHandle_t xTimer )
 443:Generated_Source\PSoC6\pdl\rtos\FreeRTOS\10.0.1\Source/timers.c **** {
 444:Generated_Source\PSoC6\pdl\rtos\FreeRTOS\10.0.1\Source/timers.c **** Timer_t * pxTimer = ( Timer_t * ) xTimer;
 445:Generated_Source\PSoC6\pdl\rtos\FreeRTOS\10.0.1\Source/timers.c **** TickType_t xReturn;
 446:Generated_Source\PSoC6\pdl\rtos\FreeRTOS\10.0.1\Source/timers.c **** 
 447:Generated_Source\PSoC6\pdl\rtos\FreeRTOS\10.0.1\Source/timers.c **** 	configASSERT( xTimer );
 448:Generated_Source\PSoC6\pdl\rtos\FreeRTOS\10.0.1\Source/timers.c **** 	xReturn = listGET_LIST_ITEM_VALUE( &( pxTimer->xTimerListItem ) );
 449:Generated_Source\PSoC6\pdl\rtos\FreeRTOS\10.0.1\Source/timers.c **** 	return xReturn;
 450:Generated_Source\PSoC6\pdl\rtos\FreeRTOS\10.0.1\Source/timers.c **** }
 451:Generated_Source\PSoC6\pdl\rtos\FreeRTOS\10.0.1\Source/timers.c **** /*-----------------------------------------------------------*/
 452:Generated_Source\PSoC6\pdl\rtos\FreeRTOS\10.0.1\Source/timers.c **** 
 453:Generated_Source\PSoC6\pdl\rtos\FreeRTOS\10.0.1\Source/timers.c **** const char * pcTimerGetName( TimerHandle_t xTimer ) /*lint !e971 Unqualified char types are allowed
 454:Generated_Source\PSoC6\pdl\rtos\FreeRTOS\10.0.1\Source/timers.c **** {
 455:Generated_Source\PSoC6\pdl\rtos\FreeRTOS\10.0.1\Source/timers.c **** Timer_t *pxTimer = ( Timer_t * ) xTimer;
 456:Generated_Source\PSoC6\pdl\rtos\FreeRTOS\10.0.1\Source/timers.c **** 
 457:Generated_Source\PSoC6\pdl\rtos\FreeRTOS\10.0.1\Source/timers.c **** 	configASSERT( xTimer );
 458:Generated_Source\PSoC6\pdl\rtos\FreeRTOS\10.0.1\Source/timers.c **** 	return pxTimer->pcTimerName;
 459:Generated_Source\PSoC6\pdl\rtos\FreeRTOS\10.0.1\Source/timers.c **** }
 460:Generated_Source\PSoC6\pdl\rtos\FreeRTOS\10.0.1\Source/timers.c **** /*-----------------------------------------------------------*/
 461:Generated_Source\PSoC6\pdl\rtos\FreeRTOS\10.0.1\Source/timers.c **** 
 462:Generated_Source\PSoC6\pdl\rtos\FreeRTOS\10.0.1\Source/timers.c **** static void prvProcessExpiredTimer( const TickType_t xNextExpireTime, const TickType_t xTimeNow )
 463:Generated_Source\PSoC6\pdl\rtos\FreeRTOS\10.0.1\Source/timers.c **** {
 464:Generated_Source\PSoC6\pdl\rtos\FreeRTOS\10.0.1\Source/timers.c **** BaseType_t xResult;
 465:Generated_Source\PSoC6\pdl\rtos\FreeRTOS\10.0.1\Source/timers.c **** Timer_t * const pxTimer = ( Timer_t * ) listGET_OWNER_OF_HEAD_ENTRY( pxCurrentTimerList );
 466:Generated_Source\PSoC6\pdl\rtos\FreeRTOS\10.0.1\Source/timers.c **** 
 467:Generated_Source\PSoC6\pdl\rtos\FreeRTOS\10.0.1\Source/timers.c **** 	/* Remove the timer from the list of active timers.  A check has already
 468:Generated_Source\PSoC6\pdl\rtos\FreeRTOS\10.0.1\Source/timers.c **** 	been performed to ensure the list is not empty. */
 469:Generated_Source\PSoC6\pdl\rtos\FreeRTOS\10.0.1\Source/timers.c **** 	( void ) uxListRemove( &( pxTimer->xTimerListItem ) );
 470:Generated_Source\PSoC6\pdl\rtos\FreeRTOS\10.0.1\Source/timers.c **** 	traceTIMER_EXPIRED( pxTimer );
 471:Generated_Source\PSoC6\pdl\rtos\FreeRTOS\10.0.1\Source/timers.c **** 
 472:Generated_Source\PSoC6\pdl\rtos\FreeRTOS\10.0.1\Source/timers.c **** 	/* If the timer is an auto reload timer then calculate the next
 473:Generated_Source\PSoC6\pdl\rtos\FreeRTOS\10.0.1\Source/timers.c **** 	expiry time and re-insert the timer in the list of active timers. */
 474:Generated_Source\PSoC6\pdl\rtos\FreeRTOS\10.0.1\Source/timers.c **** 	if( pxTimer->uxAutoReload == ( UBaseType_t ) pdTRUE )
 475:Generated_Source\PSoC6\pdl\rtos\FreeRTOS\10.0.1\Source/timers.c **** 	{
 476:Generated_Source\PSoC6\pdl\rtos\FreeRTOS\10.0.1\Source/timers.c **** 		/* The timer is inserted into a list using a time relative to anything
 477:Generated_Source\PSoC6\pdl\rtos\FreeRTOS\10.0.1\Source/timers.c **** 		other than the current time.  It will therefore be inserted into the
 478:Generated_Source\PSoC6\pdl\rtos\FreeRTOS\10.0.1\Source/timers.c **** 		correct list relative to the time this task thinks it is now. */
 479:Generated_Source\PSoC6\pdl\rtos\FreeRTOS\10.0.1\Source/timers.c **** 		if( prvInsertTimerInActiveList( pxTimer, ( xNextExpireTime + pxTimer->xTimerPeriodInTicks ), xTim
 480:Generated_Source\PSoC6\pdl\rtos\FreeRTOS\10.0.1\Source/timers.c **** 		{
 481:Generated_Source\PSoC6\pdl\rtos\FreeRTOS\10.0.1\Source/timers.c **** 			/* The timer expired before it was added to the active timer
 482:Generated_Source\PSoC6\pdl\rtos\FreeRTOS\10.0.1\Source/timers.c **** 			list.  Reload it now.  */
 483:Generated_Source\PSoC6\pdl\rtos\FreeRTOS\10.0.1\Source/timers.c **** 			xResult = xTimerGenericCommand( pxTimer, tmrCOMMAND_START_DONT_TRACE, xNextExpireTime, NULL, tmr
 484:Generated_Source\PSoC6\pdl\rtos\FreeRTOS\10.0.1\Source/timers.c **** 			configASSERT( xResult );
 485:Generated_Source\PSoC6\pdl\rtos\FreeRTOS\10.0.1\Source/timers.c **** 			( void ) xResult;
 486:Generated_Source\PSoC6\pdl\rtos\FreeRTOS\10.0.1\Source/timers.c **** 		}
ARM GAS  C:\Users\kateb\AppData\Local\Temp\ccjwfWYs.s 			page 10


 487:Generated_Source\PSoC6\pdl\rtos\FreeRTOS\10.0.1\Source/timers.c **** 		else
 488:Generated_Source\PSoC6\pdl\rtos\FreeRTOS\10.0.1\Source/timers.c **** 		{
 489:Generated_Source\PSoC6\pdl\rtos\FreeRTOS\10.0.1\Source/timers.c **** 			mtCOVERAGE_TEST_MARKER();
 490:Generated_Source\PSoC6\pdl\rtos\FreeRTOS\10.0.1\Source/timers.c **** 		}
 491:Generated_Source\PSoC6\pdl\rtos\FreeRTOS\10.0.1\Source/timers.c **** 	}
 492:Generated_Source\PSoC6\pdl\rtos\FreeRTOS\10.0.1\Source/timers.c **** 	else
 493:Generated_Source\PSoC6\pdl\rtos\FreeRTOS\10.0.1\Source/timers.c **** 	{
 494:Generated_Source\PSoC6\pdl\rtos\FreeRTOS\10.0.1\Source/timers.c **** 		mtCOVERAGE_TEST_MARKER();
 495:Generated_Source\PSoC6\pdl\rtos\FreeRTOS\10.0.1\Source/timers.c **** 	}
 496:Generated_Source\PSoC6\pdl\rtos\FreeRTOS\10.0.1\Source/timers.c **** 
 497:Generated_Source\PSoC6\pdl\rtos\FreeRTOS\10.0.1\Source/timers.c **** 	/* Call the timer callback. */
 498:Generated_Source\PSoC6\pdl\rtos\FreeRTOS\10.0.1\Source/timers.c **** 	pxTimer->pxCallbackFunction( ( TimerHandle_t ) pxTimer );
 499:Generated_Source\PSoC6\pdl\rtos\FreeRTOS\10.0.1\Source/timers.c **** }
 500:Generated_Source\PSoC6\pdl\rtos\FreeRTOS\10.0.1\Source/timers.c **** /*-----------------------------------------------------------*/
 501:Generated_Source\PSoC6\pdl\rtos\FreeRTOS\10.0.1\Source/timers.c **** 
 502:Generated_Source\PSoC6\pdl\rtos\FreeRTOS\10.0.1\Source/timers.c **** static void prvTimerTask( void *pvParameters )
 503:Generated_Source\PSoC6\pdl\rtos\FreeRTOS\10.0.1\Source/timers.c **** {
 504:Generated_Source\PSoC6\pdl\rtos\FreeRTOS\10.0.1\Source/timers.c **** TickType_t xNextExpireTime;
 505:Generated_Source\PSoC6\pdl\rtos\FreeRTOS\10.0.1\Source/timers.c **** BaseType_t xListWasEmpty;
 506:Generated_Source\PSoC6\pdl\rtos\FreeRTOS\10.0.1\Source/timers.c **** 
 507:Generated_Source\PSoC6\pdl\rtos\FreeRTOS\10.0.1\Source/timers.c **** 	/* Just to avoid compiler warnings. */
 508:Generated_Source\PSoC6\pdl\rtos\FreeRTOS\10.0.1\Source/timers.c **** 	( void ) pvParameters;
 509:Generated_Source\PSoC6\pdl\rtos\FreeRTOS\10.0.1\Source/timers.c **** 
 510:Generated_Source\PSoC6\pdl\rtos\FreeRTOS\10.0.1\Source/timers.c **** 	#if( configUSE_DAEMON_TASK_STARTUP_HOOK == 1 )
 511:Generated_Source\PSoC6\pdl\rtos\FreeRTOS\10.0.1\Source/timers.c **** 	{
 512:Generated_Source\PSoC6\pdl\rtos\FreeRTOS\10.0.1\Source/timers.c **** 		extern void vApplicationDaemonTaskStartupHook( void );
 513:Generated_Source\PSoC6\pdl\rtos\FreeRTOS\10.0.1\Source/timers.c **** 
 514:Generated_Source\PSoC6\pdl\rtos\FreeRTOS\10.0.1\Source/timers.c **** 		/* Allow the application writer to execute some code in the context of
 515:Generated_Source\PSoC6\pdl\rtos\FreeRTOS\10.0.1\Source/timers.c **** 		this task at the point the task starts executing.  This is useful if the
 516:Generated_Source\PSoC6\pdl\rtos\FreeRTOS\10.0.1\Source/timers.c **** 		application includes initialisation code that would benefit from
 517:Generated_Source\PSoC6\pdl\rtos\FreeRTOS\10.0.1\Source/timers.c **** 		executing after the scheduler has been started. */
 518:Generated_Source\PSoC6\pdl\rtos\FreeRTOS\10.0.1\Source/timers.c **** 		vApplicationDaemonTaskStartupHook();
 519:Generated_Source\PSoC6\pdl\rtos\FreeRTOS\10.0.1\Source/timers.c **** 	}
 520:Generated_Source\PSoC6\pdl\rtos\FreeRTOS\10.0.1\Source/timers.c **** 	#endif /* configUSE_DAEMON_TASK_STARTUP_HOOK */
 521:Generated_Source\PSoC6\pdl\rtos\FreeRTOS\10.0.1\Source/timers.c **** 
 522:Generated_Source\PSoC6\pdl\rtos\FreeRTOS\10.0.1\Source/timers.c **** 	for( ;; )
 523:Generated_Source\PSoC6\pdl\rtos\FreeRTOS\10.0.1\Source/timers.c **** 	{
 524:Generated_Source\PSoC6\pdl\rtos\FreeRTOS\10.0.1\Source/timers.c **** 		/* Query the timers list to see if it contains any timers, and if so,
 525:Generated_Source\PSoC6\pdl\rtos\FreeRTOS\10.0.1\Source/timers.c **** 		obtain the time at which the next timer will expire. */
 526:Generated_Source\PSoC6\pdl\rtos\FreeRTOS\10.0.1\Source/timers.c **** 		xNextExpireTime = prvGetNextExpireTime( &xListWasEmpty );
 527:Generated_Source\PSoC6\pdl\rtos\FreeRTOS\10.0.1\Source/timers.c **** 
 528:Generated_Source\PSoC6\pdl\rtos\FreeRTOS\10.0.1\Source/timers.c **** 		/* If a timer has expired, process it.  Otherwise, block this task
 529:Generated_Source\PSoC6\pdl\rtos\FreeRTOS\10.0.1\Source/timers.c **** 		until either a timer does expire, or a command is received. */
 530:Generated_Source\PSoC6\pdl\rtos\FreeRTOS\10.0.1\Source/timers.c **** 		prvProcessTimerOrBlockTask( xNextExpireTime, xListWasEmpty );
 531:Generated_Source\PSoC6\pdl\rtos\FreeRTOS\10.0.1\Source/timers.c **** 
 532:Generated_Source\PSoC6\pdl\rtos\FreeRTOS\10.0.1\Source/timers.c **** 		/* Empty the command queue. */
 533:Generated_Source\PSoC6\pdl\rtos\FreeRTOS\10.0.1\Source/timers.c **** 		prvProcessReceivedCommands();
 534:Generated_Source\PSoC6\pdl\rtos\FreeRTOS\10.0.1\Source/timers.c **** 	}
 535:Generated_Source\PSoC6\pdl\rtos\FreeRTOS\10.0.1\Source/timers.c **** }
 536:Generated_Source\PSoC6\pdl\rtos\FreeRTOS\10.0.1\Source/timers.c **** /*-----------------------------------------------------------*/
 537:Generated_Source\PSoC6\pdl\rtos\FreeRTOS\10.0.1\Source/timers.c **** 
 538:Generated_Source\PSoC6\pdl\rtos\FreeRTOS\10.0.1\Source/timers.c **** static void prvProcessTimerOrBlockTask( const TickType_t xNextExpireTime, BaseType_t xListWasEmpty 
 539:Generated_Source\PSoC6\pdl\rtos\FreeRTOS\10.0.1\Source/timers.c **** {
 540:Generated_Source\PSoC6\pdl\rtos\FreeRTOS\10.0.1\Source/timers.c **** TickType_t xTimeNow;
 541:Generated_Source\PSoC6\pdl\rtos\FreeRTOS\10.0.1\Source/timers.c **** BaseType_t xTimerListsWereSwitched;
 542:Generated_Source\PSoC6\pdl\rtos\FreeRTOS\10.0.1\Source/timers.c **** 
 543:Generated_Source\PSoC6\pdl\rtos\FreeRTOS\10.0.1\Source/timers.c **** 	vTaskSuspendAll();
ARM GAS  C:\Users\kateb\AppData\Local\Temp\ccjwfWYs.s 			page 11


 544:Generated_Source\PSoC6\pdl\rtos\FreeRTOS\10.0.1\Source/timers.c **** 	{
 545:Generated_Source\PSoC6\pdl\rtos\FreeRTOS\10.0.1\Source/timers.c **** 		/* Obtain the time now to make an assessment as to whether the timer
 546:Generated_Source\PSoC6\pdl\rtos\FreeRTOS\10.0.1\Source/timers.c **** 		has expired or not.  If obtaining the time causes the lists to switch
 547:Generated_Source\PSoC6\pdl\rtos\FreeRTOS\10.0.1\Source/timers.c **** 		then don't process this timer as any timers that remained in the list
 548:Generated_Source\PSoC6\pdl\rtos\FreeRTOS\10.0.1\Source/timers.c **** 		when the lists were switched will have been processed within the
 549:Generated_Source\PSoC6\pdl\rtos\FreeRTOS\10.0.1\Source/timers.c **** 		prvSampleTimeNow() function. */
 550:Generated_Source\PSoC6\pdl\rtos\FreeRTOS\10.0.1\Source/timers.c **** 		xTimeNow = prvSampleTimeNow( &xTimerListsWereSwitched );
 551:Generated_Source\PSoC6\pdl\rtos\FreeRTOS\10.0.1\Source/timers.c **** 		if( xTimerListsWereSwitched == pdFALSE )
 552:Generated_Source\PSoC6\pdl\rtos\FreeRTOS\10.0.1\Source/timers.c **** 		{
 553:Generated_Source\PSoC6\pdl\rtos\FreeRTOS\10.0.1\Source/timers.c **** 			/* The tick count has not overflowed, has the timer expired? */
 554:Generated_Source\PSoC6\pdl\rtos\FreeRTOS\10.0.1\Source/timers.c **** 			if( ( xListWasEmpty == pdFALSE ) && ( xNextExpireTime <= xTimeNow ) )
 555:Generated_Source\PSoC6\pdl\rtos\FreeRTOS\10.0.1\Source/timers.c **** 			{
 556:Generated_Source\PSoC6\pdl\rtos\FreeRTOS\10.0.1\Source/timers.c **** 				( void ) xTaskResumeAll();
 557:Generated_Source\PSoC6\pdl\rtos\FreeRTOS\10.0.1\Source/timers.c **** 				prvProcessExpiredTimer( xNextExpireTime, xTimeNow );
 558:Generated_Source\PSoC6\pdl\rtos\FreeRTOS\10.0.1\Source/timers.c **** 			}
 559:Generated_Source\PSoC6\pdl\rtos\FreeRTOS\10.0.1\Source/timers.c **** 			else
 560:Generated_Source\PSoC6\pdl\rtos\FreeRTOS\10.0.1\Source/timers.c **** 			{
 561:Generated_Source\PSoC6\pdl\rtos\FreeRTOS\10.0.1\Source/timers.c **** 				/* The tick count has not overflowed, and the next expire
 562:Generated_Source\PSoC6\pdl\rtos\FreeRTOS\10.0.1\Source/timers.c **** 				time has not been reached yet.  This task should therefore
 563:Generated_Source\PSoC6\pdl\rtos\FreeRTOS\10.0.1\Source/timers.c **** 				block to wait for the next expire time or a command to be
 564:Generated_Source\PSoC6\pdl\rtos\FreeRTOS\10.0.1\Source/timers.c **** 				received - whichever comes first.  The following line cannot
 565:Generated_Source\PSoC6\pdl\rtos\FreeRTOS\10.0.1\Source/timers.c **** 				be reached unless xNextExpireTime > xTimeNow, except in the
 566:Generated_Source\PSoC6\pdl\rtos\FreeRTOS\10.0.1\Source/timers.c **** 				case when the current timer list is empty. */
 567:Generated_Source\PSoC6\pdl\rtos\FreeRTOS\10.0.1\Source/timers.c **** 				if( xListWasEmpty != pdFALSE )
 568:Generated_Source\PSoC6\pdl\rtos\FreeRTOS\10.0.1\Source/timers.c **** 				{
 569:Generated_Source\PSoC6\pdl\rtos\FreeRTOS\10.0.1\Source/timers.c **** 					/* The current timer list is empty - is the overflow list
 570:Generated_Source\PSoC6\pdl\rtos\FreeRTOS\10.0.1\Source/timers.c **** 					also empty? */
 571:Generated_Source\PSoC6\pdl\rtos\FreeRTOS\10.0.1\Source/timers.c **** 					xListWasEmpty = listLIST_IS_EMPTY( pxOverflowTimerList );
 572:Generated_Source\PSoC6\pdl\rtos\FreeRTOS\10.0.1\Source/timers.c **** 				}
 573:Generated_Source\PSoC6\pdl\rtos\FreeRTOS\10.0.1\Source/timers.c **** 
 574:Generated_Source\PSoC6\pdl\rtos\FreeRTOS\10.0.1\Source/timers.c **** 				vQueueWaitForMessageRestricted( xTimerQueue, ( xNextExpireTime - xTimeNow ), xListWasEmpty );
 575:Generated_Source\PSoC6\pdl\rtos\FreeRTOS\10.0.1\Source/timers.c **** 
 576:Generated_Source\PSoC6\pdl\rtos\FreeRTOS\10.0.1\Source/timers.c **** 				if( xTaskResumeAll() == pdFALSE )
 577:Generated_Source\PSoC6\pdl\rtos\FreeRTOS\10.0.1\Source/timers.c **** 				{
 578:Generated_Source\PSoC6\pdl\rtos\FreeRTOS\10.0.1\Source/timers.c **** 					/* Yield to wait for either a command to arrive, or the
 579:Generated_Source\PSoC6\pdl\rtos\FreeRTOS\10.0.1\Source/timers.c **** 					block time to expire.  If a command arrived between the
 580:Generated_Source\PSoC6\pdl\rtos\FreeRTOS\10.0.1\Source/timers.c **** 					critical section being exited and this yield then the yield
 581:Generated_Source\PSoC6\pdl\rtos\FreeRTOS\10.0.1\Source/timers.c **** 					will not cause the task to block. */
 582:Generated_Source\PSoC6\pdl\rtos\FreeRTOS\10.0.1\Source/timers.c **** 					portYIELD_WITHIN_API();
 583:Generated_Source\PSoC6\pdl\rtos\FreeRTOS\10.0.1\Source/timers.c **** 				}
 584:Generated_Source\PSoC6\pdl\rtos\FreeRTOS\10.0.1\Source/timers.c **** 				else
 585:Generated_Source\PSoC6\pdl\rtos\FreeRTOS\10.0.1\Source/timers.c **** 				{
 586:Generated_Source\PSoC6\pdl\rtos\FreeRTOS\10.0.1\Source/timers.c **** 					mtCOVERAGE_TEST_MARKER();
 587:Generated_Source\PSoC6\pdl\rtos\FreeRTOS\10.0.1\Source/timers.c **** 				}
 588:Generated_Source\PSoC6\pdl\rtos\FreeRTOS\10.0.1\Source/timers.c **** 			}
 589:Generated_Source\PSoC6\pdl\rtos\FreeRTOS\10.0.1\Source/timers.c **** 		}
 590:Generated_Source\PSoC6\pdl\rtos\FreeRTOS\10.0.1\Source/timers.c **** 		else
 591:Generated_Source\PSoC6\pdl\rtos\FreeRTOS\10.0.1\Source/timers.c **** 		{
 592:Generated_Source\PSoC6\pdl\rtos\FreeRTOS\10.0.1\Source/timers.c **** 			( void ) xTaskResumeAll();
 593:Generated_Source\PSoC6\pdl\rtos\FreeRTOS\10.0.1\Source/timers.c **** 		}
 594:Generated_Source\PSoC6\pdl\rtos\FreeRTOS\10.0.1\Source/timers.c **** 	}
 595:Generated_Source\PSoC6\pdl\rtos\FreeRTOS\10.0.1\Source/timers.c **** }
 596:Generated_Source\PSoC6\pdl\rtos\FreeRTOS\10.0.1\Source/timers.c **** /*-----------------------------------------------------------*/
 597:Generated_Source\PSoC6\pdl\rtos\FreeRTOS\10.0.1\Source/timers.c **** 
 598:Generated_Source\PSoC6\pdl\rtos\FreeRTOS\10.0.1\Source/timers.c **** static TickType_t prvGetNextExpireTime( BaseType_t * const pxListWasEmpty )
 599:Generated_Source\PSoC6\pdl\rtos\FreeRTOS\10.0.1\Source/timers.c **** {
  28              		.loc 1 599 0
ARM GAS  C:\Users\kateb\AppData\Local\Temp\ccjwfWYs.s 			page 12


  29              		.cfi_startproc
  30              		@ args = 0, pretend = 0, frame = 0
  31              		@ frame_needed = 0, uses_anonymous_args = 0
  32              		@ link register save eliminated.
  33              	.LVL0:
 600:Generated_Source\PSoC6\pdl\rtos\FreeRTOS\10.0.1\Source/timers.c **** TickType_t xNextExpireTime;
 601:Generated_Source\PSoC6\pdl\rtos\FreeRTOS\10.0.1\Source/timers.c **** 
 602:Generated_Source\PSoC6\pdl\rtos\FreeRTOS\10.0.1\Source/timers.c **** 	/* Timers are listed in expiry time order, with the head of the list
 603:Generated_Source\PSoC6\pdl\rtos\FreeRTOS\10.0.1\Source/timers.c **** 	referencing the task that will expire first.  Obtain the time at which
 604:Generated_Source\PSoC6\pdl\rtos\FreeRTOS\10.0.1\Source/timers.c **** 	the timer with the nearest expiry time will expire.  If there are no
 605:Generated_Source\PSoC6\pdl\rtos\FreeRTOS\10.0.1\Source/timers.c **** 	active timers then just set the next expire time to 0.  That will cause
 606:Generated_Source\PSoC6\pdl\rtos\FreeRTOS\10.0.1\Source/timers.c **** 	this task to unblock when the tick count overflows, at which point the
 607:Generated_Source\PSoC6\pdl\rtos\FreeRTOS\10.0.1\Source/timers.c **** 	timer lists will be switched and the next expiry time can be
 608:Generated_Source\PSoC6\pdl\rtos\FreeRTOS\10.0.1\Source/timers.c **** 	re-assessed.  */
 609:Generated_Source\PSoC6\pdl\rtos\FreeRTOS\10.0.1\Source/timers.c **** 	*pxListWasEmpty = listLIST_IS_EMPTY( pxCurrentTimerList );
  34              		.loc 1 609 0
  35 0000 064B     		ldr	r3, .L4
  36 0002 1A68     		ldr	r2, [r3]
  37 0004 1368     		ldr	r3, [r2]
  38 0006 B3FA83F3 		clz	r3, r3
  39 000a 5B09     		lsrs	r3, r3, #5
  40 000c 0360     		str	r3, [r0]
 610:Generated_Source\PSoC6\pdl\rtos\FreeRTOS\10.0.1\Source/timers.c **** 	if( *pxListWasEmpty == pdFALSE )
  41              		.loc 1 610 0
  42 000e 13B9     		cbnz	r3, .L3
 611:Generated_Source\PSoC6\pdl\rtos\FreeRTOS\10.0.1\Source/timers.c **** 	{
 612:Generated_Source\PSoC6\pdl\rtos\FreeRTOS\10.0.1\Source/timers.c **** 		xNextExpireTime = listGET_ITEM_VALUE_OF_HEAD_ENTRY( pxCurrentTimerList );
  43              		.loc 1 612 0
  44 0010 D368     		ldr	r3, [r2, #12]
  45 0012 1868     		ldr	r0, [r3]
  46              	.LVL1:
  47 0014 7047     		bx	lr
  48              	.LVL2:
  49              	.L3:
 613:Generated_Source\PSoC6\pdl\rtos\FreeRTOS\10.0.1\Source/timers.c **** 	}
 614:Generated_Source\PSoC6\pdl\rtos\FreeRTOS\10.0.1\Source/timers.c **** 	else
 615:Generated_Source\PSoC6\pdl\rtos\FreeRTOS\10.0.1\Source/timers.c **** 	{
 616:Generated_Source\PSoC6\pdl\rtos\FreeRTOS\10.0.1\Source/timers.c **** 		/* Ensure the task unblocks when the tick count rolls over. */
 617:Generated_Source\PSoC6\pdl\rtos\FreeRTOS\10.0.1\Source/timers.c **** 		xNextExpireTime = ( TickType_t ) 0U;
  50              		.loc 1 617 0
  51 0016 0020     		movs	r0, #0
  52              	.LVL3:
 618:Generated_Source\PSoC6\pdl\rtos\FreeRTOS\10.0.1\Source/timers.c **** 	}
 619:Generated_Source\PSoC6\pdl\rtos\FreeRTOS\10.0.1\Source/timers.c **** 
 620:Generated_Source\PSoC6\pdl\rtos\FreeRTOS\10.0.1\Source/timers.c **** 	return xNextExpireTime;
 621:Generated_Source\PSoC6\pdl\rtos\FreeRTOS\10.0.1\Source/timers.c **** }
  53              		.loc 1 621 0
  54 0018 7047     		bx	lr
  55              	.L5:
  56 001a 00BF     		.align	2
  57              	.L4:
  58 001c 00000000 		.word	.LANCHOR0
  59              		.cfi_endproc
  60              	.LFE606:
  61              		.size	prvGetNextExpireTime, .-prvGetNextExpireTime
  62              		.section	.text.prvInsertTimerInActiveList,"ax",%progbits
  63              		.align	2
ARM GAS  C:\Users\kateb\AppData\Local\Temp\ccjwfWYs.s 			page 13


  64              		.thumb
  65              		.thumb_func
  66              		.type	prvInsertTimerInActiveList, %function
  67              	prvInsertTimerInActiveList:
  68              	.LFB608:
 622:Generated_Source\PSoC6\pdl\rtos\FreeRTOS\10.0.1\Source/timers.c **** /*-----------------------------------------------------------*/
 623:Generated_Source\PSoC6\pdl\rtos\FreeRTOS\10.0.1\Source/timers.c **** 
 624:Generated_Source\PSoC6\pdl\rtos\FreeRTOS\10.0.1\Source/timers.c **** static TickType_t prvSampleTimeNow( BaseType_t * const pxTimerListsWereSwitched )
 625:Generated_Source\PSoC6\pdl\rtos\FreeRTOS\10.0.1\Source/timers.c **** {
 626:Generated_Source\PSoC6\pdl\rtos\FreeRTOS\10.0.1\Source/timers.c **** TickType_t xTimeNow;
 627:Generated_Source\PSoC6\pdl\rtos\FreeRTOS\10.0.1\Source/timers.c **** PRIVILEGED_DATA static TickType_t xLastTime = ( TickType_t ) 0U; /*lint !e956 Variable is only acce
 628:Generated_Source\PSoC6\pdl\rtos\FreeRTOS\10.0.1\Source/timers.c **** 
 629:Generated_Source\PSoC6\pdl\rtos\FreeRTOS\10.0.1\Source/timers.c **** 	xTimeNow = xTaskGetTickCount();
 630:Generated_Source\PSoC6\pdl\rtos\FreeRTOS\10.0.1\Source/timers.c **** 
 631:Generated_Source\PSoC6\pdl\rtos\FreeRTOS\10.0.1\Source/timers.c **** 	if( xTimeNow < xLastTime )
 632:Generated_Source\PSoC6\pdl\rtos\FreeRTOS\10.0.1\Source/timers.c **** 	{
 633:Generated_Source\PSoC6\pdl\rtos\FreeRTOS\10.0.1\Source/timers.c **** 		prvSwitchTimerLists();
 634:Generated_Source\PSoC6\pdl\rtos\FreeRTOS\10.0.1\Source/timers.c **** 		*pxTimerListsWereSwitched = pdTRUE;
 635:Generated_Source\PSoC6\pdl\rtos\FreeRTOS\10.0.1\Source/timers.c **** 	}
 636:Generated_Source\PSoC6\pdl\rtos\FreeRTOS\10.0.1\Source/timers.c **** 	else
 637:Generated_Source\PSoC6\pdl\rtos\FreeRTOS\10.0.1\Source/timers.c **** 	{
 638:Generated_Source\PSoC6\pdl\rtos\FreeRTOS\10.0.1\Source/timers.c **** 		*pxTimerListsWereSwitched = pdFALSE;
 639:Generated_Source\PSoC6\pdl\rtos\FreeRTOS\10.0.1\Source/timers.c **** 	}
 640:Generated_Source\PSoC6\pdl\rtos\FreeRTOS\10.0.1\Source/timers.c **** 
 641:Generated_Source\PSoC6\pdl\rtos\FreeRTOS\10.0.1\Source/timers.c **** 	xLastTime = xTimeNow;
 642:Generated_Source\PSoC6\pdl\rtos\FreeRTOS\10.0.1\Source/timers.c **** 
 643:Generated_Source\PSoC6\pdl\rtos\FreeRTOS\10.0.1\Source/timers.c **** 	return xTimeNow;
 644:Generated_Source\PSoC6\pdl\rtos\FreeRTOS\10.0.1\Source/timers.c **** }
 645:Generated_Source\PSoC6\pdl\rtos\FreeRTOS\10.0.1\Source/timers.c **** /*-----------------------------------------------------------*/
 646:Generated_Source\PSoC6\pdl\rtos\FreeRTOS\10.0.1\Source/timers.c **** 
 647:Generated_Source\PSoC6\pdl\rtos\FreeRTOS\10.0.1\Source/timers.c **** static BaseType_t prvInsertTimerInActiveList( Timer_t * const pxTimer, const TickType_t xNextExpiry
 648:Generated_Source\PSoC6\pdl\rtos\FreeRTOS\10.0.1\Source/timers.c **** {
  69              		.loc 1 648 0
  70              		.cfi_startproc
  71              		@ args = 0, pretend = 0, frame = 0
  72              		@ frame_needed = 0, uses_anonymous_args = 0
  73              	.LVL4:
  74 0000 08B5     		push	{r3, lr}
  75              		.cfi_def_cfa_offset 8
  76              		.cfi_offset 3, -8
  77              		.cfi_offset 14, -4
  78              	.LVL5:
 649:Generated_Source\PSoC6\pdl\rtos\FreeRTOS\10.0.1\Source/timers.c **** BaseType_t xProcessTimerNow = pdFALSE;
 650:Generated_Source\PSoC6\pdl\rtos\FreeRTOS\10.0.1\Source/timers.c **** 
 651:Generated_Source\PSoC6\pdl\rtos\FreeRTOS\10.0.1\Source/timers.c **** 	listSET_LIST_ITEM_VALUE( &( pxTimer->xTimerListItem ), xNextExpiryTime );
  79              		.loc 1 651 0
  80 0002 4160     		str	r1, [r0, #4]
 652:Generated_Source\PSoC6\pdl\rtos\FreeRTOS\10.0.1\Source/timers.c **** 	listSET_LIST_ITEM_OWNER( &( pxTimer->xTimerListItem ), pxTimer );
  81              		.loc 1 652 0
  82 0004 0061     		str	r0, [r0, #16]
 653:Generated_Source\PSoC6\pdl\rtos\FreeRTOS\10.0.1\Source/timers.c **** 
 654:Generated_Source\PSoC6\pdl\rtos\FreeRTOS\10.0.1\Source/timers.c **** 	if( xNextExpiryTime <= xTimeNow )
  83              		.loc 1 654 0
  84 0006 9142     		cmp	r1, r2
  85 0008 0AD8     		bhi	.L7
 655:Generated_Source\PSoC6\pdl\rtos\FreeRTOS\10.0.1\Source/timers.c **** 	{
 656:Generated_Source\PSoC6\pdl\rtos\FreeRTOS\10.0.1\Source/timers.c **** 		/* Has the expiry time elapsed between the command to start/reset a
ARM GAS  C:\Users\kateb\AppData\Local\Temp\ccjwfWYs.s 			page 14


 657:Generated_Source\PSoC6\pdl\rtos\FreeRTOS\10.0.1\Source/timers.c **** 		timer was issued, and the time the command was processed? */
 658:Generated_Source\PSoC6\pdl\rtos\FreeRTOS\10.0.1\Source/timers.c **** 		if( ( ( TickType_t ) ( xTimeNow - xCommandTime ) ) >= pxTimer->xTimerPeriodInTicks ) /*lint !e961
  86              		.loc 1 658 0
  87 000a D21A     		subs	r2, r2, r3
  88              	.LVL6:
  89 000c 8369     		ldr	r3, [r0, #24]
  90              	.LVL7:
  91 000e 9A42     		cmp	r2, r3
  92 0010 11D2     		bcs	.L10
 659:Generated_Source\PSoC6\pdl\rtos\FreeRTOS\10.0.1\Source/timers.c **** 		{
 660:Generated_Source\PSoC6\pdl\rtos\FreeRTOS\10.0.1\Source/timers.c **** 			/* The time between a command being issued and the command being
 661:Generated_Source\PSoC6\pdl\rtos\FreeRTOS\10.0.1\Source/timers.c **** 			processed actually exceeds the timers period.  */
 662:Generated_Source\PSoC6\pdl\rtos\FreeRTOS\10.0.1\Source/timers.c **** 			xProcessTimerNow = pdTRUE;
 663:Generated_Source\PSoC6\pdl\rtos\FreeRTOS\10.0.1\Source/timers.c **** 		}
 664:Generated_Source\PSoC6\pdl\rtos\FreeRTOS\10.0.1\Source/timers.c **** 		else
 665:Generated_Source\PSoC6\pdl\rtos\FreeRTOS\10.0.1\Source/timers.c **** 		{
 666:Generated_Source\PSoC6\pdl\rtos\FreeRTOS\10.0.1\Source/timers.c **** 			vListInsert( pxOverflowTimerList, &( pxTimer->xTimerListItem ) );
  93              		.loc 1 666 0
  94 0012 011D     		adds	r1, r0, #4
  95              	.LVL8:
  96 0014 0A4B     		ldr	r3, .L13
  97 0016 5868     		ldr	r0, [r3, #4]
  98              	.LVL9:
  99 0018 FFF7FEFF 		bl	vListInsert
 100              	.LVL10:
 649:Generated_Source\PSoC6\pdl\rtos\FreeRTOS\10.0.1\Source/timers.c **** 
 101              		.loc 1 649 0
 102 001c 0020     		movs	r0, #0
 103 001e 08BD     		pop	{r3, pc}
 104              	.LVL11:
 105              	.L7:
 667:Generated_Source\PSoC6\pdl\rtos\FreeRTOS\10.0.1\Source/timers.c **** 		}
 668:Generated_Source\PSoC6\pdl\rtos\FreeRTOS\10.0.1\Source/timers.c **** 	}
 669:Generated_Source\PSoC6\pdl\rtos\FreeRTOS\10.0.1\Source/timers.c **** 	else
 670:Generated_Source\PSoC6\pdl\rtos\FreeRTOS\10.0.1\Source/timers.c **** 	{
 671:Generated_Source\PSoC6\pdl\rtos\FreeRTOS\10.0.1\Source/timers.c **** 		if( ( xTimeNow < xCommandTime ) && ( xNextExpiryTime >= xCommandTime ) )
 106              		.loc 1 671 0
 107 0020 9A42     		cmp	r2, r3
 108 0022 01D2     		bcs	.L9
 109              		.loc 1 671 0 is_stmt 0 discriminator 1
 110 0024 9942     		cmp	r1, r3
 111 0026 08D2     		bcs	.L11
 112              	.L9:
 672:Generated_Source\PSoC6\pdl\rtos\FreeRTOS\10.0.1\Source/timers.c **** 		{
 673:Generated_Source\PSoC6\pdl\rtos\FreeRTOS\10.0.1\Source/timers.c **** 			/* If, since the command was issued, the tick count has overflowed
 674:Generated_Source\PSoC6\pdl\rtos\FreeRTOS\10.0.1\Source/timers.c **** 			but the expiry time has not, then the timer must have already passed
 675:Generated_Source\PSoC6\pdl\rtos\FreeRTOS\10.0.1\Source/timers.c **** 			its expiry time and should be processed immediately. */
 676:Generated_Source\PSoC6\pdl\rtos\FreeRTOS\10.0.1\Source/timers.c **** 			xProcessTimerNow = pdTRUE;
 677:Generated_Source\PSoC6\pdl\rtos\FreeRTOS\10.0.1\Source/timers.c **** 		}
 678:Generated_Source\PSoC6\pdl\rtos\FreeRTOS\10.0.1\Source/timers.c **** 		else
 679:Generated_Source\PSoC6\pdl\rtos\FreeRTOS\10.0.1\Source/timers.c **** 		{
 680:Generated_Source\PSoC6\pdl\rtos\FreeRTOS\10.0.1\Source/timers.c **** 			vListInsert( pxCurrentTimerList, &( pxTimer->xTimerListItem ) );
 113              		.loc 1 680 0 is_stmt 1
 114 0028 011D     		adds	r1, r0, #4
 115              	.LVL12:
 116 002a 054B     		ldr	r3, .L13
 117              	.LVL13:
ARM GAS  C:\Users\kateb\AppData\Local\Temp\ccjwfWYs.s 			page 15


 118 002c 1868     		ldr	r0, [r3]
 119              	.LVL14:
 120 002e FFF7FEFF 		bl	vListInsert
 121              	.LVL15:
 649:Generated_Source\PSoC6\pdl\rtos\FreeRTOS\10.0.1\Source/timers.c **** 
 122              		.loc 1 649 0
 123 0032 0020     		movs	r0, #0
 124 0034 08BD     		pop	{r3, pc}
 125              	.LVL16:
 126              	.L10:
 662:Generated_Source\PSoC6\pdl\rtos\FreeRTOS\10.0.1\Source/timers.c **** 		}
 127              		.loc 1 662 0
 128 0036 0120     		movs	r0, #1
 129              	.LVL17:
 130 0038 08BD     		pop	{r3, pc}
 131              	.LVL18:
 132              	.L11:
 676:Generated_Source\PSoC6\pdl\rtos\FreeRTOS\10.0.1\Source/timers.c **** 		}
 133              		.loc 1 676 0
 134 003a 0120     		movs	r0, #1
 135              	.LVL19:
 681:Generated_Source\PSoC6\pdl\rtos\FreeRTOS\10.0.1\Source/timers.c **** 		}
 682:Generated_Source\PSoC6\pdl\rtos\FreeRTOS\10.0.1\Source/timers.c **** 	}
 683:Generated_Source\PSoC6\pdl\rtos\FreeRTOS\10.0.1\Source/timers.c **** 
 684:Generated_Source\PSoC6\pdl\rtos\FreeRTOS\10.0.1\Source/timers.c **** 	return xProcessTimerNow;
 685:Generated_Source\PSoC6\pdl\rtos\FreeRTOS\10.0.1\Source/timers.c **** }
 136              		.loc 1 685 0
 137 003c 08BD     		pop	{r3, pc}
 138              	.LVL20:
 139              	.L14:
 140 003e 00BF     		.align	2
 141              	.L13:
 142 0040 00000000 		.word	.LANCHOR0
 143              		.cfi_endproc
 144              	.LFE608:
 145              		.size	prvInsertTimerInActiveList, .-prvInsertTimerInActiveList
 146              		.section	.text.prvCheckForValidListAndQueue,"ax",%progbits
 147              		.align	2
 148              		.thumb
 149              		.thumb_func
 150              		.type	prvCheckForValidListAndQueue, %function
 151              	prvCheckForValidListAndQueue:
 152              	.LFB611:
 686:Generated_Source\PSoC6\pdl\rtos\FreeRTOS\10.0.1\Source/timers.c **** /*-----------------------------------------------------------*/
 687:Generated_Source\PSoC6\pdl\rtos\FreeRTOS\10.0.1\Source/timers.c **** 
 688:Generated_Source\PSoC6\pdl\rtos\FreeRTOS\10.0.1\Source/timers.c **** static void	prvProcessReceivedCommands( void )
 689:Generated_Source\PSoC6\pdl\rtos\FreeRTOS\10.0.1\Source/timers.c **** {
 690:Generated_Source\PSoC6\pdl\rtos\FreeRTOS\10.0.1\Source/timers.c **** DaemonTaskMessage_t xMessage;
 691:Generated_Source\PSoC6\pdl\rtos\FreeRTOS\10.0.1\Source/timers.c **** Timer_t *pxTimer;
 692:Generated_Source\PSoC6\pdl\rtos\FreeRTOS\10.0.1\Source/timers.c **** BaseType_t xTimerListsWereSwitched, xResult;
 693:Generated_Source\PSoC6\pdl\rtos\FreeRTOS\10.0.1\Source/timers.c **** TickType_t xTimeNow;
 694:Generated_Source\PSoC6\pdl\rtos\FreeRTOS\10.0.1\Source/timers.c **** 
 695:Generated_Source\PSoC6\pdl\rtos\FreeRTOS\10.0.1\Source/timers.c **** 	while( xQueueReceive( xTimerQueue, &xMessage, tmrNO_DELAY ) != pdFAIL ) /*lint !e603 xMessage does
 696:Generated_Source\PSoC6\pdl\rtos\FreeRTOS\10.0.1\Source/timers.c **** 	{
 697:Generated_Source\PSoC6\pdl\rtos\FreeRTOS\10.0.1\Source/timers.c **** 		#if ( INCLUDE_xTimerPendFunctionCall == 1 )
 698:Generated_Source\PSoC6\pdl\rtos\FreeRTOS\10.0.1\Source/timers.c **** 		{
 699:Generated_Source\PSoC6\pdl\rtos\FreeRTOS\10.0.1\Source/timers.c **** 			/* Negative commands are pended function calls rather than timer
ARM GAS  C:\Users\kateb\AppData\Local\Temp\ccjwfWYs.s 			page 16


 700:Generated_Source\PSoC6\pdl\rtos\FreeRTOS\10.0.1\Source/timers.c **** 			commands. */
 701:Generated_Source\PSoC6\pdl\rtos\FreeRTOS\10.0.1\Source/timers.c **** 			if( xMessage.xMessageID < ( BaseType_t ) 0 )
 702:Generated_Source\PSoC6\pdl\rtos\FreeRTOS\10.0.1\Source/timers.c **** 			{
 703:Generated_Source\PSoC6\pdl\rtos\FreeRTOS\10.0.1\Source/timers.c **** 				const CallbackParameters_t * const pxCallback = &( xMessage.u.xCallbackParameters );
 704:Generated_Source\PSoC6\pdl\rtos\FreeRTOS\10.0.1\Source/timers.c **** 
 705:Generated_Source\PSoC6\pdl\rtos\FreeRTOS\10.0.1\Source/timers.c **** 				/* The timer uses the xCallbackParameters member to request a
 706:Generated_Source\PSoC6\pdl\rtos\FreeRTOS\10.0.1\Source/timers.c **** 				callback be executed.  Check the callback is not NULL. */
 707:Generated_Source\PSoC6\pdl\rtos\FreeRTOS\10.0.1\Source/timers.c **** 				configASSERT( pxCallback );
 708:Generated_Source\PSoC6\pdl\rtos\FreeRTOS\10.0.1\Source/timers.c **** 
 709:Generated_Source\PSoC6\pdl\rtos\FreeRTOS\10.0.1\Source/timers.c **** 				/* Call the function. */
 710:Generated_Source\PSoC6\pdl\rtos\FreeRTOS\10.0.1\Source/timers.c **** 				pxCallback->pxCallbackFunction( pxCallback->pvParameter1, pxCallback->ulParameter2 );
 711:Generated_Source\PSoC6\pdl\rtos\FreeRTOS\10.0.1\Source/timers.c **** 			}
 712:Generated_Source\PSoC6\pdl\rtos\FreeRTOS\10.0.1\Source/timers.c **** 			else
 713:Generated_Source\PSoC6\pdl\rtos\FreeRTOS\10.0.1\Source/timers.c **** 			{
 714:Generated_Source\PSoC6\pdl\rtos\FreeRTOS\10.0.1\Source/timers.c **** 				mtCOVERAGE_TEST_MARKER();
 715:Generated_Source\PSoC6\pdl\rtos\FreeRTOS\10.0.1\Source/timers.c **** 			}
 716:Generated_Source\PSoC6\pdl\rtos\FreeRTOS\10.0.1\Source/timers.c **** 		}
 717:Generated_Source\PSoC6\pdl\rtos\FreeRTOS\10.0.1\Source/timers.c **** 		#endif /* INCLUDE_xTimerPendFunctionCall */
 718:Generated_Source\PSoC6\pdl\rtos\FreeRTOS\10.0.1\Source/timers.c **** 
 719:Generated_Source\PSoC6\pdl\rtos\FreeRTOS\10.0.1\Source/timers.c **** 		/* Commands that are positive are timer commands rather than pended
 720:Generated_Source\PSoC6\pdl\rtos\FreeRTOS\10.0.1\Source/timers.c **** 		function calls. */
 721:Generated_Source\PSoC6\pdl\rtos\FreeRTOS\10.0.1\Source/timers.c **** 		if( xMessage.xMessageID >= ( BaseType_t ) 0 )
 722:Generated_Source\PSoC6\pdl\rtos\FreeRTOS\10.0.1\Source/timers.c **** 		{
 723:Generated_Source\PSoC6\pdl\rtos\FreeRTOS\10.0.1\Source/timers.c **** 			/* The messages uses the xTimerParameters member to work on a
 724:Generated_Source\PSoC6\pdl\rtos\FreeRTOS\10.0.1\Source/timers.c **** 			software timer. */
 725:Generated_Source\PSoC6\pdl\rtos\FreeRTOS\10.0.1\Source/timers.c **** 			pxTimer = xMessage.u.xTimerParameters.pxTimer;
 726:Generated_Source\PSoC6\pdl\rtos\FreeRTOS\10.0.1\Source/timers.c **** 
 727:Generated_Source\PSoC6\pdl\rtos\FreeRTOS\10.0.1\Source/timers.c **** 			if( listIS_CONTAINED_WITHIN( NULL, &( pxTimer->xTimerListItem ) ) == pdFALSE ) /*lint !e961. The
 728:Generated_Source\PSoC6\pdl\rtos\FreeRTOS\10.0.1\Source/timers.c **** 			{
 729:Generated_Source\PSoC6\pdl\rtos\FreeRTOS\10.0.1\Source/timers.c **** 				/* The timer is in a list, remove it. */
 730:Generated_Source\PSoC6\pdl\rtos\FreeRTOS\10.0.1\Source/timers.c **** 				( void ) uxListRemove( &( pxTimer->xTimerListItem ) );
 731:Generated_Source\PSoC6\pdl\rtos\FreeRTOS\10.0.1\Source/timers.c **** 			}
 732:Generated_Source\PSoC6\pdl\rtos\FreeRTOS\10.0.1\Source/timers.c **** 			else
 733:Generated_Source\PSoC6\pdl\rtos\FreeRTOS\10.0.1\Source/timers.c **** 			{
 734:Generated_Source\PSoC6\pdl\rtos\FreeRTOS\10.0.1\Source/timers.c **** 				mtCOVERAGE_TEST_MARKER();
 735:Generated_Source\PSoC6\pdl\rtos\FreeRTOS\10.0.1\Source/timers.c **** 			}
 736:Generated_Source\PSoC6\pdl\rtos\FreeRTOS\10.0.1\Source/timers.c **** 
 737:Generated_Source\PSoC6\pdl\rtos\FreeRTOS\10.0.1\Source/timers.c **** 			traceTIMER_COMMAND_RECEIVED( pxTimer, xMessage.xMessageID, xMessage.u.xTimerParameters.xMessageV
 738:Generated_Source\PSoC6\pdl\rtos\FreeRTOS\10.0.1\Source/timers.c **** 
 739:Generated_Source\PSoC6\pdl\rtos\FreeRTOS\10.0.1\Source/timers.c **** 			/* In this case the xTimerListsWereSwitched parameter is not used, but
 740:Generated_Source\PSoC6\pdl\rtos\FreeRTOS\10.0.1\Source/timers.c **** 			it must be present in the function call.  prvSampleTimeNow() must be
 741:Generated_Source\PSoC6\pdl\rtos\FreeRTOS\10.0.1\Source/timers.c **** 			called after the message is received from xTimerQueue so there is no
 742:Generated_Source\PSoC6\pdl\rtos\FreeRTOS\10.0.1\Source/timers.c **** 			possibility of a higher priority task adding a message to the message
 743:Generated_Source\PSoC6\pdl\rtos\FreeRTOS\10.0.1\Source/timers.c **** 			queue with a time that is ahead of the timer daemon task (because it
 744:Generated_Source\PSoC6\pdl\rtos\FreeRTOS\10.0.1\Source/timers.c **** 			pre-empted the timer daemon task after the xTimeNow value was set). */
 745:Generated_Source\PSoC6\pdl\rtos\FreeRTOS\10.0.1\Source/timers.c **** 			xTimeNow = prvSampleTimeNow( &xTimerListsWereSwitched );
 746:Generated_Source\PSoC6\pdl\rtos\FreeRTOS\10.0.1\Source/timers.c **** 
 747:Generated_Source\PSoC6\pdl\rtos\FreeRTOS\10.0.1\Source/timers.c **** 			switch( xMessage.xMessageID )
 748:Generated_Source\PSoC6\pdl\rtos\FreeRTOS\10.0.1\Source/timers.c **** 			{
 749:Generated_Source\PSoC6\pdl\rtos\FreeRTOS\10.0.1\Source/timers.c **** 				case tmrCOMMAND_START :
 750:Generated_Source\PSoC6\pdl\rtos\FreeRTOS\10.0.1\Source/timers.c **** 			    case tmrCOMMAND_START_FROM_ISR :
 751:Generated_Source\PSoC6\pdl\rtos\FreeRTOS\10.0.1\Source/timers.c **** 			    case tmrCOMMAND_RESET :
 752:Generated_Source\PSoC6\pdl\rtos\FreeRTOS\10.0.1\Source/timers.c **** 			    case tmrCOMMAND_RESET_FROM_ISR :
 753:Generated_Source\PSoC6\pdl\rtos\FreeRTOS\10.0.1\Source/timers.c **** 				case tmrCOMMAND_START_DONT_TRACE :
 754:Generated_Source\PSoC6\pdl\rtos\FreeRTOS\10.0.1\Source/timers.c **** 					/* Start or restart a timer. */
 755:Generated_Source\PSoC6\pdl\rtos\FreeRTOS\10.0.1\Source/timers.c **** 					if( prvInsertTimerInActiveList( pxTimer,  xMessage.u.xTimerParameters.xMessageValue + pxTimer-
 756:Generated_Source\PSoC6\pdl\rtos\FreeRTOS\10.0.1\Source/timers.c **** 					{
ARM GAS  C:\Users\kateb\AppData\Local\Temp\ccjwfWYs.s 			page 17


 757:Generated_Source\PSoC6\pdl\rtos\FreeRTOS\10.0.1\Source/timers.c **** 						/* The timer expired before it was added to the active
 758:Generated_Source\PSoC6\pdl\rtos\FreeRTOS\10.0.1\Source/timers.c **** 						timer list.  Process it now. */
 759:Generated_Source\PSoC6\pdl\rtos\FreeRTOS\10.0.1\Source/timers.c **** 						pxTimer->pxCallbackFunction( ( TimerHandle_t ) pxTimer );
 760:Generated_Source\PSoC6\pdl\rtos\FreeRTOS\10.0.1\Source/timers.c **** 						traceTIMER_EXPIRED( pxTimer );
 761:Generated_Source\PSoC6\pdl\rtos\FreeRTOS\10.0.1\Source/timers.c **** 
 762:Generated_Source\PSoC6\pdl\rtos\FreeRTOS\10.0.1\Source/timers.c **** 						if( pxTimer->uxAutoReload == ( UBaseType_t ) pdTRUE )
 763:Generated_Source\PSoC6\pdl\rtos\FreeRTOS\10.0.1\Source/timers.c **** 						{
 764:Generated_Source\PSoC6\pdl\rtos\FreeRTOS\10.0.1\Source/timers.c **** 							xResult = xTimerGenericCommand( pxTimer, tmrCOMMAND_START_DONT_TRACE, xMessage.u.xTimerParam
 765:Generated_Source\PSoC6\pdl\rtos\FreeRTOS\10.0.1\Source/timers.c **** 							configASSERT( xResult );
 766:Generated_Source\PSoC6\pdl\rtos\FreeRTOS\10.0.1\Source/timers.c **** 							( void ) xResult;
 767:Generated_Source\PSoC6\pdl\rtos\FreeRTOS\10.0.1\Source/timers.c **** 						}
 768:Generated_Source\PSoC6\pdl\rtos\FreeRTOS\10.0.1\Source/timers.c **** 						else
 769:Generated_Source\PSoC6\pdl\rtos\FreeRTOS\10.0.1\Source/timers.c **** 						{
 770:Generated_Source\PSoC6\pdl\rtos\FreeRTOS\10.0.1\Source/timers.c **** 							mtCOVERAGE_TEST_MARKER();
 771:Generated_Source\PSoC6\pdl\rtos\FreeRTOS\10.0.1\Source/timers.c **** 						}
 772:Generated_Source\PSoC6\pdl\rtos\FreeRTOS\10.0.1\Source/timers.c **** 					}
 773:Generated_Source\PSoC6\pdl\rtos\FreeRTOS\10.0.1\Source/timers.c **** 					else
 774:Generated_Source\PSoC6\pdl\rtos\FreeRTOS\10.0.1\Source/timers.c **** 					{
 775:Generated_Source\PSoC6\pdl\rtos\FreeRTOS\10.0.1\Source/timers.c **** 						mtCOVERAGE_TEST_MARKER();
 776:Generated_Source\PSoC6\pdl\rtos\FreeRTOS\10.0.1\Source/timers.c **** 					}
 777:Generated_Source\PSoC6\pdl\rtos\FreeRTOS\10.0.1\Source/timers.c **** 					break;
 778:Generated_Source\PSoC6\pdl\rtos\FreeRTOS\10.0.1\Source/timers.c **** 
 779:Generated_Source\PSoC6\pdl\rtos\FreeRTOS\10.0.1\Source/timers.c **** 				case tmrCOMMAND_STOP :
 780:Generated_Source\PSoC6\pdl\rtos\FreeRTOS\10.0.1\Source/timers.c **** 				case tmrCOMMAND_STOP_FROM_ISR :
 781:Generated_Source\PSoC6\pdl\rtos\FreeRTOS\10.0.1\Source/timers.c **** 					/* The timer has already been removed from the active list.
 782:Generated_Source\PSoC6\pdl\rtos\FreeRTOS\10.0.1\Source/timers.c **** 					There is nothing to do here. */
 783:Generated_Source\PSoC6\pdl\rtos\FreeRTOS\10.0.1\Source/timers.c **** 					break;
 784:Generated_Source\PSoC6\pdl\rtos\FreeRTOS\10.0.1\Source/timers.c **** 
 785:Generated_Source\PSoC6\pdl\rtos\FreeRTOS\10.0.1\Source/timers.c **** 				case tmrCOMMAND_CHANGE_PERIOD :
 786:Generated_Source\PSoC6\pdl\rtos\FreeRTOS\10.0.1\Source/timers.c **** 				case tmrCOMMAND_CHANGE_PERIOD_FROM_ISR :
 787:Generated_Source\PSoC6\pdl\rtos\FreeRTOS\10.0.1\Source/timers.c **** 					pxTimer->xTimerPeriodInTicks = xMessage.u.xTimerParameters.xMessageValue;
 788:Generated_Source\PSoC6\pdl\rtos\FreeRTOS\10.0.1\Source/timers.c **** 					configASSERT( ( pxTimer->xTimerPeriodInTicks > 0 ) );
 789:Generated_Source\PSoC6\pdl\rtos\FreeRTOS\10.0.1\Source/timers.c **** 
 790:Generated_Source\PSoC6\pdl\rtos\FreeRTOS\10.0.1\Source/timers.c **** 					/* The new period does not really have a reference, and can
 791:Generated_Source\PSoC6\pdl\rtos\FreeRTOS\10.0.1\Source/timers.c **** 					be longer or shorter than the old one.  The command time is
 792:Generated_Source\PSoC6\pdl\rtos\FreeRTOS\10.0.1\Source/timers.c **** 					therefore set to the current time, and as the period cannot
 793:Generated_Source\PSoC6\pdl\rtos\FreeRTOS\10.0.1\Source/timers.c **** 					be zero the next expiry time can only be in the future,
 794:Generated_Source\PSoC6\pdl\rtos\FreeRTOS\10.0.1\Source/timers.c **** 					meaning (unlike for the xTimerStart() case above) there is
 795:Generated_Source\PSoC6\pdl\rtos\FreeRTOS\10.0.1\Source/timers.c **** 					no fail case that needs to be handled here. */
 796:Generated_Source\PSoC6\pdl\rtos\FreeRTOS\10.0.1\Source/timers.c **** 					( void ) prvInsertTimerInActiveList( pxTimer, ( xTimeNow + pxTimer->xTimerPeriodInTicks ), xTi
 797:Generated_Source\PSoC6\pdl\rtos\FreeRTOS\10.0.1\Source/timers.c **** 					break;
 798:Generated_Source\PSoC6\pdl\rtos\FreeRTOS\10.0.1\Source/timers.c **** 
 799:Generated_Source\PSoC6\pdl\rtos\FreeRTOS\10.0.1\Source/timers.c **** 				case tmrCOMMAND_DELETE :
 800:Generated_Source\PSoC6\pdl\rtos\FreeRTOS\10.0.1\Source/timers.c **** 					/* The timer has already been removed from the active list,
 801:Generated_Source\PSoC6\pdl\rtos\FreeRTOS\10.0.1\Source/timers.c **** 					just free up the memory if the memory was dynamically
 802:Generated_Source\PSoC6\pdl\rtos\FreeRTOS\10.0.1\Source/timers.c **** 					allocated. */
 803:Generated_Source\PSoC6\pdl\rtos\FreeRTOS\10.0.1\Source/timers.c **** 					#if( ( configSUPPORT_DYNAMIC_ALLOCATION == 1 ) && ( configSUPPORT_STATIC_ALLOCATION == 0 ) )
 804:Generated_Source\PSoC6\pdl\rtos\FreeRTOS\10.0.1\Source/timers.c **** 					{
 805:Generated_Source\PSoC6\pdl\rtos\FreeRTOS\10.0.1\Source/timers.c **** 						/* The timer can only have been allocated dynamically -
 806:Generated_Source\PSoC6\pdl\rtos\FreeRTOS\10.0.1\Source/timers.c **** 						free it again. */
 807:Generated_Source\PSoC6\pdl\rtos\FreeRTOS\10.0.1\Source/timers.c **** 						vPortFree( pxTimer );
 808:Generated_Source\PSoC6\pdl\rtos\FreeRTOS\10.0.1\Source/timers.c **** 					}
 809:Generated_Source\PSoC6\pdl\rtos\FreeRTOS\10.0.1\Source/timers.c **** 					#elif( ( configSUPPORT_DYNAMIC_ALLOCATION == 1 ) && ( configSUPPORT_STATIC_ALLOCATION == 1 ) )
 810:Generated_Source\PSoC6\pdl\rtos\FreeRTOS\10.0.1\Source/timers.c **** 					{
 811:Generated_Source\PSoC6\pdl\rtos\FreeRTOS\10.0.1\Source/timers.c **** 						/* The timer could have been allocated statically or
 812:Generated_Source\PSoC6\pdl\rtos\FreeRTOS\10.0.1\Source/timers.c **** 						dynamically, so check before attempting to free the
 813:Generated_Source\PSoC6\pdl\rtos\FreeRTOS\10.0.1\Source/timers.c **** 						memory. */
ARM GAS  C:\Users\kateb\AppData\Local\Temp\ccjwfWYs.s 			page 18


 814:Generated_Source\PSoC6\pdl\rtos\FreeRTOS\10.0.1\Source/timers.c **** 						if( pxTimer->ucStaticallyAllocated == ( uint8_t ) pdFALSE )
 815:Generated_Source\PSoC6\pdl\rtos\FreeRTOS\10.0.1\Source/timers.c **** 						{
 816:Generated_Source\PSoC6\pdl\rtos\FreeRTOS\10.0.1\Source/timers.c **** 							vPortFree( pxTimer );
 817:Generated_Source\PSoC6\pdl\rtos\FreeRTOS\10.0.1\Source/timers.c **** 						}
 818:Generated_Source\PSoC6\pdl\rtos\FreeRTOS\10.0.1\Source/timers.c **** 						else
 819:Generated_Source\PSoC6\pdl\rtos\FreeRTOS\10.0.1\Source/timers.c **** 						{
 820:Generated_Source\PSoC6\pdl\rtos\FreeRTOS\10.0.1\Source/timers.c **** 							mtCOVERAGE_TEST_MARKER();
 821:Generated_Source\PSoC6\pdl\rtos\FreeRTOS\10.0.1\Source/timers.c **** 						}
 822:Generated_Source\PSoC6\pdl\rtos\FreeRTOS\10.0.1\Source/timers.c **** 					}
 823:Generated_Source\PSoC6\pdl\rtos\FreeRTOS\10.0.1\Source/timers.c **** 					#endif /* configSUPPORT_DYNAMIC_ALLOCATION */
 824:Generated_Source\PSoC6\pdl\rtos\FreeRTOS\10.0.1\Source/timers.c **** 					break;
 825:Generated_Source\PSoC6\pdl\rtos\FreeRTOS\10.0.1\Source/timers.c **** 
 826:Generated_Source\PSoC6\pdl\rtos\FreeRTOS\10.0.1\Source/timers.c **** 				default	:
 827:Generated_Source\PSoC6\pdl\rtos\FreeRTOS\10.0.1\Source/timers.c **** 					/* Don't expect to get here. */
 828:Generated_Source\PSoC6\pdl\rtos\FreeRTOS\10.0.1\Source/timers.c **** 					break;
 829:Generated_Source\PSoC6\pdl\rtos\FreeRTOS\10.0.1\Source/timers.c **** 			}
 830:Generated_Source\PSoC6\pdl\rtos\FreeRTOS\10.0.1\Source/timers.c **** 		}
 831:Generated_Source\PSoC6\pdl\rtos\FreeRTOS\10.0.1\Source/timers.c **** 	}
 832:Generated_Source\PSoC6\pdl\rtos\FreeRTOS\10.0.1\Source/timers.c **** }
 833:Generated_Source\PSoC6\pdl\rtos\FreeRTOS\10.0.1\Source/timers.c **** /*-----------------------------------------------------------*/
 834:Generated_Source\PSoC6\pdl\rtos\FreeRTOS\10.0.1\Source/timers.c **** 
 835:Generated_Source\PSoC6\pdl\rtos\FreeRTOS\10.0.1\Source/timers.c **** static void prvSwitchTimerLists( void )
 836:Generated_Source\PSoC6\pdl\rtos\FreeRTOS\10.0.1\Source/timers.c **** {
 837:Generated_Source\PSoC6\pdl\rtos\FreeRTOS\10.0.1\Source/timers.c **** TickType_t xNextExpireTime, xReloadTime;
 838:Generated_Source\PSoC6\pdl\rtos\FreeRTOS\10.0.1\Source/timers.c **** List_t *pxTemp;
 839:Generated_Source\PSoC6\pdl\rtos\FreeRTOS\10.0.1\Source/timers.c **** Timer_t *pxTimer;
 840:Generated_Source\PSoC6\pdl\rtos\FreeRTOS\10.0.1\Source/timers.c **** BaseType_t xResult;
 841:Generated_Source\PSoC6\pdl\rtos\FreeRTOS\10.0.1\Source/timers.c **** 
 842:Generated_Source\PSoC6\pdl\rtos\FreeRTOS\10.0.1\Source/timers.c **** 	/* The tick count has overflowed.  The timer lists must be switched.
 843:Generated_Source\PSoC6\pdl\rtos\FreeRTOS\10.0.1\Source/timers.c **** 	If there are any timers still referenced from the current timer list
 844:Generated_Source\PSoC6\pdl\rtos\FreeRTOS\10.0.1\Source/timers.c **** 	then they must have expired and should be processed before the lists
 845:Generated_Source\PSoC6\pdl\rtos\FreeRTOS\10.0.1\Source/timers.c **** 	are switched. */
 846:Generated_Source\PSoC6\pdl\rtos\FreeRTOS\10.0.1\Source/timers.c **** 	while( listLIST_IS_EMPTY( pxCurrentTimerList ) == pdFALSE )
 847:Generated_Source\PSoC6\pdl\rtos\FreeRTOS\10.0.1\Source/timers.c **** 	{
 848:Generated_Source\PSoC6\pdl\rtos\FreeRTOS\10.0.1\Source/timers.c **** 		xNextExpireTime = listGET_ITEM_VALUE_OF_HEAD_ENTRY( pxCurrentTimerList );
 849:Generated_Source\PSoC6\pdl\rtos\FreeRTOS\10.0.1\Source/timers.c **** 
 850:Generated_Source\PSoC6\pdl\rtos\FreeRTOS\10.0.1\Source/timers.c **** 		/* Remove the timer from the list. */
 851:Generated_Source\PSoC6\pdl\rtos\FreeRTOS\10.0.1\Source/timers.c **** 		pxTimer = ( Timer_t * ) listGET_OWNER_OF_HEAD_ENTRY( pxCurrentTimerList );
 852:Generated_Source\PSoC6\pdl\rtos\FreeRTOS\10.0.1\Source/timers.c **** 		( void ) uxListRemove( &( pxTimer->xTimerListItem ) );
 853:Generated_Source\PSoC6\pdl\rtos\FreeRTOS\10.0.1\Source/timers.c **** 		traceTIMER_EXPIRED( pxTimer );
 854:Generated_Source\PSoC6\pdl\rtos\FreeRTOS\10.0.1\Source/timers.c **** 
 855:Generated_Source\PSoC6\pdl\rtos\FreeRTOS\10.0.1\Source/timers.c **** 		/* Execute its callback, then send a command to restart the timer if
 856:Generated_Source\PSoC6\pdl\rtos\FreeRTOS\10.0.1\Source/timers.c **** 		it is an auto-reload timer.  It cannot be restarted here as the lists
 857:Generated_Source\PSoC6\pdl\rtos\FreeRTOS\10.0.1\Source/timers.c **** 		have not yet been switched. */
 858:Generated_Source\PSoC6\pdl\rtos\FreeRTOS\10.0.1\Source/timers.c **** 		pxTimer->pxCallbackFunction( ( TimerHandle_t ) pxTimer );
 859:Generated_Source\PSoC6\pdl\rtos\FreeRTOS\10.0.1\Source/timers.c **** 
 860:Generated_Source\PSoC6\pdl\rtos\FreeRTOS\10.0.1\Source/timers.c **** 		if( pxTimer->uxAutoReload == ( UBaseType_t ) pdTRUE )
 861:Generated_Source\PSoC6\pdl\rtos\FreeRTOS\10.0.1\Source/timers.c **** 		{
 862:Generated_Source\PSoC6\pdl\rtos\FreeRTOS\10.0.1\Source/timers.c **** 			/* Calculate the reload value, and if the reload value results in
 863:Generated_Source\PSoC6\pdl\rtos\FreeRTOS\10.0.1\Source/timers.c **** 			the timer going into the same timer list then it has already expired
 864:Generated_Source\PSoC6\pdl\rtos\FreeRTOS\10.0.1\Source/timers.c **** 			and the timer should be re-inserted into the current list so it is
 865:Generated_Source\PSoC6\pdl\rtos\FreeRTOS\10.0.1\Source/timers.c **** 			processed again within this loop.  Otherwise a command should be sent
 866:Generated_Source\PSoC6\pdl\rtos\FreeRTOS\10.0.1\Source/timers.c **** 			to restart the timer to ensure it is only inserted into a list after
 867:Generated_Source\PSoC6\pdl\rtos\FreeRTOS\10.0.1\Source/timers.c **** 			the lists have been swapped. */
 868:Generated_Source\PSoC6\pdl\rtos\FreeRTOS\10.0.1\Source/timers.c **** 			xReloadTime = ( xNextExpireTime + pxTimer->xTimerPeriodInTicks );
 869:Generated_Source\PSoC6\pdl\rtos\FreeRTOS\10.0.1\Source/timers.c **** 			if( xReloadTime > xNextExpireTime )
 870:Generated_Source\PSoC6\pdl\rtos\FreeRTOS\10.0.1\Source/timers.c **** 			{
ARM GAS  C:\Users\kateb\AppData\Local\Temp\ccjwfWYs.s 			page 19


 871:Generated_Source\PSoC6\pdl\rtos\FreeRTOS\10.0.1\Source/timers.c **** 				listSET_LIST_ITEM_VALUE( &( pxTimer->xTimerListItem ), xReloadTime );
 872:Generated_Source\PSoC6\pdl\rtos\FreeRTOS\10.0.1\Source/timers.c **** 				listSET_LIST_ITEM_OWNER( &( pxTimer->xTimerListItem ), pxTimer );
 873:Generated_Source\PSoC6\pdl\rtos\FreeRTOS\10.0.1\Source/timers.c **** 				vListInsert( pxCurrentTimerList, &( pxTimer->xTimerListItem ) );
 874:Generated_Source\PSoC6\pdl\rtos\FreeRTOS\10.0.1\Source/timers.c **** 			}
 875:Generated_Source\PSoC6\pdl\rtos\FreeRTOS\10.0.1\Source/timers.c **** 			else
 876:Generated_Source\PSoC6\pdl\rtos\FreeRTOS\10.0.1\Source/timers.c **** 			{
 877:Generated_Source\PSoC6\pdl\rtos\FreeRTOS\10.0.1\Source/timers.c **** 				xResult = xTimerGenericCommand( pxTimer, tmrCOMMAND_START_DONT_TRACE, xNextExpireTime, NULL, tm
 878:Generated_Source\PSoC6\pdl\rtos\FreeRTOS\10.0.1\Source/timers.c **** 				configASSERT( xResult );
 879:Generated_Source\PSoC6\pdl\rtos\FreeRTOS\10.0.1\Source/timers.c **** 				( void ) xResult;
 880:Generated_Source\PSoC6\pdl\rtos\FreeRTOS\10.0.1\Source/timers.c **** 			}
 881:Generated_Source\PSoC6\pdl\rtos\FreeRTOS\10.0.1\Source/timers.c **** 		}
 882:Generated_Source\PSoC6\pdl\rtos\FreeRTOS\10.0.1\Source/timers.c **** 		else
 883:Generated_Source\PSoC6\pdl\rtos\FreeRTOS\10.0.1\Source/timers.c **** 		{
 884:Generated_Source\PSoC6\pdl\rtos\FreeRTOS\10.0.1\Source/timers.c **** 			mtCOVERAGE_TEST_MARKER();
 885:Generated_Source\PSoC6\pdl\rtos\FreeRTOS\10.0.1\Source/timers.c **** 		}
 886:Generated_Source\PSoC6\pdl\rtos\FreeRTOS\10.0.1\Source/timers.c **** 	}
 887:Generated_Source\PSoC6\pdl\rtos\FreeRTOS\10.0.1\Source/timers.c **** 
 888:Generated_Source\PSoC6\pdl\rtos\FreeRTOS\10.0.1\Source/timers.c **** 	pxTemp = pxCurrentTimerList;
 889:Generated_Source\PSoC6\pdl\rtos\FreeRTOS\10.0.1\Source/timers.c **** 	pxCurrentTimerList = pxOverflowTimerList;
 890:Generated_Source\PSoC6\pdl\rtos\FreeRTOS\10.0.1\Source/timers.c **** 	pxOverflowTimerList = pxTemp;
 891:Generated_Source\PSoC6\pdl\rtos\FreeRTOS\10.0.1\Source/timers.c **** }
 892:Generated_Source\PSoC6\pdl\rtos\FreeRTOS\10.0.1\Source/timers.c **** /*-----------------------------------------------------------*/
 893:Generated_Source\PSoC6\pdl\rtos\FreeRTOS\10.0.1\Source/timers.c **** 
 894:Generated_Source\PSoC6\pdl\rtos\FreeRTOS\10.0.1\Source/timers.c **** static void prvCheckForValidListAndQueue( void )
 895:Generated_Source\PSoC6\pdl\rtos\FreeRTOS\10.0.1\Source/timers.c **** {
 153              		.loc 1 895 0
 154              		.cfi_startproc
 155              		@ args = 0, pretend = 0, frame = 0
 156              		@ frame_needed = 0, uses_anonymous_args = 0
 157 0000 70B5     		push	{r4, r5, r6, lr}
 158              		.cfi_def_cfa_offset 16
 159              		.cfi_offset 4, -16
 160              		.cfi_offset 5, -12
 161              		.cfi_offset 6, -8
 162              		.cfi_offset 14, -4
 896:Generated_Source\PSoC6\pdl\rtos\FreeRTOS\10.0.1\Source/timers.c **** 	/* Check that the list from which active timers are referenced, and the
 897:Generated_Source\PSoC6\pdl\rtos\FreeRTOS\10.0.1\Source/timers.c **** 	queue used to communicate with the timer service, have been
 898:Generated_Source\PSoC6\pdl\rtos\FreeRTOS\10.0.1\Source/timers.c **** 	initialised. */
 899:Generated_Source\PSoC6\pdl\rtos\FreeRTOS\10.0.1\Source/timers.c **** 	taskENTER_CRITICAL();
 163              		.loc 1 899 0
 164 0002 FFF7FEFF 		bl	vPortEnterCritical
 165              	.LVL21:
 900:Generated_Source\PSoC6\pdl\rtos\FreeRTOS\10.0.1\Source/timers.c **** 	{
 901:Generated_Source\PSoC6\pdl\rtos\FreeRTOS\10.0.1\Source/timers.c **** 		if( xTimerQueue == NULL )
 166              		.loc 1 901 0
 167 0006 0E4B     		ldr	r3, .L18
 168 0008 9B68     		ldr	r3, [r3, #8]
 169 000a B3B9     		cbnz	r3, .L16
 902:Generated_Source\PSoC6\pdl\rtos\FreeRTOS\10.0.1\Source/timers.c **** 		{
 903:Generated_Source\PSoC6\pdl\rtos\FreeRTOS\10.0.1\Source/timers.c **** 			vListInitialise( &xActiveTimerList1 );
 170              		.loc 1 903 0
 171 000c 0C4C     		ldr	r4, .L18
 172 000e 04F10C06 		add	r6, r4, #12
 173 0012 3046     		mov	r0, r6
 174 0014 FFF7FEFF 		bl	vListInitialise
 175              	.LVL22:
 904:Generated_Source\PSoC6\pdl\rtos\FreeRTOS\10.0.1\Source/timers.c **** 			vListInitialise( &xActiveTimerList2 );
ARM GAS  C:\Users\kateb\AppData\Local\Temp\ccjwfWYs.s 			page 20


 176              		.loc 1 904 0
 177 0018 04F12005 		add	r5, r4, #32
 178 001c 2846     		mov	r0, r5
 179 001e FFF7FEFF 		bl	vListInitialise
 180              	.LVL23:
 905:Generated_Source\PSoC6\pdl\rtos\FreeRTOS\10.0.1\Source/timers.c **** 			pxCurrentTimerList = &xActiveTimerList1;
 181              		.loc 1 905 0
 182 0022 2660     		str	r6, [r4]
 906:Generated_Source\PSoC6\pdl\rtos\FreeRTOS\10.0.1\Source/timers.c **** 			pxOverflowTimerList = &xActiveTimerList2;
 183              		.loc 1 906 0
 184 0024 6560     		str	r5, [r4, #4]
 907:Generated_Source\PSoC6\pdl\rtos\FreeRTOS\10.0.1\Source/timers.c **** 
 908:Generated_Source\PSoC6\pdl\rtos\FreeRTOS\10.0.1\Source/timers.c **** 			#if( configSUPPORT_STATIC_ALLOCATION == 1 )
 909:Generated_Source\PSoC6\pdl\rtos\FreeRTOS\10.0.1\Source/timers.c **** 			{
 910:Generated_Source\PSoC6\pdl\rtos\FreeRTOS\10.0.1\Source/timers.c **** 				/* The timer queue is allocated statically in case
 911:Generated_Source\PSoC6\pdl\rtos\FreeRTOS\10.0.1\Source/timers.c **** 				configSUPPORT_DYNAMIC_ALLOCATION is 0. */
 912:Generated_Source\PSoC6\pdl\rtos\FreeRTOS\10.0.1\Source/timers.c **** 				static StaticQueue_t xStaticTimerQueue; /*lint !e956 Ok to declare in this manner to prevent ad
 913:Generated_Source\PSoC6\pdl\rtos\FreeRTOS\10.0.1\Source/timers.c **** 				static uint8_t ucStaticTimerQueueStorage[ ( size_t ) configTIMER_QUEUE_LENGTH * sizeof( DaemonT
 914:Generated_Source\PSoC6\pdl\rtos\FreeRTOS\10.0.1\Source/timers.c **** 
 915:Generated_Source\PSoC6\pdl\rtos\FreeRTOS\10.0.1\Source/timers.c **** 				xTimerQueue = xQueueCreateStatic( ( UBaseType_t ) configTIMER_QUEUE_LENGTH, ( UBaseType_t ) siz
 916:Generated_Source\PSoC6\pdl\rtos\FreeRTOS\10.0.1\Source/timers.c **** 			}
 917:Generated_Source\PSoC6\pdl\rtos\FreeRTOS\10.0.1\Source/timers.c **** 			#else
 918:Generated_Source\PSoC6\pdl\rtos\FreeRTOS\10.0.1\Source/timers.c **** 			{
 919:Generated_Source\PSoC6\pdl\rtos\FreeRTOS\10.0.1\Source/timers.c **** 				xTimerQueue = xQueueCreate( ( UBaseType_t ) configTIMER_QUEUE_LENGTH, sizeof( DaemonTaskMessage
 185              		.loc 1 919 0
 186 0026 0022     		movs	r2, #0
 187 0028 0C21     		movs	r1, #12
 188 002a 0A20     		movs	r0, #10
 189 002c FFF7FEFF 		bl	xQueueGenericCreate
 190              	.LVL24:
 191 0030 A060     		str	r0, [r4, #8]
 920:Generated_Source\PSoC6\pdl\rtos\FreeRTOS\10.0.1\Source/timers.c **** 			}
 921:Generated_Source\PSoC6\pdl\rtos\FreeRTOS\10.0.1\Source/timers.c **** 			#endif
 922:Generated_Source\PSoC6\pdl\rtos\FreeRTOS\10.0.1\Source/timers.c **** 
 923:Generated_Source\PSoC6\pdl\rtos\FreeRTOS\10.0.1\Source/timers.c **** 			#if ( configQUEUE_REGISTRY_SIZE > 0 )
 924:Generated_Source\PSoC6\pdl\rtos\FreeRTOS\10.0.1\Source/timers.c **** 			{
 925:Generated_Source\PSoC6\pdl\rtos\FreeRTOS\10.0.1\Source/timers.c **** 				if( xTimerQueue != NULL )
 192              		.loc 1 925 0
 193 0032 10B1     		cbz	r0, .L16
 926:Generated_Source\PSoC6\pdl\rtos\FreeRTOS\10.0.1\Source/timers.c **** 				{
 927:Generated_Source\PSoC6\pdl\rtos\FreeRTOS\10.0.1\Source/timers.c **** 					vQueueAddToRegistry( xTimerQueue, "TmrQ" );
 194              		.loc 1 927 0
 195 0034 0349     		ldr	r1, .L18+4
 196 0036 FFF7FEFF 		bl	vQueueAddToRegistry
 197              	.LVL25:
 198              	.L16:
 928:Generated_Source\PSoC6\pdl\rtos\FreeRTOS\10.0.1\Source/timers.c **** 				}
 929:Generated_Source\PSoC6\pdl\rtos\FreeRTOS\10.0.1\Source/timers.c **** 				else
 930:Generated_Source\PSoC6\pdl\rtos\FreeRTOS\10.0.1\Source/timers.c **** 				{
 931:Generated_Source\PSoC6\pdl\rtos\FreeRTOS\10.0.1\Source/timers.c **** 					mtCOVERAGE_TEST_MARKER();
 932:Generated_Source\PSoC6\pdl\rtos\FreeRTOS\10.0.1\Source/timers.c **** 				}
 933:Generated_Source\PSoC6\pdl\rtos\FreeRTOS\10.0.1\Source/timers.c **** 			}
 934:Generated_Source\PSoC6\pdl\rtos\FreeRTOS\10.0.1\Source/timers.c **** 			#endif /* configQUEUE_REGISTRY_SIZE */
 935:Generated_Source\PSoC6\pdl\rtos\FreeRTOS\10.0.1\Source/timers.c **** 		}
 936:Generated_Source\PSoC6\pdl\rtos\FreeRTOS\10.0.1\Source/timers.c **** 		else
 937:Generated_Source\PSoC6\pdl\rtos\FreeRTOS\10.0.1\Source/timers.c **** 		{
 938:Generated_Source\PSoC6\pdl\rtos\FreeRTOS\10.0.1\Source/timers.c **** 			mtCOVERAGE_TEST_MARKER();
ARM GAS  C:\Users\kateb\AppData\Local\Temp\ccjwfWYs.s 			page 21


 939:Generated_Source\PSoC6\pdl\rtos\FreeRTOS\10.0.1\Source/timers.c **** 		}
 940:Generated_Source\PSoC6\pdl\rtos\FreeRTOS\10.0.1\Source/timers.c **** 	}
 941:Generated_Source\PSoC6\pdl\rtos\FreeRTOS\10.0.1\Source/timers.c **** 	taskEXIT_CRITICAL();
 199              		.loc 1 941 0
 200 003a FFF7FEFF 		bl	vPortExitCritical
 201              	.LVL26:
 202 003e 70BD     		pop	{r4, r5, r6, pc}
 203              	.L19:
 204              		.align	2
 205              	.L18:
 206 0040 00000000 		.word	.LANCHOR0
 207 0044 00000000 		.word	.LC0
 208              		.cfi_endproc
 209              	.LFE611:
 210              		.size	prvCheckForValidListAndQueue, .-prvCheckForValidListAndQueue
 211              		.section	.text.prvInitialiseNewTimer,"ax",%progbits
 212              		.align	2
 213              		.thumb
 214              		.thumb_func
 215              		.type	prvInitialiseNewTimer, %function
 216              	prvInitialiseNewTimer:
 217              	.LFB597:
 358:Generated_Source\PSoC6\pdl\rtos\FreeRTOS\10.0.1\Source/timers.c **** 	/* 0 is not a valid value for xTimerPeriodInTicks. */
 218              		.loc 1 358 0
 219              		.cfi_startproc
 220              		@ args = 8, pretend = 0, frame = 0
 221              		@ frame_needed = 0, uses_anonymous_args = 0
 222              	.LVL27:
 223 0000 2DE9F041 		push	{r4, r5, r6, r7, r8, lr}
 224              		.cfi_def_cfa_offset 24
 225              		.cfi_offset 4, -24
 226              		.cfi_offset 5, -20
 227              		.cfi_offset 6, -16
 228              		.cfi_offset 7, -12
 229              		.cfi_offset 8, -8
 230              		.cfi_offset 14, -4
 231 0004 079C     		ldr	r4, [sp, #28]
 360:Generated_Source\PSoC6\pdl\rtos\FreeRTOS\10.0.1\Source/timers.c **** 
 232              		.loc 1 360 0
 233 0006 41B9     		cbnz	r1, .L21
 234              	.LBB30:
 235              	.LBB31:
 236              		.file 2 "Generated_Source\\PSoC6\\pdl\\rtos/FreeRTOS/10.0.1/Source/portable/GCC/CM4F/portmacro.h"
   1:Generated_Source\PSoC6\pdl\rtos/FreeRTOS/10.0.1/Source/portable/GCC/CM4F/portmacro.h **** /*
   2:Generated_Source\PSoC6\pdl\rtos/FreeRTOS/10.0.1/Source/portable/GCC/CM4F/portmacro.h ****  * FreeRTOS Kernel V10.0.1
   3:Generated_Source\PSoC6\pdl\rtos/FreeRTOS/10.0.1/Source/portable/GCC/CM4F/portmacro.h ****  * Copyright (C) 2017 Amazon.com, Inc. or its affiliates.  All Rights Reserved.
   4:Generated_Source\PSoC6\pdl\rtos/FreeRTOS/10.0.1/Source/portable/GCC/CM4F/portmacro.h ****  *
   5:Generated_Source\PSoC6\pdl\rtos/FreeRTOS/10.0.1/Source/portable/GCC/CM4F/portmacro.h ****  * Permission is hereby granted, free of charge, to any person obtaining a copy of
   6:Generated_Source\PSoC6\pdl\rtos/FreeRTOS/10.0.1/Source/portable/GCC/CM4F/portmacro.h ****  * this software and associated documentation files (the "Software"), to deal in
   7:Generated_Source\PSoC6\pdl\rtos/FreeRTOS/10.0.1/Source/portable/GCC/CM4F/portmacro.h ****  * the Software without restriction, including without limitation the rights to
   8:Generated_Source\PSoC6\pdl\rtos/FreeRTOS/10.0.1/Source/portable/GCC/CM4F/portmacro.h ****  * use, copy, modify, merge, publish, distribute, sublicense, and/or sell copies of
   9:Generated_Source\PSoC6\pdl\rtos/FreeRTOS/10.0.1/Source/portable/GCC/CM4F/portmacro.h ****  * the Software, and to permit persons to whom the Software is furnished to do so,
  10:Generated_Source\PSoC6\pdl\rtos/FreeRTOS/10.0.1/Source/portable/GCC/CM4F/portmacro.h ****  * subject to the following conditions:
  11:Generated_Source\PSoC6\pdl\rtos/FreeRTOS/10.0.1/Source/portable/GCC/CM4F/portmacro.h ****  *
  12:Generated_Source\PSoC6\pdl\rtos/FreeRTOS/10.0.1/Source/portable/GCC/CM4F/portmacro.h ****  * The above copyright notice and this permission notice shall be included in all
  13:Generated_Source\PSoC6\pdl\rtos/FreeRTOS/10.0.1/Source/portable/GCC/CM4F/portmacro.h ****  * copies or substantial portions of the Software.
  14:Generated_Source\PSoC6\pdl\rtos/FreeRTOS/10.0.1/Source/portable/GCC/CM4F/portmacro.h ****  *
ARM GAS  C:\Users\kateb\AppData\Local\Temp\ccjwfWYs.s 			page 22


  15:Generated_Source\PSoC6\pdl\rtos/FreeRTOS/10.0.1/Source/portable/GCC/CM4F/portmacro.h ****  * THE SOFTWARE IS PROVIDED "AS IS", WITHOUT WARRANTY OF ANY KIND, EXPRESS OR
  16:Generated_Source\PSoC6\pdl\rtos/FreeRTOS/10.0.1/Source/portable/GCC/CM4F/portmacro.h ****  * IMPLIED, INCLUDING BUT NOT LIMITED TO THE WARRANTIES OF MERCHANTABILITY, FITNESS
  17:Generated_Source\PSoC6\pdl\rtos/FreeRTOS/10.0.1/Source/portable/GCC/CM4F/portmacro.h ****  * FOR A PARTICULAR PURPOSE AND NONINFRINGEMENT. IN NO EVENT SHALL THE AUTHORS OR
  18:Generated_Source\PSoC6\pdl\rtos/FreeRTOS/10.0.1/Source/portable/GCC/CM4F/portmacro.h ****  * COPYRIGHT HOLDERS BE LIABLE FOR ANY CLAIM, DAMAGES OR OTHER LIABILITY, WHETHER
  19:Generated_Source\PSoC6\pdl\rtos/FreeRTOS/10.0.1/Source/portable/GCC/CM4F/portmacro.h ****  * IN AN ACTION OF CONTRACT, TORT OR OTHERWISE, ARISING FROM, OUT OF OR IN
  20:Generated_Source\PSoC6\pdl\rtos/FreeRTOS/10.0.1/Source/portable/GCC/CM4F/portmacro.h ****  * CONNECTION WITH THE SOFTWARE OR THE USE OR OTHER DEALINGS IN THE SOFTWARE.
  21:Generated_Source\PSoC6\pdl\rtos/FreeRTOS/10.0.1/Source/portable/GCC/CM4F/portmacro.h ****  *
  22:Generated_Source\PSoC6\pdl\rtos/FreeRTOS/10.0.1/Source/portable/GCC/CM4F/portmacro.h ****  * http://www.FreeRTOS.org
  23:Generated_Source\PSoC6\pdl\rtos/FreeRTOS/10.0.1/Source/portable/GCC/CM4F/portmacro.h ****  * http://aws.amazon.com/freertos
  24:Generated_Source\PSoC6\pdl\rtos/FreeRTOS/10.0.1/Source/portable/GCC/CM4F/portmacro.h ****  *
  25:Generated_Source\PSoC6\pdl\rtos/FreeRTOS/10.0.1/Source/portable/GCC/CM4F/portmacro.h ****  * 1 tab == 4 spaces!
  26:Generated_Source\PSoC6\pdl\rtos/FreeRTOS/10.0.1/Source/portable/GCC/CM4F/portmacro.h ****  */
  27:Generated_Source\PSoC6\pdl\rtos/FreeRTOS/10.0.1/Source/portable/GCC/CM4F/portmacro.h **** 
  28:Generated_Source\PSoC6\pdl\rtos/FreeRTOS/10.0.1/Source/portable/GCC/CM4F/portmacro.h **** 
  29:Generated_Source\PSoC6\pdl\rtos/FreeRTOS/10.0.1/Source/portable/GCC/CM4F/portmacro.h **** #ifndef PORTMACRO_H
  30:Generated_Source\PSoC6\pdl\rtos/FreeRTOS/10.0.1/Source/portable/GCC/CM4F/portmacro.h **** #define PORTMACRO_H
  31:Generated_Source\PSoC6\pdl\rtos/FreeRTOS/10.0.1/Source/portable/GCC/CM4F/portmacro.h **** 
  32:Generated_Source\PSoC6\pdl\rtos/FreeRTOS/10.0.1/Source/portable/GCC/CM4F/portmacro.h **** #ifdef __cplusplus
  33:Generated_Source\PSoC6\pdl\rtos/FreeRTOS/10.0.1/Source/portable/GCC/CM4F/portmacro.h **** extern "C" {
  34:Generated_Source\PSoC6\pdl\rtos/FreeRTOS/10.0.1/Source/portable/GCC/CM4F/portmacro.h **** #endif
  35:Generated_Source\PSoC6\pdl\rtos/FreeRTOS/10.0.1/Source/portable/GCC/CM4F/portmacro.h **** 
  36:Generated_Source\PSoC6\pdl\rtos/FreeRTOS/10.0.1/Source/portable/GCC/CM4F/portmacro.h **** /*-----------------------------------------------------------
  37:Generated_Source\PSoC6\pdl\rtos/FreeRTOS/10.0.1/Source/portable/GCC/CM4F/portmacro.h ****  * Port specific definitions.
  38:Generated_Source\PSoC6\pdl\rtos/FreeRTOS/10.0.1/Source/portable/GCC/CM4F/portmacro.h ****  *
  39:Generated_Source\PSoC6\pdl\rtos/FreeRTOS/10.0.1/Source/portable/GCC/CM4F/portmacro.h ****  * The settings in this file configure FreeRTOS correctly for the
  40:Generated_Source\PSoC6\pdl\rtos/FreeRTOS/10.0.1/Source/portable/GCC/CM4F/portmacro.h ****  * given hardware and compiler.
  41:Generated_Source\PSoC6\pdl\rtos/FreeRTOS/10.0.1/Source/portable/GCC/CM4F/portmacro.h ****  *
  42:Generated_Source\PSoC6\pdl\rtos/FreeRTOS/10.0.1/Source/portable/GCC/CM4F/portmacro.h ****  * These settings should not be altered.
  43:Generated_Source\PSoC6\pdl\rtos/FreeRTOS/10.0.1/Source/portable/GCC/CM4F/portmacro.h ****  *-----------------------------------------------------------
  44:Generated_Source\PSoC6\pdl\rtos/FreeRTOS/10.0.1/Source/portable/GCC/CM4F/portmacro.h ****  */
  45:Generated_Source\PSoC6\pdl\rtos/FreeRTOS/10.0.1/Source/portable/GCC/CM4F/portmacro.h **** 
  46:Generated_Source\PSoC6\pdl\rtos/FreeRTOS/10.0.1/Source/portable/GCC/CM4F/portmacro.h **** /* Type definitions. */
  47:Generated_Source\PSoC6\pdl\rtos/FreeRTOS/10.0.1/Source/portable/GCC/CM4F/portmacro.h **** #define portCHAR		char
  48:Generated_Source\PSoC6\pdl\rtos/FreeRTOS/10.0.1/Source/portable/GCC/CM4F/portmacro.h **** #define portFLOAT		float
  49:Generated_Source\PSoC6\pdl\rtos/FreeRTOS/10.0.1/Source/portable/GCC/CM4F/portmacro.h **** #define portDOUBLE		double
  50:Generated_Source\PSoC6\pdl\rtos/FreeRTOS/10.0.1/Source/portable/GCC/CM4F/portmacro.h **** #define portLONG		long
  51:Generated_Source\PSoC6\pdl\rtos/FreeRTOS/10.0.1/Source/portable/GCC/CM4F/portmacro.h **** #define portSHORT		short
  52:Generated_Source\PSoC6\pdl\rtos/FreeRTOS/10.0.1/Source/portable/GCC/CM4F/portmacro.h **** #define portSTACK_TYPE	uint32_t
  53:Generated_Source\PSoC6\pdl\rtos/FreeRTOS/10.0.1/Source/portable/GCC/CM4F/portmacro.h **** #define portBASE_TYPE	long
  54:Generated_Source\PSoC6\pdl\rtos/FreeRTOS/10.0.1/Source/portable/GCC/CM4F/portmacro.h **** 
  55:Generated_Source\PSoC6\pdl\rtos/FreeRTOS/10.0.1/Source/portable/GCC/CM4F/portmacro.h **** typedef portSTACK_TYPE StackType_t;
  56:Generated_Source\PSoC6\pdl\rtos/FreeRTOS/10.0.1/Source/portable/GCC/CM4F/portmacro.h **** typedef long BaseType_t;
  57:Generated_Source\PSoC6\pdl\rtos/FreeRTOS/10.0.1/Source/portable/GCC/CM4F/portmacro.h **** typedef unsigned long UBaseType_t;
  58:Generated_Source\PSoC6\pdl\rtos/FreeRTOS/10.0.1/Source/portable/GCC/CM4F/portmacro.h **** 
  59:Generated_Source\PSoC6\pdl\rtos/FreeRTOS/10.0.1/Source/portable/GCC/CM4F/portmacro.h **** #if( configUSE_16_BIT_TICKS == 1 )
  60:Generated_Source\PSoC6\pdl\rtos/FreeRTOS/10.0.1/Source/portable/GCC/CM4F/portmacro.h **** 	typedef uint16_t TickType_t;
  61:Generated_Source\PSoC6\pdl\rtos/FreeRTOS/10.0.1/Source/portable/GCC/CM4F/portmacro.h **** 	#define portMAX_DELAY ( TickType_t ) 0xffff
  62:Generated_Source\PSoC6\pdl\rtos/FreeRTOS/10.0.1/Source/portable/GCC/CM4F/portmacro.h **** #else
  63:Generated_Source\PSoC6\pdl\rtos/FreeRTOS/10.0.1/Source/portable/GCC/CM4F/portmacro.h **** 	typedef uint32_t TickType_t;
  64:Generated_Source\PSoC6\pdl\rtos/FreeRTOS/10.0.1/Source/portable/GCC/CM4F/portmacro.h **** 	#define portMAX_DELAY ( TickType_t ) 0xffffffffUL
  65:Generated_Source\PSoC6\pdl\rtos/FreeRTOS/10.0.1/Source/portable/GCC/CM4F/portmacro.h **** 
  66:Generated_Source\PSoC6\pdl\rtos/FreeRTOS/10.0.1/Source/portable/GCC/CM4F/portmacro.h **** 	/* 32-bit tick type on a 32-bit architecture, so reads of the tick count do
  67:Generated_Source\PSoC6\pdl\rtos/FreeRTOS/10.0.1/Source/portable/GCC/CM4F/portmacro.h **** 	not need to be guarded with a critical section. */
  68:Generated_Source\PSoC6\pdl\rtos/FreeRTOS/10.0.1/Source/portable/GCC/CM4F/portmacro.h **** 	#define portTICK_TYPE_IS_ATOMIC 1
  69:Generated_Source\PSoC6\pdl\rtos/FreeRTOS/10.0.1/Source/portable/GCC/CM4F/portmacro.h **** #endif
  70:Generated_Source\PSoC6\pdl\rtos/FreeRTOS/10.0.1/Source/portable/GCC/CM4F/portmacro.h **** /*-----------------------------------------------------------*/
  71:Generated_Source\PSoC6\pdl\rtos/FreeRTOS/10.0.1/Source/portable/GCC/CM4F/portmacro.h **** 
ARM GAS  C:\Users\kateb\AppData\Local\Temp\ccjwfWYs.s 			page 23


  72:Generated_Source\PSoC6\pdl\rtos/FreeRTOS/10.0.1/Source/portable/GCC/CM4F/portmacro.h **** /* Architecture specifics. */
  73:Generated_Source\PSoC6\pdl\rtos/FreeRTOS/10.0.1/Source/portable/GCC/CM4F/portmacro.h **** #define portSTACK_GROWTH			( -1 )
  74:Generated_Source\PSoC6\pdl\rtos/FreeRTOS/10.0.1/Source/portable/GCC/CM4F/portmacro.h **** #define portTICK_PERIOD_MS			( ( TickType_t ) 1000 / configTICK_RATE_HZ )
  75:Generated_Source\PSoC6\pdl\rtos/FreeRTOS/10.0.1/Source/portable/GCC/CM4F/portmacro.h **** #define portBYTE_ALIGNMENT			8
  76:Generated_Source\PSoC6\pdl\rtos/FreeRTOS/10.0.1/Source/portable/GCC/CM4F/portmacro.h **** /*-----------------------------------------------------------*/
  77:Generated_Source\PSoC6\pdl\rtos/FreeRTOS/10.0.1/Source/portable/GCC/CM4F/portmacro.h **** 
  78:Generated_Source\PSoC6\pdl\rtos/FreeRTOS/10.0.1/Source/portable/GCC/CM4F/portmacro.h **** /* Scheduler utilities. */
  79:Generated_Source\PSoC6\pdl\rtos/FreeRTOS/10.0.1/Source/portable/GCC/CM4F/portmacro.h **** #define portYIELD() 															\
  80:Generated_Source\PSoC6\pdl\rtos/FreeRTOS/10.0.1/Source/portable/GCC/CM4F/portmacro.h **** {																				\
  81:Generated_Source\PSoC6\pdl\rtos/FreeRTOS/10.0.1/Source/portable/GCC/CM4F/portmacro.h **** 	/* Set a PendSV to request a context switch. */								\
  82:Generated_Source\PSoC6\pdl\rtos/FreeRTOS/10.0.1/Source/portable/GCC/CM4F/portmacro.h **** 	portNVIC_INT_CTRL_REG = portNVIC_PENDSVSET_BIT;								\
  83:Generated_Source\PSoC6\pdl\rtos/FreeRTOS/10.0.1/Source/portable/GCC/CM4F/portmacro.h **** 																				\
  84:Generated_Source\PSoC6\pdl\rtos/FreeRTOS/10.0.1/Source/portable/GCC/CM4F/portmacro.h **** 	/* Barriers are normally not required but do ensure the code is completely	\
  85:Generated_Source\PSoC6\pdl\rtos/FreeRTOS/10.0.1/Source/portable/GCC/CM4F/portmacro.h **** 	within the specified behaviour for the architecture. */						\
  86:Generated_Source\PSoC6\pdl\rtos/FreeRTOS/10.0.1/Source/portable/GCC/CM4F/portmacro.h **** 	__asm volatile( "dsb" ::: "memory" );										\
  87:Generated_Source\PSoC6\pdl\rtos/FreeRTOS/10.0.1/Source/portable/GCC/CM4F/portmacro.h **** 	__asm volatile( "isb" );													\
  88:Generated_Source\PSoC6\pdl\rtos/FreeRTOS/10.0.1/Source/portable/GCC/CM4F/portmacro.h **** }
  89:Generated_Source\PSoC6\pdl\rtos/FreeRTOS/10.0.1/Source/portable/GCC/CM4F/portmacro.h **** 
  90:Generated_Source\PSoC6\pdl\rtos/FreeRTOS/10.0.1/Source/portable/GCC/CM4F/portmacro.h **** #define portNVIC_INT_CTRL_REG		( * ( ( volatile uint32_t * ) 0xe000ed04 ) )
  91:Generated_Source\PSoC6\pdl\rtos/FreeRTOS/10.0.1/Source/portable/GCC/CM4F/portmacro.h **** #define portNVIC_PENDSVSET_BIT		( 1UL << 28UL )
  92:Generated_Source\PSoC6\pdl\rtos/FreeRTOS/10.0.1/Source/portable/GCC/CM4F/portmacro.h **** #define portEND_SWITCHING_ISR( xSwitchRequired ) if( xSwitchRequired != pdFALSE ) portYIELD()
  93:Generated_Source\PSoC6\pdl\rtos/FreeRTOS/10.0.1/Source/portable/GCC/CM4F/portmacro.h **** #define portYIELD_FROM_ISR( x ) portEND_SWITCHING_ISR( x )
  94:Generated_Source\PSoC6\pdl\rtos/FreeRTOS/10.0.1/Source/portable/GCC/CM4F/portmacro.h **** /*-----------------------------------------------------------*/
  95:Generated_Source\PSoC6\pdl\rtos/FreeRTOS/10.0.1/Source/portable/GCC/CM4F/portmacro.h **** 
  96:Generated_Source\PSoC6\pdl\rtos/FreeRTOS/10.0.1/Source/portable/GCC/CM4F/portmacro.h **** /* Critical section management. */
  97:Generated_Source\PSoC6\pdl\rtos/FreeRTOS/10.0.1/Source/portable/GCC/CM4F/portmacro.h **** extern void vPortEnterCritical( void );
  98:Generated_Source\PSoC6\pdl\rtos/FreeRTOS/10.0.1/Source/portable/GCC/CM4F/portmacro.h **** extern void vPortExitCritical( void );
  99:Generated_Source\PSoC6\pdl\rtos/FreeRTOS/10.0.1/Source/portable/GCC/CM4F/portmacro.h **** #define portSET_INTERRUPT_MASK_FROM_ISR()		ulPortRaiseBASEPRI()
 100:Generated_Source\PSoC6\pdl\rtos/FreeRTOS/10.0.1/Source/portable/GCC/CM4F/portmacro.h **** #define portCLEAR_INTERRUPT_MASK_FROM_ISR(x)	vPortSetBASEPRI(x)
 101:Generated_Source\PSoC6\pdl\rtos/FreeRTOS/10.0.1/Source/portable/GCC/CM4F/portmacro.h **** #define portDISABLE_INTERRUPTS()				vPortRaiseBASEPRI()
 102:Generated_Source\PSoC6\pdl\rtos/FreeRTOS/10.0.1/Source/portable/GCC/CM4F/portmacro.h **** #define portENABLE_INTERRUPTS()					vPortSetBASEPRI(0)
 103:Generated_Source\PSoC6\pdl\rtos/FreeRTOS/10.0.1/Source/portable/GCC/CM4F/portmacro.h **** #define portENTER_CRITICAL()					vPortEnterCritical()
 104:Generated_Source\PSoC6\pdl\rtos/FreeRTOS/10.0.1/Source/portable/GCC/CM4F/portmacro.h **** #define portEXIT_CRITICAL()						vPortExitCritical()
 105:Generated_Source\PSoC6\pdl\rtos/FreeRTOS/10.0.1/Source/portable/GCC/CM4F/portmacro.h **** 
 106:Generated_Source\PSoC6\pdl\rtos/FreeRTOS/10.0.1/Source/portable/GCC/CM4F/portmacro.h **** /*-----------------------------------------------------------*/
 107:Generated_Source\PSoC6\pdl\rtos/FreeRTOS/10.0.1/Source/portable/GCC/CM4F/portmacro.h **** 
 108:Generated_Source\PSoC6\pdl\rtos/FreeRTOS/10.0.1/Source/portable/GCC/CM4F/portmacro.h **** /* Task function macros as described on the FreeRTOS.org WEB site.  These are
 109:Generated_Source\PSoC6\pdl\rtos/FreeRTOS/10.0.1/Source/portable/GCC/CM4F/portmacro.h **** not necessary for to use this port.  They are defined so the common demo files
 110:Generated_Source\PSoC6\pdl\rtos/FreeRTOS/10.0.1/Source/portable/GCC/CM4F/portmacro.h **** (which build with all the ports) will build. */
 111:Generated_Source\PSoC6\pdl\rtos/FreeRTOS/10.0.1/Source/portable/GCC/CM4F/portmacro.h **** #define portTASK_FUNCTION_PROTO( vFunction, pvParameters ) void vFunction( void *pvParameters )
 112:Generated_Source\PSoC6\pdl\rtos/FreeRTOS/10.0.1/Source/portable/GCC/CM4F/portmacro.h **** #define portTASK_FUNCTION( vFunction, pvParameters ) void vFunction( void *pvParameters )
 113:Generated_Source\PSoC6\pdl\rtos/FreeRTOS/10.0.1/Source/portable/GCC/CM4F/portmacro.h **** 
 114:Generated_Source\PSoC6\pdl\rtos/FreeRTOS/10.0.1/Source/portable/GCC/CM4F/portmacro.h **** /*-----------------------------------------------------------*/
 115:Generated_Source\PSoC6\pdl\rtos/FreeRTOS/10.0.1/Source/portable/GCC/CM4F/portmacro.h **** 
 116:Generated_Source\PSoC6\pdl\rtos/FreeRTOS/10.0.1/Source/portable/GCC/CM4F/portmacro.h **** #ifdef configASSERT
 117:Generated_Source\PSoC6\pdl\rtos/FreeRTOS/10.0.1/Source/portable/GCC/CM4F/portmacro.h **** 	void vPortValidateInterruptPriority( void );
 118:Generated_Source\PSoC6\pdl\rtos/FreeRTOS/10.0.1/Source/portable/GCC/CM4F/portmacro.h **** 	#define portASSERT_IF_INTERRUPT_PRIORITY_INVALID() 	vPortValidateInterruptPriority()
 119:Generated_Source\PSoC6\pdl\rtos/FreeRTOS/10.0.1/Source/portable/GCC/CM4F/portmacro.h **** #endif
 120:Generated_Source\PSoC6\pdl\rtos/FreeRTOS/10.0.1/Source/portable/GCC/CM4F/portmacro.h **** 
 121:Generated_Source\PSoC6\pdl\rtos/FreeRTOS/10.0.1/Source/portable/GCC/CM4F/portmacro.h **** /* portNOP() is not required by this port. */
 122:Generated_Source\PSoC6\pdl\rtos/FreeRTOS/10.0.1/Source/portable/GCC/CM4F/portmacro.h **** #define portNOP()
 123:Generated_Source\PSoC6\pdl\rtos/FreeRTOS/10.0.1/Source/portable/GCC/CM4F/portmacro.h **** 
 124:Generated_Source\PSoC6\pdl\rtos/FreeRTOS/10.0.1/Source/portable/GCC/CM4F/portmacro.h **** #define portINLINE	__inline
 125:Generated_Source\PSoC6\pdl\rtos/FreeRTOS/10.0.1/Source/portable/GCC/CM4F/portmacro.h **** 
 126:Generated_Source\PSoC6\pdl\rtos/FreeRTOS/10.0.1/Source/portable/GCC/CM4F/portmacro.h **** #ifndef portFORCE_INLINE
 127:Generated_Source\PSoC6\pdl\rtos/FreeRTOS/10.0.1/Source/portable/GCC/CM4F/portmacro.h **** 	#define portFORCE_INLINE inline __attribute__(( always_inline))
 128:Generated_Source\PSoC6\pdl\rtos/FreeRTOS/10.0.1/Source/portable/GCC/CM4F/portmacro.h **** #endif
ARM GAS  C:\Users\kateb\AppData\Local\Temp\ccjwfWYs.s 			page 24


 129:Generated_Source\PSoC6\pdl\rtos/FreeRTOS/10.0.1/Source/portable/GCC/CM4F/portmacro.h **** 
 130:Generated_Source\PSoC6\pdl\rtos/FreeRTOS/10.0.1/Source/portable/GCC/CM4F/portmacro.h **** portFORCE_INLINE static BaseType_t xPortIsInsideInterrupt( void )
 131:Generated_Source\PSoC6\pdl\rtos/FreeRTOS/10.0.1/Source/portable/GCC/CM4F/portmacro.h **** {
 132:Generated_Source\PSoC6\pdl\rtos/FreeRTOS/10.0.1/Source/portable/GCC/CM4F/portmacro.h **** uint32_t ulCurrentInterrupt;
 133:Generated_Source\PSoC6\pdl\rtos/FreeRTOS/10.0.1/Source/portable/GCC/CM4F/portmacro.h **** BaseType_t xReturn;
 134:Generated_Source\PSoC6\pdl\rtos/FreeRTOS/10.0.1/Source/portable/GCC/CM4F/portmacro.h **** 
 135:Generated_Source\PSoC6\pdl\rtos/FreeRTOS/10.0.1/Source/portable/GCC/CM4F/portmacro.h **** 	/* Obtain the number of the currently executing interrupt. */
 136:Generated_Source\PSoC6\pdl\rtos/FreeRTOS/10.0.1/Source/portable/GCC/CM4F/portmacro.h **** 	__asm volatile( "mrs %0, ipsr" : "=r"( ulCurrentInterrupt ) :: "memory" );
 137:Generated_Source\PSoC6\pdl\rtos/FreeRTOS/10.0.1/Source/portable/GCC/CM4F/portmacro.h **** 
 138:Generated_Source\PSoC6\pdl\rtos/FreeRTOS/10.0.1/Source/portable/GCC/CM4F/portmacro.h **** 	if( ulCurrentInterrupt == 0 )
 139:Generated_Source\PSoC6\pdl\rtos/FreeRTOS/10.0.1/Source/portable/GCC/CM4F/portmacro.h **** 	{
 140:Generated_Source\PSoC6\pdl\rtos/FreeRTOS/10.0.1/Source/portable/GCC/CM4F/portmacro.h **** 		xReturn = pdFALSE;
 141:Generated_Source\PSoC6\pdl\rtos/FreeRTOS/10.0.1/Source/portable/GCC/CM4F/portmacro.h **** 	}
 142:Generated_Source\PSoC6\pdl\rtos/FreeRTOS/10.0.1/Source/portable/GCC/CM4F/portmacro.h **** 	else
 143:Generated_Source\PSoC6\pdl\rtos/FreeRTOS/10.0.1/Source/portable/GCC/CM4F/portmacro.h **** 	{
 144:Generated_Source\PSoC6\pdl\rtos/FreeRTOS/10.0.1/Source/portable/GCC/CM4F/portmacro.h **** 		xReturn = pdTRUE;
 145:Generated_Source\PSoC6\pdl\rtos/FreeRTOS/10.0.1/Source/portable/GCC/CM4F/portmacro.h **** 	}
 146:Generated_Source\PSoC6\pdl\rtos/FreeRTOS/10.0.1/Source/portable/GCC/CM4F/portmacro.h **** 
 147:Generated_Source\PSoC6\pdl\rtos/FreeRTOS/10.0.1/Source/portable/GCC/CM4F/portmacro.h **** 	return xReturn;
 148:Generated_Source\PSoC6\pdl\rtos/FreeRTOS/10.0.1/Source/portable/GCC/CM4F/portmacro.h **** }
 149:Generated_Source\PSoC6\pdl\rtos/FreeRTOS/10.0.1/Source/portable/GCC/CM4F/portmacro.h **** 
 150:Generated_Source\PSoC6\pdl\rtos/FreeRTOS/10.0.1/Source/portable/GCC/CM4F/portmacro.h **** /*-----------------------------------------------------------*/
 151:Generated_Source\PSoC6\pdl\rtos/FreeRTOS/10.0.1/Source/portable/GCC/CM4F/portmacro.h **** 
 152:Generated_Source\PSoC6\pdl\rtos/FreeRTOS/10.0.1/Source/portable/GCC/CM4F/portmacro.h **** portFORCE_INLINE static void vPortRaiseBASEPRI( void )
 153:Generated_Source\PSoC6\pdl\rtos/FreeRTOS/10.0.1/Source/portable/GCC/CM4F/portmacro.h **** {
 154:Generated_Source\PSoC6\pdl\rtos/FreeRTOS/10.0.1/Source/portable/GCC/CM4F/portmacro.h **** uint32_t ulNewBASEPRI;
 155:Generated_Source\PSoC6\pdl\rtos/FreeRTOS/10.0.1/Source/portable/GCC/CM4F/portmacro.h **** 
 156:Generated_Source\PSoC6\pdl\rtos/FreeRTOS/10.0.1/Source/portable/GCC/CM4F/portmacro.h **** 	__asm volatile
 237              		.loc 2 156 0
 238              		.syntax unified
 239              	@ 156 "Generated_Source\PSoC6\pdl\rtos/FreeRTOS/10.0.1/Source/portable/GCC/CM4F/portmacro.h" 1
 240 0008 4FF02F03 			mov r3, #47												
 241 000c 83F31188 		msr basepri, r3											
 242 0010 BFF36F8F 		isb														
 243 0014 BFF34F8F 		dsb														
 244              	
 245              	@ 0 "" 2
 246              	.LVL28:
 247              		.thumb
 248              		.syntax unified
 249              	.L22:
 250 0018 FEE7     		b	.L22
 251              	.LVL29:
 252              	.L21:
 253 001a 0F46     		mov	r7, r1
 254              	.LBE31:
 255              	.LBE30:
 362:Generated_Source\PSoC6\pdl\rtos\FreeRTOS\10.0.1\Source/timers.c **** 	{
 256              		.loc 1 362 0
 257 001c 74B1     		cbz	r4, .L20
 258 001e 1D46     		mov	r5, r3
 259 0020 1646     		mov	r6, r2
 260 0022 8046     		mov	r8, r0
 366:Generated_Source\PSoC6\pdl\rtos\FreeRTOS\10.0.1\Source/timers.c **** 
 261              		.loc 1 366 0
 262 0024 FFF7FEFF 		bl	prvCheckForValidListAndQueue
 263              	.LVL30:
ARM GAS  C:\Users\kateb\AppData\Local\Temp\ccjwfWYs.s 			page 25


 370:Generated_Source\PSoC6\pdl\rtos\FreeRTOS\10.0.1\Source/timers.c **** 		pxNewTimer->xTimerPeriodInTicks = xTimerPeriodInTicks;
 264              		.loc 1 370 0
 265 0028 C4F80080 		str	r8, [r4]
 371:Generated_Source\PSoC6\pdl\rtos\FreeRTOS\10.0.1\Source/timers.c **** 		pxNewTimer->uxAutoReload = uxAutoReload;
 266              		.loc 1 371 0
 267 002c A761     		str	r7, [r4, #24]
 372:Generated_Source\PSoC6\pdl\rtos\FreeRTOS\10.0.1\Source/timers.c **** 		pxNewTimer->pvTimerID = pvTimerID;
 268              		.loc 1 372 0
 269 002e E661     		str	r6, [r4, #28]
 373:Generated_Source\PSoC6\pdl\rtos\FreeRTOS\10.0.1\Source/timers.c **** 		pxNewTimer->pxCallbackFunction = pxCallbackFunction;
 270              		.loc 1 373 0
 271 0030 2562     		str	r5, [r4, #32]
 374:Generated_Source\PSoC6\pdl\rtos\FreeRTOS\10.0.1\Source/timers.c **** 		vListInitialiseItem( &( pxNewTimer->xTimerListItem ) );
 272              		.loc 1 374 0
 273 0032 069B     		ldr	r3, [sp, #24]
 274 0034 6362     		str	r3, [r4, #36]
 375:Generated_Source\PSoC6\pdl\rtos\FreeRTOS\10.0.1\Source/timers.c **** 		traceTIMER_CREATE( pxNewTimer );
 275              		.loc 1 375 0
 276 0036 201D     		adds	r0, r4, #4
 277 0038 FFF7FEFF 		bl	vListInitialiseItem
 278              	.LVL31:
 279              	.L20:
 280 003c BDE8F081 		pop	{r4, r5, r6, r7, r8, pc}
 281              		.cfi_endproc
 282              	.LFE597:
 283              		.size	prvInitialiseNewTimer, .-prvInitialiseNewTimer
 284              		.section	.text.xTimerCreateTimerTask,"ax",%progbits
 285              		.align	2
 286              		.global	xTimerCreateTimerTask
 287              		.thumb
 288              		.thumb_func
 289              		.type	xTimerCreateTimerTask, %function
 290              	xTimerCreateTimerTask:
 291              	.LFB595:
 224:Generated_Source\PSoC6\pdl\rtos\FreeRTOS\10.0.1\Source/timers.c **** BaseType_t xReturn = pdFAIL;
 292              		.loc 1 224 0
 293              		.cfi_startproc
 294              		@ args = 0, pretend = 0, frame = 0
 295              		@ frame_needed = 0, uses_anonymous_args = 0
 296 0000 00B5     		push	{lr}
 297              		.cfi_def_cfa_offset 4
 298              		.cfi_offset 14, -4
 299 0002 83B0     		sub	sp, sp, #12
 300              		.cfi_def_cfa_offset 16
 301              	.LVL32:
 231:Generated_Source\PSoC6\pdl\rtos\FreeRTOS\10.0.1\Source/timers.c **** 
 302              		.loc 1 231 0
 303 0004 FFF7FEFF 		bl	prvCheckForValidListAndQueue
 304              	.LVL33:
 233:Generated_Source\PSoC6\pdl\rtos\FreeRTOS\10.0.1\Source/timers.c **** 	{
 305              		.loc 1 233 0
 306 0008 0D4B     		ldr	r3, .L31
 307 000a 9B68     		ldr	r3, [r3, #8]
 308 000c 53B1     		cbz	r3, .L29
 257:Generated_Source\PSoC6\pdl\rtos\FreeRTOS\10.0.1\Source/timers.c **** 									configTIMER_SERVICE_TASK_NAME,
 309              		.loc 1 257 0
 310 000e 0D4B     		ldr	r3, .L31+4
ARM GAS  C:\Users\kateb\AppData\Local\Temp\ccjwfWYs.s 			page 26


 311 0010 0193     		str	r3, [sp, #4]
 312 0012 1423     		movs	r3, #20
 313 0014 0093     		str	r3, [sp]
 314 0016 0023     		movs	r3, #0
 315 0018 8022     		movs	r2, #128
 316 001a 0B49     		ldr	r1, .L31+8
 317 001c 0B48     		ldr	r0, .L31+12
 318 001e FFF7FEFF 		bl	xTaskCreate
 319              	.LVL34:
 320 0022 00E0     		b	.L26
 321              	.LVL35:
 322              	.L29:
 225:Generated_Source\PSoC6\pdl\rtos\FreeRTOS\10.0.1\Source/timers.c **** 
 323              		.loc 1 225 0
 324 0024 0020     		movs	r0, #0
 325              	.LVL36:
 326              	.L26:
 271:Generated_Source\PSoC6\pdl\rtos\FreeRTOS\10.0.1\Source/timers.c **** 	return xReturn;
 327              		.loc 1 271 0
 328 0026 40B9     		cbnz	r0, .L27
 329              	.LBB32:
 330              	.LBB33:
 331              		.loc 2 156 0
 332              		.syntax unified
 333              	@ 156 "Generated_Source\PSoC6\pdl\rtos/FreeRTOS/10.0.1/Source/portable/GCC/CM4F/portmacro.h" 1
 334 0028 4FF02F03 			mov r3, #47												
 335 002c 83F31188 		msr basepri, r3											
 336 0030 BFF36F8F 		isb														
 337 0034 BFF34F8F 		dsb														
 338              	
 339              	@ 0 "" 2
 340              	.LVL37:
 341              		.thumb
 342              		.syntax unified
 343              	.L28:
 344 0038 FEE7     		b	.L28
 345              	.L27:
 346              	.LBE33:
 347              	.LBE32:
 273:Generated_Source\PSoC6\pdl\rtos\FreeRTOS\10.0.1\Source/timers.c **** /*-----------------------------------------------------------*/
 348              		.loc 1 273 0
 349 003a 03B0     		add	sp, sp, #12
 350              		.cfi_def_cfa_offset 4
 351              		@ sp needed
 352 003c 5DF804FB 		ldr	pc, [sp], #4
 353              	.L32:
 354              		.align	2
 355              	.L31:
 356 0040 00000000 		.word	.LANCHOR0
 357 0044 34000000 		.word	.LANCHOR0+52
 358 0048 08000000 		.word	.LC1
 359 004c 00000000 		.word	prvTimerTask
 360              		.cfi_endproc
 361              	.LFE595:
 362              		.size	xTimerCreateTimerTask, .-xTimerCreateTimerTask
 363              		.section	.text.xTimerCreate,"ax",%progbits
 364              		.align	2
ARM GAS  C:\Users\kateb\AppData\Local\Temp\ccjwfWYs.s 			page 27


 365              		.global	xTimerCreate
 366              		.thumb
 367              		.thumb_func
 368              		.type	xTimerCreate, %function
 369              	xTimerCreate:
 370              	.LFB596:
 283:Generated_Source\PSoC6\pdl\rtos\FreeRTOS\10.0.1\Source/timers.c **** 	Timer_t *pxNewTimer;
 371              		.loc 1 283 0
 372              		.cfi_startproc
 373              		@ args = 4, pretend = 0, frame = 0
 374              		@ frame_needed = 0, uses_anonymous_args = 0
 375              	.LVL38:
 376 0000 2DE9F041 		push	{r4, r5, r6, r7, r8, lr}
 377              		.cfi_def_cfa_offset 24
 378              		.cfi_offset 4, -24
 379              		.cfi_offset 5, -20
 380              		.cfi_offset 6, -16
 381              		.cfi_offset 7, -12
 382              		.cfi_offset 8, -8
 383              		.cfi_offset 14, -4
 384 0004 82B0     		sub	sp, sp, #8
 385              		.cfi_def_cfa_offset 32
 386 0006 0546     		mov	r5, r0
 387 0008 0E46     		mov	r6, r1
 388 000a 1746     		mov	r7, r2
 389 000c 9846     		mov	r8, r3
 286:Generated_Source\PSoC6\pdl\rtos\FreeRTOS\10.0.1\Source/timers.c **** 
 390              		.loc 1 286 0
 391 000e 2820     		movs	r0, #40
 392              	.LVL39:
 393 0010 FFF7FEFF 		bl	pvPortMalloc
 394              	.LVL40:
 288:Generated_Source\PSoC6\pdl\rtos\FreeRTOS\10.0.1\Source/timers.c **** 		{
 395              		.loc 1 288 0
 396 0014 0446     		mov	r4, r0
 397 0016 40B1     		cbz	r0, .L34
 290:Generated_Source\PSoC6\pdl\rtos\FreeRTOS\10.0.1\Source/timers.c **** 
 398              		.loc 1 290 0
 399 0018 0190     		str	r0, [sp, #4]
 400 001a 089B     		ldr	r3, [sp, #32]
 401 001c 0093     		str	r3, [sp]
 402 001e 4346     		mov	r3, r8
 403 0020 3A46     		mov	r2, r7
 404 0022 3146     		mov	r1, r6
 405 0024 2846     		mov	r0, r5
 406              	.LVL41:
 407 0026 FFF7FEFF 		bl	prvInitialiseNewTimer
 408              	.LVL42:
 409              	.L34:
 303:Generated_Source\PSoC6\pdl\rtos\FreeRTOS\10.0.1\Source/timers.c **** 
 410              		.loc 1 303 0
 411 002a 2046     		mov	r0, r4
 412 002c 02B0     		add	sp, sp, #8
 413              		.cfi_def_cfa_offset 24
 414              		@ sp needed
 415 002e BDE8F081 		pop	{r4, r5, r6, r7, r8, pc}
 416              		.cfi_endproc
ARM GAS  C:\Users\kateb\AppData\Local\Temp\ccjwfWYs.s 			page 28


 417              	.LFE596:
 418              		.size	xTimerCreate, .-xTimerCreate
 419 0032 00BF     		.section	.text.xTimerGenericCommand,"ax",%progbits
 420              		.align	2
 421              		.global	xTimerGenericCommand
 422              		.thumb
 423              		.thumb_func
 424              		.type	xTimerGenericCommand, %function
 425              	xTimerGenericCommand:
 426              	.LFB598:
 382:Generated_Source\PSoC6\pdl\rtos\FreeRTOS\10.0.1\Source/timers.c **** BaseType_t xReturn = pdFAIL;
 427              		.loc 1 382 0
 428              		.cfi_startproc
 429              		@ args = 4, pretend = 0, frame = 16
 430              		@ frame_needed = 0, uses_anonymous_args = 0
 431              	.LVL43:
 386:Generated_Source\PSoC6\pdl\rtos\FreeRTOS\10.0.1\Source/timers.c **** 
 432              		.loc 1 386 0
 433 0000 40B9     		cbnz	r0, .L37
 434              	.LBB34:
 435              	.LBB35:
 436              		.loc 2 156 0
 437              		.syntax unified
 438              	@ 156 "Generated_Source\PSoC6\pdl\rtos/FreeRTOS/10.0.1/Source/portable/GCC/CM4F/portmacro.h" 1
 439 0002 4FF02F03 			mov r3, #47												
 440 0006 83F31188 		msr basepri, r3											
 441 000a BFF36F8F 		isb														
 442 000e BFF34F8F 		dsb														
 443              	
 444              	@ 0 "" 2
 445              	.LVL44:
 446              		.thumb
 447              		.syntax unified
 448              	.L38:
 449 0012 FEE7     		b	.L38
 450              	.LVL45:
 451              	.L37:
 452              	.LBE35:
 453              	.LBE34:
 382:Generated_Source\PSoC6\pdl\rtos\FreeRTOS\10.0.1\Source/timers.c **** BaseType_t xReturn = pdFAIL;
 454              		.loc 1 382 0
 455 0014 30B5     		push	{r4, r5, lr}
 456              		.cfi_def_cfa_offset 12
 457              		.cfi_offset 4, -12
 458              		.cfi_offset 5, -8
 459              		.cfi_offset 14, -4
 460 0016 85B0     		sub	sp, sp, #20
 461              		.cfi_def_cfa_offset 32
 462 0018 1546     		mov	r5, r2
 463 001a 0446     		mov	r4, r0
 390:Generated_Source\PSoC6\pdl\rtos\FreeRTOS\10.0.1\Source/timers.c **** 	{
 464              		.loc 1 390 0
 465 001c 124A     		ldr	r2, .L44
 466              	.LVL46:
 467 001e 9068     		ldr	r0, [r2, #8]
 468              	.LVL47:
 469 0020 F0B1     		cbz	r0, .L42
ARM GAS  C:\Users\kateb\AppData\Local\Temp\ccjwfWYs.s 			page 29


 470 0022 1A46     		mov	r2, r3
 393:Generated_Source\PSoC6\pdl\rtos\FreeRTOS\10.0.1\Source/timers.c **** 		xMessage.u.xTimerParameters.xMessageValue = xOptionalValue;
 471              		.loc 1 393 0
 472 0024 0191     		str	r1, [sp, #4]
 394:Generated_Source\PSoC6\pdl\rtos\FreeRTOS\10.0.1\Source/timers.c **** 		xMessage.u.xTimerParameters.pxTimer = ( Timer_t * ) xTimer;
 473              		.loc 1 394 0
 474 0026 0295     		str	r5, [sp, #8]
 395:Generated_Source\PSoC6\pdl\rtos\FreeRTOS\10.0.1\Source/timers.c **** 
 475              		.loc 1 395 0
 476 0028 0394     		str	r4, [sp, #12]
 397:Generated_Source\PSoC6\pdl\rtos\FreeRTOS\10.0.1\Source/timers.c **** 		{
 477              		.loc 1 397 0
 478 002a 0529     		cmp	r1, #5
 479 002c 13DC     		bgt	.L40
 480              	.LVL48:
 399:Generated_Source\PSoC6\pdl\rtos\FreeRTOS\10.0.1\Source/timers.c **** 			{
 481              		.loc 1 399 0
 482 002e FFF7FEFF 		bl	xTaskGetSchedulerState
 483              	.LVL49:
 484 0032 0228     		cmp	r0, #2
 485 0034 07D1     		bne	.L41
 401:Generated_Source\PSoC6\pdl\rtos\FreeRTOS\10.0.1\Source/timers.c **** 			}
 486              		.loc 1 401 0
 487 0036 0023     		movs	r3, #0
 488 0038 089A     		ldr	r2, [sp, #32]
 489 003a 01A9     		add	r1, sp, #4
 490 003c 0A48     		ldr	r0, .L44
 491 003e 8068     		ldr	r0, [r0, #8]
 492 0040 FFF7FEFF 		bl	xQueueGenericSend
 493              	.LVL50:
 494 0044 0DE0     		b	.L39
 495              	.LVL51:
 496              	.L41:
 405:Generated_Source\PSoC6\pdl\rtos\FreeRTOS\10.0.1\Source/timers.c **** 			}
 497              		.loc 1 405 0
 498 0046 0023     		movs	r3, #0
 499 0048 1A46     		mov	r2, r3
 500 004a 01A9     		add	r1, sp, #4
 501 004c 0648     		ldr	r0, .L44
 502 004e 8068     		ldr	r0, [r0, #8]
 503 0050 FFF7FEFF 		bl	xQueueGenericSend
 504              	.LVL52:
 505 0054 05E0     		b	.L39
 506              	.LVL53:
 507              	.L40:
 410:Generated_Source\PSoC6\pdl\rtos\FreeRTOS\10.0.1\Source/timers.c **** 		}
 508              		.loc 1 410 0
 509 0056 0023     		movs	r3, #0
 510 0058 01A9     		add	r1, sp, #4
 511              	.LVL54:
 512 005a FFF7FEFF 		bl	xQueueGenericSendFromISR
 513              	.LVL55:
 514 005e 00E0     		b	.L39
 515              	.LVL56:
 516              	.L42:
 383:Generated_Source\PSoC6\pdl\rtos\FreeRTOS\10.0.1\Source/timers.c **** DaemonTaskMessage_t xMessage;
 517              		.loc 1 383 0
ARM GAS  C:\Users\kateb\AppData\Local\Temp\ccjwfWYs.s 			page 30


 518 0060 0020     		movs	r0, #0
 519              	.LVL57:
 520              	.L39:
 421:Generated_Source\PSoC6\pdl\rtos\FreeRTOS\10.0.1\Source/timers.c **** /*-----------------------------------------------------------*/
 521              		.loc 1 421 0
 522 0062 05B0     		add	sp, sp, #20
 523              		.cfi_def_cfa_offset 12
 524              		@ sp needed
 525 0064 30BD     		pop	{r4, r5, pc}
 526              	.LVL58:
 527              	.L45:
 528 0066 00BF     		.align	2
 529              	.L44:
 530 0068 00000000 		.word	.LANCHOR0
 531              		.cfi_endproc
 532              	.LFE598:
 533              		.size	xTimerGenericCommand, .-xTimerGenericCommand
 534              		.section	.text.prvSwitchTimerLists,"ax",%progbits
 535              		.align	2
 536              		.thumb
 537              		.thumb_func
 538              		.type	prvSwitchTimerLists, %function
 539              	prvSwitchTimerLists:
 540              	.LFB610:
 836:Generated_Source\PSoC6\pdl\rtos\FreeRTOS\10.0.1\Source/timers.c **** TickType_t xNextExpireTime, xReloadTime;
 541              		.loc 1 836 0
 542              		.cfi_startproc
 543              		@ args = 0, pretend = 0, frame = 0
 544              		@ frame_needed = 0, uses_anonymous_args = 0
 545 0000 70B5     		push	{r4, r5, r6, lr}
 546              		.cfi_def_cfa_offset 16
 547              		.cfi_offset 4, -16
 548              		.cfi_offset 5, -12
 549              		.cfi_offset 6, -8
 550              		.cfi_offset 14, -4
 551 0002 82B0     		sub	sp, sp, #8
 552              		.cfi_def_cfa_offset 24
 846:Generated_Source\PSoC6\pdl\rtos\FreeRTOS\10.0.1\Source/timers.c **** 	{
 553              		.loc 1 846 0
 554 0004 29E0     		b	.L48
 555              	.L52:
 848:Generated_Source\PSoC6\pdl\rtos\FreeRTOS\10.0.1\Source/timers.c **** 
 556              		.loc 1 848 0
 557 0006 DB68     		ldr	r3, [r3, #12]
 558 0008 1E68     		ldr	r6, [r3]
 559              	.LVL59:
 851:Generated_Source\PSoC6\pdl\rtos\FreeRTOS\10.0.1\Source/timers.c **** 		( void ) uxListRemove( &( pxTimer->xTimerListItem ) );
 560              		.loc 1 851 0
 561 000a DC68     		ldr	r4, [r3, #12]
 562              	.LVL60:
 852:Generated_Source\PSoC6\pdl\rtos\FreeRTOS\10.0.1\Source/timers.c **** 		traceTIMER_EXPIRED( pxTimer );
 563              		.loc 1 852 0
 564 000c 251D     		adds	r5, r4, #4
 565 000e 2846     		mov	r0, r5
 566 0010 FFF7FEFF 		bl	uxListRemove
 567              	.LVL61:
 858:Generated_Source\PSoC6\pdl\rtos\FreeRTOS\10.0.1\Source/timers.c **** 
ARM GAS  C:\Users\kateb\AppData\Local\Temp\ccjwfWYs.s 			page 31


 568              		.loc 1 858 0
 569 0014 636A     		ldr	r3, [r4, #36]
 570 0016 2046     		mov	r0, r4
 571 0018 9847     		blx	r3
 572              	.LVL62:
 860:Generated_Source\PSoC6\pdl\rtos\FreeRTOS\10.0.1\Source/timers.c **** 		{
 573              		.loc 1 860 0
 574 001a E369     		ldr	r3, [r4, #28]
 575 001c 012B     		cmp	r3, #1
 576 001e 1CD1     		bne	.L48
 868:Generated_Source\PSoC6\pdl\rtos\FreeRTOS\10.0.1\Source/timers.c **** 			if( xReloadTime > xNextExpireTime )
 577              		.loc 1 868 0
 578 0020 A369     		ldr	r3, [r4, #24]
 579 0022 3344     		add	r3, r3, r6
 580              	.LVL63:
 869:Generated_Source\PSoC6\pdl\rtos\FreeRTOS\10.0.1\Source/timers.c **** 			{
 581              		.loc 1 869 0
 582 0024 9E42     		cmp	r6, r3
 583 0026 07D2     		bcs	.L49
 871:Generated_Source\PSoC6\pdl\rtos\FreeRTOS\10.0.1\Source/timers.c **** 				listSET_LIST_ITEM_OWNER( &( pxTimer->xTimerListItem ), pxTimer );
 584              		.loc 1 871 0
 585 0028 6360     		str	r3, [r4, #4]
 872:Generated_Source\PSoC6\pdl\rtos\FreeRTOS\10.0.1\Source/timers.c **** 				vListInsert( pxCurrentTimerList, &( pxTimer->xTimerListItem ) );
 586              		.loc 1 872 0
 587 002a 2461     		str	r4, [r4, #16]
 873:Generated_Source\PSoC6\pdl\rtos\FreeRTOS\10.0.1\Source/timers.c **** 			}
 588              		.loc 1 873 0
 589 002c 2946     		mov	r1, r5
 590 002e 104B     		ldr	r3, .L54
 591              	.LVL64:
 592 0030 1868     		ldr	r0, [r3]
 593 0032 FFF7FEFF 		bl	vListInsert
 594              	.LVL65:
 595 0036 10E0     		b	.L48
 596              	.LVL66:
 597              	.L49:
 877:Generated_Source\PSoC6\pdl\rtos\FreeRTOS\10.0.1\Source/timers.c **** 				configASSERT( xResult );
 598              		.loc 1 877 0
 599 0038 0021     		movs	r1, #0
 600 003a 0091     		str	r1, [sp]
 601 003c 0B46     		mov	r3, r1
 602              	.LVL67:
 603 003e 3246     		mov	r2, r6
 604 0040 2046     		mov	r0, r4
 605 0042 FFF7FEFF 		bl	xTimerGenericCommand
 606              	.LVL68:
 878:Generated_Source\PSoC6\pdl\rtos\FreeRTOS\10.0.1\Source/timers.c **** 				( void ) xResult;
 607              		.loc 1 878 0
 608 0046 40B9     		cbnz	r0, .L48
 609              	.LBB36:
 610              	.LBB37:
 611              		.loc 2 156 0
 612              		.syntax unified
 613              	@ 156 "Generated_Source\PSoC6\pdl\rtos/FreeRTOS/10.0.1/Source/portable/GCC/CM4F/portmacro.h" 1
 614 0048 4FF02F03 			mov r3, #47												
 615 004c 83F31188 		msr basepri, r3											
 616 0050 BFF36F8F 		isb														
ARM GAS  C:\Users\kateb\AppData\Local\Temp\ccjwfWYs.s 			page 32


 617 0054 BFF34F8F 		dsb														
 618              	
 619              	@ 0 "" 2
 620              	.LVL69:
 621              		.thumb
 622              		.syntax unified
 623              	.L51:
 624 0058 FEE7     		b	.L51
 625              	.LVL70:
 626              	.L48:
 627              	.LBE37:
 628              	.LBE36:
 846:Generated_Source\PSoC6\pdl\rtos\FreeRTOS\10.0.1\Source/timers.c **** 	{
 629              		.loc 1 846 0
 630 005a 054B     		ldr	r3, .L54
 631 005c 1B68     		ldr	r3, [r3]
 632 005e 1A68     		ldr	r2, [r3]
 633 0060 002A     		cmp	r2, #0
 634 0062 D0D1     		bne	.L52
 635              	.LVL71:
 889:Generated_Source\PSoC6\pdl\rtos\FreeRTOS\10.0.1\Source/timers.c **** 	pxOverflowTimerList = pxTemp;
 636              		.loc 1 889 0
 637 0064 024A     		ldr	r2, .L54
 638 0066 5168     		ldr	r1, [r2, #4]
 639 0068 1160     		str	r1, [r2]
 890:Generated_Source\PSoC6\pdl\rtos\FreeRTOS\10.0.1\Source/timers.c **** }
 640              		.loc 1 890 0
 641 006a 5360     		str	r3, [r2, #4]
 891:Generated_Source\PSoC6\pdl\rtos\FreeRTOS\10.0.1\Source/timers.c **** /*-----------------------------------------------------------*/
 642              		.loc 1 891 0
 643 006c 02B0     		add	sp, sp, #8
 644              		.cfi_def_cfa_offset 16
 645              		@ sp needed
 646 006e 70BD     		pop	{r4, r5, r6, pc}
 647              	.L55:
 648              		.align	2
 649              	.L54:
 650 0070 00000000 		.word	.LANCHOR0
 651              		.cfi_endproc
 652              	.LFE610:
 653              		.size	prvSwitchTimerLists, .-prvSwitchTimerLists
 654              		.section	.text.prvSampleTimeNow,"ax",%progbits
 655              		.align	2
 656              		.thumb
 657              		.thumb_func
 658              		.type	prvSampleTimeNow, %function
 659              	prvSampleTimeNow:
 660              	.LFB607:
 625:Generated_Source\PSoC6\pdl\rtos\FreeRTOS\10.0.1\Source/timers.c **** TickType_t xTimeNow;
 661              		.loc 1 625 0
 662              		.cfi_startproc
 663              		@ args = 0, pretend = 0, frame = 0
 664              		@ frame_needed = 0, uses_anonymous_args = 0
 665              	.LVL72:
 666 0000 38B5     		push	{r3, r4, r5, lr}
 667              		.cfi_def_cfa_offset 16
 668              		.cfi_offset 3, -16
ARM GAS  C:\Users\kateb\AppData\Local\Temp\ccjwfWYs.s 			page 33


 669              		.cfi_offset 4, -12
 670              		.cfi_offset 5, -8
 671              		.cfi_offset 14, -4
 672 0002 0546     		mov	r5, r0
 629:Generated_Source\PSoC6\pdl\rtos\FreeRTOS\10.0.1\Source/timers.c **** 
 673              		.loc 1 629 0
 674 0004 FFF7FEFF 		bl	xTaskGetTickCount
 675              	.LVL73:
 676 0008 0446     		mov	r4, r0
 677              	.LVL74:
 631:Generated_Source\PSoC6\pdl\rtos\FreeRTOS\10.0.1\Source/timers.c **** 	{
 678              		.loc 1 631 0
 679 000a 074B     		ldr	r3, .L60
 680 000c 9B6B     		ldr	r3, [r3, #56]
 681 000e 9842     		cmp	r0, r3
 682 0010 04D2     		bcs	.L57
 633:Generated_Source\PSoC6\pdl\rtos\FreeRTOS\10.0.1\Source/timers.c **** 		*pxTimerListsWereSwitched = pdTRUE;
 683              		.loc 1 633 0
 684 0012 FFF7FEFF 		bl	prvSwitchTimerLists
 685              	.LVL75:
 634:Generated_Source\PSoC6\pdl\rtos\FreeRTOS\10.0.1\Source/timers.c **** 	}
 686              		.loc 1 634 0
 687 0016 0123     		movs	r3, #1
 688 0018 2B60     		str	r3, [r5]
 689 001a 01E0     		b	.L58
 690              	.LVL76:
 691              	.L57:
 638:Generated_Source\PSoC6\pdl\rtos\FreeRTOS\10.0.1\Source/timers.c **** 	}
 692              		.loc 1 638 0
 693 001c 0023     		movs	r3, #0
 694 001e 2B60     		str	r3, [r5]
 695              	.LVL77:
 696              	.L58:
 641:Generated_Source\PSoC6\pdl\rtos\FreeRTOS\10.0.1\Source/timers.c **** 
 697              		.loc 1 641 0
 698 0020 014B     		ldr	r3, .L60
 699 0022 9C63     		str	r4, [r3, #56]
 644:Generated_Source\PSoC6\pdl\rtos\FreeRTOS\10.0.1\Source/timers.c **** /*-----------------------------------------------------------*/
 700              		.loc 1 644 0
 701 0024 2046     		mov	r0, r4
 702 0026 38BD     		pop	{r3, r4, r5, pc}
 703              	.LVL78:
 704              	.L61:
 705              		.align	2
 706              	.L60:
 707 0028 00000000 		.word	.LANCHOR0
 708              		.cfi_endproc
 709              	.LFE607:
 710              		.size	prvSampleTimeNow, .-prvSampleTimeNow
 711              		.section	.text.prvProcessExpiredTimer,"ax",%progbits
 712              		.align	2
 713              		.thumb
 714              		.thumb_func
 715              		.type	prvProcessExpiredTimer, %function
 716              	prvProcessExpiredTimer:
 717              	.LFB603:
 463:Generated_Source\PSoC6\pdl\rtos\FreeRTOS\10.0.1\Source/timers.c **** BaseType_t xResult;
ARM GAS  C:\Users\kateb\AppData\Local\Temp\ccjwfWYs.s 			page 34


 718              		.loc 1 463 0
 719              		.cfi_startproc
 720              		@ args = 0, pretend = 0, frame = 0
 721              		@ frame_needed = 0, uses_anonymous_args = 0
 722              	.LVL79:
 723 0000 70B5     		push	{r4, r5, r6, lr}
 724              		.cfi_def_cfa_offset 16
 725              		.cfi_offset 4, -16
 726              		.cfi_offset 5, -12
 727              		.cfi_offset 6, -8
 728              		.cfi_offset 14, -4
 729 0002 82B0     		sub	sp, sp, #8
 730              		.cfi_def_cfa_offset 24
 731 0004 0546     		mov	r5, r0
 732 0006 0E46     		mov	r6, r1
 465:Generated_Source\PSoC6\pdl\rtos\FreeRTOS\10.0.1\Source/timers.c **** 
 733              		.loc 1 465 0
 734 0008 134B     		ldr	r3, .L66
 735 000a 1B68     		ldr	r3, [r3]
 736 000c DB68     		ldr	r3, [r3, #12]
 737 000e DC68     		ldr	r4, [r3, #12]
 738              	.LVL80:
 469:Generated_Source\PSoC6\pdl\rtos\FreeRTOS\10.0.1\Source/timers.c **** 	traceTIMER_EXPIRED( pxTimer );
 739              		.loc 1 469 0
 740 0010 201D     		adds	r0, r4, #4
 741              	.LVL81:
 742 0012 FFF7FEFF 		bl	uxListRemove
 743              	.LVL82:
 474:Generated_Source\PSoC6\pdl\rtos\FreeRTOS\10.0.1\Source/timers.c **** 	{
 744              		.loc 1 474 0
 745 0016 E369     		ldr	r3, [r4, #28]
 746 0018 012B     		cmp	r3, #1
 747 001a 18D1     		bne	.L63
 479:Generated_Source\PSoC6\pdl\rtos\FreeRTOS\10.0.1\Source/timers.c **** 		{
 748              		.loc 1 479 0
 749 001c A169     		ldr	r1, [r4, #24]
 750 001e 2B46     		mov	r3, r5
 751 0020 3246     		mov	r2, r6
 752 0022 2944     		add	r1, r1, r5
 753 0024 2046     		mov	r0, r4
 754 0026 FFF7FEFF 		bl	prvInsertTimerInActiveList
 755              	.LVL83:
 756 002a 80B1     		cbz	r0, .L63
 483:Generated_Source\PSoC6\pdl\rtos\FreeRTOS\10.0.1\Source/timers.c **** 			configASSERT( xResult );
 757              		.loc 1 483 0
 758 002c 0021     		movs	r1, #0
 759 002e 0091     		str	r1, [sp]
 760 0030 0B46     		mov	r3, r1
 761 0032 2A46     		mov	r2, r5
 762 0034 2046     		mov	r0, r4
 763 0036 FFF7FEFF 		bl	xTimerGenericCommand
 764              	.LVL84:
 484:Generated_Source\PSoC6\pdl\rtos\FreeRTOS\10.0.1\Source/timers.c **** 			( void ) xResult;
 765              		.loc 1 484 0
 766 003a 40B9     		cbnz	r0, .L63
 767              	.LBB38:
 768              	.LBB39:
ARM GAS  C:\Users\kateb\AppData\Local\Temp\ccjwfWYs.s 			page 35


 769              		.loc 2 156 0
 770              		.syntax unified
 771              	@ 156 "Generated_Source\PSoC6\pdl\rtos/FreeRTOS/10.0.1/Source/portable/GCC/CM4F/portmacro.h" 1
 772 003c 4FF02F03 			mov r3, #47												
 773 0040 83F31188 		msr basepri, r3											
 774 0044 BFF36F8F 		isb														
 775 0048 BFF34F8F 		dsb														
 776              	
 777              	@ 0 "" 2
 778              	.LVL85:
 779              		.thumb
 780              		.syntax unified
 781              	.L64:
 782 004c FEE7     		b	.L64
 783              	.LVL86:
 784              	.L63:
 785              	.LBE39:
 786              	.LBE38:
 498:Generated_Source\PSoC6\pdl\rtos\FreeRTOS\10.0.1\Source/timers.c **** }
 787              		.loc 1 498 0
 788 004e 636A     		ldr	r3, [r4, #36]
 789 0050 2046     		mov	r0, r4
 790 0052 9847     		blx	r3
 791              	.LVL87:
 499:Generated_Source\PSoC6\pdl\rtos\FreeRTOS\10.0.1\Source/timers.c **** /*-----------------------------------------------------------*/
 792              		.loc 1 499 0
 793 0054 02B0     		add	sp, sp, #8
 794              		.cfi_def_cfa_offset 16
 795              		@ sp needed
 796 0056 70BD     		pop	{r4, r5, r6, pc}
 797              	.LVL88:
 798              	.L67:
 799              		.align	2
 800              	.L66:
 801 0058 00000000 		.word	.LANCHOR0
 802              		.cfi_endproc
 803              	.LFE603:
 804              		.size	prvProcessExpiredTimer, .-prvProcessExpiredTimer
 805              		.section	.text.prvProcessTimerOrBlockTask,"ax",%progbits
 806              		.align	2
 807              		.thumb
 808              		.thumb_func
 809              		.type	prvProcessTimerOrBlockTask, %function
 810              	prvProcessTimerOrBlockTask:
 811              	.LFB605:
 539:Generated_Source\PSoC6\pdl\rtos\FreeRTOS\10.0.1\Source/timers.c **** TickType_t xTimeNow;
 812              		.loc 1 539 0
 813              		.cfi_startproc
 814              		@ args = 0, pretend = 0, frame = 8
 815              		@ frame_needed = 0, uses_anonymous_args = 0
 816              	.LVL89:
 817 0000 70B5     		push	{r4, r5, r6, lr}
 818              		.cfi_def_cfa_offset 16
 819              		.cfi_offset 4, -16
 820              		.cfi_offset 5, -12
 821              		.cfi_offset 6, -8
 822              		.cfi_offset 14, -4
ARM GAS  C:\Users\kateb\AppData\Local\Temp\ccjwfWYs.s 			page 36


 823 0002 82B0     		sub	sp, sp, #8
 824              		.cfi_def_cfa_offset 24
 825 0004 0646     		mov	r6, r0
 826 0006 0C46     		mov	r4, r1
 543:Generated_Source\PSoC6\pdl\rtos\FreeRTOS\10.0.1\Source/timers.c **** 	{
 827              		.loc 1 543 0
 828 0008 FFF7FEFF 		bl	vTaskSuspendAll
 829              	.LVL90:
 550:Generated_Source\PSoC6\pdl\rtos\FreeRTOS\10.0.1\Source/timers.c **** 		if( xTimerListsWereSwitched == pdFALSE )
 830              		.loc 1 550 0
 831 000c 01A8     		add	r0, sp, #4
 832 000e FFF7FEFF 		bl	prvSampleTimeNow
 833              	.LVL91:
 551:Generated_Source\PSoC6\pdl\rtos\FreeRTOS\10.0.1\Source/timers.c **** 		{
 834              		.loc 1 551 0
 835 0012 019B     		ldr	r3, [sp, #4]
 836 0014 1BBB     		cbnz	r3, .L69
 837 0016 0546     		mov	r5, r0
 554:Generated_Source\PSoC6\pdl\rtos\FreeRTOS\10.0.1\Source/timers.c **** 			{
 838              		.loc 1 554 0
 839 0018 44B9     		cbnz	r4, .L70
 554:Generated_Source\PSoC6\pdl\rtos\FreeRTOS\10.0.1\Source/timers.c **** 			{
 840              		.loc 1 554 0 is_stmt 0 discriminator 1
 841 001a B042     		cmp	r0, r6
 842 001c 06D3     		bcc	.L70
 556:Generated_Source\PSoC6\pdl\rtos\FreeRTOS\10.0.1\Source/timers.c **** 				prvProcessExpiredTimer( xNextExpireTime, xTimeNow );
 843              		.loc 1 556 0 is_stmt 1
 844 001e FFF7FEFF 		bl	xTaskResumeAll
 845              	.LVL92:
 557:Generated_Source\PSoC6\pdl\rtos\FreeRTOS\10.0.1\Source/timers.c **** 			}
 846              		.loc 1 557 0
 847 0022 2946     		mov	r1, r5
 848 0024 3046     		mov	r0, r6
 849 0026 FFF7FEFF 		bl	prvProcessExpiredTimer
 850              	.LVL93:
 851 002a 1AE0     		b	.L68
 852              	.LVL94:
 853              	.L70:
 567:Generated_Source\PSoC6\pdl\rtos\FreeRTOS\10.0.1\Source/timers.c **** 				{
 854              		.loc 1 567 0
 855 002c 2CB1     		cbz	r4, .L72
 571:Generated_Source\PSoC6\pdl\rtos\FreeRTOS\10.0.1\Source/timers.c **** 				}
 856              		.loc 1 571 0
 857 002e 0E4B     		ldr	r3, .L74
 858 0030 5B68     		ldr	r3, [r3, #4]
 859 0032 1C68     		ldr	r4, [r3]
 860              	.LVL95:
 861 0034 B4FA84F4 		clz	r4, r4
 862 0038 6409     		lsrs	r4, r4, #5
 863              	.LVL96:
 864              	.L72:
 574:Generated_Source\PSoC6\pdl\rtos\FreeRTOS\10.0.1\Source/timers.c **** 
 865              		.loc 1 574 0
 866 003a 2246     		mov	r2, r4
 867 003c 711B     		subs	r1, r6, r5
 868 003e 0A4B     		ldr	r3, .L74
 869 0040 9868     		ldr	r0, [r3, #8]
ARM GAS  C:\Users\kateb\AppData\Local\Temp\ccjwfWYs.s 			page 37


 870              	.LVL97:
 871 0042 FFF7FEFF 		bl	vQueueWaitForMessageRestricted
 872              	.LVL98:
 576:Generated_Source\PSoC6\pdl\rtos\FreeRTOS\10.0.1\Source/timers.c **** 				{
 873              		.loc 1 576 0
 874 0046 FFF7FEFF 		bl	xTaskResumeAll
 875              	.LVL99:
 876 004a 50B9     		cbnz	r0, .L68
 582:Generated_Source\PSoC6\pdl\rtos\FreeRTOS\10.0.1\Source/timers.c **** 				}
 877              		.loc 1 582 0
 878 004c 4FF08052 		mov	r2, #268435456
 879 0050 064B     		ldr	r3, .L74+4
 880 0052 1A60     		str	r2, [r3]
 881              		.syntax unified
 882              	@ 582 "Generated_Source\PSoC6\pdl\rtos\FreeRTOS\10.0.1\Source\timers.c" 1
 883 0054 BFF34F8F 		dsb
 884              	@ 0 "" 2
 885              	@ 582 "Generated_Source\PSoC6\pdl\rtos\FreeRTOS\10.0.1\Source\timers.c" 1
 886 0058 BFF36F8F 		isb
 887              	@ 0 "" 2
 888              		.thumb
 889              		.syntax unified
 890 005c 01E0     		b	.L68
 891              	.LVL100:
 892              	.L69:
 592:Generated_Source\PSoC6\pdl\rtos\FreeRTOS\10.0.1\Source/timers.c **** 		}
 893              		.loc 1 592 0
 894 005e FFF7FEFF 		bl	xTaskResumeAll
 895              	.LVL101:
 896              	.L68:
 595:Generated_Source\PSoC6\pdl\rtos\FreeRTOS\10.0.1\Source/timers.c **** /*-----------------------------------------------------------*/
 897              		.loc 1 595 0
 898 0062 02B0     		add	sp, sp, #8
 899              		.cfi_def_cfa_offset 16
 900              		@ sp needed
 901 0064 70BD     		pop	{r4, r5, r6, pc}
 902              	.LVL102:
 903              	.L75:
 904 0066 00BF     		.align	2
 905              	.L74:
 906 0068 00000000 		.word	.LANCHOR0
 907 006c 04ED00E0 		.word	-536810236
 908              		.cfi_endproc
 909              	.LFE605:
 910              		.size	prvProcessTimerOrBlockTask, .-prvProcessTimerOrBlockTask
 911              		.section	.text.prvProcessReceivedCommands,"ax",%progbits
 912              		.align	2
 913              		.thumb
 914              		.thumb_func
 915              		.type	prvProcessReceivedCommands, %function
 916              	prvProcessReceivedCommands:
 917              	.LFB609:
 689:Generated_Source\PSoC6\pdl\rtos\FreeRTOS\10.0.1\Source/timers.c **** DaemonTaskMessage_t xMessage;
 918              		.loc 1 689 0
 919              		.cfi_startproc
 920              		@ args = 0, pretend = 0, frame = 16
 921              		@ frame_needed = 0, uses_anonymous_args = 0
ARM GAS  C:\Users\kateb\AppData\Local\Temp\ccjwfWYs.s 			page 38


 922 0000 30B5     		push	{r4, r5, lr}
 923              		.cfi_def_cfa_offset 12
 924              		.cfi_offset 4, -12
 925              		.cfi_offset 5, -8
 926              		.cfi_offset 14, -4
 927 0002 87B0     		sub	sp, sp, #28
 928              		.cfi_def_cfa_offset 40
 695:Generated_Source\PSoC6\pdl\rtos\FreeRTOS\10.0.1\Source/timers.c **** 	{
 929              		.loc 1 695 0
 930 0004 4DE0     		b	.L78
 931              	.L89:
 721:Generated_Source\PSoC6\pdl\rtos\FreeRTOS\10.0.1\Source/timers.c **** 		{
 932              		.loc 1 721 0
 933 0006 039B     		ldr	r3, [sp, #12]
 934 0008 002B     		cmp	r3, #0
 935 000a 4ADB     		blt	.L78
 725:Generated_Source\PSoC6\pdl\rtos\FreeRTOS\10.0.1\Source/timers.c **** 
 936              		.loc 1 725 0
 937 000c 059C     		ldr	r4, [sp, #20]
 938              	.LVL103:
 727:Generated_Source\PSoC6\pdl\rtos\FreeRTOS\10.0.1\Source/timers.c **** 			{
 939              		.loc 1 727 0
 940 000e 6369     		ldr	r3, [r4, #20]
 941 0010 13B1     		cbz	r3, .L79
 730:Generated_Source\PSoC6\pdl\rtos\FreeRTOS\10.0.1\Source/timers.c **** 			}
 942              		.loc 1 730 0
 943 0012 201D     		adds	r0, r4, #4
 944 0014 FFF7FEFF 		bl	uxListRemove
 945              	.LVL104:
 946              	.L79:
 745:Generated_Source\PSoC6\pdl\rtos\FreeRTOS\10.0.1\Source/timers.c **** 
 947              		.loc 1 745 0
 948 0018 02A8     		add	r0, sp, #8
 949 001a FFF7FEFF 		bl	prvSampleTimeNow
 950              	.LVL105:
 747:Generated_Source\PSoC6\pdl\rtos\FreeRTOS\10.0.1\Source/timers.c **** 			{
 951              		.loc 1 747 0
 952 001e 039B     		ldr	r3, [sp, #12]
 953 0020 092B     		cmp	r3, #9
 954 0022 3ED8     		bhi	.L78
 955 0024 DFE803F0 		tbb	[pc, r3]
 956              	.L82:
 957 0028 05       		.byte	(.L81-.L82)/2
 958 0029 05       		.byte	(.L81-.L82)/2
 959 002a 05       		.byte	(.L81-.L82)/2
 960 002b 3D       		.byte	(.L78-.L82)/2
 961 002c 27       		.byte	(.L83-.L82)/2
 962 002d 3A       		.byte	(.L84-.L82)/2
 963 002e 05       		.byte	(.L81-.L82)/2
 964 002f 05       		.byte	(.L81-.L82)/2
 965 0030 3D       		.byte	(.L78-.L82)/2
 966 0031 27       		.byte	(.L83-.L82)/2
 967              		.p2align 1
 968              	.L81:
 755:Generated_Source\PSoC6\pdl\rtos\FreeRTOS\10.0.1\Source/timers.c **** 					{
 969              		.loc 1 755 0
 970 0032 0499     		ldr	r1, [sp, #16]
ARM GAS  C:\Users\kateb\AppData\Local\Temp\ccjwfWYs.s 			page 39


 971 0034 A569     		ldr	r5, [r4, #24]
 972 0036 0B46     		mov	r3, r1
 973 0038 0246     		mov	r2, r0
 974 003a 2944     		add	r1, r1, r5
 975 003c 2046     		mov	r0, r4
 976              	.LVL106:
 977 003e FFF7FEFF 		bl	prvInsertTimerInActiveList
 978              	.LVL107:
 979 0042 70B3     		cbz	r0, .L78
 759:Generated_Source\PSoC6\pdl\rtos\FreeRTOS\10.0.1\Source/timers.c **** 						traceTIMER_EXPIRED( pxTimer );
 980              		.loc 1 759 0
 981 0044 636A     		ldr	r3, [r4, #36]
 982 0046 2046     		mov	r0, r4
 983 0048 9847     		blx	r3
 984              	.LVL108:
 762:Generated_Source\PSoC6\pdl\rtos\FreeRTOS\10.0.1\Source/timers.c **** 						{
 985              		.loc 1 762 0
 986 004a E369     		ldr	r3, [r4, #28]
 987 004c 012B     		cmp	r3, #1
 988 004e 28D1     		bne	.L78
 764:Generated_Source\PSoC6\pdl\rtos\FreeRTOS\10.0.1\Source/timers.c **** 							configASSERT( xResult );
 989              		.loc 1 764 0
 990 0050 A269     		ldr	r2, [r4, #24]
 991 0052 0021     		movs	r1, #0
 992 0054 0091     		str	r1, [sp]
 993 0056 0B46     		mov	r3, r1
 994 0058 0498     		ldr	r0, [sp, #16]
 995 005a 0244     		add	r2, r2, r0
 996 005c 2046     		mov	r0, r4
 997 005e FFF7FEFF 		bl	xTimerGenericCommand
 998              	.LVL109:
 765:Generated_Source\PSoC6\pdl\rtos\FreeRTOS\10.0.1\Source/timers.c **** 							( void ) xResult;
 999              		.loc 1 765 0
 1000 0062 F0B9     		cbnz	r0, .L78
 1001              	.LBB40:
 1002              	.LBB41:
 1003              		.loc 2 156 0
 1004              		.syntax unified
 1005              	@ 156 "Generated_Source\PSoC6\pdl\rtos/FreeRTOS/10.0.1/Source/portable/GCC/CM4F/portmacro.h" 1
 1006 0064 4FF02F03 			mov r3, #47												
 1007 0068 83F31188 		msr basepri, r3											
 1008 006c BFF36F8F 		isb														
 1009 0070 BFF34F8F 		dsb														
 1010              	
 1011              	@ 0 "" 2
 1012              	.LVL110:
 1013              		.thumb
 1014              		.syntax unified
 1015              	.L86:
 1016 0074 FEE7     		b	.L86
 1017              	.LVL111:
 1018              	.L83:
 1019              	.LBE41:
 1020              	.LBE40:
 787:Generated_Source\PSoC6\pdl\rtos\FreeRTOS\10.0.1\Source/timers.c **** 					configASSERT( ( pxTimer->xTimerPeriodInTicks > 0 ) );
 1021              		.loc 1 787 0
 1022 0076 0499     		ldr	r1, [sp, #16]
ARM GAS  C:\Users\kateb\AppData\Local\Temp\ccjwfWYs.s 			page 40


 1023 0078 A161     		str	r1, [r4, #24]
 788:Generated_Source\PSoC6\pdl\rtos\FreeRTOS\10.0.1\Source/timers.c **** 
 1024              		.loc 1 788 0
 1025 007a 41B9     		cbnz	r1, .L87
 1026              	.LBB42:
 1027              	.LBB43:
 1028              		.loc 2 156 0
 1029              		.syntax unified
 1030              	@ 156 "Generated_Source\PSoC6\pdl\rtos/FreeRTOS/10.0.1/Source/portable/GCC/CM4F/portmacro.h" 1
 1031 007c 4FF02F03 			mov r3, #47												
 1032 0080 83F31188 		msr basepri, r3											
 1033 0084 BFF36F8F 		isb														
 1034 0088 BFF34F8F 		dsb														
 1035              	
 1036              	@ 0 "" 2
 1037              	.LVL112:
 1038              		.thumb
 1039              		.syntax unified
 1040              	.L88:
 1041 008c FEE7     		b	.L88
 1042              	.L87:
 1043              	.LBE43:
 1044              	.LBE42:
 796:Generated_Source\PSoC6\pdl\rtos\FreeRTOS\10.0.1\Source/timers.c **** 					break;
 1045              		.loc 1 796 0
 1046 008e 0346     		mov	r3, r0
 1047 0090 0246     		mov	r2, r0
 1048 0092 0144     		add	r1, r1, r0
 1049 0094 2046     		mov	r0, r4
 1050              	.LVL113:
 1051 0096 FFF7FEFF 		bl	prvInsertTimerInActiveList
 1052              	.LVL114:
 797:Generated_Source\PSoC6\pdl\rtos\FreeRTOS\10.0.1\Source/timers.c **** 
 1053              		.loc 1 797 0
 1054 009a 02E0     		b	.L78
 1055              	.LVL115:
 1056              	.L84:
 807:Generated_Source\PSoC6\pdl\rtos\FreeRTOS\10.0.1\Source/timers.c **** 					}
 1057              		.loc 1 807 0
 1058 009c 2046     		mov	r0, r4
 1059              	.LVL116:
 1060 009e FFF7FEFF 		bl	vPortFree
 1061              	.LVL117:
 1062              	.L78:
 695:Generated_Source\PSoC6\pdl\rtos\FreeRTOS\10.0.1\Source/timers.c **** 	{
 1063              		.loc 1 695 0
 1064 00a2 0022     		movs	r2, #0
 1065 00a4 03A9     		add	r1, sp, #12
 1066 00a6 044B     		ldr	r3, .L91
 1067 00a8 9868     		ldr	r0, [r3, #8]
 1068 00aa FFF7FEFF 		bl	xQueueReceive
 1069              	.LVL118:
 1070 00ae 0028     		cmp	r0, #0
 1071 00b0 A9D1     		bne	.L89
 832:Generated_Source\PSoC6\pdl\rtos\FreeRTOS\10.0.1\Source/timers.c **** /*-----------------------------------------------------------*/
 1072              		.loc 1 832 0
 1073 00b2 07B0     		add	sp, sp, #28
ARM GAS  C:\Users\kateb\AppData\Local\Temp\ccjwfWYs.s 			page 41


 1074              		.cfi_def_cfa_offset 12
 1075              		@ sp needed
 1076 00b4 30BD     		pop	{r4, r5, pc}
 1077              	.L92:
 1078 00b6 00BF     		.align	2
 1079              	.L91:
 1080 00b8 00000000 		.word	.LANCHOR0
 1081              		.cfi_endproc
 1082              	.LFE609:
 1083              		.size	prvProcessReceivedCommands, .-prvProcessReceivedCommands
 1084              		.section	.text.prvTimerTask,"ax",%progbits
 1085              		.align	2
 1086              		.thumb
 1087              		.thumb_func
 1088              		.type	prvTimerTask, %function
 1089              	prvTimerTask:
 1090              	.LFB604:
 503:Generated_Source\PSoC6\pdl\rtos\FreeRTOS\10.0.1\Source/timers.c **** TickType_t xNextExpireTime;
 1091              		.loc 1 503 0
 1092              		.cfi_startproc
 1093              		@ args = 0, pretend = 0, frame = 8
 1094              		@ frame_needed = 0, uses_anonymous_args = 0
 1095              	.LVL119:
 1096 0000 00B5     		push	{lr}
 1097              		.cfi_def_cfa_offset 4
 1098              		.cfi_offset 14, -4
 1099 0002 83B0     		sub	sp, sp, #12
 1100              		.cfi_def_cfa_offset 16
 1101              	.LVL120:
 1102              	.L94:
 526:Generated_Source\PSoC6\pdl\rtos\FreeRTOS\10.0.1\Source/timers.c **** 
 1103              		.loc 1 526 0 discriminator 1
 1104 0004 01A8     		add	r0, sp, #4
 1105 0006 FFF7FEFF 		bl	prvGetNextExpireTime
 1106              	.LVL121:
 530:Generated_Source\PSoC6\pdl\rtos\FreeRTOS\10.0.1\Source/timers.c **** 
 1107              		.loc 1 530 0 discriminator 1
 1108 000a 0199     		ldr	r1, [sp, #4]
 1109 000c FFF7FEFF 		bl	prvProcessTimerOrBlockTask
 1110              	.LVL122:
 533:Generated_Source\PSoC6\pdl\rtos\FreeRTOS\10.0.1\Source/timers.c **** 	}
 1111              		.loc 1 533 0 discriminator 1
 1112 0010 FFF7FEFF 		bl	prvProcessReceivedCommands
 1113              	.LVL123:
 1114 0014 F6E7     		b	.L94
 1115              		.cfi_endproc
 1116              	.LFE604:
 1117              		.size	prvTimerTask, .-prvTimerTask
 1118 0016 00BF     		.section	.text.xTimerGetTimerDaemonTaskHandle,"ax",%progbits
 1119              		.align	2
 1120              		.global	xTimerGetTimerDaemonTaskHandle
 1121              		.thumb
 1122              		.thumb_func
 1123              		.type	xTimerGetTimerDaemonTaskHandle, %function
 1124              	xTimerGetTimerDaemonTaskHandle:
 1125              	.LFB599:
 425:Generated_Source\PSoC6\pdl\rtos\FreeRTOS\10.0.1\Source/timers.c **** 	/* If xTimerGetTimerDaemonTaskHandle() is called before the scheduler has been
ARM GAS  C:\Users\kateb\AppData\Local\Temp\ccjwfWYs.s 			page 42


 1126              		.loc 1 425 0
 1127              		.cfi_startproc
 1128              		@ args = 0, pretend = 0, frame = 0
 1129              		@ frame_needed = 0, uses_anonymous_args = 0
 1130              		@ link register save eliminated.
 428:Generated_Source\PSoC6\pdl\rtos\FreeRTOS\10.0.1\Source/timers.c **** 	return xTimerTaskHandle;
 1131              		.loc 1 428 0
 1132 0000 064B     		ldr	r3, .L99
 1133 0002 586B     		ldr	r0, [r3, #52]
 1134 0004 40B9     		cbnz	r0, .L97
 1135              	.LBB44:
 1136              	.LBB45:
 1137              		.loc 2 156 0
 1138              		.syntax unified
 1139              	@ 156 "Generated_Source\PSoC6\pdl\rtos/FreeRTOS/10.0.1/Source/portable/GCC/CM4F/portmacro.h" 1
 1140 0006 4FF02F03 			mov r3, #47												
 1141 000a 83F31188 		msr basepri, r3											
 1142 000e BFF36F8F 		isb														
 1143 0012 BFF34F8F 		dsb														
 1144              	
 1145              	@ 0 "" 2
 1146              	.LVL124:
 1147              		.thumb
 1148              		.syntax unified
 1149              	.L98:
 1150 0016 FEE7     		b	.L98
 1151              	.L97:
 1152              	.LBE45:
 1153              	.LBE44:
 430:Generated_Source\PSoC6\pdl\rtos\FreeRTOS\10.0.1\Source/timers.c **** /*-----------------------------------------------------------*/
 1154              		.loc 1 430 0
 1155 0018 7047     		bx	lr
 1156              	.L100:
 1157 001a 00BF     		.align	2
 1158              	.L99:
 1159 001c 00000000 		.word	.LANCHOR0
 1160              		.cfi_endproc
 1161              	.LFE599:
 1162              		.size	xTimerGetTimerDaemonTaskHandle, .-xTimerGetTimerDaemonTaskHandle
 1163              		.section	.text.xTimerGetPeriod,"ax",%progbits
 1164              		.align	2
 1165              		.global	xTimerGetPeriod
 1166              		.thumb
 1167              		.thumb_func
 1168              		.type	xTimerGetPeriod, %function
 1169              	xTimerGetPeriod:
 1170              	.LFB600:
 434:Generated_Source\PSoC6\pdl\rtos\FreeRTOS\10.0.1\Source/timers.c **** Timer_t *pxTimer = ( Timer_t * ) xTimer;
 1171              		.loc 1 434 0
 1172              		.cfi_startproc
 1173              		@ args = 0, pretend = 0, frame = 0
 1174              		@ frame_needed = 0, uses_anonymous_args = 0
 1175              		@ link register save eliminated.
 1176              	.LVL125:
 437:Generated_Source\PSoC6\pdl\rtos\FreeRTOS\10.0.1\Source/timers.c **** 	return pxTimer->xTimerPeriodInTicks;
 1177              		.loc 1 437 0
 1178 0000 40B9     		cbnz	r0, .L102
ARM GAS  C:\Users\kateb\AppData\Local\Temp\ccjwfWYs.s 			page 43


 1179              	.LBB46:
 1180              	.LBB47:
 1181              		.loc 2 156 0
 1182              		.syntax unified
 1183              	@ 156 "Generated_Source\PSoC6\pdl\rtos/FreeRTOS/10.0.1/Source/portable/GCC/CM4F/portmacro.h" 1
 1184 0002 4FF02F03 			mov r3, #47												
 1185 0006 83F31188 		msr basepri, r3											
 1186 000a BFF36F8F 		isb														
 1187 000e BFF34F8F 		dsb														
 1188              	
 1189              	@ 0 "" 2
 1190              	.LVL126:
 1191              		.thumb
 1192              		.syntax unified
 1193              	.L103:
 1194 0012 FEE7     		b	.L103
 1195              	.L102:
 1196              	.LBE47:
 1197              	.LBE46:
 439:Generated_Source\PSoC6\pdl\rtos\FreeRTOS\10.0.1\Source/timers.c **** /*-----------------------------------------------------------*/
 1198              		.loc 1 439 0
 1199 0014 8069     		ldr	r0, [r0, #24]
 1200              	.LVL127:
 1201 0016 7047     		bx	lr
 1202              		.cfi_endproc
 1203              	.LFE600:
 1204              		.size	xTimerGetPeriod, .-xTimerGetPeriod
 1205              		.section	.text.xTimerGetExpiryTime,"ax",%progbits
 1206              		.align	2
 1207              		.global	xTimerGetExpiryTime
 1208              		.thumb
 1209              		.thumb_func
 1210              		.type	xTimerGetExpiryTime, %function
 1211              	xTimerGetExpiryTime:
 1212              	.LFB601:
 443:Generated_Source\PSoC6\pdl\rtos\FreeRTOS\10.0.1\Source/timers.c **** Timer_t * pxTimer = ( Timer_t * ) xTimer;
 1213              		.loc 1 443 0
 1214              		.cfi_startproc
 1215              		@ args = 0, pretend = 0, frame = 0
 1216              		@ frame_needed = 0, uses_anonymous_args = 0
 1217              		@ link register save eliminated.
 1218              	.LVL128:
 447:Generated_Source\PSoC6\pdl\rtos\FreeRTOS\10.0.1\Source/timers.c **** 	xReturn = listGET_LIST_ITEM_VALUE( &( pxTimer->xTimerListItem ) );
 1219              		.loc 1 447 0
 1220 0000 40B9     		cbnz	r0, .L105
 1221              	.LBB48:
 1222              	.LBB49:
 1223              		.loc 2 156 0
 1224              		.syntax unified
 1225              	@ 156 "Generated_Source\PSoC6\pdl\rtos/FreeRTOS/10.0.1/Source/portable/GCC/CM4F/portmacro.h" 1
 1226 0002 4FF02F03 			mov r3, #47												
 1227 0006 83F31188 		msr basepri, r3											
 1228 000a BFF36F8F 		isb														
 1229 000e BFF34F8F 		dsb														
 1230              	
 1231              	@ 0 "" 2
 1232              	.LVL129:
ARM GAS  C:\Users\kateb\AppData\Local\Temp\ccjwfWYs.s 			page 44


 1233              		.thumb
 1234              		.syntax unified
 1235              	.L106:
 1236 0012 FEE7     		b	.L106
 1237              	.L105:
 1238              	.LVL130:
 1239              	.LBE49:
 1240              	.LBE48:
 450:Generated_Source\PSoC6\pdl\rtos\FreeRTOS\10.0.1\Source/timers.c **** /*-----------------------------------------------------------*/
 1241              		.loc 1 450 0
 1242 0014 4068     		ldr	r0, [r0, #4]
 1243              	.LVL131:
 1244 0016 7047     		bx	lr
 1245              		.cfi_endproc
 1246              	.LFE601:
 1247              		.size	xTimerGetExpiryTime, .-xTimerGetExpiryTime
 1248              		.section	.text.pcTimerGetName,"ax",%progbits
 1249              		.align	2
 1250              		.global	pcTimerGetName
 1251              		.thumb
 1252              		.thumb_func
 1253              		.type	pcTimerGetName, %function
 1254              	pcTimerGetName:
 1255              	.LFB602:
 454:Generated_Source\PSoC6\pdl\rtos\FreeRTOS\10.0.1\Source/timers.c **** Timer_t *pxTimer = ( Timer_t * ) xTimer;
 1256              		.loc 1 454 0
 1257              		.cfi_startproc
 1258              		@ args = 0, pretend = 0, frame = 0
 1259              		@ frame_needed = 0, uses_anonymous_args = 0
 1260              		@ link register save eliminated.
 1261              	.LVL132:
 457:Generated_Source\PSoC6\pdl\rtos\FreeRTOS\10.0.1\Source/timers.c **** 	return pxTimer->pcTimerName;
 1262              		.loc 1 457 0
 1263 0000 40B9     		cbnz	r0, .L108
 1264              	.LBB50:
 1265              	.LBB51:
 1266              		.loc 2 156 0
 1267              		.syntax unified
 1268              	@ 156 "Generated_Source\PSoC6\pdl\rtos/FreeRTOS/10.0.1/Source/portable/GCC/CM4F/portmacro.h" 1
 1269 0002 4FF02F03 			mov r3, #47												
 1270 0006 83F31188 		msr basepri, r3											
 1271 000a BFF36F8F 		isb														
 1272 000e BFF34F8F 		dsb														
 1273              	
 1274              	@ 0 "" 2
 1275              	.LVL133:
 1276              		.thumb
 1277              		.syntax unified
 1278              	.L109:
 1279 0012 FEE7     		b	.L109
 1280              	.L108:
 1281              	.LBE51:
 1282              	.LBE50:
 459:Generated_Source\PSoC6\pdl\rtos\FreeRTOS\10.0.1\Source/timers.c **** /*-----------------------------------------------------------*/
 1283              		.loc 1 459 0
 1284 0014 0068     		ldr	r0, [r0]
 1285              	.LVL134:
ARM GAS  C:\Users\kateb\AppData\Local\Temp\ccjwfWYs.s 			page 45


 1286 0016 7047     		bx	lr
 1287              		.cfi_endproc
 1288              	.LFE602:
 1289              		.size	pcTimerGetName, .-pcTimerGetName
 1290              		.section	.text.xTimerIsTimerActive,"ax",%progbits
 1291              		.align	2
 1292              		.global	xTimerIsTimerActive
 1293              		.thumb
 1294              		.thumb_func
 1295              		.type	xTimerIsTimerActive, %function
 1296              	xTimerIsTimerActive:
 1297              	.LFB612:
 942:Generated_Source\PSoC6\pdl\rtos\FreeRTOS\10.0.1\Source/timers.c **** }
 943:Generated_Source\PSoC6\pdl\rtos\FreeRTOS\10.0.1\Source/timers.c **** /*-----------------------------------------------------------*/
 944:Generated_Source\PSoC6\pdl\rtos\FreeRTOS\10.0.1\Source/timers.c **** 
 945:Generated_Source\PSoC6\pdl\rtos\FreeRTOS\10.0.1\Source/timers.c **** BaseType_t xTimerIsTimerActive( TimerHandle_t xTimer )
 946:Generated_Source\PSoC6\pdl\rtos\FreeRTOS\10.0.1\Source/timers.c **** {
 1298              		.loc 1 946 0
 1299              		.cfi_startproc
 1300              		@ args = 0, pretend = 0, frame = 0
 1301              		@ frame_needed = 0, uses_anonymous_args = 0
 1302              	.LVL135:
 947:Generated_Source\PSoC6\pdl\rtos\FreeRTOS\10.0.1\Source/timers.c **** BaseType_t xTimerIsInActiveList;
 948:Generated_Source\PSoC6\pdl\rtos\FreeRTOS\10.0.1\Source/timers.c **** Timer_t *pxTimer = ( Timer_t * ) xTimer;
 949:Generated_Source\PSoC6\pdl\rtos\FreeRTOS\10.0.1\Source/timers.c **** 
 950:Generated_Source\PSoC6\pdl\rtos\FreeRTOS\10.0.1\Source/timers.c **** 	configASSERT( xTimer );
 1303              		.loc 1 950 0
 1304 0000 40B9     		cbnz	r0, .L111
 1305              	.LBB52:
 1306              	.LBB53:
 1307              		.loc 2 156 0
 1308              		.syntax unified
 1309              	@ 156 "Generated_Source\PSoC6\pdl\rtos/FreeRTOS/10.0.1/Source/portable/GCC/CM4F/portmacro.h" 1
 1310 0002 4FF02F03 			mov r3, #47												
 1311 0006 83F31188 		msr basepri, r3											
 1312 000a BFF36F8F 		isb														
 1313 000e BFF34F8F 		dsb														
 1314              	
 1315              	@ 0 "" 2
 1316              	.LVL136:
 1317              		.thumb
 1318              		.syntax unified
 1319              	.L112:
 1320 0012 FEE7     		b	.L112
 1321              	.L111:
 1322              	.LBE53:
 1323              	.LBE52:
 946:Generated_Source\PSoC6\pdl\rtos\FreeRTOS\10.0.1\Source/timers.c **** BaseType_t xTimerIsInActiveList;
 1324              		.loc 1 946 0
 1325 0014 10B5     		push	{r4, lr}
 1326              		.cfi_def_cfa_offset 8
 1327              		.cfi_offset 4, -8
 1328              		.cfi_offset 14, -4
 1329 0016 0446     		mov	r4, r0
 951:Generated_Source\PSoC6\pdl\rtos\FreeRTOS\10.0.1\Source/timers.c **** 
 952:Generated_Source\PSoC6\pdl\rtos\FreeRTOS\10.0.1\Source/timers.c **** 	/* Is the timer in the list of active timers? */
 953:Generated_Source\PSoC6\pdl\rtos\FreeRTOS\10.0.1\Source/timers.c **** 	taskENTER_CRITICAL();
ARM GAS  C:\Users\kateb\AppData\Local\Temp\ccjwfWYs.s 			page 46


 1330              		.loc 1 953 0
 1331 0018 FFF7FEFF 		bl	vPortEnterCritical
 1332              	.LVL137:
 954:Generated_Source\PSoC6\pdl\rtos\FreeRTOS\10.0.1\Source/timers.c **** 	{
 955:Generated_Source\PSoC6\pdl\rtos\FreeRTOS\10.0.1\Source/timers.c **** 		/* Checking to see if it is in the NULL list in effect checks to see if
 956:Generated_Source\PSoC6\pdl\rtos\FreeRTOS\10.0.1\Source/timers.c **** 		it is referenced from either the current or the overflow timer lists in
 957:Generated_Source\PSoC6\pdl\rtos\FreeRTOS\10.0.1\Source/timers.c **** 		one go, but the logic has to be reversed, hence the '!'. */
 958:Generated_Source\PSoC6\pdl\rtos\FreeRTOS\10.0.1\Source/timers.c **** 		xTimerIsInActiveList = ( BaseType_t ) !( listIS_CONTAINED_WITHIN( NULL, &( pxTimer->xTimerListIte
 1333              		.loc 1 958 0
 1334 001c 6469     		ldr	r4, [r4, #20]
 1335              	.LVL138:
 1336 001e 0034     		adds	r4, r4, #0
 1337 0020 18BF     		it	ne
 1338 0022 0124     		movne	r4, #1
 1339              	.LVL139:
 959:Generated_Source\PSoC6\pdl\rtos\FreeRTOS\10.0.1\Source/timers.c **** 	}
 960:Generated_Source\PSoC6\pdl\rtos\FreeRTOS\10.0.1\Source/timers.c **** 	taskEXIT_CRITICAL();
 1340              		.loc 1 960 0
 1341 0024 FFF7FEFF 		bl	vPortExitCritical
 1342              	.LVL140:
 961:Generated_Source\PSoC6\pdl\rtos\FreeRTOS\10.0.1\Source/timers.c **** 
 962:Generated_Source\PSoC6\pdl\rtos\FreeRTOS\10.0.1\Source/timers.c **** 	return xTimerIsInActiveList;
 963:Generated_Source\PSoC6\pdl\rtos\FreeRTOS\10.0.1\Source/timers.c **** } /*lint !e818 Can't be pointer to const due to the typedef. */
 1343              		.loc 1 963 0
 1344 0028 2046     		mov	r0, r4
 1345 002a 10BD     		pop	{r4, pc}
 1346              		.cfi_endproc
 1347              	.LFE612:
 1348              		.size	xTimerIsTimerActive, .-xTimerIsTimerActive
 1349              		.section	.text.pvTimerGetTimerID,"ax",%progbits
 1350              		.align	2
 1351              		.global	pvTimerGetTimerID
 1352              		.thumb
 1353              		.thumb_func
 1354              		.type	pvTimerGetTimerID, %function
 1355              	pvTimerGetTimerID:
 1356              	.LFB613:
 964:Generated_Source\PSoC6\pdl\rtos\FreeRTOS\10.0.1\Source/timers.c **** /*-----------------------------------------------------------*/
 965:Generated_Source\PSoC6\pdl\rtos\FreeRTOS\10.0.1\Source/timers.c **** 
 966:Generated_Source\PSoC6\pdl\rtos\FreeRTOS\10.0.1\Source/timers.c **** void *pvTimerGetTimerID( const TimerHandle_t xTimer )
 967:Generated_Source\PSoC6\pdl\rtos\FreeRTOS\10.0.1\Source/timers.c **** {
 1357              		.loc 1 967 0
 1358              		.cfi_startproc
 1359              		@ args = 0, pretend = 0, frame = 0
 1360              		@ frame_needed = 0, uses_anonymous_args = 0
 1361              	.LVL141:
 968:Generated_Source\PSoC6\pdl\rtos\FreeRTOS\10.0.1\Source/timers.c **** Timer_t * const pxTimer = ( Timer_t * ) xTimer;
 969:Generated_Source\PSoC6\pdl\rtos\FreeRTOS\10.0.1\Source/timers.c **** void *pvReturn;
 970:Generated_Source\PSoC6\pdl\rtos\FreeRTOS\10.0.1\Source/timers.c **** 
 971:Generated_Source\PSoC6\pdl\rtos\FreeRTOS\10.0.1\Source/timers.c **** 	configASSERT( xTimer );
 1362              		.loc 1 971 0
 1363 0000 40B9     		cbnz	r0, .L115
 1364              	.LBB54:
 1365              	.LBB55:
 1366              		.loc 2 156 0
 1367              		.syntax unified
 1368              	@ 156 "Generated_Source\PSoC6\pdl\rtos/FreeRTOS/10.0.1/Source/portable/GCC/CM4F/portmacro.h" 1
ARM GAS  C:\Users\kateb\AppData\Local\Temp\ccjwfWYs.s 			page 47


 1369 0002 4FF02F03 			mov r3, #47												
 1370 0006 83F31188 		msr basepri, r3											
 1371 000a BFF36F8F 		isb														
 1372 000e BFF34F8F 		dsb														
 1373              	
 1374              	@ 0 "" 2
 1375              	.LVL142:
 1376              		.thumb
 1377              		.syntax unified
 1378              	.L116:
 1379 0012 FEE7     		b	.L116
 1380              	.L115:
 1381              	.LBE55:
 1382              	.LBE54:
 967:Generated_Source\PSoC6\pdl\rtos\FreeRTOS\10.0.1\Source/timers.c **** Timer_t * const pxTimer = ( Timer_t * ) xTimer;
 1383              		.loc 1 967 0
 1384 0014 10B5     		push	{r4, lr}
 1385              		.cfi_def_cfa_offset 8
 1386              		.cfi_offset 4, -8
 1387              		.cfi_offset 14, -4
 1388 0016 0446     		mov	r4, r0
 972:Generated_Source\PSoC6\pdl\rtos\FreeRTOS\10.0.1\Source/timers.c **** 
 973:Generated_Source\PSoC6\pdl\rtos\FreeRTOS\10.0.1\Source/timers.c **** 	taskENTER_CRITICAL();
 1389              		.loc 1 973 0
 1390 0018 FFF7FEFF 		bl	vPortEnterCritical
 1391              	.LVL143:
 974:Generated_Source\PSoC6\pdl\rtos\FreeRTOS\10.0.1\Source/timers.c **** 	{
 975:Generated_Source\PSoC6\pdl\rtos\FreeRTOS\10.0.1\Source/timers.c **** 		pvReturn = pxTimer->pvTimerID;
 1392              		.loc 1 975 0
 1393 001c 246A     		ldr	r4, [r4, #32]
 1394              	.LVL144:
 976:Generated_Source\PSoC6\pdl\rtos\FreeRTOS\10.0.1\Source/timers.c **** 	}
 977:Generated_Source\PSoC6\pdl\rtos\FreeRTOS\10.0.1\Source/timers.c **** 	taskEXIT_CRITICAL();
 1395              		.loc 1 977 0
 1396 001e FFF7FEFF 		bl	vPortExitCritical
 1397              	.LVL145:
 978:Generated_Source\PSoC6\pdl\rtos\FreeRTOS\10.0.1\Source/timers.c **** 
 979:Generated_Source\PSoC6\pdl\rtos\FreeRTOS\10.0.1\Source/timers.c **** 	return pvReturn;
 980:Generated_Source\PSoC6\pdl\rtos\FreeRTOS\10.0.1\Source/timers.c **** }
 1398              		.loc 1 980 0
 1399 0022 2046     		mov	r0, r4
 1400 0024 10BD     		pop	{r4, pc}
 1401              		.cfi_endproc
 1402              	.LFE613:
 1403              		.size	pvTimerGetTimerID, .-pvTimerGetTimerID
 1404 0026 00BF     		.section	.text.vTimerSetTimerID,"ax",%progbits
 1405              		.align	2
 1406              		.global	vTimerSetTimerID
 1407              		.thumb
 1408              		.thumb_func
 1409              		.type	vTimerSetTimerID, %function
 1410              	vTimerSetTimerID:
 1411              	.LFB614:
 981:Generated_Source\PSoC6\pdl\rtos\FreeRTOS\10.0.1\Source/timers.c **** /*-----------------------------------------------------------*/
 982:Generated_Source\PSoC6\pdl\rtos\FreeRTOS\10.0.1\Source/timers.c **** 
 983:Generated_Source\PSoC6\pdl\rtos\FreeRTOS\10.0.1\Source/timers.c **** void vTimerSetTimerID( TimerHandle_t xTimer, void *pvNewID )
 984:Generated_Source\PSoC6\pdl\rtos\FreeRTOS\10.0.1\Source/timers.c **** {
ARM GAS  C:\Users\kateb\AppData\Local\Temp\ccjwfWYs.s 			page 48


 1412              		.loc 1 984 0
 1413              		.cfi_startproc
 1414              		@ args = 0, pretend = 0, frame = 0
 1415              		@ frame_needed = 0, uses_anonymous_args = 0
 1416              	.LVL146:
 1417 0000 38B5     		push	{r3, r4, r5, lr}
 1418              		.cfi_def_cfa_offset 16
 1419              		.cfi_offset 3, -16
 1420              		.cfi_offset 4, -12
 1421              		.cfi_offset 5, -8
 1422              		.cfi_offset 14, -4
 1423              	.LVL147:
 985:Generated_Source\PSoC6\pdl\rtos\FreeRTOS\10.0.1\Source/timers.c **** Timer_t * const pxTimer = ( Timer_t * ) xTimer;
 986:Generated_Source\PSoC6\pdl\rtos\FreeRTOS\10.0.1\Source/timers.c **** 
 987:Generated_Source\PSoC6\pdl\rtos\FreeRTOS\10.0.1\Source/timers.c **** 	configASSERT( xTimer );
 1424              		.loc 1 987 0
 1425 0002 40B9     		cbnz	r0, .L119
 1426              	.LBB56:
 1427              	.LBB57:
 1428              		.loc 2 156 0
 1429              		.syntax unified
 1430              	@ 156 "Generated_Source\PSoC6\pdl\rtos/FreeRTOS/10.0.1/Source/portable/GCC/CM4F/portmacro.h" 1
 1431 0004 4FF02F03 			mov r3, #47												
 1432 0008 83F31188 		msr basepri, r3											
 1433 000c BFF36F8F 		isb														
 1434 0010 BFF34F8F 		dsb														
 1435              	
 1436              	@ 0 "" 2
 1437              	.LVL148:
 1438              		.thumb
 1439              		.syntax unified
 1440              	.L120:
 1441 0014 FEE7     		b	.L120
 1442              	.L119:
 1443 0016 0446     		mov	r4, r0
 1444 0018 0D46     		mov	r5, r1
 1445              	.LBE57:
 1446              	.LBE56:
 988:Generated_Source\PSoC6\pdl\rtos\FreeRTOS\10.0.1\Source/timers.c **** 
 989:Generated_Source\PSoC6\pdl\rtos\FreeRTOS\10.0.1\Source/timers.c **** 	taskENTER_CRITICAL();
 1447              		.loc 1 989 0
 1448 001a FFF7FEFF 		bl	vPortEnterCritical
 1449              	.LVL149:
 990:Generated_Source\PSoC6\pdl\rtos\FreeRTOS\10.0.1\Source/timers.c **** 	{
 991:Generated_Source\PSoC6\pdl\rtos\FreeRTOS\10.0.1\Source/timers.c **** 		pxTimer->pvTimerID = pvNewID;
 1450              		.loc 1 991 0
 1451 001e 2562     		str	r5, [r4, #32]
 992:Generated_Source\PSoC6\pdl\rtos\FreeRTOS\10.0.1\Source/timers.c **** 	}
 993:Generated_Source\PSoC6\pdl\rtos\FreeRTOS\10.0.1\Source/timers.c **** 	taskEXIT_CRITICAL();
 1452              		.loc 1 993 0
 1453 0020 FFF7FEFF 		bl	vPortExitCritical
 1454              	.LVL150:
 1455 0024 38BD     		pop	{r3, r4, r5, pc}
 1456              		.cfi_endproc
 1457              	.LFE614:
 1458              		.size	vTimerSetTimerID, .-vTimerSetTimerID
 1459 0026 00BF     		.section	.rodata.str1.4,"aMS",%progbits,1
ARM GAS  C:\Users\kateb\AppData\Local\Temp\ccjwfWYs.s 			page 49


 1460              		.align	2
 1461              	.LC0:
 1462 0000 546D7251 		.ascii	"TmrQ\000"
 1462      00
 1463 0005 000000   		.space	3
 1464              	.LC1:
 1465 0008 546D7220 		.ascii	"Tmr Svc\000"
 1465      53766300 
 1466              		.bss
 1467              		.align	2
 1468              		.set	.LANCHOR0,. + 0
 1469              		.type	pxCurrentTimerList, %object
 1470              		.size	pxCurrentTimerList, 4
 1471              	pxCurrentTimerList:
 1472 0000 00000000 		.space	4
 1473              		.type	pxOverflowTimerList, %object
 1474              		.size	pxOverflowTimerList, 4
 1475              	pxOverflowTimerList:
 1476 0004 00000000 		.space	4
 1477              		.type	xTimerQueue, %object
 1478              		.size	xTimerQueue, 4
 1479              	xTimerQueue:
 1480 0008 00000000 		.space	4
 1481              		.type	xActiveTimerList1, %object
 1482              		.size	xActiveTimerList1, 20
 1483              	xActiveTimerList1:
 1484 000c 00000000 		.space	20
 1484      00000000 
 1484      00000000 
 1484      00000000 
 1484      00000000 
 1485              		.type	xActiveTimerList2, %object
 1486              		.size	xActiveTimerList2, 20
 1487              	xActiveTimerList2:
 1488 0020 00000000 		.space	20
 1488      00000000 
 1488      00000000 
 1488      00000000 
 1488      00000000 
 1489              		.type	xTimerTaskHandle, %object
 1490              		.size	xTimerTaskHandle, 4
 1491              	xTimerTaskHandle:
 1492 0034 00000000 		.space	4
 1493              		.type	xLastTime.18694, %object
 1494              		.size	xLastTime.18694, 4
 1495              	xLastTime.18694:
 1496 0038 00000000 		.space	4
 1497              		.text
 1498              	.Letext0:
 1499              		.file 3 "c:\\program files (x86)\\cypress\\psoc creator\\4.2\\psoc creator\\import\\gnu\\arm\\5.4.
 1500              		.file 4 "c:\\program files (x86)\\cypress\\psoc creator\\4.2\\psoc creator\\import\\gnu\\arm\\5.4.
 1501              		.file 5 "Generated_Source\\PSoC6\\pdl\\drivers/peripheral/rtc/cy_rtc.h"
 1502              		.file 6 "Generated_Source\\PSoC6\\pdl\\drivers/peripheral/scb/cy_scb_spi.h"
 1503              		.file 7 "Generated_Source\\PSoC6\\pdl\\drivers/peripheral/scb/cy_scb_uart.h"
 1504              		.file 8 "Generated_Source\\PSoC6\\pdl\\drivers/peripheral/sar/cy_sar.h"
 1505              		.file 9 "Generated_Source\\PSoC6\\pdl\\middleware/ble/cy_ble_stack.h"
 1506              		.file 10 "Generated_Source\\PSoC6\\pdl\\middleware/ble/cy_ble_stack_host_main.h"
ARM GAS  C:\Users\kateb\AppData\Local\Temp\ccjwfWYs.s 			page 50


 1507              		.file 11 "Generated_Source\\PSoC6\\pdl\\middleware/ble/cy_ble_gap.h"
 1508              		.file 12 "Generated_Source\\PSoC6\\pdl\\middleware/ble/cy_ble_cts.h"
 1509              		.file 13 "Generated_Source\\PSoC6\\pdl\\middleware/ble/cy_ble_event_handler.h"
 1510              		.file 14 "Generated_Source\\PSoC6/ADC.h"
 1511              		.file 15 "Generated_Source\\PSoC6\\pdl\\rtos/FreeRTOS/10.0.1/Source/include/list.h"
 1512              		.file 16 "Generated_Source\\PSoC6\\pdl\\rtos/FreeRTOS/10.0.1/Source/include/task.h"
 1513              		.file 17 "Generated_Source\\PSoC6\\pdl\\rtos/FreeRTOS/10.0.1/Source/include/queue.h"
 1514              		.file 18 "Generated_Source\\PSoC6\\pdl\\rtos/FreeRTOS/10.0.1/Source/include/timers.h"
 1515              		.file 19 "Generated_Source\\PSoC6\\pdl\\cmsis/include/core_cm4.h"
 1516              		.file 20 "Generated_Source\\PSoC6/DEBUG_UART.h"
 1517              		.file 21 "Generated_Source\\PSoC6/RTC.h"
 1518              		.file 22 "Generated_Source\\PSoC6/CY_EINK_SPIM.h"
 1519              		.file 23 "Generated_Source\\PSoC6\\pdl\\rtos/FreeRTOS/10.0.1/Source/include/portable.h"
 1520              		.section	.debug_info,"",%progbits
 1521              	.Ldebug_info0:
 1522 0000 4E190000 		.4byte	0x194e
 1523 0004 0400     		.2byte	0x4
 1524 0006 00000000 		.4byte	.Ldebug_abbrev0
 1525 000a 04       		.byte	0x4
 1526 000b 01       		.uleb128 0x1
 1527 000c F1040000 		.4byte	.LASF342
 1528 0010 0C       		.byte	0xc
 1529 0011 38140000 		.4byte	.LASF343
 1530 0015 381C0000 		.4byte	.LASF344
 1531 0019 00000000 		.4byte	.Ldebug_ranges0+0
 1532 001d 00000000 		.4byte	0
 1533 0021 00000000 		.4byte	.Ldebug_line0
 1534 0025 02       		.uleb128 0x2
 1535 0026 04       		.byte	0x4
 1536 0027 07       		.byte	0x7
 1537 0028 F9020000 		.4byte	.LASF0
 1538 002c 03       		.uleb128 0x3
 1539 002d 04       		.byte	0x4
 1540 002e 05       		.byte	0x5
 1541 002f 696E7400 		.ascii	"int\000"
 1542 0033 02       		.uleb128 0x2
 1543 0034 08       		.byte	0x8
 1544 0035 05       		.byte	0x5
 1545 0036 AE100000 		.4byte	.LASF1
 1546 003a 02       		.uleb128 0x2
 1547 003b 08       		.byte	0x8
 1548 003c 04       		.byte	0x4
 1549 003d 2C140000 		.4byte	.LASF2
 1550 0041 02       		.uleb128 0x2
 1551 0042 01       		.byte	0x1
 1552 0043 06       		.byte	0x6
 1553 0044 FF1C0000 		.4byte	.LASF3
 1554 0048 04       		.uleb128 0x4
 1555 0049 93180000 		.4byte	.LASF7
 1556 004d 03       		.byte	0x3
 1557 004e 1D       		.byte	0x1d
 1558 004f 53000000 		.4byte	0x53
 1559 0053 02       		.uleb128 0x2
 1560 0054 01       		.byte	0x1
 1561 0055 08       		.byte	0x8
 1562 0056 611A0000 		.4byte	.LASF4
 1563 005a 02       		.uleb128 0x2
ARM GAS  C:\Users\kateb\AppData\Local\Temp\ccjwfWYs.s 			page 51


 1564 005b 02       		.byte	0x2
 1565 005c 05       		.byte	0x5
 1566 005d 88160000 		.4byte	.LASF5
 1567 0061 02       		.uleb128 0x2
 1568 0062 02       		.byte	0x2
 1569 0063 07       		.byte	0x7
 1570 0064 0B1D0000 		.4byte	.LASF6
 1571 0068 04       		.uleb128 0x4
 1572 0069 67030000 		.4byte	.LASF8
 1573 006d 03       		.byte	0x3
 1574 006e 3F       		.byte	0x3f
 1575 006f 73000000 		.4byte	0x73
 1576 0073 02       		.uleb128 0x2
 1577 0074 04       		.byte	0x4
 1578 0075 05       		.byte	0x5
 1579 0076 25000000 		.4byte	.LASF9
 1580 007a 04       		.uleb128 0x4
 1581 007b A21A0000 		.4byte	.LASF10
 1582 007f 03       		.byte	0x3
 1583 0080 41       		.byte	0x41
 1584 0081 85000000 		.4byte	0x85
 1585 0085 02       		.uleb128 0x2
 1586 0086 04       		.byte	0x4
 1587 0087 07       		.byte	0x7
 1588 0088 BB190000 		.4byte	.LASF11
 1589 008c 02       		.uleb128 0x2
 1590 008d 08       		.byte	0x8
 1591 008e 07       		.byte	0x7
 1592 008f B2080000 		.4byte	.LASF12
 1593 0093 02       		.uleb128 0x2
 1594 0094 04       		.byte	0x4
 1595 0095 07       		.byte	0x7
 1596 0096 B2190000 		.4byte	.LASF13
 1597 009a 05       		.uleb128 0x5
 1598 009b 04       		.byte	0x4
 1599 009c 02       		.uleb128 0x2
 1600 009d 01       		.byte	0x1
 1601 009e 08       		.byte	0x8
 1602 009f 890D0000 		.4byte	.LASF14
 1603 00a3 06       		.uleb128 0x6
 1604 00a4 04       		.byte	0x4
 1605 00a5 A9000000 		.4byte	0xa9
 1606 00a9 07       		.uleb128 0x7
 1607 00aa 9C000000 		.4byte	0x9c
 1608 00ae 04       		.uleb128 0x4
 1609 00af 340F0000 		.4byte	.LASF15
 1610 00b3 04       		.byte	0x4
 1611 00b4 18       		.byte	0x18
 1612 00b5 48000000 		.4byte	0x48
 1613 00b9 04       		.uleb128 0x4
 1614 00ba F2190000 		.4byte	.LASF16
 1615 00be 04       		.byte	0x4
 1616 00bf 2C       		.byte	0x2c
 1617 00c0 68000000 		.4byte	0x68
 1618 00c4 04       		.uleb128 0x4
 1619 00c5 E5060000 		.4byte	.LASF17
 1620 00c9 04       		.byte	0x4
ARM GAS  C:\Users\kateb\AppData\Local\Temp\ccjwfWYs.s 			page 52


 1621 00ca 30       		.byte	0x30
 1622 00cb 7A000000 		.4byte	0x7a
 1623 00cf 08       		.uleb128 0x8
 1624 00d0 C4000000 		.4byte	0xc4
 1625 00d4 02       		.uleb128 0x2
 1626 00d5 04       		.byte	0x4
 1627 00d6 04       		.byte	0x4
 1628 00d7 EC190000 		.4byte	.LASF18
 1629 00db 02       		.uleb128 0x2
 1630 00dc 08       		.byte	0x8
 1631 00dd 04       		.byte	0x4
 1632 00de C10A0000 		.4byte	.LASF19
 1633 00e2 02       		.uleb128 0x2
 1634 00e3 01       		.byte	0x1
 1635 00e4 02       		.byte	0x2
 1636 00e5 D80A0000 		.4byte	.LASF20
 1637 00e9 09       		.uleb128 0x9
 1638 00ea 01       		.byte	0x1
 1639 00eb 53000000 		.4byte	0x53
 1640 00ef 05       		.byte	0x5
 1641 00f0 6A01     		.2byte	0x16a
 1642 00f2 03010000 		.4byte	0x103
 1643 00f6 0A       		.uleb128 0xa
 1644 00f7 92160000 		.4byte	.LASF21
 1645 00fb 00       		.byte	0
 1646 00fc 0A       		.uleb128 0xa
 1647 00fd 82030000 		.4byte	.LASF22
 1648 0101 01       		.byte	0x1
 1649 0102 00       		.byte	0
 1650 0103 0B       		.uleb128 0xb
 1651 0104 47090000 		.4byte	.LASF23
 1652 0108 05       		.byte	0x5
 1653 0109 6D01     		.2byte	0x16d
 1654 010b E9000000 		.4byte	0xe9
 1655 010f 0C       		.uleb128 0xc
 1656 0110 18       		.byte	0x18
 1657 0111 05       		.byte	0x5
 1658 0112 CE01     		.2byte	0x1ce
 1659 0114 67010000 		.4byte	0x167
 1660 0118 0D       		.uleb128 0xd
 1661 0119 DE010000 		.4byte	.LASF24
 1662 011d 05       		.byte	0x5
 1663 011e D001     		.2byte	0x1d0
 1664 0120 03010000 		.4byte	0x103
 1665 0124 00       		.byte	0
 1666 0125 0D       		.uleb128 0xd
 1667 0126 980C0000 		.4byte	.LASF25
 1668 012a 05       		.byte	0x5
 1669 012b D301     		.2byte	0x1d3
 1670 012d C4000000 		.4byte	0xc4
 1671 0131 04       		.byte	0x4
 1672 0132 0D       		.uleb128 0xd
 1673 0133 CA020000 		.4byte	.LASF26
 1674 0137 05       		.byte	0x5
 1675 0138 D501     		.2byte	0x1d5
 1676 013a C4000000 		.4byte	0xc4
 1677 013e 08       		.byte	0x8
ARM GAS  C:\Users\kateb\AppData\Local\Temp\ccjwfWYs.s 			page 53


 1678 013f 0D       		.uleb128 0xd
 1679 0140 FB0A0000 		.4byte	.LASF27
 1680 0144 05       		.byte	0x5
 1681 0145 D801     		.2byte	0x1d8
 1682 0147 C4000000 		.4byte	0xc4
 1683 014b 0C       		.byte	0xc
 1684 014c 0D       		.uleb128 0xd
 1685 014d C6170000 		.4byte	.LASF28
 1686 0151 05       		.byte	0x5
 1687 0152 DC01     		.2byte	0x1dc
 1688 0154 C4000000 		.4byte	0xc4
 1689 0158 10       		.byte	0x10
 1690 0159 0D       		.uleb128 0xd
 1691 015a F50A0000 		.4byte	.LASF29
 1692 015e 05       		.byte	0x5
 1693 015f E001     		.2byte	0x1e0
 1694 0161 C4000000 		.4byte	0xc4
 1695 0165 14       		.byte	0x14
 1696 0166 00       		.byte	0
 1697 0167 0B       		.uleb128 0xb
 1698 0168 3A030000 		.4byte	.LASF30
 1699 016c 05       		.byte	0x5
 1700 016d E201     		.2byte	0x1e2
 1701 016f 0F010000 		.4byte	0x10f
 1702 0173 0C       		.uleb128 0xc
 1703 0174 30       		.byte	0x30
 1704 0175 05       		.byte	0x5
 1705 0176 E501     		.2byte	0x1e5
 1706 0178 97010000 		.4byte	0x197
 1707 017c 0D       		.uleb128 0xd
 1708 017d D20D0000 		.4byte	.LASF31
 1709 0181 05       		.byte	0x5
 1710 0182 E701     		.2byte	0x1e7
 1711 0184 67010000 		.4byte	0x167
 1712 0188 00       		.byte	0
 1713 0189 0D       		.uleb128 0xd
 1714 018a DE0A0000 		.4byte	.LASF32
 1715 018e 05       		.byte	0x5
 1716 018f E801     		.2byte	0x1e8
 1717 0191 67010000 		.4byte	0x167
 1718 0195 18       		.byte	0x18
 1719 0196 00       		.byte	0
 1720 0197 0B       		.uleb128 0xb
 1721 0198 71030000 		.4byte	.LASF33
 1722 019c 05       		.byte	0x5
 1723 019d E901     		.2byte	0x1e9
 1724 019f 73010000 		.4byte	0x173
 1725 01a3 06       		.uleb128 0x6
 1726 01a4 04       		.byte	0x4
 1727 01a5 A9010000 		.4byte	0x1a9
 1728 01a9 0E       		.uleb128 0xe
 1729 01aa B4010000 		.4byte	0x1b4
 1730 01ae 0F       		.uleb128 0xf
 1731 01af C4000000 		.4byte	0xc4
 1732 01b3 00       		.byte	0
 1733 01b4 0B       		.uleb128 0xb
 1734 01b5 A6000000 		.4byte	.LASF34
ARM GAS  C:\Users\kateb\AppData\Local\Temp\ccjwfWYs.s 			page 54


 1735 01b9 06       		.byte	0x6
 1736 01ba BF01     		.2byte	0x1bf
 1737 01bc A3010000 		.4byte	0x1a3
 1738 01c0 10       		.uleb128 0x10
 1739 01c1 48190000 		.4byte	.LASF46
 1740 01c5 24       		.byte	0x24
 1741 01c6 06       		.byte	0x6
 1742 01c7 4102     		.2byte	0x241
 1743 01c9 43020000 		.4byte	0x243
 1744 01cd 0D       		.uleb128 0xd
 1745 01ce 3C0F0000 		.4byte	.LASF35
 1746 01d2 06       		.byte	0x6
 1747 01d3 4402     		.2byte	0x244
 1748 01d5 CF000000 		.4byte	0xcf
 1749 01d9 00       		.byte	0
 1750 01da 0D       		.uleb128 0xd
 1751 01db 360A0000 		.4byte	.LASF36
 1752 01df 06       		.byte	0x6
 1753 01e0 4602     		.2byte	0x246
 1754 01e2 9A000000 		.4byte	0x9a
 1755 01e6 04       		.byte	0x4
 1756 01e7 0D       		.uleb128 0xd
 1757 01e8 ED1E0000 		.4byte	.LASF37
 1758 01ec 06       		.byte	0x6
 1759 01ed 4702     		.2byte	0x247
 1760 01ef C4000000 		.4byte	0xc4
 1761 01f3 08       		.byte	0x8
 1762 01f4 0D       		.uleb128 0xd
 1763 01f5 DF0E0000 		.4byte	.LASF38
 1764 01f9 06       		.byte	0x6
 1765 01fa 4802     		.2byte	0x248
 1766 01fc CF000000 		.4byte	0xcf
 1767 0200 0C       		.byte	0xc
 1768 0201 0D       		.uleb128 0xd
 1769 0202 C5130000 		.4byte	.LASF39
 1770 0206 06       		.byte	0x6
 1771 0207 4A02     		.2byte	0x24a
 1772 0209 9A000000 		.4byte	0x9a
 1773 020d 10       		.byte	0x10
 1774 020e 0D       		.uleb128 0xd
 1775 020f 55120000 		.4byte	.LASF40
 1776 0213 06       		.byte	0x6
 1777 0214 4B02     		.2byte	0x24b
 1778 0216 C4000000 		.4byte	0xc4
 1779 021a 14       		.byte	0x14
 1780 021b 0D       		.uleb128 0xd
 1781 021c 5E030000 		.4byte	.LASF41
 1782 0220 06       		.byte	0x6
 1783 0221 4C02     		.2byte	0x24c
 1784 0223 CF000000 		.4byte	0xcf
 1785 0227 18       		.byte	0x18
 1786 0228 0D       		.uleb128 0xd
 1787 0229 B80A0000 		.4byte	.LASF42
 1788 022d 06       		.byte	0x6
 1789 022e 5202     		.2byte	0x252
 1790 0230 B4010000 		.4byte	0x1b4
 1791 0234 1C       		.byte	0x1c
ARM GAS  C:\Users\kateb\AppData\Local\Temp\ccjwfWYs.s 			page 55


 1792 0235 0D       		.uleb128 0xd
 1793 0236 2C0F0000 		.4byte	.LASF43
 1794 023a 06       		.byte	0x6
 1795 023b 5502     		.2byte	0x255
 1796 023d C4000000 		.4byte	0xc4
 1797 0241 20       		.byte	0x20
 1798 0242 00       		.byte	0
 1799 0243 0B       		.uleb128 0xb
 1800 0244 A1110000 		.4byte	.LASF44
 1801 0248 06       		.byte	0x6
 1802 0249 5802     		.2byte	0x258
 1803 024b C0010000 		.4byte	0x1c0
 1804 024f 0B       		.uleb128 0xb
 1805 0250 FF000000 		.4byte	.LASF45
 1806 0254 07       		.byte	0x7
 1807 0255 AB01     		.2byte	0x1ab
 1808 0257 A3010000 		.4byte	0x1a3
 1809 025b 10       		.uleb128 0x10
 1810 025c 36080000 		.4byte	.LASF47
 1811 0260 38       		.byte	0x38
 1812 0261 07       		.byte	0x7
 1813 0262 4702     		.2byte	0x247
 1814 0264 1F030000 		.4byte	0x31f
 1815 0268 0D       		.uleb128 0xd
 1816 0269 12020000 		.4byte	.LASF48
 1817 026d 07       		.byte	0x7
 1818 026e 4A02     		.2byte	0x24a
 1819 0270 CF000000 		.4byte	0xcf
 1820 0274 00       		.byte	0
 1821 0275 0D       		.uleb128 0xd
 1822 0276 96060000 		.4byte	.LASF49
 1823 027a 07       		.byte	0x7
 1824 027b 4B02     		.2byte	0x24b
 1825 027d CF000000 		.4byte	0xcf
 1826 0281 04       		.byte	0x4
 1827 0282 0D       		.uleb128 0xd
 1828 0283 22140000 		.4byte	.LASF50
 1829 0287 07       		.byte	0x7
 1830 0288 4D02     		.2byte	0x24d
 1831 028a 9A000000 		.4byte	0x9a
 1832 028e 08       		.byte	0x8
 1833 028f 0D       		.uleb128 0xd
 1834 0290 1D040000 		.4byte	.LASF51
 1835 0294 07       		.byte	0x7
 1836 0295 4E02     		.2byte	0x24e
 1837 0297 C4000000 		.4byte	0xc4
 1838 029b 0C       		.byte	0xc
 1839 029c 0D       		.uleb128 0xd
 1840 029d BA110000 		.4byte	.LASF52
 1841 02a1 07       		.byte	0x7
 1842 02a2 4F02     		.2byte	0x24f
 1843 02a4 CF000000 		.4byte	0xcf
 1844 02a8 10       		.byte	0x10
 1845 02a9 0D       		.uleb128 0xd
 1846 02aa C40D0000 		.4byte	.LASF53
 1847 02ae 07       		.byte	0x7
 1848 02af 5002     		.2byte	0x250
ARM GAS  C:\Users\kateb\AppData\Local\Temp\ccjwfWYs.s 			page 56


 1849 02b1 CF000000 		.4byte	0xcf
 1850 02b5 14       		.byte	0x14
 1851 02b6 0D       		.uleb128 0xd
 1852 02b7 360A0000 		.4byte	.LASF36
 1853 02bb 07       		.byte	0x7
 1854 02bc 5202     		.2byte	0x252
 1855 02be 9A000000 		.4byte	0x9a
 1856 02c2 18       		.byte	0x18
 1857 02c3 0D       		.uleb128 0xd
 1858 02c4 ED1E0000 		.4byte	.LASF37
 1859 02c8 07       		.byte	0x7
 1860 02c9 5302     		.2byte	0x253
 1861 02cb C4000000 		.4byte	0xc4
 1862 02cf 1C       		.byte	0x1c
 1863 02d0 0D       		.uleb128 0xd
 1864 02d1 DF0E0000 		.4byte	.LASF38
 1865 02d5 07       		.byte	0x7
 1866 02d6 5402     		.2byte	0x254
 1867 02d8 CF000000 		.4byte	0xcf
 1868 02dc 20       		.byte	0x20
 1869 02dd 0D       		.uleb128 0xd
 1870 02de C5130000 		.4byte	.LASF39
 1871 02e2 07       		.byte	0x7
 1872 02e3 5602     		.2byte	0x256
 1873 02e5 9A000000 		.4byte	0x9a
 1874 02e9 24       		.byte	0x24
 1875 02ea 0D       		.uleb128 0xd
 1876 02eb 55120000 		.4byte	.LASF40
 1877 02ef 07       		.byte	0x7
 1878 02f0 5702     		.2byte	0x257
 1879 02f2 C4000000 		.4byte	0xc4
 1880 02f6 28       		.byte	0x28
 1881 02f7 0D       		.uleb128 0xd
 1882 02f8 FB170000 		.4byte	.LASF54
 1883 02fc 07       		.byte	0x7
 1884 02fd 5802     		.2byte	0x258
 1885 02ff CF000000 		.4byte	0xcf
 1886 0303 2C       		.byte	0x2c
 1887 0304 0D       		.uleb128 0xd
 1888 0305 B80A0000 		.4byte	.LASF42
 1889 0309 07       		.byte	0x7
 1890 030a 5D02     		.2byte	0x25d
 1891 030c 4F020000 		.4byte	0x24f
 1892 0310 30       		.byte	0x30
 1893 0311 0D       		.uleb128 0xd
 1894 0312 2C0F0000 		.4byte	.LASF43
 1895 0316 07       		.byte	0x7
 1896 0317 6002     		.2byte	0x260
 1897 0319 C4000000 		.4byte	0xc4
 1898 031d 34       		.byte	0x34
 1899 031e 00       		.byte	0
 1900 031f 0B       		.uleb128 0xb
 1901 0320 1C080000 		.4byte	.LASF55
 1902 0324 07       		.byte	0x7
 1903 0325 6302     		.2byte	0x263
 1904 0327 5B020000 		.4byte	0x25b
 1905 032b 09       		.uleb128 0x9
ARM GAS  C:\Users\kateb\AppData\Local\Temp\ccjwfWYs.s 			page 57


 1906 032c 01       		.byte	0x1
 1907 032d 53000000 		.4byte	0x53
 1908 0331 08       		.byte	0x8
 1909 0332 0504     		.2byte	0x405
 1910 0334 51030000 		.4byte	0x351
 1911 0338 0A       		.uleb128 0xa
 1912 0339 CB050000 		.4byte	.LASF56
 1913 033d 00       		.byte	0
 1914 033e 0A       		.uleb128 0xa
 1915 033f 1D0A0000 		.4byte	.LASF57
 1916 0343 01       		.byte	0x1
 1917 0344 0A       		.uleb128 0xa
 1918 0345 710D0000 		.4byte	.LASF58
 1919 0349 02       		.byte	0x2
 1920 034a 0A       		.uleb128 0xa
 1921 034b 20030000 		.4byte	.LASF59
 1922 034f 03       		.byte	0x3
 1923 0350 00       		.byte	0
 1924 0351 0B       		.uleb128 0xb
 1925 0352 D91D0000 		.4byte	.LASF60
 1926 0356 08       		.byte	0x8
 1927 0357 0A04     		.2byte	0x40a
 1928 0359 2B030000 		.4byte	0x32b
 1929 035d 0C       		.uleb128 0xc
 1930 035e 78       		.byte	0x78
 1931 035f 08       		.byte	0x8
 1932 0360 F404     		.2byte	0x4f4
 1933 0362 2A040000 		.4byte	0x42a
 1934 0366 0D       		.uleb128 0xd
 1935 0367 CA090000 		.4byte	.LASF61
 1936 036b 08       		.byte	0x8
 1937 036c F604     		.2byte	0x4f6
 1938 036e C4000000 		.4byte	0xc4
 1939 0372 00       		.byte	0
 1940 0373 0D       		.uleb128 0xd
 1941 0374 561A0000 		.4byte	.LASF62
 1942 0378 08       		.byte	0x8
 1943 0379 F704     		.2byte	0x4f7
 1944 037b C4000000 		.4byte	0xc4
 1945 037f 04       		.byte	0x4
 1946 0380 0D       		.uleb128 0xd
 1947 0381 97140000 		.4byte	.LASF63
 1948 0385 08       		.byte	0x8
 1949 0386 F804     		.2byte	0x4f8
 1950 0388 C4000000 		.4byte	0xc4
 1951 038c 08       		.byte	0x8
 1952 038d 0D       		.uleb128 0xd
 1953 038e 79190000 		.4byte	.LASF64
 1954 0392 08       		.byte	0x8
 1955 0393 F904     		.2byte	0x4f9
 1956 0395 C4000000 		.4byte	0xc4
 1957 0399 0C       		.byte	0xc
 1958 039a 0D       		.uleb128 0xd
 1959 039b 1D090000 		.4byte	.LASF65
 1960 039f 08       		.byte	0x8
 1961 03a0 FA04     		.2byte	0x4fa
 1962 03a2 C4000000 		.4byte	0xc4
ARM GAS  C:\Users\kateb\AppData\Local\Temp\ccjwfWYs.s 			page 58


 1963 03a6 10       		.byte	0x10
 1964 03a7 0D       		.uleb128 0xd
 1965 03a8 5F100000 		.4byte	.LASF66
 1966 03ac 08       		.byte	0x8
 1967 03ad FB04     		.2byte	0x4fb
 1968 03af 51030000 		.4byte	0x351
 1969 03b3 14       		.byte	0x14
 1970 03b4 0D       		.uleb128 0xd
 1971 03b5 BD0D0000 		.4byte	.LASF67
 1972 03b9 08       		.byte	0x8
 1973 03ba FC04     		.2byte	0x4fc
 1974 03bc C4000000 		.4byte	0xc4
 1975 03c0 18       		.byte	0x18
 1976 03c1 0D       		.uleb128 0xd
 1977 03c2 F8110000 		.4byte	.LASF68
 1978 03c6 08       		.byte	0x8
 1979 03c7 FD04     		.2byte	0x4fd
 1980 03c9 2A040000 		.4byte	0x42a
 1981 03cd 1C       		.byte	0x1c
 1982 03ce 0D       		.uleb128 0xd
 1983 03cf E41E0000 		.4byte	.LASF69
 1984 03d3 08       		.byte	0x8
 1985 03d4 FE04     		.2byte	0x4fe
 1986 03d6 C4000000 		.4byte	0xc4
 1987 03da 5C       		.byte	0x5c
 1988 03db 0D       		.uleb128 0xd
 1989 03dc 8C040000 		.4byte	.LASF70
 1990 03e0 08       		.byte	0x8
 1991 03e1 FF04     		.2byte	0x4ff
 1992 03e3 C4000000 		.4byte	0xc4
 1993 03e7 60       		.byte	0x60
 1994 03e8 0D       		.uleb128 0xd
 1995 03e9 CB1D0000 		.4byte	.LASF71
 1996 03ed 08       		.byte	0x8
 1997 03ee 0005     		.2byte	0x500
 1998 03f0 C4000000 		.4byte	0xc4
 1999 03f4 64       		.byte	0x64
 2000 03f5 0D       		.uleb128 0xd
 2001 03f6 20150000 		.4byte	.LASF72
 2002 03fa 08       		.byte	0x8
 2003 03fb 0105     		.2byte	0x501
 2004 03fd C4000000 		.4byte	0xc4
 2005 0401 68       		.byte	0x68
 2006 0402 0D       		.uleb128 0xd
 2007 0403 02100000 		.4byte	.LASF73
 2008 0407 08       		.byte	0x8
 2009 0408 0205     		.2byte	0x502
 2010 040a C4000000 		.4byte	0xc4
 2011 040e 6C       		.byte	0x6c
 2012 040f 0D       		.uleb128 0xd
 2013 0410 BD1D0000 		.4byte	.LASF74
 2014 0414 08       		.byte	0x8
 2015 0415 0305     		.2byte	0x503
 2016 0417 E2000000 		.4byte	0xe2
 2017 041b 70       		.byte	0x70
 2018 041c 0D       		.uleb128 0xd
 2019 041d BE0C0000 		.4byte	.LASF75
ARM GAS  C:\Users\kateb\AppData\Local\Temp\ccjwfWYs.s 			page 59


 2020 0421 08       		.byte	0x8
 2021 0422 0405     		.2byte	0x504
 2022 0424 C4000000 		.4byte	0xc4
 2023 0428 74       		.byte	0x74
 2024 0429 00       		.byte	0
 2025 042a 11       		.uleb128 0x11
 2026 042b C4000000 		.4byte	0xc4
 2027 042f 3A040000 		.4byte	0x43a
 2028 0433 12       		.uleb128 0x12
 2029 0434 93000000 		.4byte	0x93
 2030 0438 0F       		.byte	0xf
 2031 0439 00       		.byte	0
 2032 043a 0B       		.uleb128 0xb
 2033 043b B0090000 		.4byte	.LASF76
 2034 043f 08       		.byte	0x8
 2035 0440 0505     		.2byte	0x505
 2036 0442 5D030000 		.4byte	0x35d
 2037 0446 09       		.uleb128 0x9
 2038 0447 02       		.byte	0x2
 2039 0448 61000000 		.4byte	0x61
 2040 044c 09       		.byte	0x9
 2041 044d 4201     		.2byte	0x142
 2042 044f 7F070000 		.4byte	0x77f
 2043 0453 0A       		.uleb128 0xa
 2044 0454 09080000 		.4byte	.LASF77
 2045 0458 00       		.byte	0
 2046 0459 13       		.uleb128 0x13
 2047 045a 3E070000 		.4byte	.LASF78
 2048 045e 0010     		.2byte	0x1000
 2049 0460 13       		.uleb128 0x13
 2050 0461 8E190000 		.4byte	.LASF79
 2051 0465 0110     		.2byte	0x1001
 2052 0467 13       		.uleb128 0x13
 2053 0468 3A0C0000 		.4byte	.LASF80
 2054 046c 0210     		.2byte	0x1002
 2055 046e 13       		.uleb128 0x13
 2056 046f A40C0000 		.4byte	.LASF81
 2057 0473 0310     		.2byte	0x1003
 2058 0475 13       		.uleb128 0x13
 2059 0476 42010000 		.4byte	.LASF82
 2060 047a 0410     		.2byte	0x1004
 2061 047c 13       		.uleb128 0x13
 2062 047d FC1D0000 		.4byte	.LASF83
 2063 0481 0510     		.2byte	0x1005
 2064 0483 13       		.uleb128 0x13
 2065 0484 A4140000 		.4byte	.LASF84
 2066 0488 0020     		.2byte	0x2000
 2067 048a 13       		.uleb128 0x13
 2068 048b 36180000 		.4byte	.LASF85
 2069 048f 0120     		.2byte	0x2001
 2070 0491 13       		.uleb128 0x13
 2071 0492 4D000000 		.4byte	.LASF86
 2072 0496 0220     		.2byte	0x2002
 2073 0498 13       		.uleb128 0x13
 2074 0499 740C0000 		.4byte	.LASF87
 2075 049d 0320     		.2byte	0x2003
 2076 049f 13       		.uleb128 0x13
ARM GAS  C:\Users\kateb\AppData\Local\Temp\ccjwfWYs.s 			page 60


 2077 04a0 B90E0000 		.4byte	.LASF88
 2078 04a4 0420     		.2byte	0x2004
 2079 04a6 13       		.uleb128 0x13
 2080 04a7 510D0000 		.4byte	.LASF89
 2081 04ab 0520     		.2byte	0x2005
 2082 04ad 13       		.uleb128 0x13
 2083 04ae BE0B0000 		.4byte	.LASF90
 2084 04b2 0620     		.2byte	0x2006
 2085 04b4 13       		.uleb128 0x13
 2086 04b5 CF180000 		.4byte	.LASF91
 2087 04b9 0720     		.2byte	0x2007
 2088 04bb 13       		.uleb128 0x13
 2089 04bc 301B0000 		.4byte	.LASF92
 2090 04c0 0820     		.2byte	0x2008
 2091 04c2 13       		.uleb128 0x13
 2092 04c3 DA110000 		.4byte	.LASF93
 2093 04c7 0920     		.2byte	0x2009
 2094 04c9 13       		.uleb128 0x13
 2095 04ca DA070000 		.4byte	.LASF94
 2096 04ce 0A20     		.2byte	0x200a
 2097 04d0 13       		.uleb128 0x13
 2098 04d1 4E080000 		.4byte	.LASF95
 2099 04d5 0B20     		.2byte	0x200b
 2100 04d7 13       		.uleb128 0x13
 2101 04d8 78140000 		.4byte	.LASF96
 2102 04dc 0C20     		.2byte	0x200c
 2103 04de 13       		.uleb128 0x13
 2104 04df 0D070000 		.4byte	.LASF97
 2105 04e3 0D20     		.2byte	0x200d
 2106 04e5 13       		.uleb128 0x13
 2107 04e6 940E0000 		.4byte	.LASF98
 2108 04ea 0E20     		.2byte	0x200e
 2109 04ec 13       		.uleb128 0x13
 2110 04ed 9C150000 		.4byte	.LASF99
 2111 04f1 0F20     		.2byte	0x200f
 2112 04f3 13       		.uleb128 0x13
 2113 04f4 F0100000 		.4byte	.LASF100
 2114 04f8 1020     		.2byte	0x2010
 2115 04fa 13       		.uleb128 0x13
 2116 04fb 28120000 		.4byte	.LASF101
 2117 04ff 1120     		.2byte	0x2011
 2118 0501 13       		.uleb128 0x13
 2119 0502 FE1A0000 		.4byte	.LASF102
 2120 0506 1220     		.2byte	0x2012
 2121 0508 13       		.uleb128 0x13
 2122 0509 60020000 		.4byte	.LASF103
 2123 050d 1320     		.2byte	0x2013
 2124 050f 13       		.uleb128 0x13
 2125 0510 DE0F0000 		.4byte	.LASF104
 2126 0514 1420     		.2byte	0x2014
 2127 0516 13       		.uleb128 0x13
 2128 0517 AB040000 		.4byte	.LASF105
 2129 051b 1520     		.2byte	0x2015
 2130 051d 13       		.uleb128 0x13
 2131 051e 8C1E0000 		.4byte	.LASF106
 2132 0522 1620     		.2byte	0x2016
 2133 0524 13       		.uleb128 0x13
ARM GAS  C:\Users\kateb\AppData\Local\Temp\ccjwfWYs.s 			page 61


 2134 0525 D5030000 		.4byte	.LASF107
 2135 0529 1720     		.2byte	0x2017
 2136 052b 13       		.uleb128 0x13
 2137 052c 52070000 		.4byte	.LASF108
 2138 0530 0030     		.2byte	0x3000
 2139 0532 13       		.uleb128 0x13
 2140 0533 5C0A0000 		.4byte	.LASF109
 2141 0537 0130     		.2byte	0x3001
 2142 0539 13       		.uleb128 0x13
 2143 053a 8C090000 		.4byte	.LASF110
 2144 053e 0230     		.2byte	0x3002
 2145 0540 13       		.uleb128 0x13
 2146 0541 C9120000 		.4byte	.LASF111
 2147 0545 0330     		.2byte	0x3003
 2148 0547 13       		.uleb128 0x13
 2149 0548 DF080000 		.4byte	.LASF112
 2150 054c 0430     		.2byte	0x3004
 2151 054e 13       		.uleb128 0x13
 2152 054f 29190000 		.4byte	.LASF113
 2153 0553 0530     		.2byte	0x3005
 2154 0555 13       		.uleb128 0x13
 2155 0556 30020000 		.4byte	.LASF114
 2156 055a 0630     		.2byte	0x3006
 2157 055c 13       		.uleb128 0x13
 2158 055d 551D0000 		.4byte	.LASF115
 2159 0561 0730     		.2byte	0x3007
 2160 0563 13       		.uleb128 0x13
 2161 0564 54110000 		.4byte	.LASF116
 2162 0568 0830     		.2byte	0x3008
 2163 056a 13       		.uleb128 0x13
 2164 056b 3D0B0000 		.4byte	.LASF117
 2165 056f 0930     		.2byte	0x3009
 2166 0571 13       		.uleb128 0x13
 2167 0572 09190000 		.4byte	.LASF118
 2168 0576 0A30     		.2byte	0x300a
 2169 0578 13       		.uleb128 0x13
 2170 0579 8E0D0000 		.4byte	.LASF119
 2171 057d 0B30     		.2byte	0x300b
 2172 057f 13       		.uleb128 0x13
 2173 0580 61010000 		.4byte	.LASF120
 2174 0584 0C30     		.2byte	0x300c
 2175 0586 13       		.uleb128 0x13
 2176 0587 540F0000 		.4byte	.LASF121
 2177 058b 1130     		.2byte	0x3011
 2178 058d 13       		.uleb128 0x13
 2179 058e F1150000 		.4byte	.LASF122
 2180 0592 1230     		.2byte	0x3012
 2181 0594 13       		.uleb128 0x13
 2182 0595 FA190000 		.4byte	.LASF123
 2183 0599 1330     		.2byte	0x3013
 2184 059b 13       		.uleb128 0x13
 2185 059c 60180000 		.4byte	.LASF124
 2186 05a0 1430     		.2byte	0x3014
 2187 05a2 13       		.uleb128 0x13
 2188 05a3 46170000 		.4byte	.LASF125
 2189 05a7 1530     		.2byte	0x3015
 2190 05a9 13       		.uleb128 0x13
ARM GAS  C:\Users\kateb\AppData\Local\Temp\ccjwfWYs.s 			page 62


 2191 05aa 8B100000 		.4byte	.LASF126
 2192 05ae 1630     		.2byte	0x3016
 2193 05b0 13       		.uleb128 0x13
 2194 05b1 69100000 		.4byte	.LASF127
 2195 05b5 1730     		.2byte	0x3017
 2196 05b7 13       		.uleb128 0x13
 2197 05b8 BE140000 		.4byte	.LASF128
 2198 05bc 1830     		.2byte	0x3018
 2199 05be 13       		.uleb128 0x13
 2200 05bf ED120000 		.4byte	.LASF129
 2201 05c3 0040     		.2byte	0x4000
 2202 05c5 13       		.uleb128 0x13
 2203 05c6 1E1D0000 		.4byte	.LASF130
 2204 05ca 0140     		.2byte	0x4001
 2205 05cc 13       		.uleb128 0x13
 2206 05cd D11C0000 		.4byte	.LASF131
 2207 05d1 0240     		.2byte	0x4002
 2208 05d3 13       		.uleb128 0x13
 2209 05d4 171A0000 		.4byte	.LASF132
 2210 05d8 0340     		.2byte	0x4003
 2211 05da 13       		.uleb128 0x13
 2212 05db C10F0000 		.4byte	.LASF133
 2213 05df 0440     		.2byte	0x4004
 2214 05e1 13       		.uleb128 0x13
 2215 05e2 711E0000 		.4byte	.LASF134
 2216 05e6 0540     		.2byte	0x4005
 2217 05e8 13       		.uleb128 0x13
 2218 05e9 C4000000 		.4byte	.LASF135
 2219 05ed 0640     		.2byte	0x4006
 2220 05ef 13       		.uleb128 0x13
 2221 05f0 3C0A0000 		.4byte	.LASF136
 2222 05f4 0740     		.2byte	0x4007
 2223 05f6 13       		.uleb128 0x13
 2224 05f7 C9160000 		.4byte	.LASF137
 2225 05fb 0840     		.2byte	0x4008
 2226 05fd 13       		.uleb128 0x13
 2227 05fe 6E090000 		.4byte	.LASF138
 2228 0602 0940     		.2byte	0x4009
 2229 0604 13       		.uleb128 0x13
 2230 0605 251F0000 		.4byte	.LASF139
 2231 0609 0A40     		.2byte	0x400a
 2232 060b 13       		.uleb128 0x13
 2233 060c 1A0E0000 		.4byte	.LASF140
 2234 0610 0B40     		.2byte	0x400b
 2235 0612 13       		.uleb128 0x13
 2236 0613 03120000 		.4byte	.LASF141
 2237 0617 0C40     		.2byte	0x400c
 2238 0619 13       		.uleb128 0x13
 2239 061a 020F0000 		.4byte	.LASF142
 2240 061e 0D40     		.2byte	0x400d
 2241 0620 13       		.uleb128 0x13
 2242 0621 52130000 		.4byte	.LASF143
 2243 0625 0E40     		.2byte	0x400e
 2244 0627 13       		.uleb128 0x13
 2245 0628 F3090000 		.4byte	.LASF144
 2246 062c 0F40     		.2byte	0x400f
 2247 062e 13       		.uleb128 0x13
ARM GAS  C:\Users\kateb\AppData\Local\Temp\ccjwfWYs.s 			page 63


 2248 062f 8D080000 		.4byte	.LASF145
 2249 0633 1040     		.2byte	0x4010
 2250 0635 13       		.uleb128 0x13
 2251 0636 541B0000 		.4byte	.LASF146
 2252 063a 1140     		.2byte	0x4011
 2253 063c 13       		.uleb128 0x13
 2254 063d 7D0B0000 		.4byte	.LASF147
 2255 0641 1240     		.2byte	0x4012
 2256 0643 13       		.uleb128 0x13
 2257 0644 9E170000 		.4byte	.LASF148
 2258 0648 1340     		.2byte	0x4013
 2259 064a 13       		.uleb128 0x13
 2260 064b 31130000 		.4byte	.LASF149
 2261 064f 1440     		.2byte	0x4014
 2262 0651 13       		.uleb128 0x13
 2263 0652 A4050000 		.4byte	.LASF150
 2264 0656 1540     		.2byte	0x4015
 2265 0658 13       		.uleb128 0x13
 2266 0659 151E0000 		.4byte	.LASF151
 2267 065d 1640     		.2byte	0x4016
 2268 065f 13       		.uleb128 0x13
 2269 0660 F5140000 		.4byte	.LASF152
 2270 0664 1740     		.2byte	0x4017
 2271 0666 13       		.uleb128 0x13
 2272 0667 D7100000 		.4byte	.LASF153
 2273 066b 1840     		.2byte	0x4018
 2274 066d 13       		.uleb128 0x13
 2275 066e 33160000 		.4byte	.LASF154
 2276 0672 1940     		.2byte	0x4019
 2277 0674 13       		.uleb128 0x13
 2278 0675 6F120000 		.4byte	.LASF155
 2279 0679 1A40     		.2byte	0x401a
 2280 067b 13       		.uleb128 0x13
 2281 067c 59150000 		.4byte	.LASF156
 2282 0680 0050     		.2byte	0x5000
 2283 0682 13       		.uleb128 0x13
 2284 0683 4B040000 		.4byte	.LASF157
 2285 0687 0150     		.2byte	0x5001
 2286 0689 13       		.uleb128 0x13
 2287 068a AD1B0000 		.4byte	.LASF158
 2288 068e 0250     		.2byte	0x5002
 2289 0690 13       		.uleb128 0x13
 2290 0691 191C0000 		.4byte	.LASF159
 2291 0695 0350     		.2byte	0x5003
 2292 0697 13       		.uleb128 0x13
 2293 0698 43060000 		.4byte	.LASF160
 2294 069c 0450     		.2byte	0x5004
 2295 069e 13       		.uleb128 0x13
 2296 069f 74150000 		.4byte	.LASF161
 2297 06a3 0550     		.2byte	0x5005
 2298 06a5 13       		.uleb128 0x13
 2299 06a6 470E0000 		.4byte	.LASF162
 2300 06aa 0650     		.2byte	0x5006
 2301 06ac 13       		.uleb128 0x13
 2302 06ad B6030000 		.4byte	.LASF163
 2303 06b1 0750     		.2byte	0x5007
 2304 06b3 13       		.uleb128 0x13
ARM GAS  C:\Users\kateb\AppData\Local\Temp\ccjwfWYs.s 			page 64


 2305 06b4 93070000 		.4byte	.LASF164
 2306 06b8 0850     		.2byte	0x5008
 2307 06ba 13       		.uleb128 0x13
 2308 06bb 5F190000 		.4byte	.LASF165
 2309 06bf 0950     		.2byte	0x5009
 2310 06c1 13       		.uleb128 0x13
 2311 06c2 C6060000 		.4byte	.LASF166
 2312 06c6 0A50     		.2byte	0x500a
 2313 06c8 13       		.uleb128 0x13
 2314 06c9 2B040000 		.4byte	.LASF167
 2315 06cd 0B50     		.2byte	0x500b
 2316 06cf 13       		.uleb128 0x13
 2317 06d0 D6150000 		.4byte	.LASF168
 2318 06d4 0C50     		.2byte	0x500c
 2319 06d6 13       		.uleb128 0x13
 2320 06d7 F80B0000 		.4byte	.LASF169
 2321 06db 0D50     		.2byte	0x500d
 2322 06dd 13       		.uleb128 0x13
 2323 06de 361D0000 		.4byte	.LASF170
 2324 06e2 0E50     		.2byte	0x500e
 2325 06e4 13       		.uleb128 0x13
 2326 06e5 980A0000 		.4byte	.LASF171
 2327 06e9 0F50     		.2byte	0x500f
 2328 06eb 13       		.uleb128 0x13
 2329 06ec 16180000 		.4byte	.LASF172
 2330 06f0 1050     		.2byte	0x5010
 2331 06f2 13       		.uleb128 0x13
 2332 06f3 DE1B0000 		.4byte	.LASF173
 2333 06f7 1150     		.2byte	0x5011
 2334 06f9 13       		.uleb128 0x13
 2335 06fa 98010000 		.4byte	.LASF174
 2336 06fe 1250     		.2byte	0x5012
 2337 0700 13       		.uleb128 0x13
 2338 0701 37150000 		.4byte	.LASF175
 2339 0705 1350     		.2byte	0x5013
 2340 0707 13       		.uleb128 0x13
 2341 0708 74060000 		.4byte	.LASF176
 2342 070c 1450     		.2byte	0x5014
 2343 070e 13       		.uleb128 0x13
 2344 070f 6F1A0000 		.4byte	.LASF177
 2345 0713 1550     		.2byte	0x5015
 2346 0715 13       		.uleb128 0x13
 2347 0716 9A1C0000 		.4byte	.LASF178
 2348 071a 1650     		.2byte	0x5016
 2349 071c 13       		.uleb128 0x13
 2350 071d C7040000 		.4byte	.LASF179
 2351 0721 1750     		.2byte	0x5017
 2352 0723 13       		.uleb128 0x13
 2353 0724 DA1A0000 		.4byte	.LASF180
 2354 0728 1850     		.2byte	0x5018
 2355 072a 13       		.uleb128 0x13
 2356 072b 961D0000 		.4byte	.LASF181
 2357 072f 0060     		.2byte	0x6000
 2358 0731 13       		.uleb128 0x13
 2359 0732 61160000 		.4byte	.LASF182
 2360 0736 0160     		.2byte	0x6001
 2361 0738 13       		.uleb128 0x13
ARM GAS  C:\Users\kateb\AppData\Local\Temp\ccjwfWYs.s 			page 65


 2362 0739 570C0000 		.4byte	.LASF183
 2363 073d 0260     		.2byte	0x6002
 2364 073f 13       		.uleb128 0x13
 2365 0740 12130000 		.4byte	.LASF184
 2366 0744 0360     		.2byte	0x6003
 2367 0746 13       		.uleb128 0x13
 2368 0747 BB070000 		.4byte	.LASF185
 2369 074b 0460     		.2byte	0x6004
 2370 074d 13       		.uleb128 0x13
 2371 074e D0170000 		.4byte	.LASF186
 2372 0752 0560     		.2byte	0x6005
 2373 0754 13       		.uleb128 0x13
 2374 0755 1B0B0000 		.4byte	.LASF187
 2375 0759 0660     		.2byte	0x6006
 2376 075b 13       		.uleb128 0x13
 2377 075c 86000000 		.4byte	.LASF188
 2378 0760 0760     		.2byte	0x6007
 2379 0762 13       		.uleb128 0x13
 2380 0763 D5020000 		.4byte	.LASF189
 2381 0767 0860     		.2byte	0x6008
 2382 0769 13       		.uleb128 0x13
 2383 076a 1E010000 		.4byte	.LASF190
 2384 076e 0960     		.2byte	0x6009
 2385 0770 13       		.uleb128 0x13
 2386 0771 85120000 		.4byte	.LASF191
 2387 0775 0A60     		.2byte	0x600a
 2388 0777 13       		.uleb128 0x13
 2389 0778 E60A0000 		.4byte	.LASF192
 2390 077c FFFF     		.2byte	0xffff
 2391 077e 00       		.byte	0
 2392 077f 07       		.uleb128 0x7
 2393 0780 AE000000 		.4byte	0xae
 2394 0784 0C       		.uleb128 0xc
 2395 0785 02       		.byte	0x2
 2396 0786 0A       		.byte	0xa
 2397 0787 5B01     		.2byte	0x15b
 2398 0789 A8070000 		.4byte	0x7a8
 2399 078d 0D       		.uleb128 0xd
 2400 078e F61C0000 		.4byte	.LASF193
 2401 0792 0A       		.byte	0xa
 2402 0793 6501     		.2byte	0x165
 2403 0795 AE000000 		.4byte	0xae
 2404 0799 00       		.byte	0
 2405 079a 0D       		.uleb128 0xd
 2406 079b C4090000 		.4byte	.LASF194
 2407 079f 0A       		.byte	0xa
 2408 07a0 6901     		.2byte	0x169
 2409 07a2 AE000000 		.4byte	0xae
 2410 07a6 01       		.byte	0x1
 2411 07a7 00       		.byte	0
 2412 07a8 0B       		.uleb128 0xb
 2413 07a9 7E110000 		.4byte	.LASF195
 2414 07ad 0A       		.byte	0xa
 2415 07ae 6B01     		.2byte	0x16b
 2416 07b0 84070000 		.4byte	0x784
 2417 07b4 14       		.uleb128 0x14
 2418 07b5 01       		.byte	0x1
ARM GAS  C:\Users\kateb\AppData\Local\Temp\ccjwfWYs.s 			page 66


 2419 07b6 53000000 		.4byte	0x53
 2420 07ba 0B       		.byte	0xb
 2421 07bb 7E       		.byte	0x7e
 2422 07bc D9070000 		.4byte	0x7d9
 2423 07c0 0A       		.uleb128 0xa
 2424 07c1 73040000 		.4byte	.LASF196
 2425 07c5 00       		.byte	0
 2426 07c6 0A       		.uleb128 0xa
 2427 07c7 28090000 		.4byte	.LASF197
 2428 07cb 01       		.byte	0x1
 2429 07cc 0A       		.uleb128 0xa
 2430 07cd 600B0000 		.4byte	.LASF198
 2431 07d1 02       		.byte	0x2
 2432 07d2 0A       		.uleb128 0xa
 2433 07d3 F70C0000 		.4byte	.LASF199
 2434 07d7 03       		.byte	0x3
 2435 07d8 00       		.byte	0
 2436 07d9 04       		.uleb128 0x4
 2437 07da C9080000 		.4byte	.LASF200
 2438 07de 0B       		.byte	0xb
 2439 07df 83       		.byte	0x83
 2440 07e0 B4070000 		.4byte	0x7b4
 2441 07e4 14       		.uleb128 0x14
 2442 07e5 01       		.byte	0x1
 2443 07e6 53000000 		.4byte	0x53
 2444 07ea 0B       		.byte	0xb
 2445 07eb 87       		.byte	0x87
 2446 07ec 21080000 		.4byte	0x821
 2447 07f0 0A       		.uleb128 0xa
 2448 07f1 EE060000 		.4byte	.LASF201
 2449 07f5 00       		.byte	0
 2450 07f6 0A       		.uleb128 0xa
 2451 07f7 E3050000 		.4byte	.LASF202
 2452 07fb 01       		.byte	0x1
 2453 07fc 0A       		.uleb128 0xa
 2454 07fd A9130000 		.4byte	.LASF203
 2455 0801 02       		.byte	0x2
 2456 0802 0A       		.uleb128 0xa
 2457 0803 BA1E0000 		.4byte	.LASF204
 2458 0807 03       		.byte	0x3
 2459 0808 0A       		.uleb128 0xa
 2460 0809 D6130000 		.4byte	.LASF205
 2461 080d 04       		.byte	0x4
 2462 080e 0A       		.uleb128 0xa
 2463 080f 270D0000 		.4byte	.LASF206
 2464 0813 05       		.byte	0x5
 2465 0814 0A       		.uleb128 0xa
 2466 0815 7E130000 		.4byte	.LASF207
 2467 0819 06       		.byte	0x6
 2468 081a 0A       		.uleb128 0xa
 2469 081b E5010000 		.4byte	.LASF208
 2470 081f 07       		.byte	0x7
 2471 0820 00       		.byte	0
 2472 0821 04       		.uleb128 0x4
 2473 0822 9F030000 		.4byte	.LASF209
 2474 0826 0B       		.byte	0xb
 2475 0827 90       		.byte	0x90
ARM GAS  C:\Users\kateb\AppData\Local\Temp\ccjwfWYs.s 			page 67


 2476 0828 E4070000 		.4byte	0x7e4
 2477 082c 14       		.uleb128 0x14
 2478 082d 01       		.byte	0x1
 2479 082e 53000000 		.4byte	0x53
 2480 0832 0C       		.byte	0xc
 2481 0833 29       		.byte	0x29
 2482 0834 51080000 		.4byte	0x851
 2483 0838 0A       		.uleb128 0xa
 2484 0839 22100000 		.4byte	.LASF210
 2485 083d 00       		.byte	0
 2486 083e 0A       		.uleb128 0xa
 2487 083f BC100000 		.4byte	.LASF211
 2488 0843 01       		.byte	0x1
 2489 0844 0A       		.uleb128 0xa
 2490 0845 E70D0000 		.4byte	.LASF212
 2491 0849 02       		.byte	0x2
 2492 084a 0A       		.uleb128 0xa
 2493 084b 7F0F0000 		.4byte	.LASF213
 2494 084f 03       		.byte	0x3
 2495 0850 00       		.byte	0
 2496 0851 09       		.uleb128 0x9
 2497 0852 01       		.byte	0x1
 2498 0853 53000000 		.4byte	0x53
 2499 0857 0D       		.byte	0xd
 2500 0858 B108     		.2byte	0x8b1
 2501 085a 77080000 		.4byte	0x877
 2502 085e 0A       		.uleb128 0xa
 2503 085f 170D0000 		.4byte	.LASF214
 2504 0863 00       		.byte	0
 2505 0864 0A       		.uleb128 0xa
 2506 0865 A1190000 		.4byte	.LASF215
 2507 0869 01       		.byte	0x1
 2508 086a 0A       		.uleb128 0xa
 2509 086b 67170000 		.4byte	.LASF216
 2510 086f 02       		.byte	0x2
 2511 0870 0A       		.uleb128 0xa
 2512 0871 ED000000 		.4byte	.LASF217
 2513 0875 03       		.byte	0x3
 2514 0876 00       		.byte	0
 2515 0877 15       		.uleb128 0x15
 2516 0878 14       		.byte	0x14
 2517 0879 0E       		.byte	0xe
 2518 087a 3B       		.byte	0x3b
 2519 087b BC080000 		.4byte	0x8bc
 2520 087f 16       		.uleb128 0x16
 2521 0880 93030000 		.4byte	.LASF218
 2522 0884 0E       		.byte	0xe
 2523 0885 3D       		.byte	0x3d
 2524 0886 C4000000 		.4byte	0xc4
 2525 088a 00       		.byte	0
 2526 088b 16       		.uleb128 0x16
 2527 088c 70080000 		.4byte	.LASF219
 2528 0890 0E       		.byte	0xe
 2529 0891 3E       		.byte	0x3e
 2530 0892 C4000000 		.4byte	0xc4
 2531 0896 04       		.byte	0x4
 2532 0897 16       		.uleb128 0x16
ARM GAS  C:\Users\kateb\AppData\Local\Temp\ccjwfWYs.s 			page 68


 2533 0898 FA030000 		.4byte	.LASF220
 2534 089c 0E       		.byte	0xe
 2535 089d 3F       		.byte	0x3f
 2536 089e BC080000 		.4byte	0x8bc
 2537 08a2 08       		.byte	0x8
 2538 08a3 16       		.uleb128 0x16
 2539 08a4 781D0000 		.4byte	.LASF221
 2540 08a8 0E       		.byte	0xe
 2541 08a9 40       		.byte	0x40
 2542 08aa C4000000 		.4byte	0xc4
 2543 08ae 0C       		.byte	0xc
 2544 08af 16       		.uleb128 0x16
 2545 08b0 A21B0000 		.4byte	.LASF222
 2546 08b4 0E       		.byte	0xe
 2547 08b5 45       		.byte	0x45
 2548 08b6 C4000000 		.4byte	0xc4
 2549 08ba 10       		.byte	0x10
 2550 08bb 00       		.byte	0
 2551 08bc 06       		.uleb128 0x6
 2552 08bd 04       		.byte	0x4
 2553 08be C2080000 		.4byte	0x8c2
 2554 08c2 07       		.uleb128 0x7
 2555 08c3 3A040000 		.4byte	0x43a
 2556 08c7 04       		.uleb128 0x4
 2557 08c8 B7120000 		.4byte	.LASF223
 2558 08cc 0E       		.byte	0xe
 2559 08cd 48       		.byte	0x48
 2560 08ce 77080000 		.4byte	0x877
 2561 08d2 04       		.uleb128 0x4
 2562 08d3 35110000 		.4byte	.LASF224
 2563 08d7 02       		.byte	0x2
 2564 08d8 38       		.byte	0x38
 2565 08d9 73000000 		.4byte	0x73
 2566 08dd 04       		.uleb128 0x4
 2567 08de DB0D0000 		.4byte	.LASF225
 2568 08e2 02       		.byte	0x2
 2569 08e3 39       		.byte	0x39
 2570 08e4 85000000 		.4byte	0x85
 2571 08e8 04       		.uleb128 0x4
 2572 08e9 CB130000 		.4byte	.LASF226
 2573 08ed 02       		.byte	0x2
 2574 08ee 3F       		.byte	0x3f
 2575 08ef C4000000 		.4byte	0xc4
 2576 08f3 17       		.uleb128 0x17
 2577 08f4 FC080000 		.4byte	.LASF227
 2578 08f8 14       		.byte	0x14
 2579 08f9 0F       		.byte	0xf
 2580 08fa 8B       		.byte	0x8b
 2581 08fb 3C090000 		.4byte	0x93c
 2582 08ff 16       		.uleb128 0x16
 2583 0900 F9160000 		.4byte	.LASF228
 2584 0904 0F       		.byte	0xf
 2585 0905 8E       		.byte	0x8e
 2586 0906 E8080000 		.4byte	0x8e8
 2587 090a 00       		.byte	0
 2588 090b 16       		.uleb128 0x16
 2589 090c 77110000 		.4byte	.LASF229
ARM GAS  C:\Users\kateb\AppData\Local\Temp\ccjwfWYs.s 			page 69


 2590 0910 0F       		.byte	0xf
 2591 0911 8F       		.byte	0x8f
 2592 0912 3C090000 		.4byte	0x93c
 2593 0916 04       		.byte	0x4
 2594 0917 16       		.uleb128 0x16
 2595 0918 12090000 		.4byte	.LASF230
 2596 091c 0F       		.byte	0xf
 2597 091d 90       		.byte	0x90
 2598 091e 3C090000 		.4byte	0x93c
 2599 0922 08       		.byte	0x8
 2600 0923 16       		.uleb128 0x16
 2601 0924 921B0000 		.4byte	.LASF231
 2602 0928 0F       		.byte	0xf
 2603 0929 91       		.byte	0x91
 2604 092a 9A000000 		.4byte	0x9a
 2605 092e 0C       		.byte	0xc
 2606 092f 16       		.uleb128 0x16
 2607 0930 37060000 		.4byte	.LASF232
 2608 0934 0F       		.byte	0xf
 2609 0935 92       		.byte	0x92
 2610 0936 9A000000 		.4byte	0x9a
 2611 093a 10       		.byte	0x10
 2612 093b 00       		.byte	0
 2613 093c 06       		.uleb128 0x6
 2614 093d 04       		.byte	0x4
 2615 093e F3080000 		.4byte	0x8f3
 2616 0942 04       		.uleb128 0x4
 2617 0943 B20D0000 		.4byte	.LASF233
 2618 0947 0F       		.byte	0xf
 2619 0948 95       		.byte	0x95
 2620 0949 F3080000 		.4byte	0x8f3
 2621 094d 17       		.uleb128 0x17
 2622 094e C80A0000 		.4byte	.LASF234
 2623 0952 0C       		.byte	0xc
 2624 0953 0F       		.byte	0xf
 2625 0954 97       		.byte	0x97
 2626 0955 7E090000 		.4byte	0x97e
 2627 0959 16       		.uleb128 0x16
 2628 095a F9160000 		.4byte	.LASF228
 2629 095e 0F       		.byte	0xf
 2630 095f 9A       		.byte	0x9a
 2631 0960 E8080000 		.4byte	0x8e8
 2632 0964 00       		.byte	0
 2633 0965 16       		.uleb128 0x16
 2634 0966 77110000 		.4byte	.LASF229
 2635 096a 0F       		.byte	0xf
 2636 096b 9B       		.byte	0x9b
 2637 096c 3C090000 		.4byte	0x93c
 2638 0970 04       		.byte	0x4
 2639 0971 16       		.uleb128 0x16
 2640 0972 12090000 		.4byte	.LASF230
 2641 0976 0F       		.byte	0xf
 2642 0977 9C       		.byte	0x9c
 2643 0978 3C090000 		.4byte	0x93c
 2644 097c 08       		.byte	0x8
 2645 097d 00       		.byte	0
 2646 097e 04       		.uleb128 0x4
ARM GAS  C:\Users\kateb\AppData\Local\Temp\ccjwfWYs.s 			page 70


 2647 097f AB1E0000 		.4byte	.LASF235
 2648 0983 0F       		.byte	0xf
 2649 0984 9E       		.byte	0x9e
 2650 0985 4D090000 		.4byte	0x94d
 2651 0989 17       		.uleb128 0x17
 2652 098a 06040000 		.4byte	.LASF236
 2653 098e 14       		.byte	0x14
 2654 098f 0F       		.byte	0xf
 2655 0990 A3       		.byte	0xa3
 2656 0991 BA090000 		.4byte	0x9ba
 2657 0995 16       		.uleb128 0x16
 2658 0996 76000000 		.4byte	.LASF237
 2659 099a 0F       		.byte	0xf
 2660 099b A6       		.byte	0xa6
 2661 099c BA090000 		.4byte	0x9ba
 2662 09a0 00       		.byte	0
 2663 09a1 16       		.uleb128 0x16
 2664 09a2 18030000 		.4byte	.LASF238
 2665 09a6 0F       		.byte	0xf
 2666 09a7 A7       		.byte	0xa7
 2667 09a8 BF090000 		.4byte	0x9bf
 2668 09ac 04       		.byte	0x4
 2669 09ad 16       		.uleb128 0x16
 2670 09ae 7A0E0000 		.4byte	.LASF239
 2671 09b2 0F       		.byte	0xf
 2672 09b3 A8       		.byte	0xa8
 2673 09b4 7E090000 		.4byte	0x97e
 2674 09b8 08       		.byte	0x8
 2675 09b9 00       		.byte	0
 2676 09ba 08       		.uleb128 0x8
 2677 09bb DD080000 		.4byte	0x8dd
 2678 09bf 06       		.uleb128 0x6
 2679 09c0 04       		.byte	0x4
 2680 09c1 42090000 		.4byte	0x942
 2681 09c5 04       		.uleb128 0x4
 2682 09c6 77130000 		.4byte	.LASF240
 2683 09ca 0F       		.byte	0xf
 2684 09cb AA       		.byte	0xaa
 2685 09cc 89090000 		.4byte	0x989
 2686 09d0 04       		.uleb128 0x4
 2687 09d1 AA120000 		.4byte	.LASF241
 2688 09d5 10       		.byte	0x10
 2689 09d6 3D       		.byte	0x3d
 2690 09d7 9A000000 		.4byte	0x9a
 2691 09db 07       		.uleb128 0x7
 2692 09dc A3000000 		.4byte	0xa3
 2693 09e0 04       		.uleb128 0x4
 2694 09e1 E80E0000 		.4byte	.LASF242
 2695 09e5 11       		.byte	0x11
 2696 09e6 2E       		.byte	0x2e
 2697 09e7 9A000000 		.4byte	0x9a
 2698 09eb 04       		.uleb128 0x4
 2699 09ec 30070000 		.4byte	.LASF243
 2700 09f0 12       		.byte	0x12
 2701 09f1 4C       		.byte	0x4c
 2702 09f2 9A000000 		.4byte	0x9a
 2703 09f6 04       		.uleb128 0x4
ARM GAS  C:\Users\kateb\AppData\Local\Temp\ccjwfWYs.s 			page 71


 2704 09f7 14060000 		.4byte	.LASF244
 2705 09fb 12       		.byte	0x12
 2706 09fc 51       		.byte	0x51
 2707 09fd 010A0000 		.4byte	0xa01
 2708 0a01 06       		.uleb128 0x6
 2709 0a02 04       		.byte	0x4
 2710 0a03 070A0000 		.4byte	0xa07
 2711 0a07 0E       		.uleb128 0xe
 2712 0a08 120A0000 		.4byte	0xa12
 2713 0a0c 0F       		.uleb128 0xf
 2714 0a0d EB090000 		.4byte	0x9eb
 2715 0a11 00       		.byte	0
 2716 0a12 17       		.uleb128 0x17
 2717 0a13 3A100000 		.4byte	.LASF245
 2718 0a17 28       		.byte	0x28
 2719 0a18 01       		.byte	0x1
 2720 0a19 44       		.byte	0x44
 2721 0a1a 670A0000 		.4byte	0xa67
 2722 0a1e 16       		.uleb128 0x16
 2723 0a1f 52030000 		.4byte	.LASF246
 2724 0a23 01       		.byte	0x1
 2725 0a24 46       		.byte	0x46
 2726 0a25 A3000000 		.4byte	0xa3
 2727 0a29 00       		.byte	0
 2728 0a2a 16       		.uleb128 0x16
 2729 0a2b 13140000 		.4byte	.LASF247
 2730 0a2f 01       		.byte	0x1
 2731 0a30 47       		.byte	0x47
 2732 0a31 42090000 		.4byte	0x942
 2733 0a35 04       		.byte	0x4
 2734 0a36 16       		.uleb128 0x16
 2735 0a37 BD1C0000 		.4byte	.LASF248
 2736 0a3b 01       		.byte	0x1
 2737 0a3c 48       		.byte	0x48
 2738 0a3d E8080000 		.4byte	0x8e8
 2739 0a41 18       		.byte	0x18
 2740 0a42 16       		.uleb128 0x16
 2741 0a43 86180000 		.4byte	.LASF249
 2742 0a47 01       		.byte	0x1
 2743 0a48 49       		.byte	0x49
 2744 0a49 DD080000 		.4byte	0x8dd
 2745 0a4d 1C       		.byte	0x1c
 2746 0a4e 16       		.uleb128 0x16
 2747 0a4f 97110000 		.4byte	.LASF250
 2748 0a53 01       		.byte	0x1
 2749 0a54 4A       		.byte	0x4a
 2750 0a55 9A000000 		.4byte	0x9a
 2751 0a59 20       		.byte	0x20
 2752 0a5a 16       		.uleb128 0x16
 2753 0a5b 85010000 		.4byte	.LASF251
 2754 0a5f 01       		.byte	0x1
 2755 0a60 4B       		.byte	0x4b
 2756 0a61 F6090000 		.4byte	0x9f6
 2757 0a65 24       		.byte	0x24
 2758 0a66 00       		.byte	0
 2759 0a67 04       		.uleb128 0x4
 2760 0a68 9D0C0000 		.4byte	.LASF252
ARM GAS  C:\Users\kateb\AppData\Local\Temp\ccjwfWYs.s 			page 72


 2761 0a6c 01       		.byte	0x1
 2762 0a6d 53       		.byte	0x53
 2763 0a6e 120A0000 		.4byte	0xa12
 2764 0a72 04       		.uleb128 0x4
 2765 0a73 9D180000 		.4byte	.LASF253
 2766 0a77 01       		.byte	0x1
 2767 0a78 57       		.byte	0x57
 2768 0a79 670A0000 		.4byte	0xa67
 2769 0a7d 17       		.uleb128 0x17
 2770 0a7e 831D0000 		.4byte	.LASF254
 2771 0a82 08       		.byte	0x8
 2772 0a83 01       		.byte	0x1
 2773 0a84 5E       		.byte	0x5e
 2774 0a85 A20A0000 		.4byte	0xaa2
 2775 0a89 16       		.uleb128 0x16
 2776 0a8a 941A0000 		.4byte	.LASF255
 2777 0a8e 01       		.byte	0x1
 2778 0a8f 60       		.byte	0x60
 2779 0a90 E8080000 		.4byte	0x8e8
 2780 0a94 00       		.byte	0
 2781 0a95 16       		.uleb128 0x16
 2782 0a96 4E1A0000 		.4byte	.LASF256
 2783 0a9a 01       		.byte	0x1
 2784 0a9b 61       		.byte	0x61
 2785 0a9c A20A0000 		.4byte	0xaa2
 2786 0aa0 04       		.byte	0x4
 2787 0aa1 00       		.byte	0
 2788 0aa2 06       		.uleb128 0x6
 2789 0aa3 04       		.byte	0x4
 2790 0aa4 720A0000 		.4byte	0xa72
 2791 0aa8 04       		.uleb128 0x4
 2792 0aa9 0C040000 		.4byte	.LASF257
 2793 0aad 01       		.byte	0x1
 2794 0aae 62       		.byte	0x62
 2795 0aaf 7D0A0000 		.4byte	0xa7d
 2796 0ab3 18       		.uleb128 0x18
 2797 0ab4 08       		.byte	0x8
 2798 0ab5 01       		.byte	0x1
 2799 0ab6 71       		.byte	0x71
 2800 0ab7 C70A0000 		.4byte	0xac7
 2801 0abb 19       		.uleb128 0x19
 2802 0abc 4F020000 		.4byte	.LASF345
 2803 0ac0 01       		.byte	0x1
 2804 0ac1 73       		.byte	0x73
 2805 0ac2 A80A0000 		.4byte	0xaa8
 2806 0ac6 00       		.byte	0
 2807 0ac7 17       		.uleb128 0x17
 2808 0ac8 130C0000 		.4byte	.LASF258
 2809 0acc 0C       		.byte	0xc
 2810 0acd 01       		.byte	0x1
 2811 0ace 6E       		.byte	0x6e
 2812 0acf EA0A0000 		.4byte	0xaea
 2813 0ad3 16       		.uleb128 0x16
 2814 0ad4 8D0A0000 		.4byte	.LASF259
 2815 0ad8 01       		.byte	0x1
 2816 0ad9 70       		.byte	0x70
 2817 0ada D2080000 		.4byte	0x8d2
ARM GAS  C:\Users\kateb\AppData\Local\Temp\ccjwfWYs.s 			page 73


 2818 0ade 00       		.byte	0
 2819 0adf 1A       		.uleb128 0x1a
 2820 0ae0 7500     		.ascii	"u\000"
 2821 0ae2 01       		.byte	0x1
 2822 0ae3 7A       		.byte	0x7a
 2823 0ae4 B30A0000 		.4byte	0xab3
 2824 0ae8 04       		.byte	0x4
 2825 0ae9 00       		.byte	0
 2826 0aea 04       		.uleb128 0x4
 2827 0aeb BB180000 		.4byte	.LASF260
 2828 0aef 01       		.byte	0x1
 2829 0af0 7B       		.byte	0x7b
 2830 0af1 C70A0000 		.4byte	0xac7
 2831 0af5 1B       		.uleb128 0x1b
 2832 0af6 CD190000 		.4byte	.LASF346
 2833 0afa 02       		.byte	0x2
 2834 0afb 98       		.byte	0x98
 2835 0afc 03       		.byte	0x3
 2836 0afd 0D0B0000 		.4byte	0xb0d
 2837 0b01 1C       		.uleb128 0x1c
 2838 0b02 20110000 		.4byte	.LASF347
 2839 0b06 02       		.byte	0x2
 2840 0b07 9A       		.byte	0x9a
 2841 0b08 C4000000 		.4byte	0xc4
 2842 0b0c 00       		.byte	0
 2843 0b0d 1D       		.uleb128 0x1d
 2844 0b0e 101F0000 		.4byte	.LASF261
 2845 0b12 01       		.byte	0x1
 2846 0b13 5602     		.2byte	0x256
 2847 0b15 E8080000 		.4byte	0x8e8
 2848 0b19 00000000 		.4byte	.LFB606
 2849 0b1d 20000000 		.4byte	.LFE606-.LFB606
 2850 0b21 01       		.uleb128 0x1
 2851 0b22 9C       		.byte	0x9c
 2852 0b23 480B0000 		.4byte	0xb48
 2853 0b27 1E       		.uleb128 0x1e
 2854 0b28 CF010000 		.4byte	.LASF263
 2855 0b2c 01       		.byte	0x1
 2856 0b2d 5602     		.2byte	0x256
 2857 0b2f 4E0B0000 		.4byte	0xb4e
 2858 0b33 00000000 		.4byte	.LLST0
 2859 0b37 1F       		.uleb128 0x1f
 2860 0b38 5F120000 		.4byte	.LASF267
 2861 0b3c 01       		.byte	0x1
 2862 0b3d 5802     		.2byte	0x258
 2863 0b3f E8080000 		.4byte	0x8e8
 2864 0b43 3A000000 		.4byte	.LLST1
 2865 0b47 00       		.byte	0
 2866 0b48 06       		.uleb128 0x6
 2867 0b49 04       		.byte	0x4
 2868 0b4a D2080000 		.4byte	0x8d2
 2869 0b4e 07       		.uleb128 0x7
 2870 0b4f 480B0000 		.4byte	0xb48
 2871 0b53 1D       		.uleb128 0x1d
 2872 0b54 DC0C0000 		.4byte	.LASF262
 2873 0b58 01       		.byte	0x1
 2874 0b59 8702     		.2byte	0x287
ARM GAS  C:\Users\kateb\AppData\Local\Temp\ccjwfWYs.s 			page 74


 2875 0b5b D2080000 		.4byte	0x8d2
 2876 0b5f 00000000 		.4byte	.LFB608
 2877 0b63 44000000 		.4byte	.LFE608-.LFB608
 2878 0b67 01       		.uleb128 0x1
 2879 0b68 9C       		.byte	0x9c
 2880 0b69 E80B0000 		.4byte	0xbe8
 2881 0b6d 1E       		.uleb128 0x1e
 2882 0b6e 4E1A0000 		.4byte	.LASF256
 2883 0b72 01       		.byte	0x1
 2884 0b73 8702     		.2byte	0x287
 2885 0b75 E80B0000 		.4byte	0xbe8
 2886 0b79 58000000 		.4byte	.LLST2
 2887 0b7d 1E       		.uleb128 0x1e
 2888 0b7e 1F170000 		.4byte	.LASF264
 2889 0b82 01       		.byte	0x1
 2890 0b83 8702     		.2byte	0x287
 2891 0b85 ED0B0000 		.4byte	0xbed
 2892 0b89 DE000000 		.4byte	.LLST3
 2893 0b8d 1E       		.uleb128 0x1e
 2894 0b8e 09020000 		.4byte	.LASF265
 2895 0b92 01       		.byte	0x1
 2896 0b93 8702     		.2byte	0x287
 2897 0b95 ED0B0000 		.4byte	0xbed
 2898 0b99 47010000 		.4byte	.LLST4
 2899 0b9d 1E       		.uleb128 0x1e
 2900 0b9e 40000000 		.4byte	.LASF266
 2901 0ba2 01       		.byte	0x1
 2902 0ba3 8702     		.2byte	0x287
 2903 0ba5 ED0B0000 		.4byte	0xbed
 2904 0ba9 8C010000 		.4byte	.LLST5
 2905 0bad 1F       		.uleb128 0x1f
 2906 0bae B5060000 		.4byte	.LASF268
 2907 0bb2 01       		.byte	0x1
 2908 0bb3 8902     		.2byte	0x289
 2909 0bb5 D2080000 		.4byte	0x8d2
 2910 0bb9 DF010000 		.4byte	.LLST6
 2911 0bbd 20       		.uleb128 0x20
 2912 0bbe 1C000000 		.4byte	.LVL10
 2913 0bc2 71180000 		.4byte	0x1871
 2914 0bc6 D40B0000 		.4byte	0xbd4
 2915 0bca 21       		.uleb128 0x21
 2916 0bcb 01       		.uleb128 0x1
 2917 0bcc 51       		.byte	0x51
 2918 0bcd 05       		.uleb128 0x5
 2919 0bce F3       		.byte	0xf3
 2920 0bcf 01       		.uleb128 0x1
 2921 0bd0 50       		.byte	0x50
 2922 0bd1 23       		.byte	0x23
 2923 0bd2 04       		.uleb128 0x4
 2924 0bd3 00       		.byte	0
 2925 0bd4 22       		.uleb128 0x22
 2926 0bd5 32000000 		.4byte	.LVL15
 2927 0bd9 71180000 		.4byte	0x1871
 2928 0bdd 21       		.uleb128 0x21
 2929 0bde 01       		.uleb128 0x1
 2930 0bdf 51       		.byte	0x51
 2931 0be0 05       		.uleb128 0x5
ARM GAS  C:\Users\kateb\AppData\Local\Temp\ccjwfWYs.s 			page 75


 2932 0be1 F3       		.byte	0xf3
 2933 0be2 01       		.uleb128 0x1
 2934 0be3 50       		.byte	0x50
 2935 0be4 23       		.byte	0x23
 2936 0be5 04       		.uleb128 0x4
 2937 0be6 00       		.byte	0
 2938 0be7 00       		.byte	0
 2939 0be8 07       		.uleb128 0x7
 2940 0be9 A20A0000 		.4byte	0xaa2
 2941 0bed 07       		.uleb128 0x7
 2942 0bee E8080000 		.4byte	0x8e8
 2943 0bf2 23       		.uleb128 0x23
 2944 0bf3 AD1A0000 		.4byte	.LASF269
 2945 0bf7 01       		.byte	0x1
 2946 0bf8 7E03     		.2byte	0x37e
 2947 0bfa 00000000 		.4byte	.LFB611
 2948 0bfe 48000000 		.4byte	.LFE611-.LFB611
 2949 0c02 01       		.uleb128 0x1
 2950 0c03 9C       		.byte	0x9c
 2951 0c04 770C0000 		.4byte	0xc77
 2952 0c08 24       		.uleb128 0x24
 2953 0c09 06000000 		.4byte	.LVL21
 2954 0c0d 7D180000 		.4byte	0x187d
 2955 0c11 20       		.uleb128 0x20
 2956 0c12 18000000 		.4byte	.LVL22
 2957 0c16 88180000 		.4byte	0x1888
 2958 0c1a 250C0000 		.4byte	0xc25
 2959 0c1e 21       		.uleb128 0x21
 2960 0c1f 01       		.uleb128 0x1
 2961 0c20 50       		.byte	0x50
 2962 0c21 02       		.uleb128 0x2
 2963 0c22 76       		.byte	0x76
 2964 0c23 00       		.sleb128 0
 2965 0c24 00       		.byte	0
 2966 0c25 20       		.uleb128 0x20
 2967 0c26 22000000 		.4byte	.LVL23
 2968 0c2a 88180000 		.4byte	0x1888
 2969 0c2e 390C0000 		.4byte	0xc39
 2970 0c32 21       		.uleb128 0x21
 2971 0c33 01       		.uleb128 0x1
 2972 0c34 50       		.byte	0x50
 2973 0c35 02       		.uleb128 0x2
 2974 0c36 75       		.byte	0x75
 2975 0c37 00       		.sleb128 0
 2976 0c38 00       		.byte	0
 2977 0c39 20       		.uleb128 0x20
 2978 0c3a 30000000 		.4byte	.LVL24
 2979 0c3e 94180000 		.4byte	0x1894
 2980 0c42 560C0000 		.4byte	0xc56
 2981 0c46 21       		.uleb128 0x21
 2982 0c47 01       		.uleb128 0x1
 2983 0c48 50       		.byte	0x50
 2984 0c49 01       		.uleb128 0x1
 2985 0c4a 3A       		.byte	0x3a
 2986 0c4b 21       		.uleb128 0x21
 2987 0c4c 01       		.uleb128 0x1
 2988 0c4d 51       		.byte	0x51
ARM GAS  C:\Users\kateb\AppData\Local\Temp\ccjwfWYs.s 			page 76


 2989 0c4e 01       		.uleb128 0x1
 2990 0c4f 3C       		.byte	0x3c
 2991 0c50 21       		.uleb128 0x21
 2992 0c51 01       		.uleb128 0x1
 2993 0c52 52       		.byte	0x52
 2994 0c53 01       		.uleb128 0x1
 2995 0c54 30       		.byte	0x30
 2996 0c55 00       		.byte	0
 2997 0c56 20       		.uleb128 0x20
 2998 0c57 3A000000 		.4byte	.LVL25
 2999 0c5b A0180000 		.4byte	0x18a0
 3000 0c5f 6D0C0000 		.4byte	0xc6d
 3001 0c63 21       		.uleb128 0x21
 3002 0c64 01       		.uleb128 0x1
 3003 0c65 51       		.byte	0x51
 3004 0c66 05       		.uleb128 0x5
 3005 0c67 03       		.byte	0x3
 3006 0c68 00000000 		.4byte	.LC0
 3007 0c6c 00       		.byte	0
 3008 0c6d 24       		.uleb128 0x24
 3009 0c6e 3E000000 		.4byte	.LVL26
 3010 0c72 AC180000 		.4byte	0x18ac
 3011 0c76 00       		.byte	0
 3012 0c77 23       		.uleb128 0x23
 3013 0c78 E20B0000 		.4byte	.LASF270
 3014 0c7c 01       		.byte	0x1
 3015 0c7d 6001     		.2byte	0x160
 3016 0c7f 00000000 		.4byte	.LFB597
 3017 0c83 40000000 		.4byte	.LFE597-.LFB597
 3018 0c87 01       		.uleb128 0x1
 3019 0c88 9C       		.byte	0x9c
 3020 0c89 290D0000 		.4byte	0xd29
 3021 0c8d 1E       		.uleb128 0x1e
 3022 0c8e 52030000 		.4byte	.LASF246
 3023 0c92 01       		.byte	0x1
 3024 0c93 6001     		.2byte	0x160
 3025 0c95 DB090000 		.4byte	0x9db
 3026 0c99 FE010000 		.4byte	.LLST7
 3027 0c9d 1E       		.uleb128 0x1e
 3028 0c9e BD1C0000 		.4byte	.LASF248
 3029 0ca2 01       		.byte	0x1
 3030 0ca3 6101     		.2byte	0x161
 3031 0ca5 ED0B0000 		.4byte	0xbed
 3032 0ca9 2A020000 		.4byte	.LLST8
 3033 0cad 1E       		.uleb128 0x1e
 3034 0cae 86180000 		.4byte	.LASF249
 3035 0cb2 01       		.byte	0x1
 3036 0cb3 6201     		.2byte	0x162
 3037 0cb5 290D0000 		.4byte	0xd29
 3038 0cb9 48020000 		.4byte	.LLST9
 3039 0cbd 1E       		.uleb128 0x1e
 3040 0cbe 97110000 		.4byte	.LASF250
 3041 0cc2 01       		.byte	0x1
 3042 0cc3 6301     		.2byte	0x163
 3043 0cc5 2E0D0000 		.4byte	0xd2e
 3044 0cc9 74020000 		.4byte	.LLST10
 3045 0ccd 25       		.uleb128 0x25
ARM GAS  C:\Users\kateb\AppData\Local\Temp\ccjwfWYs.s 			page 77


 3046 0cce 85010000 		.4byte	.LASF251
 3047 0cd2 01       		.byte	0x1
 3048 0cd3 6401     		.2byte	0x164
 3049 0cd5 F6090000 		.4byte	0x9f6
 3050 0cd9 02       		.uleb128 0x2
 3051 0cda 91       		.byte	0x91
 3052 0cdb 00       		.sleb128 0
 3053 0cdc 25       		.uleb128 0x25
 3054 0cdd 07090000 		.4byte	.LASF271
 3055 0ce1 01       		.byte	0x1
 3056 0ce2 6501     		.2byte	0x165
 3057 0ce4 A20A0000 		.4byte	0xaa2
 3058 0ce8 02       		.uleb128 0x2
 3059 0ce9 91       		.byte	0x91
 3060 0cea 04       		.sleb128 4
 3061 0ceb 26       		.uleb128 0x26
 3062 0cec F50A0000 		.4byte	0xaf5
 3063 0cf0 08000000 		.4byte	.LBB30
 3064 0cf4 14000000 		.4byte	.LBE30-.LBB30
 3065 0cf8 01       		.byte	0x1
 3066 0cf9 6801     		.2byte	0x168
 3067 0cfb 0F0D0000 		.4byte	0xd0f
 3068 0cff 27       		.uleb128 0x27
 3069 0d00 08000000 		.4byte	.LBB31
 3070 0d04 14000000 		.4byte	.LBE31-.LBB31
 3071 0d08 28       		.uleb128 0x28
 3072 0d09 010B0000 		.4byte	0xb01
 3073 0d0d 00       		.byte	0
 3074 0d0e 00       		.byte	0
 3075 0d0f 24       		.uleb128 0x24
 3076 0d10 28000000 		.4byte	.LVL30
 3077 0d14 F20B0000 		.4byte	0xbf2
 3078 0d18 22       		.uleb128 0x22
 3079 0d19 3C000000 		.4byte	.LVL31
 3080 0d1d B7180000 		.4byte	0x18b7
 3081 0d21 21       		.uleb128 0x21
 3082 0d22 01       		.uleb128 0x1
 3083 0d23 50       		.byte	0x50
 3084 0d24 02       		.uleb128 0x2
 3085 0d25 74       		.byte	0x74
 3086 0d26 04       		.sleb128 4
 3087 0d27 00       		.byte	0
 3088 0d28 00       		.byte	0
 3089 0d29 07       		.uleb128 0x7
 3090 0d2a DD080000 		.4byte	0x8dd
 3091 0d2e 07       		.uleb128 0x7
 3092 0d2f 9A000000 		.4byte	0x9a
 3093 0d33 29       		.uleb128 0x29
 3094 0d34 9F060000 		.4byte	.LASF273
 3095 0d38 01       		.byte	0x1
 3096 0d39 DF       		.byte	0xdf
 3097 0d3a D2080000 		.4byte	0x8d2
 3098 0d3e 00000000 		.4byte	.LFB595
 3099 0d42 50000000 		.4byte	.LFE595-.LFB595
 3100 0d46 01       		.uleb128 0x1
 3101 0d47 9C       		.byte	0x9c
 3102 0d48 C00D0000 		.4byte	0xdc0
ARM GAS  C:\Users\kateb\AppData\Local\Temp\ccjwfWYs.s 			page 78


 3103 0d4c 2A       		.uleb128 0x2a
 3104 0d4d 86190000 		.4byte	.LASF272
 3105 0d51 01       		.byte	0x1
 3106 0d52 E1       		.byte	0xe1
 3107 0d53 D2080000 		.4byte	0x8d2
 3108 0d57 B9020000 		.4byte	.LLST11
 3109 0d5b 26       		.uleb128 0x26
 3110 0d5c F50A0000 		.4byte	0xaf5
 3111 0d60 28000000 		.4byte	.LBB32
 3112 0d64 12000000 		.4byte	.LBE32-.LBB32
 3113 0d68 01       		.byte	0x1
 3114 0d69 0F01     		.2byte	0x10f
 3115 0d6b 7F0D0000 		.4byte	0xd7f
 3116 0d6f 27       		.uleb128 0x27
 3117 0d70 28000000 		.4byte	.LBB33
 3118 0d74 12000000 		.4byte	.LBE33-.LBB33
 3119 0d78 28       		.uleb128 0x28
 3120 0d79 010B0000 		.4byte	0xb01
 3121 0d7d 00       		.byte	0
 3122 0d7e 00       		.byte	0
 3123 0d7f 24       		.uleb128 0x24
 3124 0d80 08000000 		.4byte	.LVL33
 3125 0d84 F20B0000 		.4byte	0xbf2
 3126 0d88 22       		.uleb128 0x22
 3127 0d89 22000000 		.4byte	.LVL34
 3128 0d8d C3180000 		.4byte	0x18c3
 3129 0d91 21       		.uleb128 0x21
 3130 0d92 01       		.uleb128 0x1
 3131 0d93 50       		.byte	0x50
 3132 0d94 05       		.uleb128 0x5
 3133 0d95 03       		.byte	0x3
 3134 0d96 00000000 		.4byte	prvTimerTask
 3135 0d9a 21       		.uleb128 0x21
 3136 0d9b 01       		.uleb128 0x1
 3137 0d9c 51       		.byte	0x51
 3138 0d9d 05       		.uleb128 0x5
 3139 0d9e 03       		.byte	0x3
 3140 0d9f 08000000 		.4byte	.LC1
 3141 0da3 21       		.uleb128 0x21
 3142 0da4 01       		.uleb128 0x1
 3143 0da5 52       		.byte	0x52
 3144 0da6 02       		.uleb128 0x2
 3145 0da7 08       		.byte	0x8
 3146 0da8 80       		.byte	0x80
 3147 0da9 21       		.uleb128 0x21
 3148 0daa 01       		.uleb128 0x1
 3149 0dab 53       		.byte	0x53
 3150 0dac 01       		.uleb128 0x1
 3151 0dad 30       		.byte	0x30
 3152 0dae 21       		.uleb128 0x21
 3153 0daf 02       		.uleb128 0x2
 3154 0db0 7D       		.byte	0x7d
 3155 0db1 00       		.sleb128 0
 3156 0db2 01       		.uleb128 0x1
 3157 0db3 44       		.byte	0x44
 3158 0db4 21       		.uleb128 0x21
 3159 0db5 02       		.uleb128 0x2
ARM GAS  C:\Users\kateb\AppData\Local\Temp\ccjwfWYs.s 			page 79


 3160 0db6 7D       		.byte	0x7d
 3161 0db7 04       		.sleb128 4
 3162 0db8 05       		.uleb128 0x5
 3163 0db9 03       		.byte	0x3
 3164 0dba 34000000 		.4byte	.LANCHOR0+52
 3165 0dbe 00       		.byte	0
 3166 0dbf 00       		.byte	0
 3167 0dc0 2B       		.uleb128 0x2b
 3168 0dc1 3A0E0000 		.4byte	.LASF274
 3169 0dc5 01       		.byte	0x1
 3170 0dc6 1601     		.2byte	0x116
 3171 0dc8 EB090000 		.4byte	0x9eb
 3172 0dcc 00000000 		.4byte	.LFB596
 3173 0dd0 32000000 		.4byte	.LFE596-.LFB596
 3174 0dd4 01       		.uleb128 0x1
 3175 0dd5 9C       		.byte	0x9c
 3176 0dd6 7F0E0000 		.4byte	0xe7f
 3177 0dda 1E       		.uleb128 0x1e
 3178 0ddb 52030000 		.4byte	.LASF246
 3179 0ddf 01       		.byte	0x1
 3180 0de0 1601     		.2byte	0x116
 3181 0de2 DB090000 		.4byte	0x9db
 3182 0de6 EF020000 		.4byte	.LLST12
 3183 0dea 1E       		.uleb128 0x1e
 3184 0deb BD1C0000 		.4byte	.LASF248
 3185 0def 01       		.byte	0x1
 3186 0df0 1701     		.2byte	0x117
 3187 0df2 ED0B0000 		.4byte	0xbed
 3188 0df6 0D030000 		.4byte	.LLST13
 3189 0dfa 1E       		.uleb128 0x1e
 3190 0dfb 86180000 		.4byte	.LASF249
 3191 0dff 01       		.byte	0x1
 3192 0e00 1801     		.2byte	0x118
 3193 0e02 290D0000 		.4byte	0xd29
 3194 0e06 2B030000 		.4byte	.LLST14
 3195 0e0a 1E       		.uleb128 0x1e
 3196 0e0b 97110000 		.4byte	.LASF250
 3197 0e0f 01       		.byte	0x1
 3198 0e10 1901     		.2byte	0x119
 3199 0e12 2E0D0000 		.4byte	0xd2e
 3200 0e16 49030000 		.4byte	.LLST15
 3201 0e1a 25       		.uleb128 0x25
 3202 0e1b 85010000 		.4byte	.LASF251
 3203 0e1f 01       		.byte	0x1
 3204 0e20 1A01     		.2byte	0x11a
 3205 0e22 F6090000 		.4byte	0x9f6
 3206 0e26 02       		.uleb128 0x2
 3207 0e27 91       		.byte	0x91
 3208 0e28 00       		.sleb128 0
 3209 0e29 1F       		.uleb128 0x1f
 3210 0e2a 07090000 		.4byte	.LASF271
 3211 0e2e 01       		.byte	0x1
 3212 0e2f 1C01     		.2byte	0x11c
 3213 0e31 A20A0000 		.4byte	0xaa2
 3214 0e35 67030000 		.4byte	.LLST16
 3215 0e39 20       		.uleb128 0x20
 3216 0e3a 14000000 		.4byte	.LVL40
ARM GAS  C:\Users\kateb\AppData\Local\Temp\ccjwfWYs.s 			page 80


 3217 0e3e CF180000 		.4byte	0x18cf
 3218 0e42 4D0E0000 		.4byte	0xe4d
 3219 0e46 21       		.uleb128 0x21
 3220 0e47 01       		.uleb128 0x1
 3221 0e48 50       		.byte	0x50
 3222 0e49 02       		.uleb128 0x2
 3223 0e4a 08       		.byte	0x8
 3224 0e4b 28       		.byte	0x28
 3225 0e4c 00       		.byte	0
 3226 0e4d 22       		.uleb128 0x22
 3227 0e4e 2A000000 		.4byte	.LVL42
 3228 0e52 770C0000 		.4byte	0xc77
 3229 0e56 21       		.uleb128 0x21
 3230 0e57 01       		.uleb128 0x1
 3231 0e58 50       		.byte	0x50
 3232 0e59 02       		.uleb128 0x2
 3233 0e5a 75       		.byte	0x75
 3234 0e5b 00       		.sleb128 0
 3235 0e5c 21       		.uleb128 0x21
 3236 0e5d 01       		.uleb128 0x1
 3237 0e5e 51       		.byte	0x51
 3238 0e5f 02       		.uleb128 0x2
 3239 0e60 76       		.byte	0x76
 3240 0e61 00       		.sleb128 0
 3241 0e62 21       		.uleb128 0x21
 3242 0e63 01       		.uleb128 0x1
 3243 0e64 52       		.byte	0x52
 3244 0e65 02       		.uleb128 0x2
 3245 0e66 77       		.byte	0x77
 3246 0e67 00       		.sleb128 0
 3247 0e68 21       		.uleb128 0x21
 3248 0e69 01       		.uleb128 0x1
 3249 0e6a 53       		.byte	0x53
 3250 0e6b 02       		.uleb128 0x2
 3251 0e6c 78       		.byte	0x78
 3252 0e6d 00       		.sleb128 0
 3253 0e6e 21       		.uleb128 0x21
 3254 0e6f 02       		.uleb128 0x2
 3255 0e70 7D       		.byte	0x7d
 3256 0e71 00       		.sleb128 0
 3257 0e72 03       		.uleb128 0x3
 3258 0e73 91       		.byte	0x91
 3259 0e74 00       		.sleb128 0
 3260 0e75 06       		.byte	0x6
 3261 0e76 21       		.uleb128 0x21
 3262 0e77 02       		.uleb128 0x2
 3263 0e78 7D       		.byte	0x7d
 3264 0e79 04       		.sleb128 4
 3265 0e7a 02       		.uleb128 0x2
 3266 0e7b 74       		.byte	0x74
 3267 0e7c 00       		.sleb128 0
 3268 0e7d 00       		.byte	0
 3269 0e7e 00       		.byte	0
 3270 0e7f 2B       		.uleb128 0x2b
 3271 0e80 1B020000 		.4byte	.LASF275
 3272 0e84 01       		.byte	0x1
 3273 0e85 7D01     		.2byte	0x17d
ARM GAS  C:\Users\kateb\AppData\Local\Temp\ccjwfWYs.s 			page 81


 3274 0e87 D2080000 		.4byte	0x8d2
 3275 0e8b 00000000 		.4byte	.LFB598
 3276 0e8f 6C000000 		.4byte	.LFE598-.LFB598
 3277 0e93 01       		.uleb128 0x1
 3278 0e94 9C       		.byte	0x9c
 3279 0e95 890F0000 		.4byte	0xf89
 3280 0e99 1E       		.uleb128 0x1e
 3281 0e9a 7F180000 		.4byte	.LASF276
 3282 0e9e 01       		.byte	0x1
 3283 0e9f 7D01     		.2byte	0x17d
 3284 0ea1 EB090000 		.4byte	0x9eb
 3285 0ea5 85030000 		.4byte	.LLST17
 3286 0ea9 1E       		.uleb128 0x1e
 3287 0eaa 2C060000 		.4byte	.LASF277
 3288 0eae 01       		.byte	0x1
 3289 0eaf 7D01     		.2byte	0x17d
 3290 0eb1 890F0000 		.4byte	0xf89
 3291 0eb5 B1030000 		.4byte	.LLST18
 3292 0eb9 1E       		.uleb128 0x1e
 3293 0eba 7C020000 		.4byte	.LASF278
 3294 0ebe 01       		.byte	0x1
 3295 0ebf 7D01     		.2byte	0x17d
 3296 0ec1 ED0B0000 		.4byte	0xbed
 3297 0ec5 10040000 		.4byte	.LLST19
 3298 0ec9 1E       		.uleb128 0x1e
 3299 0eca B0020000 		.4byte	.LASF279
 3300 0ece 01       		.byte	0x1
 3301 0ecf 7D01     		.2byte	0x17d
 3302 0ed1 4E0B0000 		.4byte	0xb4e
 3303 0ed5 3C040000 		.4byte	.LLST20
 3304 0ed9 1E       		.uleb128 0x1e
 3305 0eda 851B0000 		.4byte	.LASF280
 3306 0ede 01       		.byte	0x1
 3307 0edf 7D01     		.2byte	0x17d
 3308 0ee1 ED0B0000 		.4byte	0xbed
 3309 0ee5 B3040000 		.4byte	.LLST21
 3310 0ee9 1F       		.uleb128 0x1f
 3311 0eea 86190000 		.4byte	.LASF272
 3312 0eee 01       		.byte	0x1
 3313 0eef 7F01     		.2byte	0x17f
 3314 0ef1 D2080000 		.4byte	0x8d2
 3315 0ef5 D3040000 		.4byte	.LLST22
 3316 0ef9 2C       		.uleb128 0x2c
 3317 0efa F2170000 		.4byte	.LASF281
 3318 0efe 01       		.byte	0x1
 3319 0eff 8001     		.2byte	0x180
 3320 0f01 EA0A0000 		.4byte	0xaea
 3321 0f05 02       		.uleb128 0x2
 3322 0f06 91       		.byte	0x91
 3323 0f07 64       		.sleb128 -28
 3324 0f08 26       		.uleb128 0x26
 3325 0f09 F50A0000 		.4byte	0xaf5
 3326 0f0d 02000000 		.4byte	.LBB34
 3327 0f11 12000000 		.4byte	.LBE34-.LBB34
 3328 0f15 01       		.byte	0x1
 3329 0f16 8201     		.2byte	0x182
 3330 0f18 2C0F0000 		.4byte	0xf2c
ARM GAS  C:\Users\kateb\AppData\Local\Temp\ccjwfWYs.s 			page 82


 3331 0f1c 27       		.uleb128 0x27
 3332 0f1d 02000000 		.4byte	.LBB35
 3333 0f21 12000000 		.4byte	.LBE35-.LBB35
 3334 0f25 28       		.uleb128 0x28
 3335 0f26 010B0000 		.4byte	0xb01
 3336 0f2a 00       		.byte	0
 3337 0f2b 00       		.byte	0
 3338 0f2c 24       		.uleb128 0x24
 3339 0f2d 32000000 		.4byte	.LVL49
 3340 0f31 DA180000 		.4byte	0x18da
 3341 0f35 20       		.uleb128 0x20
 3342 0f36 44000000 		.4byte	.LVL50
 3343 0f3a E6180000 		.4byte	0x18e6
 3344 0f3e 550F0000 		.4byte	0xf55
 3345 0f42 21       		.uleb128 0x21
 3346 0f43 01       		.uleb128 0x1
 3347 0f44 51       		.byte	0x51
 3348 0f45 02       		.uleb128 0x2
 3349 0f46 91       		.byte	0x91
 3350 0f47 64       		.sleb128 -28
 3351 0f48 21       		.uleb128 0x21
 3352 0f49 01       		.uleb128 0x1
 3353 0f4a 52       		.byte	0x52
 3354 0f4b 03       		.uleb128 0x3
 3355 0f4c 91       		.byte	0x91
 3356 0f4d 00       		.sleb128 0
 3357 0f4e 06       		.byte	0x6
 3358 0f4f 21       		.uleb128 0x21
 3359 0f50 01       		.uleb128 0x1
 3360 0f51 53       		.byte	0x53
 3361 0f52 01       		.uleb128 0x1
 3362 0f53 30       		.byte	0x30
 3363 0f54 00       		.byte	0
 3364 0f55 20       		.uleb128 0x20
 3365 0f56 54000000 		.4byte	.LVL52
 3366 0f5a E6180000 		.4byte	0x18e6
 3367 0f5e 730F0000 		.4byte	0xf73
 3368 0f62 21       		.uleb128 0x21
 3369 0f63 01       		.uleb128 0x1
 3370 0f64 51       		.byte	0x51
 3371 0f65 02       		.uleb128 0x2
 3372 0f66 91       		.byte	0x91
 3373 0f67 64       		.sleb128 -28
 3374 0f68 21       		.uleb128 0x21
 3375 0f69 01       		.uleb128 0x1
 3376 0f6a 52       		.byte	0x52
 3377 0f6b 01       		.uleb128 0x1
 3378 0f6c 30       		.byte	0x30
 3379 0f6d 21       		.uleb128 0x21
 3380 0f6e 01       		.uleb128 0x1
 3381 0f6f 53       		.byte	0x53
 3382 0f70 01       		.uleb128 0x1
 3383 0f71 30       		.byte	0x30
 3384 0f72 00       		.byte	0
 3385 0f73 22       		.uleb128 0x22
 3386 0f74 5E000000 		.4byte	.LVL55
 3387 0f78 F2180000 		.4byte	0x18f2
ARM GAS  C:\Users\kateb\AppData\Local\Temp\ccjwfWYs.s 			page 83


 3388 0f7c 21       		.uleb128 0x21
 3389 0f7d 01       		.uleb128 0x1
 3390 0f7e 51       		.byte	0x51
 3391 0f7f 02       		.uleb128 0x2
 3392 0f80 91       		.byte	0x91
 3393 0f81 64       		.sleb128 -28
 3394 0f82 21       		.uleb128 0x21
 3395 0f83 01       		.uleb128 0x1
 3396 0f84 53       		.byte	0x53
 3397 0f85 01       		.uleb128 0x1
 3398 0f86 30       		.byte	0x30
 3399 0f87 00       		.byte	0
 3400 0f88 00       		.byte	0
 3401 0f89 07       		.uleb128 0x7
 3402 0f8a D2080000 		.4byte	0x8d2
 3403 0f8e 23       		.uleb128 0x23
 3404 0f8f 40110000 		.4byte	.LASF282
 3405 0f93 01       		.byte	0x1
 3406 0f94 4303     		.2byte	0x343
 3407 0f96 00000000 		.4byte	.LFB610
 3408 0f9a 74000000 		.4byte	.LFE610-.LFB610
 3409 0f9e 01       		.uleb128 0x1
 3410 0f9f 9C       		.byte	0x9c
 3411 0fa0 75100000 		.4byte	0x1075
 3412 0fa4 1F       		.uleb128 0x1f
 3413 0fa5 5F120000 		.4byte	.LASF267
 3414 0fa9 01       		.byte	0x1
 3415 0faa 4503     		.2byte	0x345
 3416 0fac E8080000 		.4byte	0x8e8
 3417 0fb0 37050000 		.4byte	.LLST23
 3418 0fb4 1F       		.uleb128 0x1f
 3419 0fb5 FD180000 		.4byte	.LASF283
 3420 0fb9 01       		.byte	0x1
 3421 0fba 4503     		.2byte	0x345
 3422 0fbc E8080000 		.4byte	0x8e8
 3423 0fc0 4A050000 		.4byte	.LLST24
 3424 0fc4 2C       		.uleb128 0x2c
 3425 0fc5 67090000 		.4byte	.LASF284
 3426 0fc9 01       		.byte	0x1
 3427 0fca 4603     		.2byte	0x346
 3428 0fcc 75100000 		.4byte	0x1075
 3429 0fd0 01       		.uleb128 0x1
 3430 0fd1 53       		.byte	0x53
 3431 0fd2 1F       		.uleb128 0x1f
 3432 0fd3 4E1A0000 		.4byte	.LASF256
 3433 0fd7 01       		.byte	0x1
 3434 0fd8 4703     		.2byte	0x347
 3435 0fda A20A0000 		.4byte	0xaa2
 3436 0fde 74050000 		.4byte	.LLST25
 3437 0fe2 1F       		.uleb128 0x1f
 3438 0fe3 9A1B0000 		.4byte	.LASF285
 3439 0fe7 01       		.byte	0x1
 3440 0fe8 4803     		.2byte	0x348
 3441 0fea D2080000 		.4byte	0x8d2
 3442 0fee 87050000 		.4byte	.LLST26
 3443 0ff2 26       		.uleb128 0x26
 3444 0ff3 F50A0000 		.4byte	0xaf5
ARM GAS  C:\Users\kateb\AppData\Local\Temp\ccjwfWYs.s 			page 84


 3445 0ff7 48000000 		.4byte	.LBB36
 3446 0ffb 12000000 		.4byte	.LBE36-.LBB36
 3447 0fff 01       		.byte	0x1
 3448 1000 6E03     		.2byte	0x36e
 3449 1002 16100000 		.4byte	0x1016
 3450 1006 27       		.uleb128 0x27
 3451 1007 48000000 		.4byte	.LBB37
 3452 100b 12000000 		.4byte	.LBE37-.LBB37
 3453 100f 28       		.uleb128 0x28
 3454 1010 010B0000 		.4byte	0xb01
 3455 1014 00       		.byte	0
 3456 1015 00       		.byte	0
 3457 1016 20       		.uleb128 0x20
 3458 1017 14000000 		.4byte	.LVL61
 3459 101b FE180000 		.4byte	0x18fe
 3460 101f 2A100000 		.4byte	0x102a
 3461 1023 21       		.uleb128 0x21
 3462 1024 01       		.uleb128 0x1
 3463 1025 50       		.byte	0x50
 3464 1026 02       		.uleb128 0x2
 3465 1027 75       		.byte	0x75
 3466 1028 00       		.sleb128 0
 3467 1029 00       		.byte	0
 3468 102a 2D       		.uleb128 0x2d
 3469 102b 1A000000 		.4byte	.LVL62
 3470 102f 3A100000 		.4byte	0x103a
 3471 1033 21       		.uleb128 0x21
 3472 1034 01       		.uleb128 0x1
 3473 1035 50       		.byte	0x50
 3474 1036 02       		.uleb128 0x2
 3475 1037 74       		.byte	0x74
 3476 1038 00       		.sleb128 0
 3477 1039 00       		.byte	0
 3478 103a 20       		.uleb128 0x20
 3479 103b 36000000 		.4byte	.LVL65
 3480 103f 71180000 		.4byte	0x1871
 3481 1043 4E100000 		.4byte	0x104e
 3482 1047 21       		.uleb128 0x21
 3483 1048 01       		.uleb128 0x1
 3484 1049 51       		.byte	0x51
 3485 104a 02       		.uleb128 0x2
 3486 104b 75       		.byte	0x75
 3487 104c 00       		.sleb128 0
 3488 104d 00       		.byte	0
 3489 104e 22       		.uleb128 0x22
 3490 104f 46000000 		.4byte	.LVL68
 3491 1053 7F0E0000 		.4byte	0xe7f
 3492 1057 21       		.uleb128 0x21
 3493 1058 01       		.uleb128 0x1
 3494 1059 50       		.byte	0x50
 3495 105a 02       		.uleb128 0x2
 3496 105b 74       		.byte	0x74
 3497 105c 00       		.sleb128 0
 3498 105d 21       		.uleb128 0x21
 3499 105e 01       		.uleb128 0x1
 3500 105f 51       		.byte	0x51
 3501 1060 01       		.uleb128 0x1
ARM GAS  C:\Users\kateb\AppData\Local\Temp\ccjwfWYs.s 			page 85


 3502 1061 30       		.byte	0x30
 3503 1062 21       		.uleb128 0x21
 3504 1063 01       		.uleb128 0x1
 3505 1064 52       		.byte	0x52
 3506 1065 02       		.uleb128 0x2
 3507 1066 76       		.byte	0x76
 3508 1067 00       		.sleb128 0
 3509 1068 21       		.uleb128 0x21
 3510 1069 01       		.uleb128 0x1
 3511 106a 53       		.byte	0x53
 3512 106b 01       		.uleb128 0x1
 3513 106c 30       		.byte	0x30
 3514 106d 21       		.uleb128 0x21
 3515 106e 02       		.uleb128 0x2
 3516 106f 7D       		.byte	0x7d
 3517 1070 00       		.sleb128 0
 3518 1071 01       		.uleb128 0x1
 3519 1072 30       		.byte	0x30
 3520 1073 00       		.byte	0
 3521 1074 00       		.byte	0
 3522 1075 06       		.uleb128 0x6
 3523 1076 04       		.byte	0x4
 3524 1077 C5090000 		.4byte	0x9c5
 3525 107b 1D       		.uleb128 0x1d
 3526 107c 690E0000 		.4byte	.LASF286
 3527 1080 01       		.byte	0x1
 3528 1081 7002     		.2byte	0x270
 3529 1083 E8080000 		.4byte	0x8e8
 3530 1087 00000000 		.4byte	.LFB607
 3531 108b 2C000000 		.4byte	.LFE607-.LFB607
 3532 108f 01       		.uleb128 0x1
 3533 1090 9C       		.byte	0x9c
 3534 1091 DA100000 		.4byte	0x10da
 3535 1095 1E       		.uleb128 0x1e
 3536 1096 00000000 		.4byte	.LASF287
 3537 109a 01       		.byte	0x1
 3538 109b 7002     		.2byte	0x270
 3539 109d 4E0B0000 		.4byte	0xb4e
 3540 10a1 9A050000 		.4byte	.LLST27
 3541 10a5 1F       		.uleb128 0x1f
 3542 10a6 09020000 		.4byte	.LASF265
 3543 10aa 01       		.byte	0x1
 3544 10ab 7202     		.2byte	0x272
 3545 10ad E8080000 		.4byte	0x8e8
 3546 10b1 C6050000 		.4byte	.LLST28
 3547 10b5 2C       		.uleb128 0x2c
 3548 10b6 2F170000 		.4byte	.LASF288
 3549 10ba 01       		.byte	0x1
 3550 10bb 7302     		.2byte	0x273
 3551 10bd E8080000 		.4byte	0x8e8
 3552 10c1 05       		.uleb128 0x5
 3553 10c2 03       		.byte	0x3
 3554 10c3 38000000 		.4byte	xLastTime.18694
 3555 10c7 24       		.uleb128 0x24
 3556 10c8 08000000 		.4byte	.LVL73
 3557 10cc 0A190000 		.4byte	0x190a
 3558 10d0 24       		.uleb128 0x24
ARM GAS  C:\Users\kateb\AppData\Local\Temp\ccjwfWYs.s 			page 86


 3559 10d1 16000000 		.4byte	.LVL75
 3560 10d5 8E0F0000 		.4byte	0xf8e
 3561 10d9 00       		.byte	0
 3562 10da 23       		.uleb128 0x23
 3563 10db 7C070000 		.4byte	.LASF289
 3564 10df 01       		.byte	0x1
 3565 10e0 CE01     		.2byte	0x1ce
 3566 10e2 00000000 		.4byte	.LFB603
 3567 10e6 5C000000 		.4byte	.LFE603-.LFB603
 3568 10ea 01       		.uleb128 0x1
 3569 10eb 9C       		.byte	0x9c
 3570 10ec BF110000 		.4byte	0x11bf
 3571 10f0 1E       		.uleb128 0x1e
 3572 10f1 5F120000 		.4byte	.LASF267
 3573 10f5 01       		.byte	0x1
 3574 10f6 CE01     		.2byte	0x1ce
 3575 10f8 ED0B0000 		.4byte	0xbed
 3576 10fc 05060000 		.4byte	.LLST29
 3577 1100 1E       		.uleb128 0x1e
 3578 1101 09020000 		.4byte	.LASF265
 3579 1105 01       		.byte	0x1
 3580 1106 CE01     		.2byte	0x1ce
 3581 1108 ED0B0000 		.4byte	0xbed
 3582 110c 31060000 		.4byte	.LLST30
 3583 1110 1F       		.uleb128 0x1f
 3584 1111 9A1B0000 		.4byte	.LASF285
 3585 1115 01       		.byte	0x1
 3586 1116 D001     		.2byte	0x1d0
 3587 1118 D2080000 		.4byte	0x8d2
 3588 111c 5D060000 		.4byte	.LLST31
 3589 1120 1F       		.uleb128 0x1f
 3590 1121 4E1A0000 		.4byte	.LASF256
 3591 1125 01       		.byte	0x1
 3592 1126 D101     		.2byte	0x1d1
 3593 1128 E80B0000 		.4byte	0xbe8
 3594 112c 70060000 		.4byte	.LLST32
 3595 1130 26       		.uleb128 0x26
 3596 1131 F50A0000 		.4byte	0xaf5
 3597 1135 3C000000 		.4byte	.LBB38
 3598 1139 12000000 		.4byte	.LBE38-.LBB38
 3599 113d 01       		.byte	0x1
 3600 113e E401     		.2byte	0x1e4
 3601 1140 54110000 		.4byte	0x1154
 3602 1144 27       		.uleb128 0x27
 3603 1145 3C000000 		.4byte	.LBB39
 3604 1149 12000000 		.4byte	.LBE39-.LBB39
 3605 114d 28       		.uleb128 0x28
 3606 114e 010B0000 		.4byte	0xb01
 3607 1152 00       		.byte	0
 3608 1153 00       		.byte	0
 3609 1154 20       		.uleb128 0x20
 3610 1155 16000000 		.4byte	.LVL82
 3611 1159 FE180000 		.4byte	0x18fe
 3612 115d 68110000 		.4byte	0x1168
 3613 1161 21       		.uleb128 0x21
 3614 1162 01       		.uleb128 0x1
 3615 1163 50       		.byte	0x50
ARM GAS  C:\Users\kateb\AppData\Local\Temp\ccjwfWYs.s 			page 87


 3616 1164 02       		.uleb128 0x2
 3617 1165 74       		.byte	0x74
 3618 1166 04       		.sleb128 4
 3619 1167 00       		.byte	0
 3620 1168 20       		.uleb128 0x20
 3621 1169 2A000000 		.4byte	.LVL83
 3622 116d 530B0000 		.4byte	0xb53
 3623 1171 88110000 		.4byte	0x1188
 3624 1175 21       		.uleb128 0x21
 3625 1176 01       		.uleb128 0x1
 3626 1177 50       		.byte	0x50
 3627 1178 02       		.uleb128 0x2
 3628 1179 74       		.byte	0x74
 3629 117a 00       		.sleb128 0
 3630 117b 21       		.uleb128 0x21
 3631 117c 01       		.uleb128 0x1
 3632 117d 52       		.byte	0x52
 3633 117e 02       		.uleb128 0x2
 3634 117f 76       		.byte	0x76
 3635 1180 00       		.sleb128 0
 3636 1181 21       		.uleb128 0x21
 3637 1182 01       		.uleb128 0x1
 3638 1183 53       		.byte	0x53
 3639 1184 02       		.uleb128 0x2
 3640 1185 75       		.byte	0x75
 3641 1186 00       		.sleb128 0
 3642 1187 00       		.byte	0
 3643 1188 20       		.uleb128 0x20
 3644 1189 3A000000 		.4byte	.LVL84
 3645 118d 7F0E0000 		.4byte	0xe7f
 3646 1191 B2110000 		.4byte	0x11b2
 3647 1195 21       		.uleb128 0x21
 3648 1196 01       		.uleb128 0x1
 3649 1197 50       		.byte	0x50
 3650 1198 02       		.uleb128 0x2
 3651 1199 74       		.byte	0x74
 3652 119a 00       		.sleb128 0
 3653 119b 21       		.uleb128 0x21
 3654 119c 01       		.uleb128 0x1
 3655 119d 51       		.byte	0x51
 3656 119e 01       		.uleb128 0x1
 3657 119f 30       		.byte	0x30
 3658 11a0 21       		.uleb128 0x21
 3659 11a1 01       		.uleb128 0x1
 3660 11a2 52       		.byte	0x52
 3661 11a3 02       		.uleb128 0x2
 3662 11a4 75       		.byte	0x75
 3663 11a5 00       		.sleb128 0
 3664 11a6 21       		.uleb128 0x21
 3665 11a7 01       		.uleb128 0x1
 3666 11a8 53       		.byte	0x53
 3667 11a9 01       		.uleb128 0x1
 3668 11aa 30       		.byte	0x30
 3669 11ab 21       		.uleb128 0x21
 3670 11ac 02       		.uleb128 0x2
 3671 11ad 7D       		.byte	0x7d
 3672 11ae 00       		.sleb128 0
ARM GAS  C:\Users\kateb\AppData\Local\Temp\ccjwfWYs.s 			page 88


 3673 11af 01       		.uleb128 0x1
 3674 11b0 30       		.byte	0x30
 3675 11b1 00       		.byte	0
 3676 11b2 2E       		.uleb128 0x2e
 3677 11b3 54000000 		.4byte	.LVL87
 3678 11b7 21       		.uleb128 0x21
 3679 11b8 01       		.uleb128 0x1
 3680 11b9 50       		.byte	0x50
 3681 11ba 02       		.uleb128 0x2
 3682 11bb 74       		.byte	0x74
 3683 11bc 00       		.sleb128 0
 3684 11bd 00       		.byte	0
 3685 11be 00       		.byte	0
 3686 11bf 23       		.uleb128 0x23
 3687 11c0 FE1B0000 		.4byte	.LASF290
 3688 11c4 01       		.byte	0x1
 3689 11c5 1A02     		.2byte	0x21a
 3690 11c7 00000000 		.4byte	.LFB605
 3691 11cb 70000000 		.4byte	.LFE605-.LFB605
 3692 11cf 01       		.uleb128 0x1
 3693 11d0 9C       		.byte	0x9c
 3694 11d1 84120000 		.4byte	0x1284
 3695 11d5 1E       		.uleb128 0x1e
 3696 11d6 5F120000 		.4byte	.LASF267
 3697 11da 01       		.byte	0x1
 3698 11db 1A02     		.2byte	0x21a
 3699 11dd ED0B0000 		.4byte	0xbed
 3700 11e1 83060000 		.4byte	.LLST33
 3701 11e5 1E       		.uleb128 0x1e
 3702 11e6 4F1F0000 		.4byte	.LASF291
 3703 11ea 01       		.byte	0x1
 3704 11eb 1A02     		.2byte	0x21a
 3705 11ed D2080000 		.4byte	0x8d2
 3706 11f1 AF060000 		.4byte	.LLST34
 3707 11f5 1F       		.uleb128 0x1f
 3708 11f6 09020000 		.4byte	.LASF265
 3709 11fa 01       		.byte	0x1
 3710 11fb 1C02     		.2byte	0x21c
 3711 11fd E8080000 		.4byte	0x8e8
 3712 1201 E6060000 		.4byte	.LLST35
 3713 1205 2C       		.uleb128 0x2c
 3714 1206 950F0000 		.4byte	.LASF292
 3715 120a 01       		.byte	0x1
 3716 120b 1D02     		.2byte	0x21d
 3717 120d D2080000 		.4byte	0x8d2
 3718 1211 02       		.uleb128 0x2
 3719 1212 91       		.byte	0x91
 3720 1213 6C       		.sleb128 -20
 3721 1214 24       		.uleb128 0x24
 3722 1215 0C000000 		.4byte	.LVL90
 3723 1219 16190000 		.4byte	0x1916
 3724 121d 20       		.uleb128 0x20
 3725 121e 12000000 		.4byte	.LVL91
 3726 1222 7B100000 		.4byte	0x107b
 3727 1226 31120000 		.4byte	0x1231
 3728 122a 21       		.uleb128 0x21
 3729 122b 01       		.uleb128 0x1
ARM GAS  C:\Users\kateb\AppData\Local\Temp\ccjwfWYs.s 			page 89


 3730 122c 50       		.byte	0x50
 3731 122d 02       		.uleb128 0x2
 3732 122e 91       		.byte	0x91
 3733 122f 6C       		.sleb128 -20
 3734 1230 00       		.byte	0
 3735 1231 24       		.uleb128 0x24
 3736 1232 22000000 		.4byte	.LVL92
 3737 1236 22190000 		.4byte	0x1922
 3738 123a 20       		.uleb128 0x20
 3739 123b 2A000000 		.4byte	.LVL93
 3740 123f DA100000 		.4byte	0x10da
 3741 1243 54120000 		.4byte	0x1254
 3742 1247 21       		.uleb128 0x21
 3743 1248 01       		.uleb128 0x1
 3744 1249 50       		.byte	0x50
 3745 124a 02       		.uleb128 0x2
 3746 124b 76       		.byte	0x76
 3747 124c 00       		.sleb128 0
 3748 124d 21       		.uleb128 0x21
 3749 124e 01       		.uleb128 0x1
 3750 124f 51       		.byte	0x51
 3751 1250 02       		.uleb128 0x2
 3752 1251 75       		.byte	0x75
 3753 1252 00       		.sleb128 0
 3754 1253 00       		.byte	0
 3755 1254 20       		.uleb128 0x20
 3756 1255 46000000 		.4byte	.LVL98
 3757 1259 2E190000 		.4byte	0x192e
 3758 125d 71120000 		.4byte	0x1271
 3759 1261 21       		.uleb128 0x21
 3760 1262 01       		.uleb128 0x1
 3761 1263 51       		.byte	0x51
 3762 1264 05       		.uleb128 0x5
 3763 1265 76       		.byte	0x76
 3764 1266 00       		.sleb128 0
 3765 1267 75       		.byte	0x75
 3766 1268 00       		.sleb128 0
 3767 1269 1C       		.byte	0x1c
 3768 126a 21       		.uleb128 0x21
 3769 126b 01       		.uleb128 0x1
 3770 126c 52       		.byte	0x52
 3771 126d 02       		.uleb128 0x2
 3772 126e 74       		.byte	0x74
 3773 126f 00       		.sleb128 0
 3774 1270 00       		.byte	0
 3775 1271 24       		.uleb128 0x24
 3776 1272 4A000000 		.4byte	.LVL99
 3777 1276 22190000 		.4byte	0x1922
 3778 127a 24       		.uleb128 0x24
 3779 127b 62000000 		.4byte	.LVL101
 3780 127f 22190000 		.4byte	0x1922
 3781 1283 00       		.byte	0
 3782 1284 23       		.uleb128 0x23
 3783 1285 04170000 		.4byte	.LASF293
 3784 1289 01       		.byte	0x1
 3785 128a B002     		.2byte	0x2b0
 3786 128c 00000000 		.4byte	.LFB609
ARM GAS  C:\Users\kateb\AppData\Local\Temp\ccjwfWYs.s 			page 90


 3787 1290 BC000000 		.4byte	.LFE609-.LFB609
 3788 1294 01       		.uleb128 0x1
 3789 1295 9C       		.byte	0x9c
 3790 1296 DE130000 		.4byte	0x13de
 3791 129a 2C       		.uleb128 0x2c
 3792 129b F2170000 		.4byte	.LASF281
 3793 129f 01       		.byte	0x1
 3794 12a0 B202     		.2byte	0x2b2
 3795 12a2 EA0A0000 		.4byte	0xaea
 3796 12a6 02       		.uleb128 0x2
 3797 12a7 91       		.byte	0x91
 3798 12a8 64       		.sleb128 -28
 3799 12a9 1F       		.uleb128 0x1f
 3800 12aa 4E1A0000 		.4byte	.LASF256
 3801 12ae 01       		.byte	0x1
 3802 12af B302     		.2byte	0x2b3
 3803 12b1 A20A0000 		.4byte	0xaa2
 3804 12b5 25070000 		.4byte	.LLST36
 3805 12b9 2C       		.uleb128 0x2c
 3806 12ba 950F0000 		.4byte	.LASF292
 3807 12be 01       		.byte	0x1
 3808 12bf B402     		.2byte	0x2b4
 3809 12c1 D2080000 		.4byte	0x8d2
 3810 12c5 02       		.uleb128 0x2
 3811 12c6 91       		.byte	0x91
 3812 12c7 60       		.sleb128 -32
 3813 12c8 1F       		.uleb128 0x1f
 3814 12c9 9A1B0000 		.4byte	.LASF285
 3815 12cd 01       		.byte	0x1
 3816 12ce B402     		.2byte	0x2b4
 3817 12d0 D2080000 		.4byte	0x8d2
 3818 12d4 38070000 		.4byte	.LLST37
 3819 12d8 1F       		.uleb128 0x1f
 3820 12d9 09020000 		.4byte	.LASF265
 3821 12dd 01       		.byte	0x1
 3822 12de B502     		.2byte	0x2b5
 3823 12e0 E8080000 		.4byte	0x8e8
 3824 12e4 4B070000 		.4byte	.LLST38
 3825 12e8 26       		.uleb128 0x26
 3826 12e9 F50A0000 		.4byte	0xaf5
 3827 12ed 64000000 		.4byte	.LBB40
 3828 12f1 12000000 		.4byte	.LBE40-.LBB40
 3829 12f5 01       		.byte	0x1
 3830 12f6 FD02     		.2byte	0x2fd
 3831 12f8 0C130000 		.4byte	0x130c
 3832 12fc 27       		.uleb128 0x27
 3833 12fd 64000000 		.4byte	.LBB41
 3834 1301 12000000 		.4byte	.LBE41-.LBB41
 3835 1305 28       		.uleb128 0x28
 3836 1306 010B0000 		.4byte	0xb01
 3837 130a 00       		.byte	0
 3838 130b 00       		.byte	0
 3839 130c 26       		.uleb128 0x26
 3840 130d F50A0000 		.4byte	0xaf5
 3841 1311 7C000000 		.4byte	.LBB42
 3842 1315 12000000 		.4byte	.LBE42-.LBB42
 3843 1319 01       		.byte	0x1
ARM GAS  C:\Users\kateb\AppData\Local\Temp\ccjwfWYs.s 			page 91


 3844 131a 1403     		.2byte	0x314
 3845 131c 30130000 		.4byte	0x1330
 3846 1320 27       		.uleb128 0x27
 3847 1321 7C000000 		.4byte	.LBB43
 3848 1325 12000000 		.4byte	.LBE43-.LBB43
 3849 1329 28       		.uleb128 0x28
 3850 132a 010B0000 		.4byte	0xb01
 3851 132e 00       		.byte	0
 3852 132f 00       		.byte	0
 3853 1330 20       		.uleb128 0x20
 3854 1331 18000000 		.4byte	.LVL104
 3855 1335 FE180000 		.4byte	0x18fe
 3856 1339 44130000 		.4byte	0x1344
 3857 133d 21       		.uleb128 0x21
 3858 133e 01       		.uleb128 0x1
 3859 133f 50       		.byte	0x50
 3860 1340 02       		.uleb128 0x2
 3861 1341 74       		.byte	0x74
 3862 1342 04       		.sleb128 4
 3863 1343 00       		.byte	0
 3864 1344 20       		.uleb128 0x20
 3865 1345 1E000000 		.4byte	.LVL105
 3866 1349 7B100000 		.4byte	0x107b
 3867 134d 58130000 		.4byte	0x1358
 3868 1351 21       		.uleb128 0x21
 3869 1352 01       		.uleb128 0x1
 3870 1353 50       		.byte	0x50
 3871 1354 02       		.uleb128 0x2
 3872 1355 91       		.byte	0x91
 3873 1356 60       		.sleb128 -32
 3874 1357 00       		.byte	0
 3875 1358 20       		.uleb128 0x20
 3876 1359 42000000 		.4byte	.LVL107
 3877 135d 530B0000 		.4byte	0xb53
 3878 1361 6C130000 		.4byte	0x136c
 3879 1365 21       		.uleb128 0x21
 3880 1366 01       		.uleb128 0x1
 3881 1367 50       		.byte	0x50
 3882 1368 02       		.uleb128 0x2
 3883 1369 74       		.byte	0x74
 3884 136a 00       		.sleb128 0
 3885 136b 00       		.byte	0
 3886 136c 2D       		.uleb128 0x2d
 3887 136d 4A000000 		.4byte	.LVL108
 3888 1371 7C130000 		.4byte	0x137c
 3889 1375 21       		.uleb128 0x21
 3890 1376 01       		.uleb128 0x1
 3891 1377 50       		.byte	0x50
 3892 1378 02       		.uleb128 0x2
 3893 1379 74       		.byte	0x74
 3894 137a 00       		.sleb128 0
 3895 137b 00       		.byte	0
 3896 137c 20       		.uleb128 0x20
 3897 137d 62000000 		.4byte	.LVL109
 3898 1381 7F0E0000 		.4byte	0xe7f
 3899 1385 A0130000 		.4byte	0x13a0
 3900 1389 21       		.uleb128 0x21
ARM GAS  C:\Users\kateb\AppData\Local\Temp\ccjwfWYs.s 			page 92


 3901 138a 01       		.uleb128 0x1
 3902 138b 50       		.byte	0x50
 3903 138c 02       		.uleb128 0x2
 3904 138d 74       		.byte	0x74
 3905 138e 00       		.sleb128 0
 3906 138f 21       		.uleb128 0x21
 3907 1390 01       		.uleb128 0x1
 3908 1391 51       		.byte	0x51
 3909 1392 01       		.uleb128 0x1
 3910 1393 30       		.byte	0x30
 3911 1394 21       		.uleb128 0x21
 3912 1395 01       		.uleb128 0x1
 3913 1396 53       		.byte	0x53
 3914 1397 01       		.uleb128 0x1
 3915 1398 30       		.byte	0x30
 3916 1399 21       		.uleb128 0x21
 3917 139a 02       		.uleb128 0x2
 3918 139b 7D       		.byte	0x7d
 3919 139c 00       		.sleb128 0
 3920 139d 01       		.uleb128 0x1
 3921 139e 30       		.byte	0x30
 3922 139f 00       		.byte	0
 3923 13a0 20       		.uleb128 0x20
 3924 13a1 9A000000 		.4byte	.LVL114
 3925 13a5 530B0000 		.4byte	0xb53
 3926 13a9 B4130000 		.4byte	0x13b4
 3927 13ad 21       		.uleb128 0x21
 3928 13ae 01       		.uleb128 0x1
 3929 13af 50       		.byte	0x50
 3930 13b0 02       		.uleb128 0x2
 3931 13b1 74       		.byte	0x74
 3932 13b2 00       		.sleb128 0
 3933 13b3 00       		.byte	0
 3934 13b4 20       		.uleb128 0x20
 3935 13b5 A2000000 		.4byte	.LVL117
 3936 13b9 3A190000 		.4byte	0x193a
 3937 13bd C8130000 		.4byte	0x13c8
 3938 13c1 21       		.uleb128 0x21
 3939 13c2 01       		.uleb128 0x1
 3940 13c3 50       		.byte	0x50
 3941 13c4 02       		.uleb128 0x2
 3942 13c5 74       		.byte	0x74
 3943 13c6 00       		.sleb128 0
 3944 13c7 00       		.byte	0
 3945 13c8 22       		.uleb128 0x22
 3946 13c9 AE000000 		.4byte	.LVL118
 3947 13cd 45190000 		.4byte	0x1945
 3948 13d1 21       		.uleb128 0x21
 3949 13d2 01       		.uleb128 0x1
 3950 13d3 51       		.byte	0x51
 3951 13d4 02       		.uleb128 0x2
 3952 13d5 91       		.byte	0x91
 3953 13d6 64       		.sleb128 -28
 3954 13d7 21       		.uleb128 0x21
 3955 13d8 01       		.uleb128 0x1
 3956 13d9 52       		.byte	0x52
 3957 13da 01       		.uleb128 0x1
ARM GAS  C:\Users\kateb\AppData\Local\Temp\ccjwfWYs.s 			page 93


 3958 13db 30       		.byte	0x30
 3959 13dc 00       		.byte	0
 3960 13dd 00       		.byte	0
 3961 13de 2F       		.uleb128 0x2f
 3962 13df 2A150000 		.4byte	.LASF294
 3963 13e3 01       		.byte	0x1
 3964 13e4 F601     		.2byte	0x1f6
 3965 13e6 00000000 		.4byte	.LFB604
 3966 13ea 16000000 		.4byte	.LFE604-.LFB604
 3967 13ee 01       		.uleb128 0x1
 3968 13ef 9C       		.byte	0x9c
 3969 13f0 4A140000 		.4byte	0x144a
 3970 13f4 1E       		.uleb128 0x1e
 3971 13f5 EC160000 		.4byte	.LASF295
 3972 13f9 01       		.byte	0x1
 3973 13fa F601     		.2byte	0x1f6
 3974 13fc 9A000000 		.4byte	0x9a
 3975 1400 8A070000 		.4byte	.LLST39
 3976 1404 1F       		.uleb128 0x1f
 3977 1405 5F120000 		.4byte	.LASF267
 3978 1409 01       		.byte	0x1
 3979 140a F801     		.2byte	0x1f8
 3980 140c E8080000 		.4byte	0x8e8
 3981 1410 AB070000 		.4byte	.LLST40
 3982 1414 2C       		.uleb128 0x2c
 3983 1415 4F1F0000 		.4byte	.LASF291
 3984 1419 01       		.byte	0x1
 3985 141a F901     		.2byte	0x1f9
 3986 141c D2080000 		.4byte	0x8d2
 3987 1420 02       		.uleb128 0x2
 3988 1421 91       		.byte	0x91
 3989 1422 74       		.sleb128 -12
 3990 1423 20       		.uleb128 0x20
 3991 1424 0A000000 		.4byte	.LVL121
 3992 1428 0D0B0000 		.4byte	0xb0d
 3993 142c 37140000 		.4byte	0x1437
 3994 1430 21       		.uleb128 0x21
 3995 1431 01       		.uleb128 0x1
 3996 1432 50       		.byte	0x50
 3997 1433 02       		.uleb128 0x2
 3998 1434 91       		.byte	0x91
 3999 1435 74       		.sleb128 -12
 4000 1436 00       		.byte	0
 4001 1437 24       		.uleb128 0x24
 4002 1438 10000000 		.4byte	.LVL122
 4003 143c BF110000 		.4byte	0x11bf
 4004 1440 24       		.uleb128 0x24
 4005 1441 14000000 		.4byte	.LVL123
 4006 1445 84120000 		.4byte	0x1284
 4007 1449 00       		.byte	0
 4008 144a 2B       		.uleb128 0x2b
 4009 144b 451E0000 		.4byte	.LASF296
 4010 144f 01       		.byte	0x1
 4011 1450 A801     		.2byte	0x1a8
 4012 1452 D0090000 		.4byte	0x9d0
 4013 1456 00000000 		.4byte	.LFB599
 4014 145a 20000000 		.4byte	.LFE599-.LFB599
ARM GAS  C:\Users\kateb\AppData\Local\Temp\ccjwfWYs.s 			page 94


 4015 145e 01       		.uleb128 0x1
 4016 145f 9C       		.byte	0x9c
 4017 1460 85140000 		.4byte	0x1485
 4018 1464 30       		.uleb128 0x30
 4019 1465 F50A0000 		.4byte	0xaf5
 4020 1469 06000000 		.4byte	.LBB44
 4021 146d 12000000 		.4byte	.LBE44-.LBB44
 4022 1471 01       		.byte	0x1
 4023 1472 AC01     		.2byte	0x1ac
 4024 1474 27       		.uleb128 0x27
 4025 1475 06000000 		.4byte	.LBB45
 4026 1479 12000000 		.4byte	.LBE45-.LBB45
 4027 147d 28       		.uleb128 0x28
 4028 147e 010B0000 		.4byte	0xb01
 4029 1482 00       		.byte	0
 4030 1483 00       		.byte	0
 4031 1484 00       		.byte	0
 4032 1485 2B       		.uleb128 0x2b
 4033 1486 3E1A0000 		.4byte	.LASF297
 4034 148a 01       		.byte	0x1
 4035 148b B101     		.2byte	0x1b1
 4036 148d E8080000 		.4byte	0x8e8
 4037 1491 00000000 		.4byte	.LFB600
 4038 1495 18000000 		.4byte	.LFE600-.LFB600
 4039 1499 01       		.uleb128 0x1
 4040 149a 9C       		.byte	0x9c
 4041 149b E0140000 		.4byte	0x14e0
 4042 149f 1E       		.uleb128 0x1e
 4043 14a0 7F180000 		.4byte	.LASF276
 4044 14a4 01       		.byte	0x1
 4045 14a5 B101     		.2byte	0x1b1
 4046 14a7 EB090000 		.4byte	0x9eb
 4047 14ab BE070000 		.4byte	.LLST41
 4048 14af 1F       		.uleb128 0x1f
 4049 14b0 4E1A0000 		.4byte	.LASF256
 4050 14b4 01       		.byte	0x1
 4051 14b5 B301     		.2byte	0x1b3
 4052 14b7 A20A0000 		.4byte	0xaa2
 4053 14bb DF070000 		.4byte	.LLST42
 4054 14bf 30       		.uleb128 0x30
 4055 14c0 F50A0000 		.4byte	0xaf5
 4056 14c4 02000000 		.4byte	.LBB46
 4057 14c8 12000000 		.4byte	.LBE46-.LBB46
 4058 14cc 01       		.byte	0x1
 4059 14cd B501     		.2byte	0x1b5
 4060 14cf 27       		.uleb128 0x27
 4061 14d0 02000000 		.4byte	.LBB47
 4062 14d4 12000000 		.4byte	.LBE47-.LBB47
 4063 14d8 28       		.uleb128 0x28
 4064 14d9 010B0000 		.4byte	0xb01
 4065 14dd 00       		.byte	0
 4066 14de 00       		.byte	0
 4067 14df 00       		.byte	0
 4068 14e0 2B       		.uleb128 0x2b
 4069 14e1 060E0000 		.4byte	.LASF298
 4070 14e5 01       		.byte	0x1
 4071 14e6 BA01     		.2byte	0x1ba
ARM GAS  C:\Users\kateb\AppData\Local\Temp\ccjwfWYs.s 			page 95


 4072 14e8 E8080000 		.4byte	0x8e8
 4073 14ec 00000000 		.4byte	.LFB601
 4074 14f0 18000000 		.4byte	.LFE601-.LFB601
 4075 14f4 01       		.uleb128 0x1
 4076 14f5 9C       		.byte	0x9c
 4077 14f6 4B150000 		.4byte	0x154b
 4078 14fa 1E       		.uleb128 0x1e
 4079 14fb 7F180000 		.4byte	.LASF276
 4080 14ff 01       		.byte	0x1
 4081 1500 BA01     		.2byte	0x1ba
 4082 1502 EB090000 		.4byte	0x9eb
 4083 1506 00080000 		.4byte	.LLST43
 4084 150a 1F       		.uleb128 0x1f
 4085 150b 4E1A0000 		.4byte	.LASF256
 4086 150f 01       		.byte	0x1
 4087 1510 BC01     		.2byte	0x1bc
 4088 1512 A20A0000 		.4byte	0xaa2
 4089 1516 21080000 		.4byte	.LLST44
 4090 151a 1F       		.uleb128 0x1f
 4091 151b 86190000 		.4byte	.LASF272
 4092 151f 01       		.byte	0x1
 4093 1520 BD01     		.2byte	0x1bd
 4094 1522 E8080000 		.4byte	0x8e8
 4095 1526 42080000 		.4byte	.LLST45
 4096 152a 30       		.uleb128 0x30
 4097 152b F50A0000 		.4byte	0xaf5
 4098 152f 02000000 		.4byte	.LBB48
 4099 1533 12000000 		.4byte	.LBE48-.LBB48
 4100 1537 01       		.byte	0x1
 4101 1538 BF01     		.2byte	0x1bf
 4102 153a 27       		.uleb128 0x27
 4103 153b 02000000 		.4byte	.LBB49
 4104 153f 12000000 		.4byte	.LBE49-.LBB49
 4105 1543 28       		.uleb128 0x28
 4106 1544 010B0000 		.4byte	0xb01
 4107 1548 00       		.byte	0
 4108 1549 00       		.byte	0
 4109 154a 00       		.byte	0
 4110 154b 2B       		.uleb128 0x2b
 4111 154c 761B0000 		.4byte	.LASF299
 4112 1550 01       		.byte	0x1
 4113 1551 C501     		.2byte	0x1c5
 4114 1553 A3000000 		.4byte	0xa3
 4115 1557 00000000 		.4byte	.LFB602
 4116 155b 18000000 		.4byte	.LFE602-.LFB602
 4117 155f 01       		.uleb128 0x1
 4118 1560 9C       		.byte	0x9c
 4119 1561 A6150000 		.4byte	0x15a6
 4120 1565 1E       		.uleb128 0x1e
 4121 1566 7F180000 		.4byte	.LASF276
 4122 156a 01       		.byte	0x1
 4123 156b C501     		.2byte	0x1c5
 4124 156d EB090000 		.4byte	0x9eb
 4125 1571 61080000 		.4byte	.LLST46
 4126 1575 1F       		.uleb128 0x1f
 4127 1576 4E1A0000 		.4byte	.LASF256
 4128 157a 01       		.byte	0x1
ARM GAS  C:\Users\kateb\AppData\Local\Temp\ccjwfWYs.s 			page 96


 4129 157b C701     		.2byte	0x1c7
 4130 157d A20A0000 		.4byte	0xaa2
 4131 1581 82080000 		.4byte	.LLST47
 4132 1585 30       		.uleb128 0x30
 4133 1586 F50A0000 		.4byte	0xaf5
 4134 158a 02000000 		.4byte	.LBB50
 4135 158e 12000000 		.4byte	.LBE50-.LBB50
 4136 1592 01       		.byte	0x1
 4137 1593 C901     		.2byte	0x1c9
 4138 1595 27       		.uleb128 0x27
 4139 1596 02000000 		.4byte	.LBB51
 4140 159a 12000000 		.4byte	.LBE51-.LBB51
 4141 159e 28       		.uleb128 0x28
 4142 159f 010B0000 		.4byte	0xb01
 4143 15a3 00       		.byte	0
 4144 15a4 00       		.byte	0
 4145 15a5 00       		.byte	0
 4146 15a6 2B       		.uleb128 0x2b
 4147 15a7 DF090000 		.4byte	.LASF300
 4148 15ab 01       		.byte	0x1
 4149 15ac B103     		.2byte	0x3b1
 4150 15ae D2080000 		.4byte	0x8d2
 4151 15b2 00000000 		.4byte	.LFB612
 4152 15b6 2C000000 		.4byte	.LFE612-.LFB612
 4153 15ba 01       		.uleb128 0x1
 4154 15bb 9C       		.byte	0x9c
 4155 15bc 25160000 		.4byte	0x1625
 4156 15c0 1E       		.uleb128 0x1e
 4157 15c1 7F180000 		.4byte	.LASF276
 4158 15c5 01       		.byte	0x1
 4159 15c6 B103     		.2byte	0x3b1
 4160 15c8 EB090000 		.4byte	0x9eb
 4161 15cc A3080000 		.4byte	.LLST48
 4162 15d0 2C       		.uleb128 0x2c
 4163 15d1 4A100000 		.4byte	.LASF301
 4164 15d5 01       		.byte	0x1
 4165 15d6 B303     		.2byte	0x3b3
 4166 15d8 D2080000 		.4byte	0x8d2
 4167 15dc 01       		.uleb128 0x1
 4168 15dd 54       		.byte	0x54
 4169 15de 1F       		.uleb128 0x1f
 4170 15df 4E1A0000 		.4byte	.LASF256
 4171 15e3 01       		.byte	0x1
 4172 15e4 B403     		.2byte	0x3b4
 4173 15e6 A20A0000 		.4byte	0xaa2
 4174 15ea CF080000 		.4byte	.LLST49
 4175 15ee 26       		.uleb128 0x26
 4176 15ef F50A0000 		.4byte	0xaf5
 4177 15f3 02000000 		.4byte	.LBB52
 4178 15f7 12000000 		.4byte	.LBE52-.LBB52
 4179 15fb 01       		.byte	0x1
 4180 15fc B603     		.2byte	0x3b6
 4181 15fe 12160000 		.4byte	0x1612
 4182 1602 27       		.uleb128 0x27
 4183 1603 02000000 		.4byte	.LBB53
 4184 1607 12000000 		.4byte	.LBE53-.LBB53
 4185 160b 28       		.uleb128 0x28
ARM GAS  C:\Users\kateb\AppData\Local\Temp\ccjwfWYs.s 			page 97


 4186 160c 010B0000 		.4byte	0xb01
 4187 1610 00       		.byte	0
 4188 1611 00       		.byte	0
 4189 1612 24       		.uleb128 0x24
 4190 1613 1C000000 		.4byte	.LVL137
 4191 1617 7D180000 		.4byte	0x187d
 4192 161b 24       		.uleb128 0x24
 4193 161c 28000000 		.4byte	.LVL140
 4194 1620 AC180000 		.4byte	0x18ac
 4195 1624 00       		.byte	0
 4196 1625 2B       		.uleb128 0x2b
 4197 1626 7B0A0000 		.4byte	.LASF302
 4198 162a 01       		.byte	0x1
 4199 162b C603     		.2byte	0x3c6
 4200 162d 9A000000 		.4byte	0x9a
 4201 1631 00000000 		.4byte	.LFB613
 4202 1635 26000000 		.4byte	.LFE613-.LFB613
 4203 1639 01       		.uleb128 0x1
 4204 163a 9C       		.byte	0x9c
 4205 163b A4160000 		.4byte	0x16a4
 4206 163f 1E       		.uleb128 0x1e
 4207 1640 7F180000 		.4byte	.LASF276
 4208 1644 01       		.byte	0x1
 4209 1645 C603     		.2byte	0x3c6
 4210 1647 A4160000 		.4byte	0x16a4
 4211 164b FB080000 		.4byte	.LLST50
 4212 164f 1F       		.uleb128 0x1f
 4213 1650 4E1A0000 		.4byte	.LASF256
 4214 1654 01       		.byte	0x1
 4215 1655 C803     		.2byte	0x3c8
 4216 1657 E80B0000 		.4byte	0xbe8
 4217 165b 27090000 		.4byte	.LLST51
 4218 165f 2C       		.uleb128 0x2c
 4219 1660 5E090000 		.4byte	.LASF303
 4220 1664 01       		.byte	0x1
 4221 1665 C903     		.2byte	0x3c9
 4222 1667 9A000000 		.4byte	0x9a
 4223 166b 01       		.uleb128 0x1
 4224 166c 54       		.byte	0x54
 4225 166d 26       		.uleb128 0x26
 4226 166e F50A0000 		.4byte	0xaf5
 4227 1672 02000000 		.4byte	.LBB54
 4228 1676 12000000 		.4byte	.LBE54-.LBB54
 4229 167a 01       		.byte	0x1
 4230 167b CB03     		.2byte	0x3cb
 4231 167d 91160000 		.4byte	0x1691
 4232 1681 27       		.uleb128 0x27
 4233 1682 02000000 		.4byte	.LBB55
 4234 1686 12000000 		.4byte	.LBE55-.LBB55
 4235 168a 28       		.uleb128 0x28
 4236 168b 010B0000 		.4byte	0xb01
 4237 168f 00       		.byte	0
 4238 1690 00       		.byte	0
 4239 1691 24       		.uleb128 0x24
 4240 1692 1C000000 		.4byte	.LVL143
 4241 1696 7D180000 		.4byte	0x187d
 4242 169a 24       		.uleb128 0x24
ARM GAS  C:\Users\kateb\AppData\Local\Temp\ccjwfWYs.s 			page 98


 4243 169b 22000000 		.4byte	.LVL145
 4244 169f AC180000 		.4byte	0x18ac
 4245 16a3 00       		.byte	0
 4246 16a4 07       		.uleb128 0x7
 4247 16a5 EB090000 		.4byte	0x9eb
 4248 16a9 31       		.uleb128 0x31
 4249 16aa 430F0000 		.4byte	.LASF348
 4250 16ae 01       		.byte	0x1
 4251 16af D703     		.2byte	0x3d7
 4252 16b1 00000000 		.4byte	.LFB614
 4253 16b5 26000000 		.4byte	.LFE614-.LFB614
 4254 16b9 01       		.uleb128 0x1
 4255 16ba 9C       		.byte	0x9c
 4256 16bb 26170000 		.4byte	0x1726
 4257 16bf 1E       		.uleb128 0x1e
 4258 16c0 7F180000 		.4byte	.LASF276
 4259 16c4 01       		.byte	0x1
 4260 16c5 D703     		.2byte	0x3d7
 4261 16c7 EB090000 		.4byte	0x9eb
 4262 16cb 53090000 		.4byte	.LLST52
 4263 16cf 1E       		.uleb128 0x1e
 4264 16d0 2D110000 		.4byte	.LASF304
 4265 16d4 01       		.byte	0x1
 4266 16d5 D703     		.2byte	0x3d7
 4267 16d7 9A000000 		.4byte	0x9a
 4268 16db 71090000 		.4byte	.LLST53
 4269 16df 1F       		.uleb128 0x1f
 4270 16e0 4E1A0000 		.4byte	.LASF256
 4271 16e4 01       		.byte	0x1
 4272 16e5 D903     		.2byte	0x3d9
 4273 16e7 E80B0000 		.4byte	0xbe8
 4274 16eb 8F090000 		.4byte	.LLST54
 4275 16ef 26       		.uleb128 0x26
 4276 16f0 F50A0000 		.4byte	0xaf5
 4277 16f4 04000000 		.4byte	.LBB56
 4278 16f8 16000000 		.4byte	.LBE56-.LBB56
 4279 16fc 01       		.byte	0x1
 4280 16fd DB03     		.2byte	0x3db
 4281 16ff 13170000 		.4byte	0x1713
 4282 1703 27       		.uleb128 0x27
 4283 1704 04000000 		.4byte	.LBB57
 4284 1708 16000000 		.4byte	.LBE57-.LBB57
 4285 170c 28       		.uleb128 0x28
 4286 170d 010B0000 		.4byte	0xb01
 4287 1711 00       		.byte	0
 4288 1712 00       		.byte	0
 4289 1713 24       		.uleb128 0x24
 4290 1714 1E000000 		.4byte	.LVL149
 4291 1718 7D180000 		.4byte	0x187d
 4292 171c 24       		.uleb128 0x24
 4293 171d 24000000 		.4byte	.LVL150
 4294 1721 AC180000 		.4byte	0x18ac
 4295 1725 00       		.byte	0
 4296 1726 32       		.uleb128 0x32
 4297 1727 62060000 		.4byte	.LASF305
 4298 172b 01       		.byte	0x1
 4299 172c 83       		.byte	0x83
ARM GAS  C:\Users\kateb\AppData\Local\Temp\ccjwfWYs.s 			page 99


 4300 172d C5090000 		.4byte	0x9c5
 4301 1731 05       		.uleb128 0x5
 4302 1732 03       		.byte	0x3
 4303 1733 0C000000 		.4byte	xActiveTimerList1
 4304 1737 32       		.uleb128 0x32
 4305 1738 CA0C0000 		.4byte	.LASF306
 4306 173c 01       		.byte	0x1
 4307 173d 84       		.byte	0x84
 4308 173e C5090000 		.4byte	0x9c5
 4309 1742 05       		.uleb128 0x5
 4310 1743 03       		.byte	0x3
 4311 1744 20000000 		.4byte	xActiveTimerList2
 4312 1748 32       		.uleb128 0x32
 4313 1749 77170000 		.4byte	.LASF307
 4314 174d 01       		.byte	0x1
 4315 174e 85       		.byte	0x85
 4316 174f 75100000 		.4byte	0x1075
 4317 1753 05       		.uleb128 0x5
 4318 1754 03       		.byte	0x3
 4319 1755 00000000 		.4byte	pxCurrentTimerList
 4320 1759 32       		.uleb128 0x32
 4321 175a 070B0000 		.4byte	.LASF308
 4322 175e 01       		.byte	0x1
 4323 175f 86       		.byte	0x86
 4324 1760 75100000 		.4byte	0x1075
 4325 1764 05       		.uleb128 0x5
 4326 1765 03       		.byte	0x3
 4327 1766 04000000 		.4byte	pxOverflowTimerList
 4328 176a 32       		.uleb128 0x32
 4329 176b 67040000 		.4byte	.LASF309
 4330 176f 01       		.byte	0x1
 4331 1770 89       		.byte	0x89
 4332 1771 E0090000 		.4byte	0x9e0
 4333 1775 05       		.uleb128 0x5
 4334 1776 03       		.byte	0x3
 4335 1777 08000000 		.4byte	xTimerQueue
 4336 177b 32       		.uleb128 0x32
 4337 177c E4140000 		.4byte	.LASF310
 4338 1780 01       		.byte	0x1
 4339 1781 8A       		.byte	0x8a
 4340 1782 D0090000 		.4byte	0x9d0
 4341 1786 05       		.uleb128 0x5
 4342 1787 03       		.byte	0x3
 4343 1788 34000000 		.4byte	xTimerTaskHandle
 4344 178c 33       		.uleb128 0x33
 4345 178d 39170000 		.4byte	.LASF311
 4346 1791 13       		.byte	0x13
 4347 1792 EA07     		.2byte	0x7ea
 4348 1794 98170000 		.4byte	0x1798
 4349 1798 08       		.uleb128 0x8
 4350 1799 B9000000 		.4byte	0xb9
 4351 179d 11       		.uleb128 0x11
 4352 179e 7F070000 		.4byte	0x77f
 4353 17a2 AD170000 		.4byte	0x17ad
 4354 17a6 12       		.uleb128 0x12
 4355 17a7 93000000 		.4byte	0x93
 4356 17ab 0B       		.byte	0xb
ARM GAS  C:\Users\kateb\AppData\Local\Temp\ccjwfWYs.s 			page 100


 4357 17ac 00       		.byte	0
 4358 17ad 33       		.uleb128 0x33
 4359 17ae A5180000 		.4byte	.LASF312
 4360 17b2 05       		.byte	0x5
 4361 17b3 FC02     		.2byte	0x2fc
 4362 17b5 B9170000 		.4byte	0x17b9
 4363 17b9 07       		.uleb128 0x7
 4364 17ba 9D170000 		.4byte	0x179d
 4365 17be 33       		.uleb128 0x33
 4366 17bf 12100000 		.4byte	.LASF313
 4367 17c3 0B       		.byte	0xb
 4368 17c4 2202     		.2byte	0x222
 4369 17c6 D9070000 		.4byte	0x7d9
 4370 17ca 11       		.uleb128 0x11
 4371 17cb A8070000 		.4byte	0x7a8
 4372 17cf DA170000 		.4byte	0x17da
 4373 17d3 12       		.uleb128 0x12
 4374 17d4 93000000 		.4byte	0x93
 4375 17d8 00       		.byte	0
 4376 17d9 00       		.byte	0
 4377 17da 33       		.uleb128 0x33
 4378 17db 06030000 		.4byte	.LASF314
 4379 17df 0B       		.byte	0xb
 4380 17e0 2C02     		.2byte	0x22c
 4381 17e2 CA170000 		.4byte	0x17ca
 4382 17e6 11       		.uleb128 0x11
 4383 17e7 21080000 		.4byte	0x821
 4384 17eb F6170000 		.4byte	0x17f6
 4385 17ef 12       		.uleb128 0x12
 4386 17f0 93000000 		.4byte	0x93
 4387 17f4 00       		.byte	0
 4388 17f5 00       		.byte	0
 4389 17f6 33       		.uleb128 0x33
 4390 17f7 7C080000 		.4byte	.LASF315
 4391 17fb 0B       		.byte	0xb
 4392 17fc 2D02     		.2byte	0x22d
 4393 17fe E6170000 		.4byte	0x17e6
 4394 1802 33       		.uleb128 0x33
 4395 1803 F71E0000 		.4byte	.LASF316
 4396 1807 0B       		.byte	0xb
 4397 1808 5202     		.2byte	0x252
 4398 180a AE000000 		.4byte	0xae
 4399 180e 34       		.uleb128 0x34
 4400 180f 00140000 		.4byte	.LASF317
 4401 1813 14       		.byte	0x14
 4402 1814 87       		.byte	0x87
 4403 1815 1F030000 		.4byte	0x31f
 4404 1819 34       		.uleb128 0x34
 4405 181a 830E0000 		.4byte	.LASF318
 4406 181e 15       		.byte	0x15
 4407 181f 7C       		.byte	0x7c
 4408 1820 E2000000 		.4byte	0xe2
 4409 1824 34       		.uleb128 0x34
 4410 1825 FB070000 		.4byte	.LASF319
 4411 1829 15       		.byte	0x15
 4412 182a 7D       		.byte	0x7d
 4413 182b 2F180000 		.4byte	0x182f
ARM GAS  C:\Users\kateb\AppData\Local\Temp\ccjwfWYs.s 			page 101


 4414 182f 07       		.uleb128 0x7
 4415 1830 97010000 		.4byte	0x197
 4416 1834 34       		.uleb128 0x34
 4417 1835 BA010000 		.4byte	.LASF320
 4418 1839 16       		.byte	0x16
 4419 183a 5E       		.byte	0x5e
 4420 183b 43020000 		.4byte	0x243
 4421 183f 33       		.uleb128 0x33
 4422 1840 CC1B0000 		.4byte	.LASF321
 4423 1844 0E       		.byte	0xe
 4424 1845 6001     		.2byte	0x160
 4425 1847 C4000000 		.4byte	0xc4
 4426 184b 11       		.uleb128 0x11
 4427 184c 5B180000 		.4byte	0x185b
 4428 1850 5B180000 		.4byte	0x185b
 4429 1854 12       		.uleb128 0x12
 4430 1855 93000000 		.4byte	0x93
 4431 1859 00       		.byte	0
 4432 185a 00       		.byte	0
 4433 185b 07       		.uleb128 0x7
 4434 185c C7080000 		.4byte	0x8c7
 4435 1860 33       		.uleb128 0x33
 4436 1861 A6160000 		.4byte	.LASF322
 4437 1865 0E       		.byte	0xe
 4438 1866 6401     		.2byte	0x164
 4439 1868 6C180000 		.4byte	0x186c
 4440 186c 07       		.uleb128 0x7
 4441 186d 4B180000 		.4byte	0x184b
 4442 1871 35       		.uleb128 0x35
 4443 1872 19000000 		.4byte	.LASF323
 4444 1876 19000000 		.4byte	.LASF323
 4445 187a 0F       		.byte	0xf
 4446 187b 7001     		.2byte	0x170
 4447 187d 36       		.uleb128 0x36
 4448 187e 98040000 		.4byte	.LASF324
 4449 1882 98040000 		.4byte	.LASF324
 4450 1886 02       		.byte	0x2
 4451 1887 61       		.byte	0x61
 4452 1888 35       		.uleb128 0x35
 4453 1889 CA1A0000 		.4byte	.LASF325
 4454 188d CA1A0000 		.4byte	.LASF325
 4455 1891 0F       		.byte	0xf
 4456 1892 5801     		.2byte	0x158
 4457 1894 35       		.uleb128 0x35
 4458 1895 AD0F0000 		.4byte	.LASF326
 4459 1899 AD0F0000 		.4byte	.LASF326
 4460 189d 11       		.byte	0x11
 4461 189e D605     		.2byte	0x5d6
 4462 18a0 35       		.uleb128 0x35
 4463 18a1 8A170000 		.4byte	.LASF327
 4464 18a5 8A170000 		.4byte	.LASF327
 4465 18a9 11       		.byte	0x11
 4466 18aa B005     		.2byte	0x5b0
 4467 18ac 36       		.uleb128 0x36
 4468 18ad 2E000000 		.4byte	.LASF328
 4469 18b1 2E000000 		.4byte	.LASF328
 4470 18b5 02       		.byte	0x2
ARM GAS  C:\Users\kateb\AppData\Local\Temp\ccjwfWYs.s 			page 102


 4471 18b6 62       		.byte	0x62
 4472 18b7 35       		.uleb128 0x35
 4473 18b8 B5160000 		.4byte	.LASF329
 4474 18bc B5160000 		.4byte	.LASF329
 4475 18c0 0F       		.byte	0xf
 4476 18c1 6301     		.2byte	0x163
 4477 18c3 35       		.uleb128 0x35
 4478 18c4 F60E0000 		.4byte	.LASF330
 4479 18c8 F60E0000 		.4byte	.LASF330
 4480 18cc 10       		.byte	0x10
 4481 18cd 4101     		.2byte	0x141
 4482 18cf 36       		.uleb128 0x36
 4483 18d0 641E0000 		.4byte	.LASF331
 4484 18d4 641E0000 		.4byte	.LASF331
 4485 18d8 17       		.byte	0x17
 4486 18d9 81       		.byte	0x81
 4487 18da 35       		.uleb128 0x35
 4488 18db 99020000 		.4byte	.LASF332
 4489 18df 99020000 		.4byte	.LASF332
 4490 18e3 10       		.byte	0x10
 4491 18e4 D208     		.2byte	0x8d2
 4492 18e6 35       		.uleb128 0x35
 4493 18e7 280C0000 		.4byte	.LASF333
 4494 18eb 280C0000 		.4byte	.LASF333
 4495 18ef 11       		.byte	0x11
 4496 18f0 8802     		.2byte	0x288
 4497 18f2 35       		.uleb128 0x35
 4498 18f3 A50B0000 		.4byte	.LASF334
 4499 18f7 A50B0000 		.4byte	.LASF334
 4500 18fb 11       		.byte	0x11
 4501 18fc 0D05     		.2byte	0x50d
 4502 18fe 35       		.uleb128 0x35
 4503 18ff DF190000 		.4byte	.LASF335
 4504 1903 DF190000 		.4byte	.LASF335
 4505 1907 0F       		.byte	0xf
 4506 1908 9401     		.2byte	0x194
 4507 190a 35       		.uleb128 0x35
 4508 190b C8110000 		.4byte	.LASF336
 4509 190f C8110000 		.4byte	.LASF336
 4510 1913 10       		.byte	0x10
 4511 1914 3E05     		.2byte	0x53e
 4512 1916 35       		.uleb128 0x35
 4513 1917 CF090000 		.4byte	.LASF337
 4514 191b CF090000 		.4byte	.LASF337
 4515 191f 10       		.byte	0x10
 4516 1920 F904     		.2byte	0x4f9
 4517 1922 35       		.uleb128 0x35
 4518 1923 C7150000 		.4byte	.LASF338
 4519 1927 C7150000 		.4byte	.LASF338
 4520 192b 10       		.byte	0x10
 4521 192c 2F05     		.2byte	0x52f
 4522 192e 35       		.uleb128 0x35
 4523 192f 14160000 		.4byte	.LASF339
 4524 1933 14160000 		.4byte	.LASF339
 4525 1937 11       		.byte	0x11
 4526 1938 6906     		.2byte	0x669
 4527 193a 36       		.uleb128 0x36
ARM GAS  C:\Users\kateb\AppData\Local\Temp\ccjwfWYs.s 			page 103


 4528 193b 0C180000 		.4byte	.LASF340
 4529 193f 0C180000 		.4byte	.LASF340
 4530 1943 17       		.byte	0x17
 4531 1944 82       		.byte	0x82
 4532 1945 35       		.uleb128 0x35
 4533 1946 8B020000 		.4byte	.LASF341
 4534 194a 8B020000 		.4byte	.LASF341
 4535 194e 11       		.byte	0x11
 4536 194f 6203     		.2byte	0x362
 4537 1951 00       		.byte	0
 4538              		.section	.debug_abbrev,"",%progbits
 4539              	.Ldebug_abbrev0:
 4540 0000 01       		.uleb128 0x1
 4541 0001 11       		.uleb128 0x11
 4542 0002 01       		.byte	0x1
 4543 0003 25       		.uleb128 0x25
 4544 0004 0E       		.uleb128 0xe
 4545 0005 13       		.uleb128 0x13
 4546 0006 0B       		.uleb128 0xb
 4547 0007 03       		.uleb128 0x3
 4548 0008 0E       		.uleb128 0xe
 4549 0009 1B       		.uleb128 0x1b
 4550 000a 0E       		.uleb128 0xe
 4551 000b 55       		.uleb128 0x55
 4552 000c 17       		.uleb128 0x17
 4553 000d 11       		.uleb128 0x11
 4554 000e 01       		.uleb128 0x1
 4555 000f 10       		.uleb128 0x10
 4556 0010 17       		.uleb128 0x17
 4557 0011 00       		.byte	0
 4558 0012 00       		.byte	0
 4559 0013 02       		.uleb128 0x2
 4560 0014 24       		.uleb128 0x24
 4561 0015 00       		.byte	0
 4562 0016 0B       		.uleb128 0xb
 4563 0017 0B       		.uleb128 0xb
 4564 0018 3E       		.uleb128 0x3e
 4565 0019 0B       		.uleb128 0xb
 4566 001a 03       		.uleb128 0x3
 4567 001b 0E       		.uleb128 0xe
 4568 001c 00       		.byte	0
 4569 001d 00       		.byte	0
 4570 001e 03       		.uleb128 0x3
 4571 001f 24       		.uleb128 0x24
 4572 0020 00       		.byte	0
 4573 0021 0B       		.uleb128 0xb
 4574 0022 0B       		.uleb128 0xb
 4575 0023 3E       		.uleb128 0x3e
 4576 0024 0B       		.uleb128 0xb
 4577 0025 03       		.uleb128 0x3
 4578 0026 08       		.uleb128 0x8
 4579 0027 00       		.byte	0
 4580 0028 00       		.byte	0
 4581 0029 04       		.uleb128 0x4
 4582 002a 16       		.uleb128 0x16
 4583 002b 00       		.byte	0
 4584 002c 03       		.uleb128 0x3
ARM GAS  C:\Users\kateb\AppData\Local\Temp\ccjwfWYs.s 			page 104


 4585 002d 0E       		.uleb128 0xe
 4586 002e 3A       		.uleb128 0x3a
 4587 002f 0B       		.uleb128 0xb
 4588 0030 3B       		.uleb128 0x3b
 4589 0031 0B       		.uleb128 0xb
 4590 0032 49       		.uleb128 0x49
 4591 0033 13       		.uleb128 0x13
 4592 0034 00       		.byte	0
 4593 0035 00       		.byte	0
 4594 0036 05       		.uleb128 0x5
 4595 0037 0F       		.uleb128 0xf
 4596 0038 00       		.byte	0
 4597 0039 0B       		.uleb128 0xb
 4598 003a 0B       		.uleb128 0xb
 4599 003b 00       		.byte	0
 4600 003c 00       		.byte	0
 4601 003d 06       		.uleb128 0x6
 4602 003e 0F       		.uleb128 0xf
 4603 003f 00       		.byte	0
 4604 0040 0B       		.uleb128 0xb
 4605 0041 0B       		.uleb128 0xb
 4606 0042 49       		.uleb128 0x49
 4607 0043 13       		.uleb128 0x13
 4608 0044 00       		.byte	0
 4609 0045 00       		.byte	0
 4610 0046 07       		.uleb128 0x7
 4611 0047 26       		.uleb128 0x26
 4612 0048 00       		.byte	0
 4613 0049 49       		.uleb128 0x49
 4614 004a 13       		.uleb128 0x13
 4615 004b 00       		.byte	0
 4616 004c 00       		.byte	0
 4617 004d 08       		.uleb128 0x8
 4618 004e 35       		.uleb128 0x35
 4619 004f 00       		.byte	0
 4620 0050 49       		.uleb128 0x49
 4621 0051 13       		.uleb128 0x13
 4622 0052 00       		.byte	0
 4623 0053 00       		.byte	0
 4624 0054 09       		.uleb128 0x9
 4625 0055 04       		.uleb128 0x4
 4626 0056 01       		.byte	0x1
 4627 0057 0B       		.uleb128 0xb
 4628 0058 0B       		.uleb128 0xb
 4629 0059 49       		.uleb128 0x49
 4630 005a 13       		.uleb128 0x13
 4631 005b 3A       		.uleb128 0x3a
 4632 005c 0B       		.uleb128 0xb
 4633 005d 3B       		.uleb128 0x3b
 4634 005e 05       		.uleb128 0x5
 4635 005f 01       		.uleb128 0x1
 4636 0060 13       		.uleb128 0x13
 4637 0061 00       		.byte	0
 4638 0062 00       		.byte	0
 4639 0063 0A       		.uleb128 0xa
 4640 0064 28       		.uleb128 0x28
 4641 0065 00       		.byte	0
ARM GAS  C:\Users\kateb\AppData\Local\Temp\ccjwfWYs.s 			page 105


 4642 0066 03       		.uleb128 0x3
 4643 0067 0E       		.uleb128 0xe
 4644 0068 1C       		.uleb128 0x1c
 4645 0069 0B       		.uleb128 0xb
 4646 006a 00       		.byte	0
 4647 006b 00       		.byte	0
 4648 006c 0B       		.uleb128 0xb
 4649 006d 16       		.uleb128 0x16
 4650 006e 00       		.byte	0
 4651 006f 03       		.uleb128 0x3
 4652 0070 0E       		.uleb128 0xe
 4653 0071 3A       		.uleb128 0x3a
 4654 0072 0B       		.uleb128 0xb
 4655 0073 3B       		.uleb128 0x3b
 4656 0074 05       		.uleb128 0x5
 4657 0075 49       		.uleb128 0x49
 4658 0076 13       		.uleb128 0x13
 4659 0077 00       		.byte	0
 4660 0078 00       		.byte	0
 4661 0079 0C       		.uleb128 0xc
 4662 007a 13       		.uleb128 0x13
 4663 007b 01       		.byte	0x1
 4664 007c 0B       		.uleb128 0xb
 4665 007d 0B       		.uleb128 0xb
 4666 007e 3A       		.uleb128 0x3a
 4667 007f 0B       		.uleb128 0xb
 4668 0080 3B       		.uleb128 0x3b
 4669 0081 05       		.uleb128 0x5
 4670 0082 01       		.uleb128 0x1
 4671 0083 13       		.uleb128 0x13
 4672 0084 00       		.byte	0
 4673 0085 00       		.byte	0
 4674 0086 0D       		.uleb128 0xd
 4675 0087 0D       		.uleb128 0xd
 4676 0088 00       		.byte	0
 4677 0089 03       		.uleb128 0x3
 4678 008a 0E       		.uleb128 0xe
 4679 008b 3A       		.uleb128 0x3a
 4680 008c 0B       		.uleb128 0xb
 4681 008d 3B       		.uleb128 0x3b
 4682 008e 05       		.uleb128 0x5
 4683 008f 49       		.uleb128 0x49
 4684 0090 13       		.uleb128 0x13
 4685 0091 38       		.uleb128 0x38
 4686 0092 0B       		.uleb128 0xb
 4687 0093 00       		.byte	0
 4688 0094 00       		.byte	0
 4689 0095 0E       		.uleb128 0xe
 4690 0096 15       		.uleb128 0x15
 4691 0097 01       		.byte	0x1
 4692 0098 27       		.uleb128 0x27
 4693 0099 19       		.uleb128 0x19
 4694 009a 01       		.uleb128 0x1
 4695 009b 13       		.uleb128 0x13
 4696 009c 00       		.byte	0
 4697 009d 00       		.byte	0
 4698 009e 0F       		.uleb128 0xf
ARM GAS  C:\Users\kateb\AppData\Local\Temp\ccjwfWYs.s 			page 106


 4699 009f 05       		.uleb128 0x5
 4700 00a0 00       		.byte	0
 4701 00a1 49       		.uleb128 0x49
 4702 00a2 13       		.uleb128 0x13
 4703 00a3 00       		.byte	0
 4704 00a4 00       		.byte	0
 4705 00a5 10       		.uleb128 0x10
 4706 00a6 13       		.uleb128 0x13
 4707 00a7 01       		.byte	0x1
 4708 00a8 03       		.uleb128 0x3
 4709 00a9 0E       		.uleb128 0xe
 4710 00aa 0B       		.uleb128 0xb
 4711 00ab 0B       		.uleb128 0xb
 4712 00ac 3A       		.uleb128 0x3a
 4713 00ad 0B       		.uleb128 0xb
 4714 00ae 3B       		.uleb128 0x3b
 4715 00af 05       		.uleb128 0x5
 4716 00b0 01       		.uleb128 0x1
 4717 00b1 13       		.uleb128 0x13
 4718 00b2 00       		.byte	0
 4719 00b3 00       		.byte	0
 4720 00b4 11       		.uleb128 0x11
 4721 00b5 01       		.uleb128 0x1
 4722 00b6 01       		.byte	0x1
 4723 00b7 49       		.uleb128 0x49
 4724 00b8 13       		.uleb128 0x13
 4725 00b9 01       		.uleb128 0x1
 4726 00ba 13       		.uleb128 0x13
 4727 00bb 00       		.byte	0
 4728 00bc 00       		.byte	0
 4729 00bd 12       		.uleb128 0x12
 4730 00be 21       		.uleb128 0x21
 4731 00bf 00       		.byte	0
 4732 00c0 49       		.uleb128 0x49
 4733 00c1 13       		.uleb128 0x13
 4734 00c2 2F       		.uleb128 0x2f
 4735 00c3 0B       		.uleb128 0xb
 4736 00c4 00       		.byte	0
 4737 00c5 00       		.byte	0
 4738 00c6 13       		.uleb128 0x13
 4739 00c7 28       		.uleb128 0x28
 4740 00c8 00       		.byte	0
 4741 00c9 03       		.uleb128 0x3
 4742 00ca 0E       		.uleb128 0xe
 4743 00cb 1C       		.uleb128 0x1c
 4744 00cc 05       		.uleb128 0x5
 4745 00cd 00       		.byte	0
 4746 00ce 00       		.byte	0
 4747 00cf 14       		.uleb128 0x14
 4748 00d0 04       		.uleb128 0x4
 4749 00d1 01       		.byte	0x1
 4750 00d2 0B       		.uleb128 0xb
 4751 00d3 0B       		.uleb128 0xb
 4752 00d4 49       		.uleb128 0x49
 4753 00d5 13       		.uleb128 0x13
 4754 00d6 3A       		.uleb128 0x3a
 4755 00d7 0B       		.uleb128 0xb
ARM GAS  C:\Users\kateb\AppData\Local\Temp\ccjwfWYs.s 			page 107


 4756 00d8 3B       		.uleb128 0x3b
 4757 00d9 0B       		.uleb128 0xb
 4758 00da 01       		.uleb128 0x1
 4759 00db 13       		.uleb128 0x13
 4760 00dc 00       		.byte	0
 4761 00dd 00       		.byte	0
 4762 00de 15       		.uleb128 0x15
 4763 00df 13       		.uleb128 0x13
 4764 00e0 01       		.byte	0x1
 4765 00e1 0B       		.uleb128 0xb
 4766 00e2 0B       		.uleb128 0xb
 4767 00e3 3A       		.uleb128 0x3a
 4768 00e4 0B       		.uleb128 0xb
 4769 00e5 3B       		.uleb128 0x3b
 4770 00e6 0B       		.uleb128 0xb
 4771 00e7 01       		.uleb128 0x1
 4772 00e8 13       		.uleb128 0x13
 4773 00e9 00       		.byte	0
 4774 00ea 00       		.byte	0
 4775 00eb 16       		.uleb128 0x16
 4776 00ec 0D       		.uleb128 0xd
 4777 00ed 00       		.byte	0
 4778 00ee 03       		.uleb128 0x3
 4779 00ef 0E       		.uleb128 0xe
 4780 00f0 3A       		.uleb128 0x3a
 4781 00f1 0B       		.uleb128 0xb
 4782 00f2 3B       		.uleb128 0x3b
 4783 00f3 0B       		.uleb128 0xb
 4784 00f4 49       		.uleb128 0x49
 4785 00f5 13       		.uleb128 0x13
 4786 00f6 38       		.uleb128 0x38
 4787 00f7 0B       		.uleb128 0xb
 4788 00f8 00       		.byte	0
 4789 00f9 00       		.byte	0
 4790 00fa 17       		.uleb128 0x17
 4791 00fb 13       		.uleb128 0x13
 4792 00fc 01       		.byte	0x1
 4793 00fd 03       		.uleb128 0x3
 4794 00fe 0E       		.uleb128 0xe
 4795 00ff 0B       		.uleb128 0xb
 4796 0100 0B       		.uleb128 0xb
 4797 0101 3A       		.uleb128 0x3a
 4798 0102 0B       		.uleb128 0xb
 4799 0103 3B       		.uleb128 0x3b
 4800 0104 0B       		.uleb128 0xb
 4801 0105 01       		.uleb128 0x1
 4802 0106 13       		.uleb128 0x13
 4803 0107 00       		.byte	0
 4804 0108 00       		.byte	0
 4805 0109 18       		.uleb128 0x18
 4806 010a 17       		.uleb128 0x17
 4807 010b 01       		.byte	0x1
 4808 010c 0B       		.uleb128 0xb
 4809 010d 0B       		.uleb128 0xb
 4810 010e 3A       		.uleb128 0x3a
 4811 010f 0B       		.uleb128 0xb
 4812 0110 3B       		.uleb128 0x3b
ARM GAS  C:\Users\kateb\AppData\Local\Temp\ccjwfWYs.s 			page 108


 4813 0111 0B       		.uleb128 0xb
 4814 0112 01       		.uleb128 0x1
 4815 0113 13       		.uleb128 0x13
 4816 0114 00       		.byte	0
 4817 0115 00       		.byte	0
 4818 0116 19       		.uleb128 0x19
 4819 0117 0D       		.uleb128 0xd
 4820 0118 00       		.byte	0
 4821 0119 03       		.uleb128 0x3
 4822 011a 0E       		.uleb128 0xe
 4823 011b 3A       		.uleb128 0x3a
 4824 011c 0B       		.uleb128 0xb
 4825 011d 3B       		.uleb128 0x3b
 4826 011e 0B       		.uleb128 0xb
 4827 011f 49       		.uleb128 0x49
 4828 0120 13       		.uleb128 0x13
 4829 0121 00       		.byte	0
 4830 0122 00       		.byte	0
 4831 0123 1A       		.uleb128 0x1a
 4832 0124 0D       		.uleb128 0xd
 4833 0125 00       		.byte	0
 4834 0126 03       		.uleb128 0x3
 4835 0127 08       		.uleb128 0x8
 4836 0128 3A       		.uleb128 0x3a
 4837 0129 0B       		.uleb128 0xb
 4838 012a 3B       		.uleb128 0x3b
 4839 012b 0B       		.uleb128 0xb
 4840 012c 49       		.uleb128 0x49
 4841 012d 13       		.uleb128 0x13
 4842 012e 38       		.uleb128 0x38
 4843 012f 0B       		.uleb128 0xb
 4844 0130 00       		.byte	0
 4845 0131 00       		.byte	0
 4846 0132 1B       		.uleb128 0x1b
 4847 0133 2E       		.uleb128 0x2e
 4848 0134 01       		.byte	0x1
 4849 0135 03       		.uleb128 0x3
 4850 0136 0E       		.uleb128 0xe
 4851 0137 3A       		.uleb128 0x3a
 4852 0138 0B       		.uleb128 0xb
 4853 0139 3B       		.uleb128 0x3b
 4854 013a 0B       		.uleb128 0xb
 4855 013b 27       		.uleb128 0x27
 4856 013c 19       		.uleb128 0x19
 4857 013d 20       		.uleb128 0x20
 4858 013e 0B       		.uleb128 0xb
 4859 013f 01       		.uleb128 0x1
 4860 0140 13       		.uleb128 0x13
 4861 0141 00       		.byte	0
 4862 0142 00       		.byte	0
 4863 0143 1C       		.uleb128 0x1c
 4864 0144 34       		.uleb128 0x34
 4865 0145 00       		.byte	0
 4866 0146 03       		.uleb128 0x3
 4867 0147 0E       		.uleb128 0xe
 4868 0148 3A       		.uleb128 0x3a
 4869 0149 0B       		.uleb128 0xb
ARM GAS  C:\Users\kateb\AppData\Local\Temp\ccjwfWYs.s 			page 109


 4870 014a 3B       		.uleb128 0x3b
 4871 014b 0B       		.uleb128 0xb
 4872 014c 49       		.uleb128 0x49
 4873 014d 13       		.uleb128 0x13
 4874 014e 00       		.byte	0
 4875 014f 00       		.byte	0
 4876 0150 1D       		.uleb128 0x1d
 4877 0151 2E       		.uleb128 0x2e
 4878 0152 01       		.byte	0x1
 4879 0153 03       		.uleb128 0x3
 4880 0154 0E       		.uleb128 0xe
 4881 0155 3A       		.uleb128 0x3a
 4882 0156 0B       		.uleb128 0xb
 4883 0157 3B       		.uleb128 0x3b
 4884 0158 05       		.uleb128 0x5
 4885 0159 27       		.uleb128 0x27
 4886 015a 19       		.uleb128 0x19
 4887 015b 49       		.uleb128 0x49
 4888 015c 13       		.uleb128 0x13
 4889 015d 11       		.uleb128 0x11
 4890 015e 01       		.uleb128 0x1
 4891 015f 12       		.uleb128 0x12
 4892 0160 06       		.uleb128 0x6
 4893 0161 40       		.uleb128 0x40
 4894 0162 18       		.uleb128 0x18
 4895 0163 9742     		.uleb128 0x2117
 4896 0165 19       		.uleb128 0x19
 4897 0166 01       		.uleb128 0x1
 4898 0167 13       		.uleb128 0x13
 4899 0168 00       		.byte	0
 4900 0169 00       		.byte	0
 4901 016a 1E       		.uleb128 0x1e
 4902 016b 05       		.uleb128 0x5
 4903 016c 00       		.byte	0
 4904 016d 03       		.uleb128 0x3
 4905 016e 0E       		.uleb128 0xe
 4906 016f 3A       		.uleb128 0x3a
 4907 0170 0B       		.uleb128 0xb
 4908 0171 3B       		.uleb128 0x3b
 4909 0172 05       		.uleb128 0x5
 4910 0173 49       		.uleb128 0x49
 4911 0174 13       		.uleb128 0x13
 4912 0175 02       		.uleb128 0x2
 4913 0176 17       		.uleb128 0x17
 4914 0177 00       		.byte	0
 4915 0178 00       		.byte	0
 4916 0179 1F       		.uleb128 0x1f
 4917 017a 34       		.uleb128 0x34
 4918 017b 00       		.byte	0
 4919 017c 03       		.uleb128 0x3
 4920 017d 0E       		.uleb128 0xe
 4921 017e 3A       		.uleb128 0x3a
 4922 017f 0B       		.uleb128 0xb
 4923 0180 3B       		.uleb128 0x3b
 4924 0181 05       		.uleb128 0x5
 4925 0182 49       		.uleb128 0x49
 4926 0183 13       		.uleb128 0x13
ARM GAS  C:\Users\kateb\AppData\Local\Temp\ccjwfWYs.s 			page 110


 4927 0184 02       		.uleb128 0x2
 4928 0185 17       		.uleb128 0x17
 4929 0186 00       		.byte	0
 4930 0187 00       		.byte	0
 4931 0188 20       		.uleb128 0x20
 4932 0189 898201   		.uleb128 0x4109
 4933 018c 01       		.byte	0x1
 4934 018d 11       		.uleb128 0x11
 4935 018e 01       		.uleb128 0x1
 4936 018f 31       		.uleb128 0x31
 4937 0190 13       		.uleb128 0x13
 4938 0191 01       		.uleb128 0x1
 4939 0192 13       		.uleb128 0x13
 4940 0193 00       		.byte	0
 4941 0194 00       		.byte	0
 4942 0195 21       		.uleb128 0x21
 4943 0196 8A8201   		.uleb128 0x410a
 4944 0199 00       		.byte	0
 4945 019a 02       		.uleb128 0x2
 4946 019b 18       		.uleb128 0x18
 4947 019c 9142     		.uleb128 0x2111
 4948 019e 18       		.uleb128 0x18
 4949 019f 00       		.byte	0
 4950 01a0 00       		.byte	0
 4951 01a1 22       		.uleb128 0x22
 4952 01a2 898201   		.uleb128 0x4109
 4953 01a5 01       		.byte	0x1
 4954 01a6 11       		.uleb128 0x11
 4955 01a7 01       		.uleb128 0x1
 4956 01a8 31       		.uleb128 0x31
 4957 01a9 13       		.uleb128 0x13
 4958 01aa 00       		.byte	0
 4959 01ab 00       		.byte	0
 4960 01ac 23       		.uleb128 0x23
 4961 01ad 2E       		.uleb128 0x2e
 4962 01ae 01       		.byte	0x1
 4963 01af 03       		.uleb128 0x3
 4964 01b0 0E       		.uleb128 0xe
 4965 01b1 3A       		.uleb128 0x3a
 4966 01b2 0B       		.uleb128 0xb
 4967 01b3 3B       		.uleb128 0x3b
 4968 01b4 05       		.uleb128 0x5
 4969 01b5 27       		.uleb128 0x27
 4970 01b6 19       		.uleb128 0x19
 4971 01b7 11       		.uleb128 0x11
 4972 01b8 01       		.uleb128 0x1
 4973 01b9 12       		.uleb128 0x12
 4974 01ba 06       		.uleb128 0x6
 4975 01bb 40       		.uleb128 0x40
 4976 01bc 18       		.uleb128 0x18
 4977 01bd 9742     		.uleb128 0x2117
 4978 01bf 19       		.uleb128 0x19
 4979 01c0 01       		.uleb128 0x1
 4980 01c1 13       		.uleb128 0x13
 4981 01c2 00       		.byte	0
 4982 01c3 00       		.byte	0
 4983 01c4 24       		.uleb128 0x24
ARM GAS  C:\Users\kateb\AppData\Local\Temp\ccjwfWYs.s 			page 111


 4984 01c5 898201   		.uleb128 0x4109
 4985 01c8 00       		.byte	0
 4986 01c9 11       		.uleb128 0x11
 4987 01ca 01       		.uleb128 0x1
 4988 01cb 31       		.uleb128 0x31
 4989 01cc 13       		.uleb128 0x13
 4990 01cd 00       		.byte	0
 4991 01ce 00       		.byte	0
 4992 01cf 25       		.uleb128 0x25
 4993 01d0 05       		.uleb128 0x5
 4994 01d1 00       		.byte	0
 4995 01d2 03       		.uleb128 0x3
 4996 01d3 0E       		.uleb128 0xe
 4997 01d4 3A       		.uleb128 0x3a
 4998 01d5 0B       		.uleb128 0xb
 4999 01d6 3B       		.uleb128 0x3b
 5000 01d7 05       		.uleb128 0x5
 5001 01d8 49       		.uleb128 0x49
 5002 01d9 13       		.uleb128 0x13
 5003 01da 02       		.uleb128 0x2
 5004 01db 18       		.uleb128 0x18
 5005 01dc 00       		.byte	0
 5006 01dd 00       		.byte	0
 5007 01de 26       		.uleb128 0x26
 5008 01df 1D       		.uleb128 0x1d
 5009 01e0 01       		.byte	0x1
 5010 01e1 31       		.uleb128 0x31
 5011 01e2 13       		.uleb128 0x13
 5012 01e3 11       		.uleb128 0x11
 5013 01e4 01       		.uleb128 0x1
 5014 01e5 12       		.uleb128 0x12
 5015 01e6 06       		.uleb128 0x6
 5016 01e7 58       		.uleb128 0x58
 5017 01e8 0B       		.uleb128 0xb
 5018 01e9 59       		.uleb128 0x59
 5019 01ea 05       		.uleb128 0x5
 5020 01eb 01       		.uleb128 0x1
 5021 01ec 13       		.uleb128 0x13
 5022 01ed 00       		.byte	0
 5023 01ee 00       		.byte	0
 5024 01ef 27       		.uleb128 0x27
 5025 01f0 0B       		.uleb128 0xb
 5026 01f1 01       		.byte	0x1
 5027 01f2 11       		.uleb128 0x11
 5028 01f3 01       		.uleb128 0x1
 5029 01f4 12       		.uleb128 0x12
 5030 01f5 06       		.uleb128 0x6
 5031 01f6 00       		.byte	0
 5032 01f7 00       		.byte	0
 5033 01f8 28       		.uleb128 0x28
 5034 01f9 34       		.uleb128 0x34
 5035 01fa 00       		.byte	0
 5036 01fb 31       		.uleb128 0x31
 5037 01fc 13       		.uleb128 0x13
 5038 01fd 00       		.byte	0
 5039 01fe 00       		.byte	0
 5040 01ff 29       		.uleb128 0x29
ARM GAS  C:\Users\kateb\AppData\Local\Temp\ccjwfWYs.s 			page 112


 5041 0200 2E       		.uleb128 0x2e
 5042 0201 01       		.byte	0x1
 5043 0202 3F       		.uleb128 0x3f
 5044 0203 19       		.uleb128 0x19
 5045 0204 03       		.uleb128 0x3
 5046 0205 0E       		.uleb128 0xe
 5047 0206 3A       		.uleb128 0x3a
 5048 0207 0B       		.uleb128 0xb
 5049 0208 3B       		.uleb128 0x3b
 5050 0209 0B       		.uleb128 0xb
 5051 020a 27       		.uleb128 0x27
 5052 020b 19       		.uleb128 0x19
 5053 020c 49       		.uleb128 0x49
 5054 020d 13       		.uleb128 0x13
 5055 020e 11       		.uleb128 0x11
 5056 020f 01       		.uleb128 0x1
 5057 0210 12       		.uleb128 0x12
 5058 0211 06       		.uleb128 0x6
 5059 0212 40       		.uleb128 0x40
 5060 0213 18       		.uleb128 0x18
 5061 0214 9742     		.uleb128 0x2117
 5062 0216 19       		.uleb128 0x19
 5063 0217 01       		.uleb128 0x1
 5064 0218 13       		.uleb128 0x13
 5065 0219 00       		.byte	0
 5066 021a 00       		.byte	0
 5067 021b 2A       		.uleb128 0x2a
 5068 021c 34       		.uleb128 0x34
 5069 021d 00       		.byte	0
 5070 021e 03       		.uleb128 0x3
 5071 021f 0E       		.uleb128 0xe
 5072 0220 3A       		.uleb128 0x3a
 5073 0221 0B       		.uleb128 0xb
 5074 0222 3B       		.uleb128 0x3b
 5075 0223 0B       		.uleb128 0xb
 5076 0224 49       		.uleb128 0x49
 5077 0225 13       		.uleb128 0x13
 5078 0226 02       		.uleb128 0x2
 5079 0227 17       		.uleb128 0x17
 5080 0228 00       		.byte	0
 5081 0229 00       		.byte	0
 5082 022a 2B       		.uleb128 0x2b
 5083 022b 2E       		.uleb128 0x2e
 5084 022c 01       		.byte	0x1
 5085 022d 3F       		.uleb128 0x3f
 5086 022e 19       		.uleb128 0x19
 5087 022f 03       		.uleb128 0x3
 5088 0230 0E       		.uleb128 0xe
 5089 0231 3A       		.uleb128 0x3a
 5090 0232 0B       		.uleb128 0xb
 5091 0233 3B       		.uleb128 0x3b
 5092 0234 05       		.uleb128 0x5
 5093 0235 27       		.uleb128 0x27
 5094 0236 19       		.uleb128 0x19
 5095 0237 49       		.uleb128 0x49
 5096 0238 13       		.uleb128 0x13
 5097 0239 11       		.uleb128 0x11
ARM GAS  C:\Users\kateb\AppData\Local\Temp\ccjwfWYs.s 			page 113


 5098 023a 01       		.uleb128 0x1
 5099 023b 12       		.uleb128 0x12
 5100 023c 06       		.uleb128 0x6
 5101 023d 40       		.uleb128 0x40
 5102 023e 18       		.uleb128 0x18
 5103 023f 9742     		.uleb128 0x2117
 5104 0241 19       		.uleb128 0x19
 5105 0242 01       		.uleb128 0x1
 5106 0243 13       		.uleb128 0x13
 5107 0244 00       		.byte	0
 5108 0245 00       		.byte	0
 5109 0246 2C       		.uleb128 0x2c
 5110 0247 34       		.uleb128 0x34
 5111 0248 00       		.byte	0
 5112 0249 03       		.uleb128 0x3
 5113 024a 0E       		.uleb128 0xe
 5114 024b 3A       		.uleb128 0x3a
 5115 024c 0B       		.uleb128 0xb
 5116 024d 3B       		.uleb128 0x3b
 5117 024e 05       		.uleb128 0x5
 5118 024f 49       		.uleb128 0x49
 5119 0250 13       		.uleb128 0x13
 5120 0251 02       		.uleb128 0x2
 5121 0252 18       		.uleb128 0x18
 5122 0253 00       		.byte	0
 5123 0254 00       		.byte	0
 5124 0255 2D       		.uleb128 0x2d
 5125 0256 898201   		.uleb128 0x4109
 5126 0259 01       		.byte	0x1
 5127 025a 11       		.uleb128 0x11
 5128 025b 01       		.uleb128 0x1
 5129 025c 01       		.uleb128 0x1
 5130 025d 13       		.uleb128 0x13
 5131 025e 00       		.byte	0
 5132 025f 00       		.byte	0
 5133 0260 2E       		.uleb128 0x2e
 5134 0261 898201   		.uleb128 0x4109
 5135 0264 01       		.byte	0x1
 5136 0265 11       		.uleb128 0x11
 5137 0266 01       		.uleb128 0x1
 5138 0267 00       		.byte	0
 5139 0268 00       		.byte	0
 5140 0269 2F       		.uleb128 0x2f
 5141 026a 2E       		.uleb128 0x2e
 5142 026b 01       		.byte	0x1
 5143 026c 03       		.uleb128 0x3
 5144 026d 0E       		.uleb128 0xe
 5145 026e 3A       		.uleb128 0x3a
 5146 026f 0B       		.uleb128 0xb
 5147 0270 3B       		.uleb128 0x3b
 5148 0271 05       		.uleb128 0x5
 5149 0272 27       		.uleb128 0x27
 5150 0273 19       		.uleb128 0x19
 5151 0274 8701     		.uleb128 0x87
 5152 0276 19       		.uleb128 0x19
 5153 0277 11       		.uleb128 0x11
 5154 0278 01       		.uleb128 0x1
ARM GAS  C:\Users\kateb\AppData\Local\Temp\ccjwfWYs.s 			page 114


 5155 0279 12       		.uleb128 0x12
 5156 027a 06       		.uleb128 0x6
 5157 027b 40       		.uleb128 0x40
 5158 027c 18       		.uleb128 0x18
 5159 027d 9742     		.uleb128 0x2117
 5160 027f 19       		.uleb128 0x19
 5161 0280 01       		.uleb128 0x1
 5162 0281 13       		.uleb128 0x13
 5163 0282 00       		.byte	0
 5164 0283 00       		.byte	0
 5165 0284 30       		.uleb128 0x30
 5166 0285 1D       		.uleb128 0x1d
 5167 0286 01       		.byte	0x1
 5168 0287 31       		.uleb128 0x31
 5169 0288 13       		.uleb128 0x13
 5170 0289 11       		.uleb128 0x11
 5171 028a 01       		.uleb128 0x1
 5172 028b 12       		.uleb128 0x12
 5173 028c 06       		.uleb128 0x6
 5174 028d 58       		.uleb128 0x58
 5175 028e 0B       		.uleb128 0xb
 5176 028f 59       		.uleb128 0x59
 5177 0290 05       		.uleb128 0x5
 5178 0291 00       		.byte	0
 5179 0292 00       		.byte	0
 5180 0293 31       		.uleb128 0x31
 5181 0294 2E       		.uleb128 0x2e
 5182 0295 01       		.byte	0x1
 5183 0296 3F       		.uleb128 0x3f
 5184 0297 19       		.uleb128 0x19
 5185 0298 03       		.uleb128 0x3
 5186 0299 0E       		.uleb128 0xe
 5187 029a 3A       		.uleb128 0x3a
 5188 029b 0B       		.uleb128 0xb
 5189 029c 3B       		.uleb128 0x3b
 5190 029d 05       		.uleb128 0x5
 5191 029e 27       		.uleb128 0x27
 5192 029f 19       		.uleb128 0x19
 5193 02a0 11       		.uleb128 0x11
 5194 02a1 01       		.uleb128 0x1
 5195 02a2 12       		.uleb128 0x12
 5196 02a3 06       		.uleb128 0x6
 5197 02a4 40       		.uleb128 0x40
 5198 02a5 18       		.uleb128 0x18
 5199 02a6 9742     		.uleb128 0x2117
 5200 02a8 19       		.uleb128 0x19
 5201 02a9 01       		.uleb128 0x1
 5202 02aa 13       		.uleb128 0x13
 5203 02ab 00       		.byte	0
 5204 02ac 00       		.byte	0
 5205 02ad 32       		.uleb128 0x32
 5206 02ae 34       		.uleb128 0x34
 5207 02af 00       		.byte	0
 5208 02b0 03       		.uleb128 0x3
 5209 02b1 0E       		.uleb128 0xe
 5210 02b2 3A       		.uleb128 0x3a
 5211 02b3 0B       		.uleb128 0xb
ARM GAS  C:\Users\kateb\AppData\Local\Temp\ccjwfWYs.s 			page 115


 5212 02b4 3B       		.uleb128 0x3b
 5213 02b5 0B       		.uleb128 0xb
 5214 02b6 49       		.uleb128 0x49
 5215 02b7 13       		.uleb128 0x13
 5216 02b8 02       		.uleb128 0x2
 5217 02b9 18       		.uleb128 0x18
 5218 02ba 00       		.byte	0
 5219 02bb 00       		.byte	0
 5220 02bc 33       		.uleb128 0x33
 5221 02bd 34       		.uleb128 0x34
 5222 02be 00       		.byte	0
 5223 02bf 03       		.uleb128 0x3
 5224 02c0 0E       		.uleb128 0xe
 5225 02c1 3A       		.uleb128 0x3a
 5226 02c2 0B       		.uleb128 0xb
 5227 02c3 3B       		.uleb128 0x3b
 5228 02c4 05       		.uleb128 0x5
 5229 02c5 49       		.uleb128 0x49
 5230 02c6 13       		.uleb128 0x13
 5231 02c7 3F       		.uleb128 0x3f
 5232 02c8 19       		.uleb128 0x19
 5233 02c9 3C       		.uleb128 0x3c
 5234 02ca 19       		.uleb128 0x19
 5235 02cb 00       		.byte	0
 5236 02cc 00       		.byte	0
 5237 02cd 34       		.uleb128 0x34
 5238 02ce 34       		.uleb128 0x34
 5239 02cf 00       		.byte	0
 5240 02d0 03       		.uleb128 0x3
 5241 02d1 0E       		.uleb128 0xe
 5242 02d2 3A       		.uleb128 0x3a
 5243 02d3 0B       		.uleb128 0xb
 5244 02d4 3B       		.uleb128 0x3b
 5245 02d5 0B       		.uleb128 0xb
 5246 02d6 49       		.uleb128 0x49
 5247 02d7 13       		.uleb128 0x13
 5248 02d8 3F       		.uleb128 0x3f
 5249 02d9 19       		.uleb128 0x19
 5250 02da 3C       		.uleb128 0x3c
 5251 02db 19       		.uleb128 0x19
 5252 02dc 00       		.byte	0
 5253 02dd 00       		.byte	0
 5254 02de 35       		.uleb128 0x35
 5255 02df 2E       		.uleb128 0x2e
 5256 02e0 00       		.byte	0
 5257 02e1 3F       		.uleb128 0x3f
 5258 02e2 19       		.uleb128 0x19
 5259 02e3 3C       		.uleb128 0x3c
 5260 02e4 19       		.uleb128 0x19
 5261 02e5 6E       		.uleb128 0x6e
 5262 02e6 0E       		.uleb128 0xe
 5263 02e7 03       		.uleb128 0x3
 5264 02e8 0E       		.uleb128 0xe
 5265 02e9 3A       		.uleb128 0x3a
 5266 02ea 0B       		.uleb128 0xb
 5267 02eb 3B       		.uleb128 0x3b
 5268 02ec 05       		.uleb128 0x5
ARM GAS  C:\Users\kateb\AppData\Local\Temp\ccjwfWYs.s 			page 116


 5269 02ed 00       		.byte	0
 5270 02ee 00       		.byte	0
 5271 02ef 36       		.uleb128 0x36
 5272 02f0 2E       		.uleb128 0x2e
 5273 02f1 00       		.byte	0
 5274 02f2 3F       		.uleb128 0x3f
 5275 02f3 19       		.uleb128 0x19
 5276 02f4 3C       		.uleb128 0x3c
 5277 02f5 19       		.uleb128 0x19
 5278 02f6 6E       		.uleb128 0x6e
 5279 02f7 0E       		.uleb128 0xe
 5280 02f8 03       		.uleb128 0x3
 5281 02f9 0E       		.uleb128 0xe
 5282 02fa 3A       		.uleb128 0x3a
 5283 02fb 0B       		.uleb128 0xb
 5284 02fc 3B       		.uleb128 0x3b
 5285 02fd 0B       		.uleb128 0xb
 5286 02fe 00       		.byte	0
 5287 02ff 00       		.byte	0
 5288 0300 00       		.byte	0
 5289              		.section	.debug_loc,"",%progbits
 5290              	.Ldebug_loc0:
 5291              	.LLST0:
 5292 0000 00000000 		.4byte	.LVL0
 5293 0004 14000000 		.4byte	.LVL1
 5294 0008 0100     		.2byte	0x1
 5295 000a 50       		.byte	0x50
 5296 000b 14000000 		.4byte	.LVL1
 5297 000f 16000000 		.4byte	.LVL2
 5298 0013 0400     		.2byte	0x4
 5299 0015 F3       		.byte	0xf3
 5300 0016 01       		.uleb128 0x1
 5301 0017 50       		.byte	0x50
 5302 0018 9F       		.byte	0x9f
 5303 0019 16000000 		.4byte	.LVL2
 5304 001d 18000000 		.4byte	.LVL3
 5305 0021 0100     		.2byte	0x1
 5306 0023 50       		.byte	0x50
 5307 0024 18000000 		.4byte	.LVL3
 5308 0028 20000000 		.4byte	.LFE606
 5309 002c 0400     		.2byte	0x4
 5310 002e F3       		.byte	0xf3
 5311 002f 01       		.uleb128 0x1
 5312 0030 50       		.byte	0x50
 5313 0031 9F       		.byte	0x9f
 5314 0032 00000000 		.4byte	0
 5315 0036 00000000 		.4byte	0
 5316              	.LLST1:
 5317 003a 14000000 		.4byte	.LVL1
 5318 003e 16000000 		.4byte	.LVL2
 5319 0042 0100     		.2byte	0x1
 5320 0044 50       		.byte	0x50
 5321 0045 18000000 		.4byte	.LVL3
 5322 0049 20000000 		.4byte	.LFE606
 5323 004d 0100     		.2byte	0x1
 5324 004f 50       		.byte	0x50
 5325 0050 00000000 		.4byte	0
ARM GAS  C:\Users\kateb\AppData\Local\Temp\ccjwfWYs.s 			page 117


 5326 0054 00000000 		.4byte	0
 5327              	.LLST2:
 5328 0058 00000000 		.4byte	.LVL4
 5329 005c 18000000 		.4byte	.LVL9
 5330 0060 0100     		.2byte	0x1
 5331 0062 50       		.byte	0x50
 5332 0063 18000000 		.4byte	.LVL9
 5333 0067 1B000000 		.4byte	.LVL10-1
 5334 006b 0300     		.2byte	0x3
 5335 006d 71       		.byte	0x71
 5336 006e 7C       		.sleb128 -4
 5337 006f 9F       		.byte	0x9f
 5338 0070 1B000000 		.4byte	.LVL10-1
 5339 0074 20000000 		.4byte	.LVL11
 5340 0078 0400     		.2byte	0x4
 5341 007a F3       		.byte	0xf3
 5342 007b 01       		.uleb128 0x1
 5343 007c 50       		.byte	0x50
 5344 007d 9F       		.byte	0x9f
 5345 007e 20000000 		.4byte	.LVL11
 5346 0082 2E000000 		.4byte	.LVL14
 5347 0086 0100     		.2byte	0x1
 5348 0088 50       		.byte	0x50
 5349 0089 2E000000 		.4byte	.LVL14
 5350 008d 31000000 		.4byte	.LVL15-1
 5351 0091 0300     		.2byte	0x3
 5352 0093 71       		.byte	0x71
 5353 0094 7C       		.sleb128 -4
 5354 0095 9F       		.byte	0x9f
 5355 0096 31000000 		.4byte	.LVL15-1
 5356 009a 36000000 		.4byte	.LVL16
 5357 009e 0400     		.2byte	0x4
 5358 00a0 F3       		.byte	0xf3
 5359 00a1 01       		.uleb128 0x1
 5360 00a2 50       		.byte	0x50
 5361 00a3 9F       		.byte	0x9f
 5362 00a4 36000000 		.4byte	.LVL16
 5363 00a8 38000000 		.4byte	.LVL17
 5364 00ac 0100     		.2byte	0x1
 5365 00ae 50       		.byte	0x50
 5366 00af 38000000 		.4byte	.LVL17
 5367 00b3 3A000000 		.4byte	.LVL18
 5368 00b7 0400     		.2byte	0x4
 5369 00b9 F3       		.byte	0xf3
 5370 00ba 01       		.uleb128 0x1
 5371 00bb 50       		.byte	0x50
 5372 00bc 9F       		.byte	0x9f
 5373 00bd 3A000000 		.4byte	.LVL18
 5374 00c1 3C000000 		.4byte	.LVL19
 5375 00c5 0100     		.2byte	0x1
 5376 00c7 50       		.byte	0x50
 5377 00c8 3C000000 		.4byte	.LVL19
 5378 00cc 44000000 		.4byte	.LFE608
 5379 00d0 0400     		.2byte	0x4
 5380 00d2 F3       		.byte	0xf3
 5381 00d3 01       		.uleb128 0x1
 5382 00d4 50       		.byte	0x50
ARM GAS  C:\Users\kateb\AppData\Local\Temp\ccjwfWYs.s 			page 118


 5383 00d5 9F       		.byte	0x9f
 5384 00d6 00000000 		.4byte	0
 5385 00da 00000000 		.4byte	0
 5386              	.LLST3:
 5387 00de 00000000 		.4byte	.LVL4
 5388 00e2 14000000 		.4byte	.LVL8
 5389 00e6 0100     		.2byte	0x1
 5390 00e8 51       		.byte	0x51
 5391 00e9 14000000 		.4byte	.LVL8
 5392 00ed 1B000000 		.4byte	.LVL10-1
 5393 00f1 0200     		.2byte	0x2
 5394 00f3 71       		.byte	0x71
 5395 00f4 00       		.sleb128 0
 5396 00f5 1B000000 		.4byte	.LVL10-1
 5397 00f9 20000000 		.4byte	.LVL11
 5398 00fd 0400     		.2byte	0x4
 5399 00ff F3       		.byte	0xf3
 5400 0100 01       		.uleb128 0x1
 5401 0101 51       		.byte	0x51
 5402 0102 9F       		.byte	0x9f
 5403 0103 20000000 		.4byte	.LVL11
 5404 0107 2A000000 		.4byte	.LVL12
 5405 010b 0100     		.2byte	0x1
 5406 010d 51       		.byte	0x51
 5407 010e 2A000000 		.4byte	.LVL12
 5408 0112 2E000000 		.4byte	.LVL14
 5409 0116 0200     		.2byte	0x2
 5410 0118 70       		.byte	0x70
 5411 0119 04       		.sleb128 4
 5412 011a 2E000000 		.4byte	.LVL14
 5413 011e 31000000 		.4byte	.LVL15-1
 5414 0122 0200     		.2byte	0x2
 5415 0124 71       		.byte	0x71
 5416 0125 00       		.sleb128 0
 5417 0126 31000000 		.4byte	.LVL15-1
 5418 012a 36000000 		.4byte	.LVL16
 5419 012e 0400     		.2byte	0x4
 5420 0130 F3       		.byte	0xf3
 5421 0131 01       		.uleb128 0x1
 5422 0132 51       		.byte	0x51
 5423 0133 9F       		.byte	0x9f
 5424 0134 36000000 		.4byte	.LVL16
 5425 0138 44000000 		.4byte	.LFE608
 5426 013c 0100     		.2byte	0x1
 5427 013e 51       		.byte	0x51
 5428 013f 00000000 		.4byte	0
 5429 0143 00000000 		.4byte	0
 5430              	.LLST4:
 5431 0147 00000000 		.4byte	.LVL4
 5432 014b 0C000000 		.4byte	.LVL6
 5433 014f 0100     		.2byte	0x1
 5434 0151 52       		.byte	0x52
 5435 0152 0C000000 		.4byte	.LVL6
 5436 0156 20000000 		.4byte	.LVL11
 5437 015a 0400     		.2byte	0x4
 5438 015c F3       		.byte	0xf3
 5439 015d 01       		.uleb128 0x1
ARM GAS  C:\Users\kateb\AppData\Local\Temp\ccjwfWYs.s 			page 119


 5440 015e 52       		.byte	0x52
 5441 015f 9F       		.byte	0x9f
 5442 0160 20000000 		.4byte	.LVL11
 5443 0164 31000000 		.4byte	.LVL15-1
 5444 0168 0100     		.2byte	0x1
 5445 016a 52       		.byte	0x52
 5446 016b 31000000 		.4byte	.LVL15-1
 5447 016f 3A000000 		.4byte	.LVL18
 5448 0173 0400     		.2byte	0x4
 5449 0175 F3       		.byte	0xf3
 5450 0176 01       		.uleb128 0x1
 5451 0177 52       		.byte	0x52
 5452 0178 9F       		.byte	0x9f
 5453 0179 3A000000 		.4byte	.LVL18
 5454 017d 44000000 		.4byte	.LFE608
 5455 0181 0100     		.2byte	0x1
 5456 0183 52       		.byte	0x52
 5457 0184 00000000 		.4byte	0
 5458 0188 00000000 		.4byte	0
 5459              	.LLST5:
 5460 018c 00000000 		.4byte	.LVL4
 5461 0190 0E000000 		.4byte	.LVL7
 5462 0194 0100     		.2byte	0x1
 5463 0196 53       		.byte	0x53
 5464 0197 0E000000 		.4byte	.LVL7
 5465 019b 20000000 		.4byte	.LVL11
 5466 019f 0400     		.2byte	0x4
 5467 01a1 F3       		.byte	0xf3
 5468 01a2 01       		.uleb128 0x1
 5469 01a3 53       		.byte	0x53
 5470 01a4 9F       		.byte	0x9f
 5471 01a5 20000000 		.4byte	.LVL11
 5472 01a9 2C000000 		.4byte	.LVL13
 5473 01ad 0100     		.2byte	0x1
 5474 01af 53       		.byte	0x53
 5475 01b0 2C000000 		.4byte	.LVL13
 5476 01b4 3A000000 		.4byte	.LVL18
 5477 01b8 0400     		.2byte	0x4
 5478 01ba F3       		.byte	0xf3
 5479 01bb 01       		.uleb128 0x1
 5480 01bc 53       		.byte	0x53
 5481 01bd 9F       		.byte	0x9f
 5482 01be 3A000000 		.4byte	.LVL18
 5483 01c2 3E000000 		.4byte	.LVL20
 5484 01c6 0100     		.2byte	0x1
 5485 01c8 53       		.byte	0x53
 5486 01c9 3E000000 		.4byte	.LVL20
 5487 01cd 44000000 		.4byte	.LFE608
 5488 01d1 0400     		.2byte	0x4
 5489 01d3 F3       		.byte	0xf3
 5490 01d4 01       		.uleb128 0x1
 5491 01d5 53       		.byte	0x53
 5492 01d6 9F       		.byte	0x9f
 5493 01d7 00000000 		.4byte	0
 5494 01db 00000000 		.4byte	0
 5495              	.LLST6:
 5496 01df 02000000 		.4byte	.LVL5
ARM GAS  C:\Users\kateb\AppData\Local\Temp\ccjwfWYs.s 			page 120


 5497 01e3 3C000000 		.4byte	.LVL19
 5498 01e7 0200     		.2byte	0x2
 5499 01e9 30       		.byte	0x30
 5500 01ea 9F       		.byte	0x9f
 5501 01eb 3C000000 		.4byte	.LVL19
 5502 01ef 44000000 		.4byte	.LFE608
 5503 01f3 0100     		.2byte	0x1
 5504 01f5 50       		.byte	0x50
 5505 01f6 00000000 		.4byte	0
 5506 01fa 00000000 		.4byte	0
 5507              	.LLST7:
 5508 01fe 00000000 		.4byte	.LVL27
 5509 0202 27000000 		.4byte	.LVL30-1
 5510 0206 0100     		.2byte	0x1
 5511 0208 50       		.byte	0x50
 5512 0209 27000000 		.4byte	.LVL30-1
 5513 020d 3C000000 		.4byte	.LVL31
 5514 0211 0100     		.2byte	0x1
 5515 0213 58       		.byte	0x58
 5516 0214 3C000000 		.4byte	.LVL31
 5517 0218 40000000 		.4byte	.LFE597
 5518 021c 0400     		.2byte	0x4
 5519 021e F3       		.byte	0xf3
 5520 021f 01       		.uleb128 0x1
 5521 0220 50       		.byte	0x50
 5522 0221 9F       		.byte	0x9f
 5523 0222 00000000 		.4byte	0
 5524 0226 00000000 		.4byte	0
 5525              	.LLST8:
 5526 022a 00000000 		.4byte	.LVL27
 5527 022e 27000000 		.4byte	.LVL30-1
 5528 0232 0100     		.2byte	0x1
 5529 0234 51       		.byte	0x51
 5530 0235 27000000 		.4byte	.LVL30-1
 5531 0239 40000000 		.4byte	.LFE597
 5532 023d 0100     		.2byte	0x1
 5533 023f 57       		.byte	0x57
 5534 0240 00000000 		.4byte	0
 5535 0244 00000000 		.4byte	0
 5536              	.LLST9:
 5537 0248 00000000 		.4byte	.LVL27
 5538 024c 27000000 		.4byte	.LVL30-1
 5539 0250 0100     		.2byte	0x1
 5540 0252 52       		.byte	0x52
 5541 0253 27000000 		.4byte	.LVL30-1
 5542 0257 3C000000 		.4byte	.LVL31
 5543 025b 0100     		.2byte	0x1
 5544 025d 56       		.byte	0x56
 5545 025e 3C000000 		.4byte	.LVL31
 5546 0262 40000000 		.4byte	.LFE597
 5547 0266 0400     		.2byte	0x4
 5548 0268 F3       		.byte	0xf3
 5549 0269 01       		.uleb128 0x1
 5550 026a 52       		.byte	0x52
 5551 026b 9F       		.byte	0x9f
 5552 026c 00000000 		.4byte	0
 5553 0270 00000000 		.4byte	0
ARM GAS  C:\Users\kateb\AppData\Local\Temp\ccjwfWYs.s 			page 121


 5554              	.LLST10:
 5555 0274 00000000 		.4byte	.LVL27
 5556 0278 18000000 		.4byte	.LVL28
 5557 027c 0100     		.2byte	0x1
 5558 027e 53       		.byte	0x53
 5559 027f 18000000 		.4byte	.LVL28
 5560 0283 1A000000 		.4byte	.LVL29
 5561 0287 0400     		.2byte	0x4
 5562 0289 F3       		.byte	0xf3
 5563 028a 01       		.uleb128 0x1
 5564 028b 53       		.byte	0x53
 5565 028c 9F       		.byte	0x9f
 5566 028d 1A000000 		.4byte	.LVL29
 5567 0291 27000000 		.4byte	.LVL30-1
 5568 0295 0100     		.2byte	0x1
 5569 0297 53       		.byte	0x53
 5570 0298 27000000 		.4byte	.LVL30-1
 5571 029c 3C000000 		.4byte	.LVL31
 5572 02a0 0100     		.2byte	0x1
 5573 02a2 55       		.byte	0x55
 5574 02a3 3C000000 		.4byte	.LVL31
 5575 02a7 40000000 		.4byte	.LFE597
 5576 02ab 0400     		.2byte	0x4
 5577 02ad F3       		.byte	0xf3
 5578 02ae 01       		.uleb128 0x1
 5579 02af 53       		.byte	0x53
 5580 02b0 9F       		.byte	0x9f
 5581 02b1 00000000 		.4byte	0
 5582 02b5 00000000 		.4byte	0
 5583              	.LLST11:
 5584 02b9 04000000 		.4byte	.LVL32
 5585 02bd 22000000 		.4byte	.LVL34
 5586 02c1 0200     		.2byte	0x2
 5587 02c3 30       		.byte	0x30
 5588 02c4 9F       		.byte	0x9f
 5589 02c5 22000000 		.4byte	.LVL34
 5590 02c9 24000000 		.4byte	.LVL35
 5591 02cd 0100     		.2byte	0x1
 5592 02cf 50       		.byte	0x50
 5593 02d0 24000000 		.4byte	.LVL35
 5594 02d4 26000000 		.4byte	.LVL36
 5595 02d8 0200     		.2byte	0x2
 5596 02da 30       		.byte	0x30
 5597 02db 9F       		.byte	0x9f
 5598 02dc 26000000 		.4byte	.LVL36
 5599 02e0 50000000 		.4byte	.LFE595
 5600 02e4 0100     		.2byte	0x1
 5601 02e6 50       		.byte	0x50
 5602 02e7 00000000 		.4byte	0
 5603 02eb 00000000 		.4byte	0
 5604              	.LLST12:
 5605 02ef 00000000 		.4byte	.LVL38
 5606 02f3 10000000 		.4byte	.LVL39
 5607 02f7 0100     		.2byte	0x1
 5608 02f9 50       		.byte	0x50
 5609 02fa 10000000 		.4byte	.LVL39
 5610 02fe 32000000 		.4byte	.LFE596
ARM GAS  C:\Users\kateb\AppData\Local\Temp\ccjwfWYs.s 			page 122


 5611 0302 0100     		.2byte	0x1
 5612 0304 55       		.byte	0x55
 5613 0305 00000000 		.4byte	0
 5614 0309 00000000 		.4byte	0
 5615              	.LLST13:
 5616 030d 00000000 		.4byte	.LVL38
 5617 0311 13000000 		.4byte	.LVL40-1
 5618 0315 0100     		.2byte	0x1
 5619 0317 51       		.byte	0x51
 5620 0318 13000000 		.4byte	.LVL40-1
 5621 031c 32000000 		.4byte	.LFE596
 5622 0320 0100     		.2byte	0x1
 5623 0322 56       		.byte	0x56
 5624 0323 00000000 		.4byte	0
 5625 0327 00000000 		.4byte	0
 5626              	.LLST14:
 5627 032b 00000000 		.4byte	.LVL38
 5628 032f 13000000 		.4byte	.LVL40-1
 5629 0333 0100     		.2byte	0x1
 5630 0335 52       		.byte	0x52
 5631 0336 13000000 		.4byte	.LVL40-1
 5632 033a 32000000 		.4byte	.LFE596
 5633 033e 0100     		.2byte	0x1
 5634 0340 57       		.byte	0x57
 5635 0341 00000000 		.4byte	0
 5636 0345 00000000 		.4byte	0
 5637              	.LLST15:
 5638 0349 00000000 		.4byte	.LVL38
 5639 034d 13000000 		.4byte	.LVL40-1
 5640 0351 0100     		.2byte	0x1
 5641 0353 53       		.byte	0x53
 5642 0354 13000000 		.4byte	.LVL40-1
 5643 0358 32000000 		.4byte	.LFE596
 5644 035c 0100     		.2byte	0x1
 5645 035e 58       		.byte	0x58
 5646 035f 00000000 		.4byte	0
 5647 0363 00000000 		.4byte	0
 5648              	.LLST16:
 5649 0367 14000000 		.4byte	.LVL40
 5650 036b 26000000 		.4byte	.LVL41
 5651 036f 0100     		.2byte	0x1
 5652 0371 50       		.byte	0x50
 5653 0372 26000000 		.4byte	.LVL41
 5654 0376 32000000 		.4byte	.LFE596
 5655 037a 0100     		.2byte	0x1
 5656 037c 54       		.byte	0x54
 5657 037d 00000000 		.4byte	0
 5658 0381 00000000 		.4byte	0
 5659              	.LLST17:
 5660 0385 00000000 		.4byte	.LVL43
 5661 0389 20000000 		.4byte	.LVL47
 5662 038d 0100     		.2byte	0x1
 5663 038f 50       		.byte	0x50
 5664 0390 20000000 		.4byte	.LVL47
 5665 0394 66000000 		.4byte	.LVL58
 5666 0398 0100     		.2byte	0x1
 5667 039a 54       		.byte	0x54
ARM GAS  C:\Users\kateb\AppData\Local\Temp\ccjwfWYs.s 			page 123


 5668 039b 66000000 		.4byte	.LVL58
 5669 039f 6C000000 		.4byte	.LFE598
 5670 03a3 0400     		.2byte	0x4
 5671 03a5 F3       		.byte	0xf3
 5672 03a6 01       		.uleb128 0x1
 5673 03a7 50       		.byte	0x50
 5674 03a8 9F       		.byte	0x9f
 5675 03a9 00000000 		.4byte	0
 5676 03ad 00000000 		.4byte	0
 5677              	.LLST18:
 5678 03b1 00000000 		.4byte	.LVL43
 5679 03b5 31000000 		.4byte	.LVL49-1
 5680 03b9 0100     		.2byte	0x1
 5681 03bb 51       		.byte	0x51
 5682 03bc 31000000 		.4byte	.LVL49-1
 5683 03c0 56000000 		.4byte	.LVL53
 5684 03c4 0400     		.2byte	0x4
 5685 03c6 F3       		.byte	0xf3
 5686 03c7 01       		.uleb128 0x1
 5687 03c8 51       		.byte	0x51
 5688 03c9 9F       		.byte	0x9f
 5689 03ca 56000000 		.4byte	.LVL53
 5690 03ce 5A000000 		.4byte	.LVL54
 5691 03d2 0100     		.2byte	0x1
 5692 03d4 51       		.byte	0x51
 5693 03d5 5A000000 		.4byte	.LVL54
 5694 03d9 5D000000 		.4byte	.LVL55-1
 5695 03dd 0200     		.2byte	0x2
 5696 03df 71       		.byte	0x71
 5697 03e0 00       		.sleb128 0
 5698 03e1 5D000000 		.4byte	.LVL55-1
 5699 03e5 60000000 		.4byte	.LVL56
 5700 03e9 0400     		.2byte	0x4
 5701 03eb F3       		.byte	0xf3
 5702 03ec 01       		.uleb128 0x1
 5703 03ed 51       		.byte	0x51
 5704 03ee 9F       		.byte	0x9f
 5705 03ef 60000000 		.4byte	.LVL56
 5706 03f3 62000000 		.4byte	.LVL57
 5707 03f7 0100     		.2byte	0x1
 5708 03f9 51       		.byte	0x51
 5709 03fa 62000000 		.4byte	.LVL57
 5710 03fe 6C000000 		.4byte	.LFE598
 5711 0402 0400     		.2byte	0x4
 5712 0404 F3       		.byte	0xf3
 5713 0405 01       		.uleb128 0x1
 5714 0406 51       		.byte	0x51
 5715 0407 9F       		.byte	0x9f
 5716 0408 00000000 		.4byte	0
 5717 040c 00000000 		.4byte	0
 5718              	.LLST19:
 5719 0410 00000000 		.4byte	.LVL43
 5720 0414 1E000000 		.4byte	.LVL46
 5721 0418 0100     		.2byte	0x1
 5722 041a 52       		.byte	0x52
 5723 041b 1E000000 		.4byte	.LVL46
 5724 041f 66000000 		.4byte	.LVL58
ARM GAS  C:\Users\kateb\AppData\Local\Temp\ccjwfWYs.s 			page 124


 5725 0423 0100     		.2byte	0x1
 5726 0425 55       		.byte	0x55
 5727 0426 66000000 		.4byte	.LVL58
 5728 042a 6C000000 		.4byte	.LFE598
 5729 042e 0400     		.2byte	0x4
 5730 0430 F3       		.byte	0xf3
 5731 0431 01       		.uleb128 0x1
 5732 0432 52       		.byte	0x52
 5733 0433 9F       		.byte	0x9f
 5734 0434 00000000 		.4byte	0
 5735 0438 00000000 		.4byte	0
 5736              	.LLST20:
 5737 043c 00000000 		.4byte	.LVL43
 5738 0440 12000000 		.4byte	.LVL44
 5739 0444 0100     		.2byte	0x1
 5740 0446 53       		.byte	0x53
 5741 0447 12000000 		.4byte	.LVL44
 5742 044b 14000000 		.4byte	.LVL45
 5743 044f 0400     		.2byte	0x4
 5744 0451 F3       		.byte	0xf3
 5745 0452 01       		.uleb128 0x1
 5746 0453 53       		.byte	0x53
 5747 0454 9F       		.byte	0x9f
 5748 0455 14000000 		.4byte	.LVL45
 5749 0459 2E000000 		.4byte	.LVL48
 5750 045d 0100     		.2byte	0x1
 5751 045f 53       		.byte	0x53
 5752 0460 2E000000 		.4byte	.LVL48
 5753 0464 31000000 		.4byte	.LVL49-1
 5754 0468 0100     		.2byte	0x1
 5755 046a 52       		.byte	0x52
 5756 046b 31000000 		.4byte	.LVL49-1
 5757 046f 56000000 		.4byte	.LVL53
 5758 0473 0400     		.2byte	0x4
 5759 0475 F3       		.byte	0xf3
 5760 0476 01       		.uleb128 0x1
 5761 0477 53       		.byte	0x53
 5762 0478 9F       		.byte	0x9f
 5763 0479 56000000 		.4byte	.LVL53
 5764 047d 5D000000 		.4byte	.LVL55-1
 5765 0481 0100     		.2byte	0x1
 5766 0483 52       		.byte	0x52
 5767 0484 5D000000 		.4byte	.LVL55-1
 5768 0488 60000000 		.4byte	.LVL56
 5769 048c 0400     		.2byte	0x4
 5770 048e F3       		.byte	0xf3
 5771 048f 01       		.uleb128 0x1
 5772 0490 53       		.byte	0x53
 5773 0491 9F       		.byte	0x9f
 5774 0492 60000000 		.4byte	.LVL56
 5775 0496 62000000 		.4byte	.LVL57
 5776 049a 0100     		.2byte	0x1
 5777 049c 53       		.byte	0x53
 5778 049d 62000000 		.4byte	.LVL57
 5779 04a1 6C000000 		.4byte	.LFE598
 5780 04a5 0400     		.2byte	0x4
 5781 04a7 F3       		.byte	0xf3
ARM GAS  C:\Users\kateb\AppData\Local\Temp\ccjwfWYs.s 			page 125


 5782 04a8 01       		.uleb128 0x1
 5783 04a9 53       		.byte	0x53
 5784 04aa 9F       		.byte	0x9f
 5785 04ab 00000000 		.4byte	0
 5786 04af 00000000 		.4byte	0
 5787              	.LLST21:
 5788 04b3 00000000 		.4byte	.LVL43
 5789 04b7 66000000 		.4byte	.LVL58
 5790 04bb 0200     		.2byte	0x2
 5791 04bd 91       		.byte	0x91
 5792 04be 00       		.sleb128 0
 5793 04bf 66000000 		.4byte	.LVL58
 5794 04c3 6C000000 		.4byte	.LFE598
 5795 04c7 0200     		.2byte	0x2
 5796 04c9 7D       		.byte	0x7d
 5797 04ca 00       		.sleb128 0
 5798 04cb 00000000 		.4byte	0
 5799 04cf 00000000 		.4byte	0
 5800              	.LLST22:
 5801 04d3 00000000 		.4byte	.LVL43
 5802 04d7 44000000 		.4byte	.LVL50
 5803 04db 0200     		.2byte	0x2
 5804 04dd 30       		.byte	0x30
 5805 04de 9F       		.byte	0x9f
 5806 04df 44000000 		.4byte	.LVL50
 5807 04e3 46000000 		.4byte	.LVL51
 5808 04e7 0100     		.2byte	0x1
 5809 04e9 50       		.byte	0x50
 5810 04ea 46000000 		.4byte	.LVL51
 5811 04ee 54000000 		.4byte	.LVL52
 5812 04f2 0200     		.2byte	0x2
 5813 04f4 30       		.byte	0x30
 5814 04f5 9F       		.byte	0x9f
 5815 04f6 54000000 		.4byte	.LVL52
 5816 04fa 56000000 		.4byte	.LVL53
 5817 04fe 0100     		.2byte	0x1
 5818 0500 50       		.byte	0x50
 5819 0501 56000000 		.4byte	.LVL53
 5820 0505 5E000000 		.4byte	.LVL55
 5821 0509 0200     		.2byte	0x2
 5822 050b 30       		.byte	0x30
 5823 050c 9F       		.byte	0x9f
 5824 050d 5E000000 		.4byte	.LVL55
 5825 0511 60000000 		.4byte	.LVL56
 5826 0515 0100     		.2byte	0x1
 5827 0517 50       		.byte	0x50
 5828 0518 60000000 		.4byte	.LVL56
 5829 051c 62000000 		.4byte	.LVL57
 5830 0520 0200     		.2byte	0x2
 5831 0522 30       		.byte	0x30
 5832 0523 9F       		.byte	0x9f
 5833 0524 62000000 		.4byte	.LVL57
 5834 0528 6C000000 		.4byte	.LFE598
 5835 052c 0100     		.2byte	0x1
 5836 052e 50       		.byte	0x50
 5837 052f 00000000 		.4byte	0
 5838 0533 00000000 		.4byte	0
ARM GAS  C:\Users\kateb\AppData\Local\Temp\ccjwfWYs.s 			page 126


 5839              	.LLST23:
 5840 0537 0A000000 		.4byte	.LVL59
 5841 053b 5A000000 		.4byte	.LVL70
 5842 053f 0100     		.2byte	0x1
 5843 0541 56       		.byte	0x56
 5844 0542 00000000 		.4byte	0
 5845 0546 00000000 		.4byte	0
 5846              	.LLST24:
 5847 054a 24000000 		.4byte	.LVL63
 5848 054e 30000000 		.4byte	.LVL64
 5849 0552 0100     		.2byte	0x1
 5850 0554 53       		.byte	0x53
 5851 0555 30000000 		.4byte	.LVL64
 5852 0559 35000000 		.4byte	.LVL65-1
 5853 055d 0200     		.2byte	0x2
 5854 055f 75       		.byte	0x75
 5855 0560 00       		.sleb128 0
 5856 0561 38000000 		.4byte	.LVL66
 5857 0565 3E000000 		.4byte	.LVL67
 5858 0569 0100     		.2byte	0x1
 5859 056b 53       		.byte	0x53
 5860 056c 00000000 		.4byte	0
 5861 0570 00000000 		.4byte	0
 5862              	.LLST25:
 5863 0574 0C000000 		.4byte	.LVL60
 5864 0578 5A000000 		.4byte	.LVL70
 5865 057c 0100     		.2byte	0x1
 5866 057e 54       		.byte	0x54
 5867 057f 00000000 		.4byte	0
 5868 0583 00000000 		.4byte	0
 5869              	.LLST26:
 5870 0587 46000000 		.4byte	.LVL68
 5871 058b 5A000000 		.4byte	.LVL70
 5872 058f 0100     		.2byte	0x1
 5873 0591 50       		.byte	0x50
 5874 0592 00000000 		.4byte	0
 5875 0596 00000000 		.4byte	0
 5876              	.LLST27:
 5877 059a 00000000 		.4byte	.LVL72
 5878 059e 07000000 		.4byte	.LVL73-1
 5879 05a2 0100     		.2byte	0x1
 5880 05a4 50       		.byte	0x50
 5881 05a5 07000000 		.4byte	.LVL73-1
 5882 05a9 28000000 		.4byte	.LVL78
 5883 05ad 0100     		.2byte	0x1
 5884 05af 55       		.byte	0x55
 5885 05b0 28000000 		.4byte	.LVL78
 5886 05b4 2C000000 		.4byte	.LFE607
 5887 05b8 0400     		.2byte	0x4
 5888 05ba F3       		.byte	0xf3
 5889 05bb 01       		.uleb128 0x1
 5890 05bc 50       		.byte	0x50
 5891 05bd 9F       		.byte	0x9f
 5892 05be 00000000 		.4byte	0
 5893 05c2 00000000 		.4byte	0
 5894              	.LLST28:
 5895 05c6 0A000000 		.4byte	.LVL74
ARM GAS  C:\Users\kateb\AppData\Local\Temp\ccjwfWYs.s 			page 127


 5896 05ca 15000000 		.4byte	.LVL75-1
 5897 05ce 0100     		.2byte	0x1
 5898 05d0 50       		.byte	0x50
 5899 05d1 15000000 		.4byte	.LVL75-1
 5900 05d5 1C000000 		.4byte	.LVL76
 5901 05d9 0100     		.2byte	0x1
 5902 05db 54       		.byte	0x54
 5903 05dc 1C000000 		.4byte	.LVL76
 5904 05e0 20000000 		.4byte	.LVL77
 5905 05e4 0100     		.2byte	0x1
 5906 05e6 50       		.byte	0x50
 5907 05e7 20000000 		.4byte	.LVL77
 5908 05eb 28000000 		.4byte	.LVL78
 5909 05ef 0100     		.2byte	0x1
 5910 05f1 54       		.byte	0x54
 5911 05f2 28000000 		.4byte	.LVL78
 5912 05f6 2C000000 		.4byte	.LFE607
 5913 05fa 0100     		.2byte	0x1
 5914 05fc 50       		.byte	0x50
 5915 05fd 00000000 		.4byte	0
 5916 0601 00000000 		.4byte	0
 5917              	.LLST29:
 5918 0605 00000000 		.4byte	.LVL79
 5919 0609 12000000 		.4byte	.LVL81
 5920 060d 0100     		.2byte	0x1
 5921 060f 50       		.byte	0x50
 5922 0610 12000000 		.4byte	.LVL81
 5923 0614 58000000 		.4byte	.LVL88
 5924 0618 0100     		.2byte	0x1
 5925 061a 55       		.byte	0x55
 5926 061b 58000000 		.4byte	.LVL88
 5927 061f 5C000000 		.4byte	.LFE603
 5928 0623 0400     		.2byte	0x4
 5929 0625 F3       		.byte	0xf3
 5930 0626 01       		.uleb128 0x1
 5931 0627 50       		.byte	0x50
 5932 0628 9F       		.byte	0x9f
 5933 0629 00000000 		.4byte	0
 5934 062d 00000000 		.4byte	0
 5935              	.LLST30:
 5936 0631 00000000 		.4byte	.LVL79
 5937 0635 15000000 		.4byte	.LVL82-1
 5938 0639 0100     		.2byte	0x1
 5939 063b 51       		.byte	0x51
 5940 063c 15000000 		.4byte	.LVL82-1
 5941 0640 58000000 		.4byte	.LVL88
 5942 0644 0100     		.2byte	0x1
 5943 0646 56       		.byte	0x56
 5944 0647 58000000 		.4byte	.LVL88
 5945 064b 5C000000 		.4byte	.LFE603
 5946 064f 0400     		.2byte	0x4
 5947 0651 F3       		.byte	0xf3
 5948 0652 01       		.uleb128 0x1
 5949 0653 51       		.byte	0x51
 5950 0654 9F       		.byte	0x9f
 5951 0655 00000000 		.4byte	0
 5952 0659 00000000 		.4byte	0
ARM GAS  C:\Users\kateb\AppData\Local\Temp\ccjwfWYs.s 			page 128


 5953              	.LLST31:
 5954 065d 3A000000 		.4byte	.LVL84
 5955 0661 4E000000 		.4byte	.LVL86
 5956 0665 0100     		.2byte	0x1
 5957 0667 50       		.byte	0x50
 5958 0668 00000000 		.4byte	0
 5959 066c 00000000 		.4byte	0
 5960              	.LLST32:
 5961 0670 10000000 		.4byte	.LVL80
 5962 0674 58000000 		.4byte	.LVL88
 5963 0678 0100     		.2byte	0x1
 5964 067a 54       		.byte	0x54
 5965 067b 00000000 		.4byte	0
 5966 067f 00000000 		.4byte	0
 5967              	.LLST33:
 5968 0683 00000000 		.4byte	.LVL89
 5969 0687 0B000000 		.4byte	.LVL90-1
 5970 068b 0100     		.2byte	0x1
 5971 068d 50       		.byte	0x50
 5972 068e 0B000000 		.4byte	.LVL90-1
 5973 0692 66000000 		.4byte	.LVL102
 5974 0696 0100     		.2byte	0x1
 5975 0698 56       		.byte	0x56
 5976 0699 66000000 		.4byte	.LVL102
 5977 069d 70000000 		.4byte	.LFE605
 5978 06a1 0400     		.2byte	0x4
 5979 06a3 F3       		.byte	0xf3
 5980 06a4 01       		.uleb128 0x1
 5981 06a5 50       		.byte	0x50
 5982 06a6 9F       		.byte	0x9f
 5983 06a7 00000000 		.4byte	0
 5984 06ab 00000000 		.4byte	0
 5985              	.LLST34:
 5986 06af 00000000 		.4byte	.LVL89
 5987 06b3 0B000000 		.4byte	.LVL90-1
 5988 06b7 0100     		.2byte	0x1
 5989 06b9 51       		.byte	0x51
 5990 06ba 0B000000 		.4byte	.LVL90-1
 5991 06be 34000000 		.4byte	.LVL95
 5992 06c2 0100     		.2byte	0x1
 5993 06c4 54       		.byte	0x54
 5994 06c5 34000000 		.4byte	.LVL95
 5995 06c9 3A000000 		.4byte	.LVL96
 5996 06cd 0400     		.2byte	0x4
 5997 06cf F3       		.byte	0xf3
 5998 06d0 01       		.uleb128 0x1
 5999 06d1 51       		.byte	0x51
 6000 06d2 9F       		.byte	0x9f
 6001 06d3 3A000000 		.4byte	.LVL96
 6002 06d7 66000000 		.4byte	.LVL102
 6003 06db 0100     		.2byte	0x1
 6004 06dd 54       		.byte	0x54
 6005 06de 00000000 		.4byte	0
 6006 06e2 00000000 		.4byte	0
 6007              	.LLST35:
 6008 06e6 12000000 		.4byte	.LVL91
 6009 06ea 21000000 		.4byte	.LVL92-1
ARM GAS  C:\Users\kateb\AppData\Local\Temp\ccjwfWYs.s 			page 129


 6010 06ee 0100     		.2byte	0x1
 6011 06f0 50       		.byte	0x50
 6012 06f1 21000000 		.4byte	.LVL92-1
 6013 06f5 2C000000 		.4byte	.LVL94
 6014 06f9 0100     		.2byte	0x1
 6015 06fb 55       		.byte	0x55
 6016 06fc 2C000000 		.4byte	.LVL94
 6017 0700 42000000 		.4byte	.LVL97
 6018 0704 0100     		.2byte	0x1
 6019 0706 50       		.byte	0x50
 6020 0707 42000000 		.4byte	.LVL97
 6021 070b 5E000000 		.4byte	.LVL100
 6022 070f 0100     		.2byte	0x1
 6023 0711 55       		.byte	0x55
 6024 0712 5E000000 		.4byte	.LVL100
 6025 0716 61000000 		.4byte	.LVL101-1
 6026 071a 0100     		.2byte	0x1
 6027 071c 50       		.byte	0x50
 6028 071d 00000000 		.4byte	0
 6029 0721 00000000 		.4byte	0
 6030              	.LLST36:
 6031 0725 0E000000 		.4byte	.LVL103
 6032 0729 A2000000 		.4byte	.LVL117
 6033 072d 0100     		.2byte	0x1
 6034 072f 54       		.byte	0x54
 6035 0730 00000000 		.4byte	0
 6036 0734 00000000 		.4byte	0
 6037              	.LLST37:
 6038 0738 62000000 		.4byte	.LVL109
 6039 073c 76000000 		.4byte	.LVL111
 6040 0740 0100     		.2byte	0x1
 6041 0742 50       		.byte	0x50
 6042 0743 00000000 		.4byte	0
 6043 0747 00000000 		.4byte	0
 6044              	.LLST38:
 6045 074b 1E000000 		.4byte	.LVL105
 6046 074f 3E000000 		.4byte	.LVL106
 6047 0753 0100     		.2byte	0x1
 6048 0755 50       		.byte	0x50
 6049 0756 3E000000 		.4byte	.LVL106
 6050 075a 41000000 		.4byte	.LVL107-1
 6051 075e 0100     		.2byte	0x1
 6052 0760 52       		.byte	0x52
 6053 0761 76000000 		.4byte	.LVL111
 6054 0765 96000000 		.4byte	.LVL113
 6055 0769 0100     		.2byte	0x1
 6056 076b 50       		.byte	0x50
 6057 076c 96000000 		.4byte	.LVL113
 6058 0770 99000000 		.4byte	.LVL114-1
 6059 0774 0100     		.2byte	0x1
 6060 0776 52       		.byte	0x52
 6061 0777 9C000000 		.4byte	.LVL115
 6062 077b 9E000000 		.4byte	.LVL116
 6063 077f 0100     		.2byte	0x1
 6064 0781 50       		.byte	0x50
 6065 0782 00000000 		.4byte	0
 6066 0786 00000000 		.4byte	0
ARM GAS  C:\Users\kateb\AppData\Local\Temp\ccjwfWYs.s 			page 130


 6067              	.LLST39:
 6068 078a 00000000 		.4byte	.LVL119
 6069 078e 04000000 		.4byte	.LVL120
 6070 0792 0100     		.2byte	0x1
 6071 0794 50       		.byte	0x50
 6072 0795 04000000 		.4byte	.LVL120
 6073 0799 16000000 		.4byte	.LFE604
 6074 079d 0400     		.2byte	0x4
 6075 079f F3       		.byte	0xf3
 6076 07a0 01       		.uleb128 0x1
 6077 07a1 50       		.byte	0x50
 6078 07a2 9F       		.byte	0x9f
 6079 07a3 00000000 		.4byte	0
 6080 07a7 00000000 		.4byte	0
 6081              	.LLST40:
 6082 07ab 0A000000 		.4byte	.LVL121
 6083 07af 0F000000 		.4byte	.LVL122-1
 6084 07b3 0100     		.2byte	0x1
 6085 07b5 50       		.byte	0x50
 6086 07b6 00000000 		.4byte	0
 6087 07ba 00000000 		.4byte	0
 6088              	.LLST41:
 6089 07be 00000000 		.4byte	.LVL125
 6090 07c2 16000000 		.4byte	.LVL127
 6091 07c6 0100     		.2byte	0x1
 6092 07c8 50       		.byte	0x50
 6093 07c9 16000000 		.4byte	.LVL127
 6094 07cd 18000000 		.4byte	.LFE600
 6095 07d1 0400     		.2byte	0x4
 6096 07d3 F3       		.byte	0xf3
 6097 07d4 01       		.uleb128 0x1
 6098 07d5 50       		.byte	0x50
 6099 07d6 9F       		.byte	0x9f
 6100 07d7 00000000 		.4byte	0
 6101 07db 00000000 		.4byte	0
 6102              	.LLST42:
 6103 07df 00000000 		.4byte	.LVL125
 6104 07e3 16000000 		.4byte	.LVL127
 6105 07e7 0100     		.2byte	0x1
 6106 07e9 50       		.byte	0x50
 6107 07ea 16000000 		.4byte	.LVL127
 6108 07ee 18000000 		.4byte	.LFE600
 6109 07f2 0400     		.2byte	0x4
 6110 07f4 F3       		.byte	0xf3
 6111 07f5 01       		.uleb128 0x1
 6112 07f6 50       		.byte	0x50
 6113 07f7 9F       		.byte	0x9f
 6114 07f8 00000000 		.4byte	0
 6115 07fc 00000000 		.4byte	0
 6116              	.LLST43:
 6117 0800 00000000 		.4byte	.LVL128
 6118 0804 16000000 		.4byte	.LVL131
 6119 0808 0100     		.2byte	0x1
 6120 080a 50       		.byte	0x50
 6121 080b 16000000 		.4byte	.LVL131
 6122 080f 18000000 		.4byte	.LFE601
 6123 0813 0400     		.2byte	0x4
ARM GAS  C:\Users\kateb\AppData\Local\Temp\ccjwfWYs.s 			page 131


 6124 0815 F3       		.byte	0xf3
 6125 0816 01       		.uleb128 0x1
 6126 0817 50       		.byte	0x50
 6127 0818 9F       		.byte	0x9f
 6128 0819 00000000 		.4byte	0
 6129 081d 00000000 		.4byte	0
 6130              	.LLST44:
 6131 0821 00000000 		.4byte	.LVL128
 6132 0825 16000000 		.4byte	.LVL131
 6133 0829 0100     		.2byte	0x1
 6134 082b 50       		.byte	0x50
 6135 082c 16000000 		.4byte	.LVL131
 6136 0830 18000000 		.4byte	.LFE601
 6137 0834 0400     		.2byte	0x4
 6138 0836 F3       		.byte	0xf3
 6139 0837 01       		.uleb128 0x1
 6140 0838 50       		.byte	0x50
 6141 0839 9F       		.byte	0x9f
 6142 083a 00000000 		.4byte	0
 6143 083e 00000000 		.4byte	0
 6144              	.LLST45:
 6145 0842 14000000 		.4byte	.LVL130
 6146 0846 16000000 		.4byte	.LVL131
 6147 084a 0200     		.2byte	0x2
 6148 084c 70       		.byte	0x70
 6149 084d 04       		.sleb128 4
 6150 084e 16000000 		.4byte	.LVL131
 6151 0852 18000000 		.4byte	.LFE601
 6152 0856 0100     		.2byte	0x1
 6153 0858 50       		.byte	0x50
 6154 0859 00000000 		.4byte	0
 6155 085d 00000000 		.4byte	0
 6156              	.LLST46:
 6157 0861 00000000 		.4byte	.LVL132
 6158 0865 16000000 		.4byte	.LVL134
 6159 0869 0100     		.2byte	0x1
 6160 086b 50       		.byte	0x50
 6161 086c 16000000 		.4byte	.LVL134
 6162 0870 18000000 		.4byte	.LFE602
 6163 0874 0400     		.2byte	0x4
 6164 0876 F3       		.byte	0xf3
 6165 0877 01       		.uleb128 0x1
 6166 0878 50       		.byte	0x50
 6167 0879 9F       		.byte	0x9f
 6168 087a 00000000 		.4byte	0
 6169 087e 00000000 		.4byte	0
 6170              	.LLST47:
 6171 0882 00000000 		.4byte	.LVL132
 6172 0886 16000000 		.4byte	.LVL134
 6173 088a 0100     		.2byte	0x1
 6174 088c 50       		.byte	0x50
 6175 088d 16000000 		.4byte	.LVL134
 6176 0891 18000000 		.4byte	.LFE602
 6177 0895 0400     		.2byte	0x4
 6178 0897 F3       		.byte	0xf3
 6179 0898 01       		.uleb128 0x1
 6180 0899 50       		.byte	0x50
ARM GAS  C:\Users\kateb\AppData\Local\Temp\ccjwfWYs.s 			page 132


 6181 089a 9F       		.byte	0x9f
 6182 089b 00000000 		.4byte	0
 6183 089f 00000000 		.4byte	0
 6184              	.LLST48:
 6185 08a3 00000000 		.4byte	.LVL135
 6186 08a7 1B000000 		.4byte	.LVL137-1
 6187 08ab 0100     		.2byte	0x1
 6188 08ad 50       		.byte	0x50
 6189 08ae 1B000000 		.4byte	.LVL137-1
 6190 08b2 1E000000 		.4byte	.LVL138
 6191 08b6 0100     		.2byte	0x1
 6192 08b8 54       		.byte	0x54
 6193 08b9 1E000000 		.4byte	.LVL138
 6194 08bd 2C000000 		.4byte	.LFE612
 6195 08c1 0400     		.2byte	0x4
 6196 08c3 F3       		.byte	0xf3
 6197 08c4 01       		.uleb128 0x1
 6198 08c5 50       		.byte	0x50
 6199 08c6 9F       		.byte	0x9f
 6200 08c7 00000000 		.4byte	0
 6201 08cb 00000000 		.4byte	0
 6202              	.LLST49:
 6203 08cf 00000000 		.4byte	.LVL135
 6204 08d3 1B000000 		.4byte	.LVL137-1
 6205 08d7 0100     		.2byte	0x1
 6206 08d9 50       		.byte	0x50
 6207 08da 1B000000 		.4byte	.LVL137-1
 6208 08de 1E000000 		.4byte	.LVL138
 6209 08e2 0100     		.2byte	0x1
 6210 08e4 54       		.byte	0x54
 6211 08e5 1E000000 		.4byte	.LVL138
 6212 08e9 2C000000 		.4byte	.LFE612
 6213 08ed 0400     		.2byte	0x4
 6214 08ef F3       		.byte	0xf3
 6215 08f0 01       		.uleb128 0x1
 6216 08f1 50       		.byte	0x50
 6217 08f2 9F       		.byte	0x9f
 6218 08f3 00000000 		.4byte	0
 6219 08f7 00000000 		.4byte	0
 6220              	.LLST50:
 6221 08fb 00000000 		.4byte	.LVL141
 6222 08ff 1B000000 		.4byte	.LVL143-1
 6223 0903 0100     		.2byte	0x1
 6224 0905 50       		.byte	0x50
 6225 0906 1B000000 		.4byte	.LVL143-1
 6226 090a 1E000000 		.4byte	.LVL144
 6227 090e 0100     		.2byte	0x1
 6228 0910 54       		.byte	0x54
 6229 0911 1E000000 		.4byte	.LVL144
 6230 0915 26000000 		.4byte	.LFE613
 6231 0919 0400     		.2byte	0x4
 6232 091b F3       		.byte	0xf3
 6233 091c 01       		.uleb128 0x1
 6234 091d 50       		.byte	0x50
 6235 091e 9F       		.byte	0x9f
 6236 091f 00000000 		.4byte	0
 6237 0923 00000000 		.4byte	0
ARM GAS  C:\Users\kateb\AppData\Local\Temp\ccjwfWYs.s 			page 133


 6238              	.LLST51:
 6239 0927 00000000 		.4byte	.LVL141
 6240 092b 1B000000 		.4byte	.LVL143-1
 6241 092f 0100     		.2byte	0x1
 6242 0931 50       		.byte	0x50
 6243 0932 1B000000 		.4byte	.LVL143-1
 6244 0936 1E000000 		.4byte	.LVL144
 6245 093a 0100     		.2byte	0x1
 6246 093c 54       		.byte	0x54
 6247 093d 1E000000 		.4byte	.LVL144
 6248 0941 26000000 		.4byte	.LFE613
 6249 0945 0400     		.2byte	0x4
 6250 0947 F3       		.byte	0xf3
 6251 0948 01       		.uleb128 0x1
 6252 0949 50       		.byte	0x50
 6253 094a 9F       		.byte	0x9f
 6254 094b 00000000 		.4byte	0
 6255 094f 00000000 		.4byte	0
 6256              	.LLST52:
 6257 0953 00000000 		.4byte	.LVL146
 6258 0957 1D000000 		.4byte	.LVL149-1
 6259 095b 0100     		.2byte	0x1
 6260 095d 50       		.byte	0x50
 6261 095e 1D000000 		.4byte	.LVL149-1
 6262 0962 26000000 		.4byte	.LFE614
 6263 0966 0100     		.2byte	0x1
 6264 0968 54       		.byte	0x54
 6265 0969 00000000 		.4byte	0
 6266 096d 00000000 		.4byte	0
 6267              	.LLST53:
 6268 0971 00000000 		.4byte	.LVL146
 6269 0975 1D000000 		.4byte	.LVL149-1
 6270 0979 0100     		.2byte	0x1
 6271 097b 51       		.byte	0x51
 6272 097c 1D000000 		.4byte	.LVL149-1
 6273 0980 26000000 		.4byte	.LFE614
 6274 0984 0100     		.2byte	0x1
 6275 0986 55       		.byte	0x55
 6276 0987 00000000 		.4byte	0
 6277 098b 00000000 		.4byte	0
 6278              	.LLST54:
 6279 098f 02000000 		.4byte	.LVL147
 6280 0993 1D000000 		.4byte	.LVL149-1
 6281 0997 0100     		.2byte	0x1
 6282 0999 50       		.byte	0x50
 6283 099a 1D000000 		.4byte	.LVL149-1
 6284 099e 26000000 		.4byte	.LFE614
 6285 09a2 0100     		.2byte	0x1
 6286 09a4 54       		.byte	0x54
 6287 09a5 00000000 		.4byte	0
 6288 09a9 00000000 		.4byte	0
 6289              		.section	.debug_aranges,"",%progbits
 6290 0000 B4000000 		.4byte	0xb4
 6291 0004 0200     		.2byte	0x2
 6292 0006 00000000 		.4byte	.Ldebug_info0
 6293 000a 04       		.byte	0x4
 6294 000b 00       		.byte	0
ARM GAS  C:\Users\kateb\AppData\Local\Temp\ccjwfWYs.s 			page 134


 6295 000c 0000     		.2byte	0
 6296 000e 0000     		.2byte	0
 6297 0010 00000000 		.4byte	.LFB606
 6298 0014 20000000 		.4byte	.LFE606-.LFB606
 6299 0018 00000000 		.4byte	.LFB608
 6300 001c 44000000 		.4byte	.LFE608-.LFB608
 6301 0020 00000000 		.4byte	.LFB611
 6302 0024 48000000 		.4byte	.LFE611-.LFB611
 6303 0028 00000000 		.4byte	.LFB597
 6304 002c 40000000 		.4byte	.LFE597-.LFB597
 6305 0030 00000000 		.4byte	.LFB595
 6306 0034 50000000 		.4byte	.LFE595-.LFB595
 6307 0038 00000000 		.4byte	.LFB596
 6308 003c 32000000 		.4byte	.LFE596-.LFB596
 6309 0040 00000000 		.4byte	.LFB598
 6310 0044 6C000000 		.4byte	.LFE598-.LFB598
 6311 0048 00000000 		.4byte	.LFB610
 6312 004c 74000000 		.4byte	.LFE610-.LFB610
 6313 0050 00000000 		.4byte	.LFB607
 6314 0054 2C000000 		.4byte	.LFE607-.LFB607
 6315 0058 00000000 		.4byte	.LFB603
 6316 005c 5C000000 		.4byte	.LFE603-.LFB603
 6317 0060 00000000 		.4byte	.LFB605
 6318 0064 70000000 		.4byte	.LFE605-.LFB605
 6319 0068 00000000 		.4byte	.LFB609
 6320 006c BC000000 		.4byte	.LFE609-.LFB609
 6321 0070 00000000 		.4byte	.LFB604
 6322 0074 16000000 		.4byte	.LFE604-.LFB604
 6323 0078 00000000 		.4byte	.LFB599
 6324 007c 20000000 		.4byte	.LFE599-.LFB599
 6325 0080 00000000 		.4byte	.LFB600
 6326 0084 18000000 		.4byte	.LFE600-.LFB600
 6327 0088 00000000 		.4byte	.LFB601
 6328 008c 18000000 		.4byte	.LFE601-.LFB601
 6329 0090 00000000 		.4byte	.LFB602
 6330 0094 18000000 		.4byte	.LFE602-.LFB602
 6331 0098 00000000 		.4byte	.LFB612
 6332 009c 2C000000 		.4byte	.LFE612-.LFB612
 6333 00a0 00000000 		.4byte	.LFB613
 6334 00a4 26000000 		.4byte	.LFE613-.LFB613
 6335 00a8 00000000 		.4byte	.LFB614
 6336 00ac 26000000 		.4byte	.LFE614-.LFB614
 6337 00b0 00000000 		.4byte	0
 6338 00b4 00000000 		.4byte	0
 6339              		.section	.debug_ranges,"",%progbits
 6340              	.Ldebug_ranges0:
 6341 0000 00000000 		.4byte	.LFB606
 6342 0004 20000000 		.4byte	.LFE606
 6343 0008 00000000 		.4byte	.LFB608
 6344 000c 44000000 		.4byte	.LFE608
 6345 0010 00000000 		.4byte	.LFB611
 6346 0014 48000000 		.4byte	.LFE611
 6347 0018 00000000 		.4byte	.LFB597
 6348 001c 40000000 		.4byte	.LFE597
 6349 0020 00000000 		.4byte	.LFB595
 6350 0024 50000000 		.4byte	.LFE595
 6351 0028 00000000 		.4byte	.LFB596
ARM GAS  C:\Users\kateb\AppData\Local\Temp\ccjwfWYs.s 			page 135


 6352 002c 32000000 		.4byte	.LFE596
 6353 0030 00000000 		.4byte	.LFB598
 6354 0034 6C000000 		.4byte	.LFE598
 6355 0038 00000000 		.4byte	.LFB610
 6356 003c 74000000 		.4byte	.LFE610
 6357 0040 00000000 		.4byte	.LFB607
 6358 0044 2C000000 		.4byte	.LFE607
 6359 0048 00000000 		.4byte	.LFB603
 6360 004c 5C000000 		.4byte	.LFE603
 6361 0050 00000000 		.4byte	.LFB605
 6362 0054 70000000 		.4byte	.LFE605
 6363 0058 00000000 		.4byte	.LFB609
 6364 005c BC000000 		.4byte	.LFE609
 6365 0060 00000000 		.4byte	.LFB604
 6366 0064 16000000 		.4byte	.LFE604
 6367 0068 00000000 		.4byte	.LFB599
 6368 006c 20000000 		.4byte	.LFE599
 6369 0070 00000000 		.4byte	.LFB600
 6370 0074 18000000 		.4byte	.LFE600
 6371 0078 00000000 		.4byte	.LFB601
 6372 007c 18000000 		.4byte	.LFE601
 6373 0080 00000000 		.4byte	.LFB602
 6374 0084 18000000 		.4byte	.LFE602
 6375 0088 00000000 		.4byte	.LFB612
 6376 008c 2C000000 		.4byte	.LFE612
 6377 0090 00000000 		.4byte	.LFB613
 6378 0094 26000000 		.4byte	.LFE613
 6379 0098 00000000 		.4byte	.LFB614
 6380 009c 26000000 		.4byte	.LFE614
 6381 00a0 00000000 		.4byte	0
 6382 00a4 00000000 		.4byte	0
 6383              		.section	.debug_line,"",%progbits
 6384              	.Ldebug_line0:
 6385 0000 CC060000 		.section	.debug_str,"MS",%progbits,1
 6385      02000604 
 6385      00000201 
 6385      FB0E0D00 
 6385      01010101 
 6386              	.LASF287:
 6387 0000 70785469 		.ascii	"pxTimerListsWereSwitched\000"
 6387      6D65724C 
 6387      69737473 
 6387      57657265 
 6387      53776974 
 6388              	.LASF323:
 6389 0019 764C6973 		.ascii	"vListInsert\000"
 6389      74496E73 
 6389      65727400 
 6390              	.LASF9:
 6391 0025 6C6F6E67 		.ascii	"long int\000"
 6391      20696E74 
 6391      00
 6392              	.LASF328:
 6393 002e 76506F72 		.ascii	"vPortExitCritical\000"
 6393      74457869 
 6393      74437269 
 6393      74696361 
ARM GAS  C:\Users\kateb\AppData\Local\Temp\ccjwfWYs.s 			page 136


 6393      6C00
 6394              	.LASF266:
 6395 0040 78436F6D 		.ascii	"xCommandTime\000"
 6395      6D616E64 
 6395      54696D65 
 6395      00
 6396              	.LASF86:
 6397 004d 43595F42 		.ascii	"CY_BLE_EVT_READ_AUTH_PAYLOAD_TO_COMPLETE\000"
 6397      4C455F45 
 6397      56545F52 
 6397      4541445F 
 6397      41555448 
 6398              	.LASF237:
 6399 0076 75784E75 		.ascii	"uxNumberOfItems\000"
 6399      6D626572 
 6399      4F664974 
 6399      656D7300 
 6400              	.LASF188:
 6401 0086 43595F42 		.ascii	"CY_BLE_EVT_L2CAP_CBFC_DATA_READ\000"
 6401      4C455F45 
 6401      56545F4C 
 6401      32434150 
 6401      5F434246 
 6402              	.LASF34:
 6403 00a6 63795F63 		.ascii	"cy_cb_scb_spi_handle_events_t\000"
 6403      625F7363 
 6403      625F7370 
 6403      695F6861 
 6403      6E646C65 
 6404              	.LASF135:
 6405 00c4 43595F42 		.ascii	"CY_BLE_EVT_GAPP_ADVERTISEMENT_START_STOP\000"
 6405      4C455F45 
 6405      56545F47 
 6405      4150505F 
 6405      41445645 
 6406              	.LASF217:
 6407 00ed 43595F42 		.ascii	"CY_BLE_SRVI_COUNT\000"
 6407      4C455F53 
 6407      5256495F 
 6407      434F554E 
 6407      5400
 6408              	.LASF45:
 6409 00ff 63795F63 		.ascii	"cy_cb_scb_uart_handle_events_t\000"
 6409      625F7363 
 6409      625F7561 
 6409      72745F68 
 6409      616E646C 
 6410              	.LASF190:
 6411 011e 43595F42 		.ascii	"CY_BLE_EVT_L2CAP_CBFC_TX_CREDIT_IND\000"
 6411      4C455F45 
 6411      56545F4C 
 6411      32434150 
 6411      5F434246 
 6412              	.LASF82:
 6413 0142 43595F42 		.ascii	"CY_BLE_EVT_PENDING_FLASH_WRITE\000"
 6413      4C455F45 
 6413      56545F50 
ARM GAS  C:\Users\kateb\AppData\Local\Temp\ccjwfWYs.s 			page 137


 6413      454E4449 
 6413      4E475F46 
 6414              	.LASF120:
 6415 0161 43595F42 		.ascii	"CY_BLE_EVT_AES_CCM_DECRYPT_COMPLETE\000"
 6415      4C455F45 
 6415      56545F41 
 6415      45535F43 
 6415      434D5F44 
 6416              	.LASF251:
 6417 0185 70784361 		.ascii	"pxCallbackFunction\000"
 6417      6C6C6261 
 6417      636B4675 
 6417      6E637469 
 6417      6F6E00
 6418              	.LASF174:
 6419 0198 43595F42 		.ascii	"CY_BLE_EVT_GATTC_HANDLE_VALUE_NTF\000"
 6419      4C455F45 
 6419      56545F47 
 6419      41545443 
 6419      5F48414E 
 6420              	.LASF320:
 6421 01ba 43595F45 		.ascii	"CY_EINK_SPIM_context\000"
 6421      494E4B5F 
 6421      5350494D 
 6421      5F636F6E 
 6421      74657874 
 6422              	.LASF263:
 6423 01cf 70784C69 		.ascii	"pxListWasEmpty\000"
 6423      73745761 
 6423      73456D70 
 6423      747900
 6424              	.LASF24:
 6425 01de 666F726D 		.ascii	"format\000"
 6425      617400
 6426              	.LASF208:
 6427 01e5 43595F42 		.ascii	"CY_BLE_CONN_STATE_CLIENT_DISCOVERED\000"
 6427      4C455F43 
 6427      4F4E4E5F 
 6427      53544154 
 6427      455F434C 
 6428              	.LASF265:
 6429 0209 7854696D 		.ascii	"xTimeNow\000"
 6429      654E6F77 
 6429      00
 6430              	.LASF48:
 6431 0212 74785374 		.ascii	"txStatus\000"
 6431      61747573 
 6431      00
 6432              	.LASF275:
 6433 021b 7854696D 		.ascii	"xTimerGenericCommand\000"
 6433      65724765 
 6433      6E657269 
 6433      63436F6D 
 6433      6D616E64 
 6434              	.LASF114:
 6435 0230 43595F42 		.ascii	"CY_BLE_EVT_SET_TX_PWR_COMPLETE\000"
 6435      4C455F45 
ARM GAS  C:\Users\kateb\AppData\Local\Temp\ccjwfWYs.s 			page 138


 6435      56545F53 
 6435      45545F54 
 6435      585F5057 
 6436              	.LASF345:
 6437 024f 7854696D 		.ascii	"xTimerParameters\000"
 6437      65725061 
 6437      72616D65 
 6437      74657273 
 6437      00
 6438              	.LASF103:
 6439 0260 43595F42 		.ascii	"CY_BLE_EVT_GET_PHY_COMPLETE\000"
 6439      4C455F45 
 6439      56545F47 
 6439      45545F50 
 6439      48595F43 
 6440              	.LASF278:
 6441 027c 784F7074 		.ascii	"xOptionalValue\000"
 6441      696F6E61 
 6441      6C56616C 
 6441      756500
 6442              	.LASF341:
 6443 028b 78517565 		.ascii	"xQueueReceive\000"
 6443      75655265 
 6443      63656976 
 6443      6500
 6444              	.LASF332:
 6445 0299 78546173 		.ascii	"xTaskGetSchedulerState\000"
 6445      6B476574 
 6445      53636865 
 6445      64756C65 
 6445      72537461 
 6446              	.LASF279:
 6447 02b0 70784869 		.ascii	"pxHigherPriorityTaskWoken\000"
 6447      67686572 
 6447      5072696F 
 6447      72697479 
 6447      5461736B 
 6448              	.LASF26:
 6449 02ca 6461794F 		.ascii	"dayOfMonth\000"
 6449      664D6F6E 
 6449      746800
 6450              	.LASF189:
 6451 02d5 43595F42 		.ascii	"CY_BLE_EVT_L2CAP_CBFC_RX_CREDIT_IND\000"
 6451      4C455F45 
 6451      56545F4C 
 6451      32434150 
 6451      5F434246 
 6452              	.LASF0:
 6453 02f9 756E7369 		.ascii	"unsigned int\000"
 6453      676E6564 
 6453      20696E74 
 6453      00
 6454              	.LASF314:
 6455 0306 63795F62 		.ascii	"cy_ble_connHandle\000"
 6455      6C655F63 
 6455      6F6E6E48 
 6455      616E646C 
ARM GAS  C:\Users\kateb\AppData\Local\Temp\ccjwfWYs.s 			page 139


 6455      6500
 6456              	.LASF238:
 6457 0318 7078496E 		.ascii	"pxIndex\000"
 6457      64657800 
 6458              	.LASF59:
 6459 0320 43595F53 		.ascii	"CY_SAR_RANGE_COND_OUTSIDE\000"
 6459      41525F52 
 6459      414E4745 
 6459      5F434F4E 
 6459      445F4F55 
 6460              	.LASF30:
 6461 033a 63795F73 		.ascii	"cy_stc_rtc_dst_format_t\000"
 6461      74635F72 
 6461      74635F64 
 6461      73745F66 
 6461      6F726D61 
 6462              	.LASF246:
 6463 0352 70635469 		.ascii	"pcTimerName\000"
 6463      6D65724E 
 6463      616D6500 
 6464              	.LASF41:
 6465 035e 74784275 		.ascii	"txBufIdx\000"
 6465      66496478 
 6465      00
 6466              	.LASF8:
 6467 0367 5F5F696E 		.ascii	"__int32_t\000"
 6467      7433325F 
 6467      7400
 6468              	.LASF33:
 6469 0371 63795F73 		.ascii	"cy_stc_rtc_dst_t\000"
 6469      74635F72 
 6469      74635F64 
 6469      73745F74 
 6469      00
 6470              	.LASF22:
 6471 0382 43595F52 		.ascii	"CY_RTC_DST_FIXED\000"
 6471      54435F44 
 6471      53545F46 
 6471      49584544 
 6471      00
 6472              	.LASF218:
 6473 0393 6368616E 		.ascii	"channelBase\000"
 6473      6E656C42 
 6473      61736500 
 6474              	.LASF209:
 6475 039f 63795F65 		.ascii	"cy_en_ble_conn_state_t\000"
 6475      6E5F626C 
 6475      655F636F 
 6475      6E6E5F73 
 6475      74617465 
 6476              	.LASF163:
 6477 03b6 43595F42 		.ascii	"CY_BLE_EVT_GATTC_FIND_INFO_RSP\000"
 6477      4C455F45 
 6477      56545F47 
 6477      41545443 
 6477      5F46494E 
 6478              	.LASF107:
ARM GAS  C:\Users\kateb\AppData\Local\Temp\ccjwfWYs.s 			page 140


 6479 03d5 43595F42 		.ascii	"CY_BLE_EVT_SET_PRIVACY_MODE_COMPLETE\000"
 6479      4C455F45 
 6479      56545F53 
 6479      45545F50 
 6479      52495641 
 6480              	.LASF220:
 6481 03fa 6877436F 		.ascii	"hwConfigStc\000"
 6481      6E666967 
 6481      53746300 
 6482              	.LASF236:
 6483 0406 784C4953 		.ascii	"xLIST\000"
 6483      5400
 6484              	.LASF257:
 6485 040c 54696D65 		.ascii	"TimerParameter_t\000"
 6485      72506172 
 6485      616D6574 
 6485      65725F74 
 6485      00
 6486              	.LASF51:
 6487 041d 72785269 		.ascii	"rxRingBufSize\000"
 6487      6E674275 
 6487      6653697A 
 6487      6500
 6488              	.LASF167:
 6489 042b 43595F42 		.ascii	"CY_BLE_EVT_GATTC_READ_MULTI_RSP\000"
 6489      4C455F45 
 6489      56545F47 
 6489      41545443 
 6489      5F524541 
 6490              	.LASF157:
 6491 044b 43595F42 		.ascii	"CY_BLE_EVT_GATT_CONNECT_IND\000"
 6491      4C455F45 
 6491      56545F47 
 6491      4154545F 
 6491      434F4E4E 
 6492              	.LASF309:
 6493 0467 7854696D 		.ascii	"xTimerQueue\000"
 6493      65725175 
 6493      65756500 
 6494              	.LASF196:
 6495 0473 43595F42 		.ascii	"CY_BLE_ADV_STATE_STOPPED\000"
 6495      4C455F41 
 6495      44565F53 
 6495      54415445 
 6495      5F53544F 
 6496              	.LASF70:
 6497 048c 73617449 		.ascii	"satIntrMask\000"
 6497      6E74724D 
 6497      61736B00 
 6498              	.LASF324:
 6499 0498 76506F72 		.ascii	"vPortEnterCritical\000"
 6499      74456E74 
 6499      65724372 
 6499      69746963 
 6499      616C00
 6500              	.LASF105:
 6501 04ab 43595F42 		.ascii	"CY_BLE_EVT_SET_PHY_COMPLETE\000"
ARM GAS  C:\Users\kateb\AppData\Local\Temp\ccjwfWYs.s 			page 141


 6501      4C455F45 
 6501      56545F53 
 6501      45545F50 
 6501      48595F43 
 6502              	.LASF179:
 6503 04c7 43595F42 		.ascii	"CY_BLE_EVT_GATTS_READ_CHAR_VAL_ACCESS_REQ\000"
 6503      4C455F45 
 6503      56545F47 
 6503      41545453 
 6503      5F524541 
 6504              	.LASF342:
 6505 04f1 474E5520 		.ascii	"GNU C11 5.4.1 20160609 (release) [ARM/embedded-5-br"
 6505      43313120 
 6505      352E342E 
 6505      31203230 
 6505      31363036 
 6506 0524 616E6368 		.ascii	"anch revision 237715] -mcpu=cortex-m4 -mfloat-abi=s"
 6506      20726576 
 6506      6973696F 
 6506      6E203233 
 6506      37373135 
 6507 0557 6F667466 		.ascii	"oftfp -mfpu=fpv4-sp-d16 -mthumb -g -Og -ffunction-s"
 6507      70202D6D 
 6507      6670753D 
 6507      66707634 
 6507      2D73702D 
 6508 058a 65637469 		.ascii	"ections -ffat-lto-objects\000"
 6508      6F6E7320 
 6508      2D666661 
 6508      742D6C74 
 6508      6F2D6F62 
 6509              	.LASF150:
 6510 05a4 43595F42 		.ascii	"CY_BLE_EVT_GAP_RESOLVE_DEVICE_COMPLETE\000"
 6510      4C455F45 
 6510      56545F47 
 6510      41505F52 
 6510      45534F4C 
 6511              	.LASF56:
 6512 05cb 43595F53 		.ascii	"CY_SAR_RANGE_COND_BELOW\000"
 6512      41525F52 
 6512      414E4745 
 6512      5F434F4E 
 6512      445F4245 
 6513              	.LASF202:
 6514 05e3 43595F42 		.ascii	"CY_BLE_CONN_STATE_CLIENT_DISCONNECTED_DISCOVERED\000"
 6514      4C455F43 
 6514      4F4E4E5F 
 6514      53544154 
 6514      455F434C 
 6515              	.LASF244:
 6516 0614 54696D65 		.ascii	"TimerCallbackFunction_t\000"
 6516      7243616C 
 6516      6C626163 
 6516      6B46756E 
 6516      6374696F 
 6517              	.LASF277:
 6518 062c 78436F6D 		.ascii	"xCommandID\000"
ARM GAS  C:\Users\kateb\AppData\Local\Temp\ccjwfWYs.s 			page 142


 6518      6D616E64 
 6518      494400
 6519              	.LASF232:
 6520 0637 7076436F 		.ascii	"pvContainer\000"
 6520      6E746169 
 6520      6E657200 
 6521              	.LASF160:
 6522 0643 43595F42 		.ascii	"CY_BLE_EVT_GATTC_XCHNG_MTU_RSP\000"
 6522      4C455F45 
 6522      56545F47 
 6522      41545443 
 6522      5F584348 
 6523              	.LASF305:
 6524 0662 78416374 		.ascii	"xActiveTimerList1\000"
 6524      69766554 
 6524      696D6572 
 6524      4C697374 
 6524      3100
 6525              	.LASF176:
 6526 0674 43595F42 		.ascii	"CY_BLE_EVT_GATTS_HANDLE_VALUE_CNF\000"
 6526      4C455F45 
 6526      56545F47 
 6526      41545453 
 6526      5F48414E 
 6527              	.LASF49:
 6528 0696 72785374 		.ascii	"rxStatus\000"
 6528      61747573 
 6528      00
 6529              	.LASF273:
 6530 069f 7854696D 		.ascii	"xTimerCreateTimerTask\000"
 6530      65724372 
 6530      65617465 
 6530      54696D65 
 6530      72546173 
 6531              	.LASF268:
 6532 06b5 7850726F 		.ascii	"xProcessTimerNow\000"
 6532      63657373 
 6532      54696D65 
 6532      724E6F77 
 6532      00
 6533              	.LASF166:
 6534 06c6 43595F42 		.ascii	"CY_BLE_EVT_GATTC_READ_BLOB_RSP\000"
 6534      4C455F45 
 6534      56545F47 
 6534      41545443 
 6534      5F524541 
 6535              	.LASF17:
 6536 06e5 75696E74 		.ascii	"uint32_t\000"
 6536      33325F74 
 6536      00
 6537              	.LASF201:
 6538 06ee 43595F42 		.ascii	"CY_BLE_CONN_STATE_DISCONNECTED\000"
 6538      4C455F43 
 6538      4F4E4E5F 
 6538      53544154 
 6538      455F4449 
 6539              	.LASF97:
ARM GAS  C:\Users\kateb\AppData\Local\Temp\ccjwfWYs.s 			page 143


 6540 070d 43595F42 		.ascii	"CY_BLE_EVT_SET_RPA_ENABLE_COMPLETE\000"
 6540      4C455F45 
 6540      56545F53 
 6540      45545F52 
 6540      50415F45 
 6541              	.LASF243:
 6542 0730 54696D65 		.ascii	"TimerHandle_t\000"
 6542      7248616E 
 6542      646C655F 
 6542      7400
 6543              	.LASF78:
 6544 073e 43595F42 		.ascii	"CY_BLE_EVT_STACK_ON\000"
 6544      4C455F45 
 6544      56545F53 
 6544      5441434B 
 6544      5F4F4E00 
 6545              	.LASF108:
 6546 0752 43595F42 		.ascii	"CY_BLE_EVT_LL_CNTRL_PROC_PENDING_COMPLETE\000"
 6546      4C455F45 
 6546      56545F4C 
 6546      4C5F434E 
 6546      54524C5F 
 6547              	.LASF289:
 6548 077c 70727650 		.ascii	"prvProcessExpiredTimer\000"
 6548      726F6365 
 6548      73734578 
 6548      70697265 
 6548      6454696D 
 6549              	.LASF164:
 6550 0793 43595F42 		.ascii	"CY_BLE_EVT_GATTC_FIND_BY_TYPE_VALUE_RSP\000"
 6550      4C455F45 
 6550      56545F47 
 6550      41545443 
 6550      5F46494E 
 6551              	.LASF185:
 6552 07bb 43595F42 		.ascii	"CY_BLE_EVT_L2CAP_CBFC_CONN_CNF\000"
 6552      4C455F45 
 6552      56545F4C 
 6552      32434150 
 6552      5F434246 
 6553              	.LASF94:
 6554 07da 43595F42 		.ascii	"CY_BLE_EVT_GET_PEER_RPA_COMPLETE\000"
 6554      4C455F45 
 6554      56545F47 
 6554      45545F50 
 6554      4545525F 
 6555              	.LASF319:
 6556 07fb 5254435F 		.ascii	"RTC_dstConfig\000"
 6556      64737443 
 6556      6F6E6669 
 6556      6700
 6557              	.LASF77:
 6558 0809 43595F42 		.ascii	"CY_BLE_EVT_INVALID\000"
 6558      4C455F45 
 6558      56545F49 
 6558      4E56414C 
 6558      494400
ARM GAS  C:\Users\kateb\AppData\Local\Temp\ccjwfWYs.s 			page 144


 6559              	.LASF55:
 6560 081c 63795F73 		.ascii	"cy_stc_scb_uart_context_t\000"
 6560      74635F73 
 6560      63625F75 
 6560      6172745F 
 6560      636F6E74 
 6561              	.LASF47:
 6562 0836 63795F73 		.ascii	"cy_stc_scb_uart_context\000"
 6562      74635F73 
 6562      63625F75 
 6562      6172745F 
 6562      636F6E74 
 6563              	.LASF95:
 6564 084e 43595F42 		.ascii	"CY_BLE_EVT_GET_LOCAL_RPA_COMPLETE\000"
 6564      4C455F45 
 6564      56545F47 
 6564      45545F4C 
 6564      4F43414C 
 6565              	.LASF219:
 6566 0870 6E756D43 		.ascii	"numChannels\000"
 6566      68616E6E 
 6566      656C7300 
 6567              	.LASF315:
 6568 087c 63795F62 		.ascii	"cy_ble_connState\000"
 6568      6C655F63 
 6568      6F6E6E53 
 6568      74617465 
 6568      00
 6569              	.LASF145:
 6570 088d 43595F42 		.ascii	"CY_BLE_EVT_GAP_ENHANCE_CONN_COMPLETE\000"
 6570      4C455F45 
 6570      56545F47 
 6570      41505F45 
 6570      4E48414E 
 6571              	.LASF12:
 6572 08b2 6C6F6E67 		.ascii	"long long unsigned int\000"
 6572      206C6F6E 
 6572      6720756E 
 6572      7369676E 
 6572      65642069 
 6573              	.LASF200:
 6574 08c9 63795F65 		.ascii	"cy_en_ble_adv_state_t\000"
 6574      6E5F626C 
 6574      655F6164 
 6574      765F7374 
 6574      6174655F 
 6575              	.LASF112:
 6576 08df 43595F42 		.ascii	"CY_BLE_EVT_GET_RSSI_COMPLETE\000"
 6576      4C455F45 
 6576      56545F47 
 6576      45545F52 
 6576      5353495F 
 6577              	.LASF227:
 6578 08fc 784C4953 		.ascii	"xLIST_ITEM\000"
 6578      545F4954 
 6578      454D00
 6579              	.LASF271:
ARM GAS  C:\Users\kateb\AppData\Local\Temp\ccjwfWYs.s 			page 145


 6580 0907 70784E65 		.ascii	"pxNewTimer\000"
 6580      7754696D 
 6580      657200
 6581              	.LASF230:
 6582 0912 70785072 		.ascii	"pxPrevious\000"
 6582      6576696F 
 6582      757300
 6583              	.LASF65:
 6584 091d 72616E67 		.ascii	"rangeThres\000"
 6584      65546872 
 6584      657300
 6585              	.LASF197:
 6586 0928 43595F42 		.ascii	"CY_BLE_ADV_STATE_ADV_INITIATED\000"
 6586      4C455F41 
 6586      44565F53 
 6586      54415445 
 6586      5F414456 
 6587              	.LASF23:
 6588 0947 63795F65 		.ascii	"cy_en_rtc_dst_format_t\000"
 6588      6E5F7274 
 6588      635F6473 
 6588      745F666F 
 6588      726D6174 
 6589              	.LASF303:
 6590 095e 70765265 		.ascii	"pvReturn\000"
 6590      7475726E 
 6590      00
 6591              	.LASF284:
 6592 0967 70785465 		.ascii	"pxTemp\000"
 6592      6D7000
 6593              	.LASF138:
 6594 096e 43595F42 		.ascii	"CY_BLE_EVT_GAP_ENCRYPT_CHANGE\000"
 6594      4C455F45 
 6594      56545F47 
 6594      41505F45 
 6594      4E435259 
 6595              	.LASF110:
 6596 098c 43595F42 		.ascii	"CY_BLE_EVT_SET_DEVICE_ADDR_COMPLETE\000"
 6596      4C455F45 
 6596      56545F53 
 6596      45545F44 
 6596      45564943 
 6597              	.LASF76:
 6598 09b0 63795F73 		.ascii	"cy_stc_sar_config_t\000"
 6598      74635F73 
 6598      61725F63 
 6598      6F6E6669 
 6598      675F7400 
 6599              	.LASF194:
 6600 09c4 61747449 		.ascii	"attId\000"
 6600      6400
 6601              	.LASF61:
 6602 09ca 6374726C 		.ascii	"ctrl\000"
 6602      00
 6603              	.LASF337:
 6604 09cf 76546173 		.ascii	"vTaskSuspendAll\000"
 6604      6B537573 
ARM GAS  C:\Users\kateb\AppData\Local\Temp\ccjwfWYs.s 			page 146


 6604      70656E64 
 6604      416C6C00 
 6605              	.LASF300:
 6606 09df 7854696D 		.ascii	"xTimerIsTimerActive\000"
 6606      65724973 
 6606      54696D65 
 6606      72416374 
 6606      69766500 
 6607              	.LASF144:
 6608 09f3 43595F42 		.ascii	"CY_BLE_EVT_GAP_OOB_GENERATED_NOTIFICATION\000"
 6608      4C455F45 
 6608      56545F47 
 6608      41505F4F 
 6608      4F425F47 
 6609              	.LASF57:
 6610 0a1d 43595F53 		.ascii	"CY_SAR_RANGE_COND_INSIDE\000"
 6610      41525F52 
 6610      414E4745 
 6610      5F434F4E 
 6610      445F494E 
 6611              	.LASF36:
 6612 0a36 72784275 		.ascii	"rxBuf\000"
 6612      6600
 6613              	.LASF136:
 6614 0a3c 43595F42 		.ascii	"CY_BLE_EVT_GAP_DEVICE_CONNECTED\000"
 6614      4C455F45 
 6614      56545F47 
 6614      41505F44 
 6614      45564943 
 6615              	.LASF109:
 6616 0a5c 43595F42 		.ascii	"CY_BLE_EVT_SOFT_RESET_COMPLETE\000"
 6616      4C455F45 
 6616      56545F53 
 6616      4F46545F 
 6616      52455345 
 6617              	.LASF302:
 6618 0a7b 70765469 		.ascii	"pvTimerGetTimerID\000"
 6618      6D657247 
 6618      65745469 
 6618      6D657249 
 6618      4400
 6619              	.LASF259:
 6620 0a8d 784D6573 		.ascii	"xMessageID\000"
 6620      73616765 
 6620      494400
 6621              	.LASF171:
 6622 0a98 43595F42 		.ascii	"CY_BLE_EVT_GATTS_PREP_WRITE_REQ\000"
 6622      4C455F45 
 6622      56545F47 
 6622      41545453 
 6622      5F505245 
 6623              	.LASF42:
 6624 0ab8 63624576 		.ascii	"cbEvents\000"
 6624      656E7473 
 6624      00
 6625              	.LASF19:
 6626 0ac1 646F7562 		.ascii	"double\000"
ARM GAS  C:\Users\kateb\AppData\Local\Temp\ccjwfWYs.s 			page 147


 6626      6C6500
 6627              	.LASF234:
 6628 0ac8 784D494E 		.ascii	"xMINI_LIST_ITEM\000"
 6628      495F4C49 
 6628      53545F49 
 6628      54454D00 
 6629              	.LASF20:
 6630 0ad8 5F426F6F 		.ascii	"_Bool\000"
 6630      6C00
 6631              	.LASF32:
 6632 0ade 73746F70 		.ascii	"stopDst\000"
 6632      44737400 
 6633              	.LASF192:
 6634 0ae6 43595F42 		.ascii	"CY_BLE_EVT_MAX\000"
 6634      4C455F45 
 6634      56545F4D 
 6634      415800
 6635              	.LASF29:
 6636 0af5 6D6F6E74 		.ascii	"month\000"
 6636      6800
 6637              	.LASF27:
 6638 0afb 7765656B 		.ascii	"weekOfMonth\000"
 6638      4F664D6F 
 6638      6E746800 
 6639              	.LASF308:
 6640 0b07 70784F76 		.ascii	"pxOverflowTimerList\000"
 6640      6572666C 
 6640      6F775469 
 6640      6D65724C 
 6640      69737400 
 6641              	.LASF187:
 6642 0b1b 43595F42 		.ascii	"CY_BLE_EVT_L2CAP_CBFC_DISCONN_CNF\000"
 6642      4C455F45 
 6642      56545F4C 
 6642      32434150 
 6642      5F434246 
 6643              	.LASF117:
 6644 0b3d 43595F42 		.ascii	"CY_BLE_EVT_RANDOM_NUM_GEN_COMPLETE\000"
 6644      4C455F45 
 6644      56545F52 
 6644      414E444F 
 6644      4D5F4E55 
 6645              	.LASF198:
 6646 0b60 43595F42 		.ascii	"CY_BLE_ADV_STATE_ADVERTISING\000"
 6646      4C455F41 
 6646      44565F53 
 6646      54415445 
 6646      5F414456 
 6647              	.LASF147:
 6648 0b7d 43595F42 		.ascii	"CY_BLE_EVT_GAP_SMP_NEGOTIATED_AUTH_INFO\000"
 6648      4C455F45 
 6648      56545F47 
 6648      41505F53 
 6648      4D505F4E 
 6649              	.LASF334:
 6650 0ba5 78517565 		.ascii	"xQueueGenericSendFromISR\000"
 6650      75654765 
ARM GAS  C:\Users\kateb\AppData\Local\Temp\ccjwfWYs.s 			page 148


 6650      6E657269 
 6650      6353656E 
 6650      6446726F 
 6651              	.LASF90:
 6652 0bbe 43595F42 		.ascii	"CY_BLE_EVT_SET_DATA_LENGTH_COMPLETE\000"
 6652      4C455F45 
 6652      56545F53 
 6652      45545F44 
 6652      4154415F 
 6653              	.LASF270:
 6654 0be2 70727649 		.ascii	"prvInitialiseNewTimer\000"
 6654      6E697469 
 6654      616C6973 
 6654      654E6577 
 6654      54696D65 
 6655              	.LASF169:
 6656 0bf8 43595F42 		.ascii	"CY_BLE_EVT_GATTC_WRITE_RSP\000"
 6656      4C455F45 
 6656      56545F47 
 6656      41545443 
 6656      5F575249 
 6657              	.LASF258:
 6658 0c13 746D7254 		.ascii	"tmrTimerQueueMessage\000"
 6658      696D6572 
 6658      51756575 
 6658      654D6573 
 6658      73616765 
 6659              	.LASF333:
 6660 0c28 78517565 		.ascii	"xQueueGenericSend\000"
 6660      75654765 
 6660      6E657269 
 6660      6353656E 
 6660      6400
 6661              	.LASF80:
 6662 0c3a 43595F42 		.ascii	"CY_BLE_EVT_STACK_BUSY_STATUS\000"
 6662      4C455F45 
 6662      56545F53 
 6662      5441434B 
 6662      5F425553 
 6663              	.LASF183:
 6664 0c57 43595F42 		.ascii	"CY_BLE_EVT_L2CAP_COMMAND_REJ\000"
 6664      4C455F45 
 6664      56545F4C 
 6664      32434150 
 6664      5F434F4D 
 6665              	.LASF87:
 6666 0c74 43595F42 		.ascii	"CY_BLE_EVT_GET_CHANNEL_MAP_COMPLETE\000"
 6666      4C455F45 
 6666      56545F47 
 6666      45545F43 
 6666      48414E4E 
 6667              	.LASF25:
 6668 0c98 686F7572 		.ascii	"hour\000"
 6668      00
 6669              	.LASF252:
 6670 0c9d 7854494D 		.ascii	"xTIMER\000"
 6670      455200
ARM GAS  C:\Users\kateb\AppData\Local\Temp\ccjwfWYs.s 			page 149


 6671              	.LASF81:
 6672 0ca4 43595F42 		.ascii	"CY_BLE_EVT_MEMORY_REQUEST\000"
 6672      4C455F45 
 6672      56545F4D 
 6672      454D4F52 
 6672      595F5245 
 6673              	.LASF75:
 6674 0cbe 76726566 		.ascii	"vrefMvValue\000"
 6674      4D765661 
 6674      6C756500 
 6675              	.LASF306:
 6676 0cca 78416374 		.ascii	"xActiveTimerList2\000"
 6676      69766554 
 6676      696D6572 
 6676      4C697374 
 6676      3200
 6677              	.LASF262:
 6678 0cdc 70727649 		.ascii	"prvInsertTimerInActiveList\000"
 6678      6E736572 
 6678      7454696D 
 6678      6572496E 
 6678      41637469 
 6679              	.LASF199:
 6680 0cf7 43595F42 		.ascii	"CY_BLE_ADV_STATE_STOP_INITIATED\000"
 6680      4C455F41 
 6680      44565F53 
 6680      54415445 
 6680      5F53544F 
 6681              	.LASF214:
 6682 0d17 43595F42 		.ascii	"CY_BLE_SRVI_GAP\000"
 6682      4C455F53 
 6682      5256495F 
 6682      47415000 
 6683              	.LASF206:
 6684 0d27 43595F42 		.ascii	"CY_BLE_CONN_STATE_CLIENT_CHAR_DISCOVERING\000"
 6684      4C455F43 
 6684      4F4E4E5F 
 6684      53544154 
 6684      455F434C 
 6685              	.LASF89:
 6686 0d51 43595F42 		.ascii	"CY_BLE_EVT_LE_PING_AUTH_TIMEOUT\000"
 6686      4C455F45 
 6686      56545F4C 
 6686      455F5049 
 6686      4E475F41 
 6687              	.LASF58:
 6688 0d71 43595F53 		.ascii	"CY_SAR_RANGE_COND_ABOVE\000"
 6688      41525F52 
 6688      414E4745 
 6688      5F434F4E 
 6688      445F4142 
 6689              	.LASF14:
 6690 0d89 63686172 		.ascii	"char\000"
 6690      00
 6691              	.LASF119:
 6692 0d8e 43595F42 		.ascii	"CY_BLE_EVT_AES_CCM_ENCRYPT_COMPLETE\000"
 6692      4C455F45 
ARM GAS  C:\Users\kateb\AppData\Local\Temp\ccjwfWYs.s 			page 150


 6692      56545F41 
 6692      45535F43 
 6692      434D5F45 
 6693              	.LASF233:
 6694 0db2 4C697374 		.ascii	"ListItem_t\000"
 6694      4974656D 
 6694      5F7400
 6695              	.LASF67:
 6696 0dbd 6368616E 		.ascii	"chanEn\000"
 6696      456E00
 6697              	.LASF53:
 6698 0dc4 72785269 		.ascii	"rxRingBufTail\000"
 6698      6E674275 
 6698      66546169 
 6698      6C00
 6699              	.LASF31:
 6700 0dd2 73746172 		.ascii	"startDst\000"
 6700      74447374 
 6700      00
 6701              	.LASF225:
 6702 0ddb 55426173 		.ascii	"UBaseType_t\000"
 6702      65547970 
 6702      655F7400 
 6703              	.LASF212:
 6704 0de7 43595F42 		.ascii	"CY_BLE_CTS_REFERENCE_TIME_INFO\000"
 6704      4C455F43 
 6704      54535F52 
 6704      45464552 
 6704      454E4345 
 6705              	.LASF298:
 6706 0e06 7854696D 		.ascii	"xTimerGetExpiryTime\000"
 6706      65724765 
 6706      74457870 
 6706      69727954 
 6706      696D6500 
 6707              	.LASF140:
 6708 0e1a 43595F42 		.ascii	"CY_BLE_EVT_GAPC_SCAN_START_STOP\000"
 6708      4C455F45 
 6708      56545F47 
 6708      4150435F 
 6708      5343414E 
 6709              	.LASF274:
 6710 0e3a 7854696D 		.ascii	"xTimerCreate\000"
 6710      65724372 
 6710      65617465 
 6710      00
 6711              	.LASF162:
 6712 0e47 43595F42 		.ascii	"CY_BLE_EVT_GATTC_READ_BY_TYPE_RSP\000"
 6712      4C455F45 
 6712      56545F47 
 6712      41545443 
 6712      5F524541 
 6713              	.LASF286:
 6714 0e69 70727653 		.ascii	"prvSampleTimeNow\000"
 6714      616D706C 
 6714      6554696D 
 6714      654E6F77 
ARM GAS  C:\Users\kateb\AppData\Local\Temp\ccjwfWYs.s 			page 151


 6714      00
 6715              	.LASF239:
 6716 0e7a 784C6973 		.ascii	"xListEnd\000"
 6716      74456E64 
 6716      00
 6717              	.LASF318:
 6718 0e83 5254435F 		.ascii	"RTC_rtcDstStatus\000"
 6718      72746344 
 6718      73745374 
 6718      61747573 
 6718      00
 6719              	.LASF98:
 6720 0e94 43595F42 		.ascii	"CY_BLE_EVT_SET_HOST_CHANNEL_COMPLETE\000"
 6720      4C455F45 
 6720      56545F53 
 6720      45545F48 
 6720      4F53545F 
 6721              	.LASF88:
 6722 0eb9 43595F42 		.ascii	"CY_BLE_EVT_LE_SET_EVENT_MASK_COMPLETE\000"
 6722      4C455F45 
 6722      56545F4C 
 6722      455F5345 
 6722      545F4556 
 6723              	.LASF38:
 6724 0edf 72784275 		.ascii	"rxBufIdx\000"
 6724      66496478 
 6724      00
 6725              	.LASF242:
 6726 0ee8 51756575 		.ascii	"QueueHandle_t\000"
 6726      6548616E 
 6726      646C655F 
 6726      7400
 6727              	.LASF330:
 6728 0ef6 78546173 		.ascii	"xTaskCreate\000"
 6728      6B437265 
 6728      61746500 
 6729              	.LASF142:
 6730 0f02 43595F42 		.ascii	"CY_BLE_EVT_GAP_NUMERIC_COMPARISON_REQUEST\000"
 6730      4C455F45 
 6730      56545F47 
 6730      41505F4E 
 6730      554D4552 
 6731              	.LASF43:
 6732 0f2c 696E6974 		.ascii	"initKey\000"
 6732      4B657900 
 6733              	.LASF15:
 6734 0f34 75696E74 		.ascii	"uint8_t\000"
 6734      385F7400 
 6735              	.LASF35:
 6736 0f3c 73746174 		.ascii	"status\000"
 6736      757300
 6737              	.LASF348:
 6738 0f43 7654696D 		.ascii	"vTimerSetTimerID\000"
 6738      65725365 
 6738      7454696D 
 6738      65724944 
 6738      00
ARM GAS  C:\Users\kateb\AppData\Local\Temp\ccjwfWYs.s 			page 152


 6739              	.LASF121:
 6740 0f54 43595F42 		.ascii	"CY_BLE_EVT_SET_SLAVE_LATENCY_MODE_COMPLETE\000"
 6740      4C455F45 
 6740      56545F53 
 6740      45545F53 
 6740      4C415645 
 6741              	.LASF213:
 6742 0f7f 43595F42 		.ascii	"CY_BLE_CTS_CHAR_COUNT\000"
 6742      4C455F43 
 6742      54535F43 
 6742      4841525F 
 6742      434F554E 
 6743              	.LASF292:
 6744 0f95 7854696D 		.ascii	"xTimerListsWereSwitched\000"
 6744      65724C69 
 6744      73747357 
 6744      65726553 
 6744      77697463 
 6745              	.LASF326:
 6746 0fad 78517565 		.ascii	"xQueueGenericCreate\000"
 6746      75654765 
 6746      6E657269 
 6746      63437265 
 6746      61746500 
 6747              	.LASF133:
 6748 0fc1 43595F42 		.ascii	"CY_BLE_EVT_GAP_AUTH_COMPLETE\000"
 6748      4C455F45 
 6748      56545F47 
 6748      41505F41 
 6748      5554485F 
 6749              	.LASF104:
 6750 0fde 43595F42 		.ascii	"CY_BLE_EVT_SET_DEFAULT_PHY_COMPLETE\000"
 6750      4C455F45 
 6750      56545F53 
 6750      45545F44 
 6750      45464155 
 6751              	.LASF73:
 6752 1002 6D757853 		.ascii	"muxSwitchSqCtrl\000"
 6752      77697463 
 6752      68537143 
 6752      74726C00 
 6753              	.LASF313:
 6754 1012 63795F62 		.ascii	"cy_ble_advState\000"
 6754      6C655F61 
 6754      64765374 
 6754      61746500 
 6755              	.LASF210:
 6756 1022 43595F42 		.ascii	"CY_BLE_CTS_CURRENT_TIME\000"
 6756      4C455F43 
 6756      54535F43 
 6756      55525245 
 6756      4E545F54 
 6757              	.LASF245:
 6758 103a 746D7254 		.ascii	"tmrTimerControl\000"
 6758      696D6572 
 6758      436F6E74 
 6758      726F6C00 
ARM GAS  C:\Users\kateb\AppData\Local\Temp\ccjwfWYs.s 			page 153


 6759              	.LASF301:
 6760 104a 7854696D 		.ascii	"xTimerIsInActiveList\000"
 6760      65724973 
 6760      496E4163 
 6760      74697665 
 6760      4C697374 
 6761              	.LASF66:
 6762 105f 72616E67 		.ascii	"rangeCond\000"
 6762      65436F6E 
 6762      6400
 6763              	.LASF127:
 6764 1069 43595F42 		.ascii	"CY_BLE_EVT_SET_CE_LENGTH_COMPLETE\000"
 6764      4C455F45 
 6764      56545F53 
 6764      45545F43 
 6764      455F4C45 
 6765              	.LASF126:
 6766 108b 43595F42 		.ascii	"CY_BLE_EVT_SET_EVENT_MASK_COMPLETE\000"
 6766      4C455F45 
 6766      56545F53 
 6766      45545F45 
 6766      56454E54 
 6767              	.LASF1:
 6768 10ae 6C6F6E67 		.ascii	"long long int\000"
 6768      206C6F6E 
 6768      6720696E 
 6768      7400
 6769              	.LASF211:
 6770 10bc 43595F42 		.ascii	"CY_BLE_CTS_LOCAL_TIME_INFO\000"
 6770      4C455F43 
 6770      54535F4C 
 6770      4F43414C 
 6770      5F54494D 
 6771              	.LASF153:
 6772 10d7 43595F42 		.ascii	"CY_BLE_EVT_GAP_CONN_ESTB\000"
 6772      4C455F45 
 6772      56545F47 
 6772      41505F43 
 6772      4F4E4E5F 
 6773              	.LASF100:
 6774 10f0 43595F42 		.ascii	"CY_BLE_EVT_REMOVE_DEVICE_FROM_RPA_LIST_COMPLETE\000"
 6774      4C455F45 
 6774      56545F52 
 6774      454D4F56 
 6774      455F4445 
 6775              	.LASF347:
 6776 1120 756C4E65 		.ascii	"ulNewBASEPRI\000"
 6776      77424153 
 6776      45505249 
 6776      00
 6777              	.LASF304:
 6778 112d 70764E65 		.ascii	"pvNewID\000"
 6778      77494400 
 6779              	.LASF224:
 6780 1135 42617365 		.ascii	"BaseType_t\000"
 6780      54797065 
 6780      5F7400
ARM GAS  C:\Users\kateb\AppData\Local\Temp\ccjwfWYs.s 			page 154


 6781              	.LASF282:
 6782 1140 70727653 		.ascii	"prvSwitchTimerLists\000"
 6782      77697463 
 6782      6854696D 
 6782      65724C69 
 6782      73747300 
 6783              	.LASF116:
 6784 1154 43595F42 		.ascii	"CY_BLE_EVT_SET_CLK_CONFIG_COMPLETE\000"
 6784      4C455F45 
 6784      56545F53 
 6784      45545F43 
 6784      4C4B5F43 
 6785              	.LASF229:
 6786 1177 70784E65 		.ascii	"pxNext\000"
 6786      787400
 6787              	.LASF195:
 6788 117e 63795F73 		.ascii	"cy_stc_ble_conn_handle_t\000"
 6788      74635F62 
 6788      6C655F63 
 6788      6F6E6E5F 
 6788      68616E64 
 6789              	.LASF250:
 6790 1197 70765469 		.ascii	"pvTimerID\000"
 6790      6D657249 
 6790      4400
 6791              	.LASF44:
 6792 11a1 63795F73 		.ascii	"cy_stc_scb_spi_context_t\000"
 6792      74635F73 
 6792      63625F73 
 6792      70695F63 
 6792      6F6E7465 
 6793              	.LASF52:
 6794 11ba 72785269 		.ascii	"rxRingBufHead\000"
 6794      6E674275 
 6794      66486561 
 6794      6400
 6795              	.LASF336:
 6796 11c8 78546173 		.ascii	"xTaskGetTickCount\000"
 6796      6B476574 
 6796      5469636B 
 6796      436F756E 
 6796      7400
 6797              	.LASF93:
 6798 11da 43595F42 		.ascii	"CY_BLE_EVT_DATA_LENGTH_CHANGE\000"
 6798      4C455F45 
 6798      56545F44 
 6798      4154415F 
 6798      4C454E47 
 6799              	.LASF68:
 6800 11f8 6368616E 		.ascii	"chanConfig\000"
 6800      436F6E66 
 6800      696700
 6801              	.LASF141:
 6802 1203 43595F42 		.ascii	"CY_BLE_EVT_GAP_KEYINFO_EXCHNGE_CMPLT\000"
 6802      4C455F45 
 6802      56545F47 
 6802      41505F4B 
ARM GAS  C:\Users\kateb\AppData\Local\Temp\ccjwfWYs.s 			page 155


 6802      4559494E 
 6803              	.LASF101:
 6804 1228 43595F42 		.ascii	"CY_BLE_EVT_ADD_DEVICE_TO_WHITE_LIST_COMPLETE\000"
 6804      4C455F45 
 6804      56545F41 
 6804      44445F44 
 6804      45564943 
 6805              	.LASF40:
 6806 1255 74784275 		.ascii	"txBufSize\000"
 6806      6653697A 
 6806      6500
 6807              	.LASF267:
 6808 125f 784E6578 		.ascii	"xNextExpireTime\000"
 6808      74457870 
 6808      69726554 
 6808      696D6500 
 6809              	.LASF155:
 6810 126f 43595F42 		.ascii	"CY_BLE_EVT_GAP_ADV_TX\000"
 6810      4C455F45 
 6810      56545F47 
 6810      41505F41 
 6810      44565F54 
 6811              	.LASF191:
 6812 1285 43595F42 		.ascii	"CY_BLE_EVT_L2CAP_CBFC_DATA_WRITE_IND\000"
 6812      4C455F45 
 6812      56545F4C 
 6812      32434150 
 6812      5F434246 
 6813              	.LASF241:
 6814 12aa 5461736B 		.ascii	"TaskHandle_t\000"
 6814      48616E64 
 6814      6C655F74 
 6814      00
 6815              	.LASF223:
 6816 12b7 4144435F 		.ascii	"ADC_CONFIG_STRUCT\000"
 6816      434F4E46 
 6816      49475F53 
 6816      54525543 
 6816      5400
 6817              	.LASF111:
 6818 12c9 43595F42 		.ascii	"CY_BLE_EVT_GET_DEVICE_ADDR_COMPLETE\000"
 6818      4C455F45 
 6818      56545F47 
 6818      45545F44 
 6818      45564943 
 6819              	.LASF129:
 6820 12ed 43595F42 		.ascii	"CY_BLE_EVT_GAPC_SCAN_PROGRESS_RESULT\000"
 6820      4C455F45 
 6820      56545F47 
 6820      4150435F 
 6820      5343414E 
 6821              	.LASF184:
 6822 1312 43595F42 		.ascii	"CY_BLE_EVT_L2CAP_CBFC_CONN_IND\000"
 6822      4C455F45 
 6822      56545F4C 
 6822      32434150 
 6822      5F434246 
ARM GAS  C:\Users\kateb\AppData\Local\Temp\ccjwfWYs.s 			page 156


 6823              	.LASF149:
 6824 1331 43595F42 		.ascii	"CY_BLE_EVT_GAP_KEYS_GEN_COMPLETE\000"
 6824      4C455F45 
 6824      56545F47 
 6824      41505F4B 
 6824      4559535F 
 6825              	.LASF143:
 6826 1352 43595F42 		.ascii	"CY_BLE_EVT_GAP_KEYPRESS_NOTIFICATION\000"
 6826      4C455F45 
 6826      56545F47 
 6826      41505F4B 
 6826      45595052 
 6827              	.LASF240:
 6828 1377 4C697374 		.ascii	"List_t\000"
 6828      5F7400
 6829              	.LASF207:
 6830 137e 43595F42 		.ascii	"CY_BLE_CONN_STATE_CLIENT_DESCR_DISCOVERING\000"
 6830      4C455F43 
 6830      4F4E4E5F 
 6830      53544154 
 6830      455F434C 
 6831              	.LASF203:
 6832 13a9 43595F42 		.ascii	"CY_BLE_CONN_STATE_CONNECTED\000"
 6832      4C455F43 
 6832      4F4E4E5F 
 6832      53544154 
 6832      455F434F 
 6833              	.LASF39:
 6834 13c5 74784275 		.ascii	"txBuf\000"
 6834      6600
 6835              	.LASF226:
 6836 13cb 5469636B 		.ascii	"TickType_t\000"
 6836      54797065 
 6836      5F7400
 6837              	.LASF205:
 6838 13d6 43595F42 		.ascii	"CY_BLE_CONN_STATE_CLIENT_INCL_DISCOVERING\000"
 6838      4C455F43 
 6838      4F4E4E5F 
 6838      53544154 
 6838      455F434C 
 6839              	.LASF317:
 6840 1400 44454255 		.ascii	"DEBUG_UART_context\000"
 6840      475F5541 
 6840      52545F63 
 6840      6F6E7465 
 6840      787400
 6841              	.LASF247:
 6842 1413 7854696D 		.ascii	"xTimerListItem\000"
 6842      65724C69 
 6842      73744974 
 6842      656D00
 6843              	.LASF50:
 6844 1422 72785269 		.ascii	"rxRingBuf\000"
 6844      6E674275 
 6844      6600
 6845              	.LASF2:
 6846 142c 6C6F6E67 		.ascii	"long double\000"
ARM GAS  C:\Users\kateb\AppData\Local\Temp\ccjwfWYs.s 			page 157


 6846      20646F75 
 6846      626C6500 
 6847              	.LASF343:
 6848 1438 47656E65 		.ascii	"Generated_Source\\PSoC6\\pdl\\rtos\\FreeRTOS\\10.0."
 6848      72617465 
 6848      645F536F 
 6848      75726365 
 6848      5C50536F 
 6849 1466 315C536F 		.ascii	"1\\Source\\timers.c\000"
 6849      75726365 
 6849      5C74696D 
 6849      6572732E 
 6849      6300
 6850              	.LASF96:
 6851 1478 43595F42 		.ascii	"CY_BLE_EVT_SET_RPA_TO_COMPLETE\000"
 6851      4C455F45 
 6851      56545F53 
 6851      45545F52 
 6851      50415F54 
 6852              	.LASF63:
 6853 1497 73616D70 		.ascii	"sampleTime01\000"
 6853      6C655469 
 6853      6D653031 
 6853      00
 6854              	.LASF84:
 6855 14a4 43595F42 		.ascii	"CY_BLE_EVT_HARDWARE_ERROR\000"
 6855      4C455F45 
 6855      56545F48 
 6855      41524457 
 6855      4152455F 
 6856              	.LASF128:
 6857 14be 43595F42 		.ascii	"CY_BLE_EVT_SET_CONN_PRIORITY_COMPLETE\000"
 6857      4C455F45 
 6857      56545F53 
 6857      45545F43 
 6857      4F4E4E5F 
 6858              	.LASF310:
 6859 14e4 7854696D 		.ascii	"xTimerTaskHandle\000"
 6859      65725461 
 6859      736B4861 
 6859      6E646C65 
 6859      00
 6860              	.LASF152:
 6861 14f5 43595F42 		.ascii	"CY_BLE_EVT_GAP_CREATE_CONN_CANCEL_COMPLETE\000"
 6861      4C455F45 
 6861      56545F47 
 6861      41505F43 
 6861      52454154 
 6862              	.LASF72:
 6863 1520 6D757853 		.ascii	"muxSwitch\000"
 6863      77697463 
 6863      6800
 6864              	.LASF294:
 6865 152a 70727654 		.ascii	"prvTimerTask\000"
 6865      696D6572 
 6865      5461736B 
 6865      00
ARM GAS  C:\Users\kateb\AppData\Local\Temp\ccjwfWYs.s 			page 158


 6866              	.LASF175:
 6867 1537 43595F42 		.ascii	"CY_BLE_EVT_GATTC_HANDLE_VALUE_IND\000"
 6867      4C455F45 
 6867      56545F47 
 6867      41545443 
 6867      5F48414E 
 6868              	.LASF156:
 6869 1559 43595F42 		.ascii	"CY_BLE_EVT_GATTC_ERROR_RSP\000"
 6869      4C455F45 
 6869      56545F47 
 6869      41545443 
 6869      5F455252 
 6870              	.LASF161:
 6871 1574 43595F42 		.ascii	"CY_BLE_EVT_GATTC_READ_BY_GROUP_TYPE_RSP\000"
 6871      4C455F45 
 6871      56545F47 
 6871      41545443 
 6871      5F524541 
 6872              	.LASF99:
 6873 159c 43595F42 		.ascii	"CY_BLE_EVT_ADD_DEVICE_TO_RPA_LIST_COMPLETE\000"
 6873      4C455F45 
 6873      56545F41 
 6873      44445F44 
 6873      45564943 
 6874              	.LASF338:
 6875 15c7 78546173 		.ascii	"xTaskResumeAll\000"
 6875      6B526573 
 6875      756D6541 
 6875      6C6C00
 6876              	.LASF168:
 6877 15d6 43595F42 		.ascii	"CY_BLE_EVT_GATTS_WRITE_REQ\000"
 6877      4C455F45 
 6877      56545F47 
 6877      41545453 
 6877      5F575249 
 6878              	.LASF122:
 6879 15f1 43595F42 		.ascii	"CY_BLE_EVT_STACK_SHUTDOWN_COMPLETE\000"
 6879      4C455F45 
 6879      56545F53 
 6879      5441434B 
 6879      5F534855 
 6880              	.LASF339:
 6881 1614 76517565 		.ascii	"vQueueWaitForMessageRestricted\000"
 6881      75655761 
 6881      6974466F 
 6881      724D6573 
 6881      73616765 
 6882              	.LASF154:
 6883 1633 43595F42 		.ascii	"CY_BLE_EVT_GAPP_UPDATE_ADV_SCAN_DATA_COMPLETE\000"
 6883      4C455F45 
 6883      56545F47 
 6883      4150505F 
 6883      55504441 
 6884              	.LASF182:
 6885 1661 43595F42 		.ascii	"CY_BLE_EVT_L2CAP_CONN_PARAM_UPDATE_RSP\000"
 6885      4C455F45 
 6885      56545F4C 
ARM GAS  C:\Users\kateb\AppData\Local\Temp\ccjwfWYs.s 			page 159


 6885      32434150 
 6885      5F434F4E 
 6886              	.LASF5:
 6887 1688 73686F72 		.ascii	"short int\000"
 6887      7420696E 
 6887      7400
 6888              	.LASF21:
 6889 1692 43595F52 		.ascii	"CY_RTC_DST_RELATIVE\000"
 6889      54435F44 
 6889      53545F52 
 6889      454C4154 
 6889      49564500 
 6890              	.LASF322:
 6891 16a6 4144435F 		.ascii	"ADC_allConfigs\000"
 6891      616C6C43 
 6891      6F6E6669 
 6891      677300
 6892              	.LASF329:
 6893 16b5 764C6973 		.ascii	"vListInitialiseItem\000"
 6893      74496E69 
 6893      7469616C 
 6893      69736549 
 6893      74656D00 
 6894              	.LASF137:
 6895 16c9 43595F42 		.ascii	"CY_BLE_EVT_GAP_DEVICE_DISCONNECTED\000"
 6895      4C455F45 
 6895      56545F47 
 6895      41505F44 
 6895      45564943 
 6896              	.LASF295:
 6897 16ec 70765061 		.ascii	"pvParameters\000"
 6897      72616D65 
 6897      74657273 
 6897      00
 6898              	.LASF228:
 6899 16f9 78497465 		.ascii	"xItemValue\000"
 6899      6D56616C 
 6899      756500
 6900              	.LASF293:
 6901 1704 70727650 		.ascii	"prvProcessReceivedCommands\000"
 6901      726F6365 
 6901      73735265 
 6901      63656976 
 6901      6564436F 
 6902              	.LASF264:
 6903 171f 784E6578 		.ascii	"xNextExpiryTime\000"
 6903      74457870 
 6903      69727954 
 6903      696D6500 
 6904              	.LASF288:
 6905 172f 784C6173 		.ascii	"xLastTime\000"
 6905      7454696D 
 6905      6500
 6906              	.LASF311:
 6907 1739 49544D5F 		.ascii	"ITM_RxBuffer\000"
 6907      52784275 
 6907      66666572 
ARM GAS  C:\Users\kateb\AppData\Local\Temp\ccjwfWYs.s 			page 160


 6907      00
 6908              	.LASF125:
 6909 1746 43595F42 		.ascii	"CY_BLE_EVT_AES_CMAC_GEN_COMPLETE\000"
 6909      4C455F45 
 6909      56545F41 
 6909      45535F43 
 6909      4D41435F 
 6910              	.LASF216:
 6911 1767 43595F42 		.ascii	"CY_BLE_SRVI_CTS\000"
 6911      4C455F53 
 6911      5256495F 
 6911      43545300 
 6912              	.LASF307:
 6913 1777 70784375 		.ascii	"pxCurrentTimerList\000"
 6913      7272656E 
 6913      7454696D 
 6913      65724C69 
 6913      737400
 6914              	.LASF327:
 6915 178a 76517565 		.ascii	"vQueueAddToRegistry\000"
 6915      75654164 
 6915      64546F52 
 6915      65676973 
 6915      74727900 
 6916              	.LASF148:
 6917 179e 43595F42 		.ascii	"CY_BLE_EVT_GAP_DEVICE_ADDR_GEN_COMPLETE\000"
 6917      4C455F45 
 6917      56545F47 
 6917      41505F44 
 6917      45564943 
 6918              	.LASF28:
 6919 17c6 6461794F 		.ascii	"dayOfWeek\000"
 6919      66576565 
 6919      6B00
 6920              	.LASF186:
 6921 17d0 43595F42 		.ascii	"CY_BLE_EVT_L2CAP_CBFC_DISCONN_IND\000"
 6921      4C455F45 
 6921      56545F4C 
 6921      32434150 
 6921      5F434246 
 6922              	.LASF281:
 6923 17f2 784D6573 		.ascii	"xMessage\000"
 6923      73616765 
 6923      00
 6924              	.LASF54:
 6925 17fb 74784C65 		.ascii	"txLeftToTransmit\000"
 6925      6674546F 
 6925      5472616E 
 6925      736D6974 
 6925      00
 6926              	.LASF340:
 6927 180c 76506F72 		.ascii	"vPortFree\000"
 6927      74467265 
 6927      6500
 6928              	.LASF172:
 6929 1816 43595F42 		.ascii	"CY_BLE_EVT_GATTS_EXEC_WRITE_REQ\000"
 6929      4C455F45 
ARM GAS  C:\Users\kateb\AppData\Local\Temp\ccjwfWYs.s 			page 161


 6929      56545F47 
 6929      41545453 
 6929      5F455845 
 6930              	.LASF85:
 6931 1836 43595F42 		.ascii	"CY_BLE_EVT_WRITE_AUTH_PAYLOAD_TO_COMPLETE\000"
 6931      4C455F45 
 6931      56545F57 
 6931      52495445 
 6931      5F415554 
 6932              	.LASF124:
 6933 1860 43595F42 		.ascii	"CY_BLE_EVT_RADIO_VOLTAGE_LEVEL\000"
 6933      4C455F45 
 6933      56545F52 
 6933      4144494F 
 6933      5F564F4C 
 6934              	.LASF276:
 6935 187f 7854696D 		.ascii	"xTimer\000"
 6935      657200
 6936              	.LASF249:
 6937 1886 75784175 		.ascii	"uxAutoReload\000"
 6937      746F5265 
 6937      6C6F6164 
 6937      00
 6938              	.LASF7:
 6939 1893 5F5F7569 		.ascii	"__uint8_t\000"
 6939      6E74385F 
 6939      7400
 6940              	.LASF253:
 6941 189d 54696D65 		.ascii	"Timer_t\000"
 6941      725F7400 
 6942              	.LASF312:
 6943 18a5 63795F52 		.ascii	"cy_RTC_daysInMonthTbl\000"
 6943      54435F64 
 6943      61797349 
 6943      6E4D6F6E 
 6943      74685462 
 6944              	.LASF260:
 6945 18bb 4461656D 		.ascii	"DaemonTaskMessage_t\000"
 6945      6F6E5461 
 6945      736B4D65 
 6945      73736167 
 6945      655F7400 
 6946              	.LASF91:
 6947 18cf 43595F42 		.ascii	"CY_BLE_EVT_SET_SUGGESTED_DATA_LENGTH_COMPLETE\000"
 6947      4C455F45 
 6947      56545F53 
 6947      45545F53 
 6947      55474745 
 6948              	.LASF283:
 6949 18fd 7852656C 		.ascii	"xReloadTime\000"
 6949      6F616454 
 6949      696D6500 
 6950              	.LASF118:
 6951 1909 43595F42 		.ascii	"CY_BLE_EVT_AES_ENCRYPT_COMPLETE\000"
 6951      4C455F45 
 6951      56545F41 
 6951      45535F45 
ARM GAS  C:\Users\kateb\AppData\Local\Temp\ccjwfWYs.s 			page 162


 6951      4E435259 
 6952              	.LASF113:
 6953 1929 43595F42 		.ascii	"CY_BLE_EVT_GET_TX_PWR_COMPLETE\000"
 6953      4C455F45 
 6953      56545F47 
 6953      45545F54 
 6953      585F5057 
 6954              	.LASF46:
 6955 1948 63795F73 		.ascii	"cy_stc_scb_spi_context\000"
 6955      74635F73 
 6955      63625F73 
 6955      70695F63 
 6955      6F6E7465 
 6956              	.LASF165:
 6957 195f 43595F42 		.ascii	"CY_BLE_EVT_GATTC_READ_RSP\000"
 6957      4C455F45 
 6957      56545F47 
 6957      41545443 
 6957      5F524541 
 6958              	.LASF64:
 6959 1979 73616D70 		.ascii	"sampleTime23\000"
 6959      6C655469 
 6959      6D653233 
 6959      00
 6960              	.LASF272:
 6961 1986 78526574 		.ascii	"xReturn\000"
 6961      75726E00 
 6962              	.LASF79:
 6963 198e 43595F42 		.ascii	"CY_BLE_EVT_TIMEOUT\000"
 6963      4C455F45 
 6963      56545F54 
 6963      494D454F 
 6963      555400
 6964              	.LASF215:
 6965 19a1 43595F42 		.ascii	"CY_BLE_SRVI_GATT\000"
 6965      4C455F53 
 6965      5256495F 
 6965      47415454 
 6965      00
 6966              	.LASF13:
 6967 19b2 73697A65 		.ascii	"sizetype\000"
 6967      74797065 
 6967      00
 6968              	.LASF11:
 6969 19bb 6C6F6E67 		.ascii	"long unsigned int\000"
 6969      20756E73 
 6969      69676E65 
 6969      6420696E 
 6969      7400
 6970              	.LASF346:
 6971 19cd 76506F72 		.ascii	"vPortRaiseBASEPRI\000"
 6971      74526169 
 6971      73654241 
 6971      53455052 
 6971      4900
 6972              	.LASF335:
 6973 19df 75784C69 		.ascii	"uxListRemove\000"
ARM GAS  C:\Users\kateb\AppData\Local\Temp\ccjwfWYs.s 			page 163


 6973      73745265 
 6973      6D6F7665 
 6973      00
 6974              	.LASF18:
 6975 19ec 666C6F61 		.ascii	"float\000"
 6975      7400
 6976              	.LASF16:
 6977 19f2 696E7433 		.ascii	"int32_t\000"
 6977      325F7400 
 6978              	.LASF123:
 6979 19fa 43595F42 		.ascii	"CY_BLE_EVT_RADIO_TEMPERATURE\000"
 6979      4C455F45 
 6979      56545F52 
 6979      4144494F 
 6979      5F54454D 
 6980              	.LASF132:
 6981 1a17 43595F42 		.ascii	"CY_BLE_EVT_GAP_PASSKEY_DISPLAY_REQUEST\000"
 6981      4C455F45 
 6981      56545F47 
 6981      41505F50 
 6981      4153534B 
 6982              	.LASF297:
 6983 1a3e 7854696D 		.ascii	"xTimerGetPeriod\000"
 6983      65724765 
 6983      74506572 
 6983      696F6400 
 6984              	.LASF256:
 6985 1a4e 70785469 		.ascii	"pxTimer\000"
 6985      6D657200 
 6986              	.LASF62:
 6987 1a56 73616D70 		.ascii	"sampleCtrl\000"
 6987      6C654374 
 6987      726C00
 6988              	.LASF4:
 6989 1a61 756E7369 		.ascii	"unsigned char\000"
 6989      676E6564 
 6989      20636861 
 6989      7200
 6990              	.LASF177:
 6991 1a6f 43595F42 		.ascii	"CY_BLE_EVT_GATTS_DATA_SIGNED_CMD_REQ\000"
 6991      4C455F45 
 6991      56545F47 
 6991      41545453 
 6991      5F444154 
 6992              	.LASF255:
 6993 1a94 784D6573 		.ascii	"xMessageValue\000"
 6993      73616765 
 6993      56616C75 
 6993      6500
 6994              	.LASF10:
 6995 1aa2 5F5F7569 		.ascii	"__uint32_t\000"
 6995      6E743332 
 6995      5F7400
 6996              	.LASF269:
 6997 1aad 70727643 		.ascii	"prvCheckForValidListAndQueue\000"
 6997      6865636B 
 6997      466F7256 
ARM GAS  C:\Users\kateb\AppData\Local\Temp\ccjwfWYs.s 			page 164


 6997      616C6964 
 6997      4C697374 
 6998              	.LASF325:
 6999 1aca 764C6973 		.ascii	"vListInitialise\000"
 6999      74496E69 
 6999      7469616C 
 6999      69736500 
 7000              	.LASF180:
 7001 1ada 43595F42 		.ascii	"CY_BLE_EVT_GATTC_LONG_PROCEDURE_END\000"
 7001      4C455F45 
 7001      56545F47 
 7001      41545443 
 7001      5F4C4F4E 
 7002              	.LASF102:
 7003 1afe 43595F42 		.ascii	"CY_BLE_EVT_REMOVE_DEVICE_FROM_WHITE_LIST_COMPLETE\000"
 7003      4C455F45 
 7003      56545F52 
 7003      454D4F56 
 7003      455F4445 
 7004              	.LASF92:
 7005 1b30 43595F42 		.ascii	"CY_BLE_EVT_GET_DATA_LENGTH_COMPLETE\000"
 7005      4C455F45 
 7005      56545F47 
 7005      45545F44 
 7005      4154415F 
 7006              	.LASF146:
 7007 1b54 43595F42 		.ascii	"CY_BLE_EVT_GAPC_DIRECT_ADV_REPORT\000"
 7007      4C455F45 
 7007      56545F47 
 7007      4150435F 
 7007      44495245 
 7008              	.LASF299:
 7009 1b76 70635469 		.ascii	"pcTimerGetName\000"
 7009      6D657247 
 7009      65744E61 
 7009      6D6500
 7010              	.LASF280:
 7011 1b85 78546963 		.ascii	"xTicksToWait\000"
 7011      6B73546F 
 7011      57616974 
 7011      00
 7012              	.LASF231:
 7013 1b92 70764F77 		.ascii	"pvOwner\000"
 7013      6E657200 
 7014              	.LASF285:
 7015 1b9a 78526573 		.ascii	"xResult\000"
 7015      756C7400 
 7016              	.LASF222:
 7017 1ba2 636C6B44 		.ascii	"clkDivider\000"
 7017      69766964 
 7017      657200
 7018              	.LASF158:
 7019 1bad 43595F42 		.ascii	"CY_BLE_EVT_GATT_DISCONNECT_IND\000"
 7019      4C455F45 
 7019      56545F47 
 7019      4154545F 
 7019      44495343 
ARM GAS  C:\Users\kateb\AppData\Local\Temp\ccjwfWYs.s 			page 165


 7020              	.LASF321:
 7021 1bcc 4144435F 		.ascii	"ADC_currentConfig\000"
 7021      63757272 
 7021      656E7443 
 7021      6F6E6669 
 7021      6700
 7022              	.LASF173:
 7023 1bde 43595F42 		.ascii	"CY_BLE_EVT_GATTC_EXEC_WRITE_RSP\000"
 7023      4C455F45 
 7023      56545F47 
 7023      41545443 
 7023      5F455845 
 7024              	.LASF290:
 7025 1bfe 70727650 		.ascii	"prvProcessTimerOrBlockTask\000"
 7025      726F6365 
 7025      73735469 
 7025      6D65724F 
 7025      72426C6F 
 7026              	.LASF159:
 7027 1c19 43595F42 		.ascii	"CY_BLE_EVT_GATTS_XCNHG_MTU_REQ\000"
 7027      4C455F45 
 7027      56545F47 
 7027      41545453 
 7027      5F58434E 
 7028              	.LASF344:
 7029 1c38 433A5C55 		.ascii	"C:\\Users\\kateb\\Documents\\PSoC Creator\\CE218136"
 7029      73657273 
 7029      5C6B6174 
 7029      65625C44 
 7029      6F63756D 
 7030 1c66 5F45494E 		.ascii	"_EINK_CapSense_RTOS02\\CE222604_RTC_CTS_RTOS01.cyds"
 7030      4B5F4361 
 7030      7053656E 
 7030      73655F52 
 7030      544F5330 
 7031 1c98 6E00     		.ascii	"n\000"
 7032              	.LASF178:
 7033 1c9a 43595F42 		.ascii	"CY_BLE_EVT_GATTC_STOP_CMD_COMPLETE\000"
 7033      4C455F45 
 7033      56545F47 
 7033      41545443 
 7033      5F53544F 
 7034              	.LASF248:
 7035 1cbd 7854696D 		.ascii	"xTimerPeriodInTicks\000"
 7035      65725065 
 7035      72696F64 
 7035      496E5469 
 7035      636B7300 
 7036              	.LASF131:
 7037 1cd1 43595F42 		.ascii	"CY_BLE_EVT_GAP_PASSKEY_ENTRY_REQUEST\000"
 7037      4C455F45 
 7037      56545F47 
 7037      41505F50 
 7037      4153534B 
 7038              	.LASF193:
 7039 1cf6 62644861 		.ascii	"bdHandle\000"
 7039      6E646C65 
ARM GAS  C:\Users\kateb\AppData\Local\Temp\ccjwfWYs.s 			page 166


 7039      00
 7040              	.LASF3:
 7041 1cff 7369676E 		.ascii	"signed char\000"
 7041      65642063 
 7041      68617200 
 7042              	.LASF6:
 7043 1d0b 73686F72 		.ascii	"short unsigned int\000"
 7043      7420756E 
 7043      7369676E 
 7043      65642069 
 7043      6E7400
 7044              	.LASF130:
 7045 1d1e 43595F42 		.ascii	"CY_BLE_EVT_GAP_AUTH_REQ\000"
 7045      4C455F45 
 7045      56545F47 
 7045      41505F41 
 7045      5554485F 
 7046              	.LASF170:
 7047 1d36 43595F42 		.ascii	"CY_BLE_EVT_GATTS_WRITE_CMD_REQ\000"
 7047      4C455F45 
 7047      56545F47 
 7047      41545453 
 7047      5F575249 
 7048              	.LASF115:
 7049 1d55 43595F42 		.ascii	"CY_BLE_EVT_GET_CLK_CONFIG_COMPLETE\000"
 7049      4C455F45 
 7049      56545F47 
 7049      45545F43 
 7049      4C4B5F43 
 7050              	.LASF221:
 7051 1d78 6D697363 		.ascii	"miscConfig\000"
 7051      436F6E66 
 7051      696700
 7052              	.LASF254:
 7053 1d83 746D7254 		.ascii	"tmrTimerParameters\000"
 7053      696D6572 
 7053      50617261 
 7053      6D657465 
 7053      727300
 7054              	.LASF181:
 7055 1d96 43595F42 		.ascii	"CY_BLE_EVT_L2CAP_CONN_PARAM_UPDATE_REQ\000"
 7055      4C455F45 
 7055      56545F4C 
 7055      32434150 
 7055      5F434F4E 
 7056              	.LASF74:
 7057 1dbd 636F6E66 		.ascii	"configRouting\000"
 7057      6967526F 
 7057      7574696E 
 7057      6700
 7058              	.LASF71:
 7059 1dcb 72616E67 		.ascii	"rangeIntrMask\000"
 7059      65496E74 
 7059      724D6173 
 7059      6B00
 7060              	.LASF60:
 7061 1dd9 63795F65 		.ascii	"cy_en_sar_range_detect_condition_t\000"
ARM GAS  C:\Users\kateb\AppData\Local\Temp\ccjwfWYs.s 			page 167


 7061      6E5F7361 
 7061      725F7261 
 7061      6E67655F 
 7061      64657465 
 7062              	.LASF83:
 7063 1dfc 43595F42 		.ascii	"CY_BLE_EVT_FLASH_CORRUPT\000"
 7063      4C455F45 
 7063      56545F46 
 7063      4C415348 
 7063      5F434F52 
 7064              	.LASF151:
 7065 1e15 43595F42 		.ascii	"CY_BLE_EVT_GAP_GEN_SET_LOCAL_P256_KEYS_COMPLETE\000"
 7065      4C455F45 
 7065      56545F47 
 7065      41505F47 
 7065      454E5F53 
 7066              	.LASF296:
 7067 1e45 7854696D 		.ascii	"xTimerGetTimerDaemonTaskHandle\000"
 7067      65724765 
 7067      7454696D 
 7067      65724461 
 7067      656D6F6E 
 7068              	.LASF331:
 7069 1e64 7076506F 		.ascii	"pvPortMalloc\000"
 7069      72744D61 
 7069      6C6C6F63 
 7069      00
 7070              	.LASF134:
 7071 1e71 43595F42 		.ascii	"CY_BLE_EVT_GAP_AUTH_FAILED\000"
 7071      4C455F45 
 7071      56545F47 
 7071      41505F41 
 7071      5554485F 
 7072              	.LASF106:
 7073 1e8c 43595F42 		.ascii	"CY_BLE_EVT_PHY_UPDATE_COMPLETE\000"
 7073      4C455F45 
 7073      56545F50 
 7073      48595F55 
 7073      50444154 
 7074              	.LASF235:
 7075 1eab 4D696E69 		.ascii	"MiniListItem_t\000"
 7075      4C697374 
 7075      4974656D 
 7075      5F7400
 7076              	.LASF204:
 7077 1eba 43595F42 		.ascii	"CY_BLE_CONN_STATE_CLIENT_SRVC_DISCOVERING\000"
 7077      4C455F43 
 7077      4F4E4E5F 
 7077      53544154 
 7077      455F434C 
 7078              	.LASF69:
 7079 1ee4 696E7472 		.ascii	"intrMask\000"
 7079      4D61736B 
 7079      00
 7080              	.LASF37:
 7081 1eed 72784275 		.ascii	"rxBufSize\000"
 7081      6653697A 
ARM GAS  C:\Users\kateb\AppData\Local\Temp\ccjwfWYs.s 			page 168


 7081      6500
 7082              	.LASF316:
 7083 1ef7 63795F62 		.ascii	"cy_ble_pendingFlashWrite\000"
 7083      6C655F70 
 7083      656E6469 
 7083      6E67466C 
 7083      61736857 
 7084              	.LASF261:
 7085 1f10 70727647 		.ascii	"prvGetNextExpireTime\000"
 7085      65744E65 
 7085      78744578 
 7085      70697265 
 7085      54696D65 
 7086              	.LASF139:
 7087 1f25 43595F42 		.ascii	"CY_BLE_EVT_GAP_CONNECTION_UPDATE_COMPLETE\000"
 7087      4C455F45 
 7087      56545F47 
 7087      41505F43 
 7087      4F4E4E45 
 7088              	.LASF291:
 7089 1f4f 784C6973 		.ascii	"xListWasEmpty\000"
 7089      74576173 
 7089      456D7074 
 7089      7900
 7090              		.ident	"GCC: (GNU Tools for ARM Embedded Processors) 5.4.1 20160609 (release) [ARM/embedded-5-bran
